
Grid4CHIL_IOplus_G474RE.elf:     file format elf32-littlearm

Sections:
Idx Name          Size      VMA       LMA       File off  Algn
  0 .isr_vector   000001d8  08000000  08000000  00001000  2**0
                  CONTENTS, ALLOC, LOAD, READONLY, DATA
  1 .text         0000f69c  080001d8  080001d8  000011d8  2**3
                  CONTENTS, ALLOC, LOAD, READONLY, CODE
  2 .rodata       00000450  0800f874  0800f874  00010874  2**2
                  CONTENTS, ALLOC, LOAD, READONLY, DATA
  3 .ARM.extab    00000000  0800fcc4  0800fcc4  00011060  2**0
                  CONTENTS, READONLY
  4 .ARM          00000008  0800fcc4  0800fcc4  00010cc4  2**2
                  CONTENTS, ALLOC, LOAD, READONLY, DATA
  5 .preinit_array 00000000  0800fccc  0800fccc  00011060  2**0
                  CONTENTS, ALLOC, LOAD, DATA
  6 .init_array   00000004  0800fccc  0800fccc  00010ccc  2**2
                  CONTENTS, ALLOC, LOAD, READONLY, DATA
  7 .fini_array   00000004  0800fcd0  0800fcd0  00010cd0  2**2
                  CONTENTS, ALLOC, LOAD, READONLY, DATA
  8 .data         00000060  20000000  0800fcd4  00011000  2**2
                  CONTENTS, ALLOC, LOAD, DATA
  9 .bss          0000059c  20000060  0800fd34  00011060  2**3
                  ALLOC
 10 ._user_heap_stack 00000604  200005fc  0800fd34  000115fc  2**0
                  ALLOC
 11 .ARM.attributes 00000030  00000000  00000000  00011060  2**0
                  CONTENTS, READONLY
 12 .comment      00000043  00000000  00000000  00011090  2**0
                  CONTENTS, READONLY
 13 .debug_frame  00000444  00000000  00000000  000110d4  2**2
                  CONTENTS, READONLY, DEBUGGING, OCTETS

Disassembly of section .text:

080001d8 <__do_global_dtors_aux>:
 80001d8:	b510      	push	{r4, lr}
 80001da:	4c05      	ldr	r4, [pc, #20]	@ (80001f0 <__do_global_dtors_aux+0x18>)
 80001dc:	7823      	ldrb	r3, [r4, #0]
 80001de:	b933      	cbnz	r3, 80001ee <__do_global_dtors_aux+0x16>
 80001e0:	4b04      	ldr	r3, [pc, #16]	@ (80001f4 <__do_global_dtors_aux+0x1c>)
 80001e2:	b113      	cbz	r3, 80001ea <__do_global_dtors_aux+0x12>
 80001e4:	4804      	ldr	r0, [pc, #16]	@ (80001f8 <__do_global_dtors_aux+0x20>)
 80001e6:	f3af 8000 	nop.w
 80001ea:	2301      	movs	r3, #1
 80001ec:	7023      	strb	r3, [r4, #0]
 80001ee:	bd10      	pop	{r4, pc}
 80001f0:	20000060 	.word	0x20000060
 80001f4:	00000000 	.word	0x00000000
 80001f8:	0800f85c 	.word	0x0800f85c

080001fc <frame_dummy>:
 80001fc:	b508      	push	{r3, lr}
 80001fe:	4b03      	ldr	r3, [pc, #12]	@ (800020c <frame_dummy+0x10>)
 8000200:	b11b      	cbz	r3, 800020a <frame_dummy+0xe>
 8000202:	4903      	ldr	r1, [pc, #12]	@ (8000210 <frame_dummy+0x14>)
 8000204:	4803      	ldr	r0, [pc, #12]	@ (8000214 <frame_dummy+0x18>)
 8000206:	f3af 8000 	nop.w
 800020a:	bd08      	pop	{r3, pc}
 800020c:	00000000 	.word	0x00000000
 8000210:	20000064 	.word	0x20000064
 8000214:	0800f85c 	.word	0x0800f85c

08000218 <__aeabi_drsub>:
 8000218:	f081 4100 	eor.w	r1, r1, #2147483648	@ 0x80000000
 800021c:	e002      	b.n	8000224 <__adddf3>
 800021e:	bf00      	nop

08000220 <__aeabi_dsub>:
 8000220:	f083 4300 	eor.w	r3, r3, #2147483648	@ 0x80000000

08000224 <__adddf3>:
 8000224:	b530      	push	{r4, r5, lr}
 8000226:	ea4f 0441 	mov.w	r4, r1, lsl #1
 800022a:	ea4f 0543 	mov.w	r5, r3, lsl #1
 800022e:	ea94 0f05 	teq	r4, r5
 8000232:	bf08      	it	eq
 8000234:	ea90 0f02 	teqeq	r0, r2
 8000238:	bf1f      	itttt	ne
 800023a:	ea54 0c00 	orrsne.w	ip, r4, r0
 800023e:	ea55 0c02 	orrsne.w	ip, r5, r2
 8000242:	ea7f 5c64 	mvnsne.w	ip, r4, asr #21
 8000246:	ea7f 5c65 	mvnsne.w	ip, r5, asr #21
 800024a:	f000 80e2 	beq.w	8000412 <__adddf3+0x1ee>
 800024e:	ea4f 5454 	mov.w	r4, r4, lsr #21
 8000252:	ebd4 5555 	rsbs	r5, r4, r5, lsr #21
 8000256:	bfb8      	it	lt
 8000258:	426d      	neglt	r5, r5
 800025a:	dd0c      	ble.n	8000276 <__adddf3+0x52>
 800025c:	442c      	add	r4, r5
 800025e:	ea80 0202 	eor.w	r2, r0, r2
 8000262:	ea81 0303 	eor.w	r3, r1, r3
 8000266:	ea82 0000 	eor.w	r0, r2, r0
 800026a:	ea83 0101 	eor.w	r1, r3, r1
 800026e:	ea80 0202 	eor.w	r2, r0, r2
 8000272:	ea81 0303 	eor.w	r3, r1, r3
 8000276:	2d36      	cmp	r5, #54	@ 0x36
 8000278:	bf88      	it	hi
 800027a:	bd30      	pophi	{r4, r5, pc}
 800027c:	f011 4f00 	tst.w	r1, #2147483648	@ 0x80000000
 8000280:	ea4f 3101 	mov.w	r1, r1, lsl #12
 8000284:	f44f 1c80 	mov.w	ip, #1048576	@ 0x100000
 8000288:	ea4c 3111 	orr.w	r1, ip, r1, lsr #12
 800028c:	d002      	beq.n	8000294 <__adddf3+0x70>
 800028e:	4240      	negs	r0, r0
 8000290:	eb61 0141 	sbc.w	r1, r1, r1, lsl #1
 8000294:	f013 4f00 	tst.w	r3, #2147483648	@ 0x80000000
 8000298:	ea4f 3303 	mov.w	r3, r3, lsl #12
 800029c:	ea4c 3313 	orr.w	r3, ip, r3, lsr #12
 80002a0:	d002      	beq.n	80002a8 <__adddf3+0x84>
 80002a2:	4252      	negs	r2, r2
 80002a4:	eb63 0343 	sbc.w	r3, r3, r3, lsl #1
 80002a8:	ea94 0f05 	teq	r4, r5
 80002ac:	f000 80a7 	beq.w	80003fe <__adddf3+0x1da>
 80002b0:	f1a4 0401 	sub.w	r4, r4, #1
 80002b4:	f1d5 0e20 	rsbs	lr, r5, #32
 80002b8:	db0d      	blt.n	80002d6 <__adddf3+0xb2>
 80002ba:	fa02 fc0e 	lsl.w	ip, r2, lr
 80002be:	fa22 f205 	lsr.w	r2, r2, r5
 80002c2:	1880      	adds	r0, r0, r2
 80002c4:	f141 0100 	adc.w	r1, r1, #0
 80002c8:	fa03 f20e 	lsl.w	r2, r3, lr
 80002cc:	1880      	adds	r0, r0, r2
 80002ce:	fa43 f305 	asr.w	r3, r3, r5
 80002d2:	4159      	adcs	r1, r3
 80002d4:	e00e      	b.n	80002f4 <__adddf3+0xd0>
 80002d6:	f1a5 0520 	sub.w	r5, r5, #32
 80002da:	f10e 0e20 	add.w	lr, lr, #32
 80002de:	2a01      	cmp	r2, #1
 80002e0:	fa03 fc0e 	lsl.w	ip, r3, lr
 80002e4:	bf28      	it	cs
 80002e6:	f04c 0c02 	orrcs.w	ip, ip, #2
 80002ea:	fa43 f305 	asr.w	r3, r3, r5
 80002ee:	18c0      	adds	r0, r0, r3
 80002f0:	eb51 71e3 	adcs.w	r1, r1, r3, asr #31
 80002f4:	f001 4500 	and.w	r5, r1, #2147483648	@ 0x80000000
 80002f8:	d507      	bpl.n	800030a <__adddf3+0xe6>
 80002fa:	f04f 0e00 	mov.w	lr, #0
 80002fe:	f1dc 0c00 	rsbs	ip, ip, #0
 8000302:	eb7e 0000 	sbcs.w	r0, lr, r0
 8000306:	eb6e 0101 	sbc.w	r1, lr, r1
 800030a:	f5b1 1f80 	cmp.w	r1, #1048576	@ 0x100000
 800030e:	d31b      	bcc.n	8000348 <__adddf3+0x124>
 8000310:	f5b1 1f00 	cmp.w	r1, #2097152	@ 0x200000
 8000314:	d30c      	bcc.n	8000330 <__adddf3+0x10c>
 8000316:	0849      	lsrs	r1, r1, #1
 8000318:	ea5f 0030 	movs.w	r0, r0, rrx
 800031c:	ea4f 0c3c 	mov.w	ip, ip, rrx
 8000320:	f104 0401 	add.w	r4, r4, #1
 8000324:	ea4f 5244 	mov.w	r2, r4, lsl #21
 8000328:	f512 0f80 	cmn.w	r2, #4194304	@ 0x400000
 800032c:	f080 809a 	bcs.w	8000464 <__adddf3+0x240>
 8000330:	f1bc 4f00 	cmp.w	ip, #2147483648	@ 0x80000000
 8000334:	bf08      	it	eq
 8000336:	ea5f 0c50 	movseq.w	ip, r0, lsr #1
 800033a:	f150 0000 	adcs.w	r0, r0, #0
 800033e:	eb41 5104 	adc.w	r1, r1, r4, lsl #20
 8000342:	ea41 0105 	orr.w	r1, r1, r5
 8000346:	bd30      	pop	{r4, r5, pc}
 8000348:	ea5f 0c4c 	movs.w	ip, ip, lsl #1
 800034c:	4140      	adcs	r0, r0
 800034e:	eb41 0101 	adc.w	r1, r1, r1
 8000352:	3c01      	subs	r4, #1
 8000354:	bf28      	it	cs
 8000356:	f5b1 1f80 	cmpcs.w	r1, #1048576	@ 0x100000
 800035a:	d2e9      	bcs.n	8000330 <__adddf3+0x10c>
 800035c:	f091 0f00 	teq	r1, #0
 8000360:	bf04      	itt	eq
 8000362:	4601      	moveq	r1, r0
 8000364:	2000      	moveq	r0, #0
 8000366:	fab1 f381 	clz	r3, r1
 800036a:	bf08      	it	eq
 800036c:	3320      	addeq	r3, #32
 800036e:	f1a3 030b 	sub.w	r3, r3, #11
 8000372:	f1b3 0220 	subs.w	r2, r3, #32
 8000376:	da0c      	bge.n	8000392 <__adddf3+0x16e>
 8000378:	320c      	adds	r2, #12
 800037a:	dd08      	ble.n	800038e <__adddf3+0x16a>
 800037c:	f102 0c14 	add.w	ip, r2, #20
 8000380:	f1c2 020c 	rsb	r2, r2, #12
 8000384:	fa01 f00c 	lsl.w	r0, r1, ip
 8000388:	fa21 f102 	lsr.w	r1, r1, r2
 800038c:	e00c      	b.n	80003a8 <__adddf3+0x184>
 800038e:	f102 0214 	add.w	r2, r2, #20
 8000392:	bfd8      	it	le
 8000394:	f1c2 0c20 	rsble	ip, r2, #32
 8000398:	fa01 f102 	lsl.w	r1, r1, r2
 800039c:	fa20 fc0c 	lsr.w	ip, r0, ip
 80003a0:	bfdc      	itt	le
 80003a2:	ea41 010c 	orrle.w	r1, r1, ip
 80003a6:	4090      	lslle	r0, r2
 80003a8:	1ae4      	subs	r4, r4, r3
 80003aa:	bfa2      	ittt	ge
 80003ac:	eb01 5104 	addge.w	r1, r1, r4, lsl #20
 80003b0:	4329      	orrge	r1, r5
 80003b2:	bd30      	popge	{r4, r5, pc}
 80003b4:	ea6f 0404 	mvn.w	r4, r4
 80003b8:	3c1f      	subs	r4, #31
 80003ba:	da1c      	bge.n	80003f6 <__adddf3+0x1d2>
 80003bc:	340c      	adds	r4, #12
 80003be:	dc0e      	bgt.n	80003de <__adddf3+0x1ba>
 80003c0:	f104 0414 	add.w	r4, r4, #20
 80003c4:	f1c4 0220 	rsb	r2, r4, #32
 80003c8:	fa20 f004 	lsr.w	r0, r0, r4
 80003cc:	fa01 f302 	lsl.w	r3, r1, r2
 80003d0:	ea40 0003 	orr.w	r0, r0, r3
 80003d4:	fa21 f304 	lsr.w	r3, r1, r4
 80003d8:	ea45 0103 	orr.w	r1, r5, r3
 80003dc:	bd30      	pop	{r4, r5, pc}
 80003de:	f1c4 040c 	rsb	r4, r4, #12
 80003e2:	f1c4 0220 	rsb	r2, r4, #32
 80003e6:	fa20 f002 	lsr.w	r0, r0, r2
 80003ea:	fa01 f304 	lsl.w	r3, r1, r4
 80003ee:	ea40 0003 	orr.w	r0, r0, r3
 80003f2:	4629      	mov	r1, r5
 80003f4:	bd30      	pop	{r4, r5, pc}
 80003f6:	fa21 f004 	lsr.w	r0, r1, r4
 80003fa:	4629      	mov	r1, r5
 80003fc:	bd30      	pop	{r4, r5, pc}
 80003fe:	f094 0f00 	teq	r4, #0
 8000402:	f483 1380 	eor.w	r3, r3, #1048576	@ 0x100000
 8000406:	bf06      	itte	eq
 8000408:	f481 1180 	eoreq.w	r1, r1, #1048576	@ 0x100000
 800040c:	3401      	addeq	r4, #1
 800040e:	3d01      	subne	r5, #1
 8000410:	e74e      	b.n	80002b0 <__adddf3+0x8c>
 8000412:	ea7f 5c64 	mvns.w	ip, r4, asr #21
 8000416:	bf18      	it	ne
 8000418:	ea7f 5c65 	mvnsne.w	ip, r5, asr #21
 800041c:	d029      	beq.n	8000472 <__adddf3+0x24e>
 800041e:	ea94 0f05 	teq	r4, r5
 8000422:	bf08      	it	eq
 8000424:	ea90 0f02 	teqeq	r0, r2
 8000428:	d005      	beq.n	8000436 <__adddf3+0x212>
 800042a:	ea54 0c00 	orrs.w	ip, r4, r0
 800042e:	bf04      	itt	eq
 8000430:	4619      	moveq	r1, r3
 8000432:	4610      	moveq	r0, r2
 8000434:	bd30      	pop	{r4, r5, pc}
 8000436:	ea91 0f03 	teq	r1, r3
 800043a:	bf1e      	ittt	ne
 800043c:	2100      	movne	r1, #0
 800043e:	2000      	movne	r0, #0
 8000440:	bd30      	popne	{r4, r5, pc}
 8000442:	ea5f 5c54 	movs.w	ip, r4, lsr #21
 8000446:	d105      	bne.n	8000454 <__adddf3+0x230>
 8000448:	0040      	lsls	r0, r0, #1
 800044a:	4149      	adcs	r1, r1
 800044c:	bf28      	it	cs
 800044e:	f041 4100 	orrcs.w	r1, r1, #2147483648	@ 0x80000000
 8000452:	bd30      	pop	{r4, r5, pc}
 8000454:	f514 0480 	adds.w	r4, r4, #4194304	@ 0x400000
 8000458:	bf3c      	itt	cc
 800045a:	f501 1180 	addcc.w	r1, r1, #1048576	@ 0x100000
 800045e:	bd30      	popcc	{r4, r5, pc}
 8000460:	f001 4500 	and.w	r5, r1, #2147483648	@ 0x80000000
 8000464:	f045 41fe 	orr.w	r1, r5, #2130706432	@ 0x7f000000
 8000468:	f441 0170 	orr.w	r1, r1, #15728640	@ 0xf00000
 800046c:	f04f 0000 	mov.w	r0, #0
 8000470:	bd30      	pop	{r4, r5, pc}
 8000472:	ea7f 5c64 	mvns.w	ip, r4, asr #21
 8000476:	bf1a      	itte	ne
 8000478:	4619      	movne	r1, r3
 800047a:	4610      	movne	r0, r2
 800047c:	ea7f 5c65 	mvnseq.w	ip, r5, asr #21
 8000480:	bf1c      	itt	ne
 8000482:	460b      	movne	r3, r1
 8000484:	4602      	movne	r2, r0
 8000486:	ea50 3401 	orrs.w	r4, r0, r1, lsl #12
 800048a:	bf06      	itte	eq
 800048c:	ea52 3503 	orrseq.w	r5, r2, r3, lsl #12
 8000490:	ea91 0f03 	teqeq	r1, r3
 8000494:	f441 2100 	orrne.w	r1, r1, #524288	@ 0x80000
 8000498:	bd30      	pop	{r4, r5, pc}
 800049a:	bf00      	nop

0800049c <__aeabi_ui2d>:
 800049c:	f090 0f00 	teq	r0, #0
 80004a0:	bf04      	itt	eq
 80004a2:	2100      	moveq	r1, #0
 80004a4:	4770      	bxeq	lr
 80004a6:	b530      	push	{r4, r5, lr}
 80004a8:	f44f 6480 	mov.w	r4, #1024	@ 0x400
 80004ac:	f104 0432 	add.w	r4, r4, #50	@ 0x32
 80004b0:	f04f 0500 	mov.w	r5, #0
 80004b4:	f04f 0100 	mov.w	r1, #0
 80004b8:	e750      	b.n	800035c <__adddf3+0x138>
 80004ba:	bf00      	nop

080004bc <__aeabi_i2d>:
 80004bc:	f090 0f00 	teq	r0, #0
 80004c0:	bf04      	itt	eq
 80004c2:	2100      	moveq	r1, #0
 80004c4:	4770      	bxeq	lr
 80004c6:	b530      	push	{r4, r5, lr}
 80004c8:	f44f 6480 	mov.w	r4, #1024	@ 0x400
 80004cc:	f104 0432 	add.w	r4, r4, #50	@ 0x32
 80004d0:	f010 4500 	ands.w	r5, r0, #2147483648	@ 0x80000000
 80004d4:	bf48      	it	mi
 80004d6:	4240      	negmi	r0, r0
 80004d8:	f04f 0100 	mov.w	r1, #0
 80004dc:	e73e      	b.n	800035c <__adddf3+0x138>
 80004de:	bf00      	nop

080004e0 <__aeabi_f2d>:
 80004e0:	0042      	lsls	r2, r0, #1
 80004e2:	ea4f 01e2 	mov.w	r1, r2, asr #3
 80004e6:	ea4f 0131 	mov.w	r1, r1, rrx
 80004ea:	ea4f 7002 	mov.w	r0, r2, lsl #28
 80004ee:	bf1f      	itttt	ne
 80004f0:	f012 437f 	andsne.w	r3, r2, #4278190080	@ 0xff000000
 80004f4:	f093 4f7f 	teqne	r3, #4278190080	@ 0xff000000
 80004f8:	f081 5160 	eorne.w	r1, r1, #939524096	@ 0x38000000
 80004fc:	4770      	bxne	lr
 80004fe:	f032 427f 	bics.w	r2, r2, #4278190080	@ 0xff000000
 8000502:	bf08      	it	eq
 8000504:	4770      	bxeq	lr
 8000506:	f093 4f7f 	teq	r3, #4278190080	@ 0xff000000
 800050a:	bf04      	itt	eq
 800050c:	f441 2100 	orreq.w	r1, r1, #524288	@ 0x80000
 8000510:	4770      	bxeq	lr
 8000512:	b530      	push	{r4, r5, lr}
 8000514:	f44f 7460 	mov.w	r4, #896	@ 0x380
 8000518:	f001 4500 	and.w	r5, r1, #2147483648	@ 0x80000000
 800051c:	f021 4100 	bic.w	r1, r1, #2147483648	@ 0x80000000
 8000520:	e71c      	b.n	800035c <__adddf3+0x138>
 8000522:	bf00      	nop

08000524 <__aeabi_ul2d>:
 8000524:	ea50 0201 	orrs.w	r2, r0, r1
 8000528:	bf08      	it	eq
 800052a:	4770      	bxeq	lr
 800052c:	b530      	push	{r4, r5, lr}
 800052e:	f04f 0500 	mov.w	r5, #0
 8000532:	e00a      	b.n	800054a <__aeabi_l2d+0x16>

08000534 <__aeabi_l2d>:
 8000534:	ea50 0201 	orrs.w	r2, r0, r1
 8000538:	bf08      	it	eq
 800053a:	4770      	bxeq	lr
 800053c:	b530      	push	{r4, r5, lr}
 800053e:	f011 4500 	ands.w	r5, r1, #2147483648	@ 0x80000000
 8000542:	d502      	bpl.n	800054a <__aeabi_l2d+0x16>
 8000544:	4240      	negs	r0, r0
 8000546:	eb61 0141 	sbc.w	r1, r1, r1, lsl #1
 800054a:	f44f 6480 	mov.w	r4, #1024	@ 0x400
 800054e:	f104 0432 	add.w	r4, r4, #50	@ 0x32
 8000552:	ea5f 5c91 	movs.w	ip, r1, lsr #22
 8000556:	f43f aed8 	beq.w	800030a <__adddf3+0xe6>
 800055a:	f04f 0203 	mov.w	r2, #3
 800055e:	ea5f 0cdc 	movs.w	ip, ip, lsr #3
 8000562:	bf18      	it	ne
 8000564:	3203      	addne	r2, #3
 8000566:	ea5f 0cdc 	movs.w	ip, ip, lsr #3
 800056a:	bf18      	it	ne
 800056c:	3203      	addne	r2, #3
 800056e:	eb02 02dc 	add.w	r2, r2, ip, lsr #3
 8000572:	f1c2 0320 	rsb	r3, r2, #32
 8000576:	fa00 fc03 	lsl.w	ip, r0, r3
 800057a:	fa20 f002 	lsr.w	r0, r0, r2
 800057e:	fa01 fe03 	lsl.w	lr, r1, r3
 8000582:	ea40 000e 	orr.w	r0, r0, lr
 8000586:	fa21 f102 	lsr.w	r1, r1, r2
 800058a:	4414      	add	r4, r2
 800058c:	e6bd      	b.n	800030a <__adddf3+0xe6>
 800058e:	bf00      	nop

08000590 <__aeabi_dmul>:
 8000590:	b570      	push	{r4, r5, r6, lr}
 8000592:	f04f 0cff 	mov.w	ip, #255	@ 0xff
 8000596:	f44c 6ce0 	orr.w	ip, ip, #1792	@ 0x700
 800059a:	ea1c 5411 	ands.w	r4, ip, r1, lsr #20
 800059e:	bf1d      	ittte	ne
 80005a0:	ea1c 5513 	andsne.w	r5, ip, r3, lsr #20
 80005a4:	ea94 0f0c 	teqne	r4, ip
 80005a8:	ea95 0f0c 	teqne	r5, ip
 80005ac:	f000 f8de 	bleq	800076c <__aeabi_dmul+0x1dc>
 80005b0:	442c      	add	r4, r5
 80005b2:	ea81 0603 	eor.w	r6, r1, r3
 80005b6:	ea21 514c 	bic.w	r1, r1, ip, lsl #21
 80005ba:	ea23 534c 	bic.w	r3, r3, ip, lsl #21
 80005be:	ea50 3501 	orrs.w	r5, r0, r1, lsl #12
 80005c2:	bf18      	it	ne
 80005c4:	ea52 3503 	orrsne.w	r5, r2, r3, lsl #12
 80005c8:	f441 1180 	orr.w	r1, r1, #1048576	@ 0x100000
 80005cc:	f443 1380 	orr.w	r3, r3, #1048576	@ 0x100000
 80005d0:	d038      	beq.n	8000644 <__aeabi_dmul+0xb4>
 80005d2:	fba0 ce02 	umull	ip, lr, r0, r2
 80005d6:	f04f 0500 	mov.w	r5, #0
 80005da:	fbe1 e502 	umlal	lr, r5, r1, r2
 80005de:	f006 4200 	and.w	r2, r6, #2147483648	@ 0x80000000
 80005e2:	fbe0 e503 	umlal	lr, r5, r0, r3
 80005e6:	f04f 0600 	mov.w	r6, #0
 80005ea:	fbe1 5603 	umlal	r5, r6, r1, r3
 80005ee:	f09c 0f00 	teq	ip, #0
 80005f2:	bf18      	it	ne
 80005f4:	f04e 0e01 	orrne.w	lr, lr, #1
 80005f8:	f1a4 04ff 	sub.w	r4, r4, #255	@ 0xff
 80005fc:	f5b6 7f00 	cmp.w	r6, #512	@ 0x200
 8000600:	f564 7440 	sbc.w	r4, r4, #768	@ 0x300
 8000604:	d204      	bcs.n	8000610 <__aeabi_dmul+0x80>
 8000606:	ea5f 0e4e 	movs.w	lr, lr, lsl #1
 800060a:	416d      	adcs	r5, r5
 800060c:	eb46 0606 	adc.w	r6, r6, r6
 8000610:	ea42 21c6 	orr.w	r1, r2, r6, lsl #11
 8000614:	ea41 5155 	orr.w	r1, r1, r5, lsr #21
 8000618:	ea4f 20c5 	mov.w	r0, r5, lsl #11
 800061c:	ea40 505e 	orr.w	r0, r0, lr, lsr #21
 8000620:	ea4f 2ece 	mov.w	lr, lr, lsl #11
 8000624:	f1b4 0cfd 	subs.w	ip, r4, #253	@ 0xfd
 8000628:	bf88      	it	hi
 800062a:	f5bc 6fe0 	cmphi.w	ip, #1792	@ 0x700
 800062e:	d81e      	bhi.n	800066e <__aeabi_dmul+0xde>
 8000630:	f1be 4f00 	cmp.w	lr, #2147483648	@ 0x80000000
 8000634:	bf08      	it	eq
 8000636:	ea5f 0e50 	movseq.w	lr, r0, lsr #1
 800063a:	f150 0000 	adcs.w	r0, r0, #0
 800063e:	eb41 5104 	adc.w	r1, r1, r4, lsl #20
 8000642:	bd70      	pop	{r4, r5, r6, pc}
 8000644:	f006 4600 	and.w	r6, r6, #2147483648	@ 0x80000000
 8000648:	ea46 0101 	orr.w	r1, r6, r1
 800064c:	ea40 0002 	orr.w	r0, r0, r2
 8000650:	ea81 0103 	eor.w	r1, r1, r3
 8000654:	ebb4 045c 	subs.w	r4, r4, ip, lsr #1
 8000658:	bfc2      	ittt	gt
 800065a:	ebd4 050c 	rsbsgt	r5, r4, ip
 800065e:	ea41 5104 	orrgt.w	r1, r1, r4, lsl #20
 8000662:	bd70      	popgt	{r4, r5, r6, pc}
 8000664:	f441 1180 	orr.w	r1, r1, #1048576	@ 0x100000
 8000668:	f04f 0e00 	mov.w	lr, #0
 800066c:	3c01      	subs	r4, #1
 800066e:	f300 80ab 	bgt.w	80007c8 <__aeabi_dmul+0x238>
 8000672:	f114 0f36 	cmn.w	r4, #54	@ 0x36
 8000676:	bfde      	ittt	le
 8000678:	2000      	movle	r0, #0
 800067a:	f001 4100 	andle.w	r1, r1, #2147483648	@ 0x80000000
 800067e:	bd70      	pople	{r4, r5, r6, pc}
 8000680:	f1c4 0400 	rsb	r4, r4, #0
 8000684:	3c20      	subs	r4, #32
 8000686:	da35      	bge.n	80006f4 <__aeabi_dmul+0x164>
 8000688:	340c      	adds	r4, #12
 800068a:	dc1b      	bgt.n	80006c4 <__aeabi_dmul+0x134>
 800068c:	f104 0414 	add.w	r4, r4, #20
 8000690:	f1c4 0520 	rsb	r5, r4, #32
 8000694:	fa00 f305 	lsl.w	r3, r0, r5
 8000698:	fa20 f004 	lsr.w	r0, r0, r4
 800069c:	fa01 f205 	lsl.w	r2, r1, r5
 80006a0:	ea40 0002 	orr.w	r0, r0, r2
 80006a4:	f001 4200 	and.w	r2, r1, #2147483648	@ 0x80000000
 80006a8:	f021 4100 	bic.w	r1, r1, #2147483648	@ 0x80000000
 80006ac:	eb10 70d3 	adds.w	r0, r0, r3, lsr #31
 80006b0:	fa21 f604 	lsr.w	r6, r1, r4
 80006b4:	eb42 0106 	adc.w	r1, r2, r6
 80006b8:	ea5e 0e43 	orrs.w	lr, lr, r3, lsl #1
 80006bc:	bf08      	it	eq
 80006be:	ea20 70d3 	biceq.w	r0, r0, r3, lsr #31
 80006c2:	bd70      	pop	{r4, r5, r6, pc}
 80006c4:	f1c4 040c 	rsb	r4, r4, #12
 80006c8:	f1c4 0520 	rsb	r5, r4, #32
 80006cc:	fa00 f304 	lsl.w	r3, r0, r4
 80006d0:	fa20 f005 	lsr.w	r0, r0, r5
 80006d4:	fa01 f204 	lsl.w	r2, r1, r4
 80006d8:	ea40 0002 	orr.w	r0, r0, r2
 80006dc:	f001 4100 	and.w	r1, r1, #2147483648	@ 0x80000000
 80006e0:	eb10 70d3 	adds.w	r0, r0, r3, lsr #31
 80006e4:	f141 0100 	adc.w	r1, r1, #0
 80006e8:	ea5e 0e43 	orrs.w	lr, lr, r3, lsl #1
 80006ec:	bf08      	it	eq
 80006ee:	ea20 70d3 	biceq.w	r0, r0, r3, lsr #31
 80006f2:	bd70      	pop	{r4, r5, r6, pc}
 80006f4:	f1c4 0520 	rsb	r5, r4, #32
 80006f8:	fa00 f205 	lsl.w	r2, r0, r5
 80006fc:	ea4e 0e02 	orr.w	lr, lr, r2
 8000700:	fa20 f304 	lsr.w	r3, r0, r4
 8000704:	fa01 f205 	lsl.w	r2, r1, r5
 8000708:	ea43 0302 	orr.w	r3, r3, r2
 800070c:	fa21 f004 	lsr.w	r0, r1, r4
 8000710:	f001 4100 	and.w	r1, r1, #2147483648	@ 0x80000000
 8000714:	fa21 f204 	lsr.w	r2, r1, r4
 8000718:	ea20 0002 	bic.w	r0, r0, r2
 800071c:	eb00 70d3 	add.w	r0, r0, r3, lsr #31
 8000720:	ea5e 0e43 	orrs.w	lr, lr, r3, lsl #1
 8000724:	bf08      	it	eq
 8000726:	ea20 70d3 	biceq.w	r0, r0, r3, lsr #31
 800072a:	bd70      	pop	{r4, r5, r6, pc}
 800072c:	f094 0f00 	teq	r4, #0
 8000730:	d10f      	bne.n	8000752 <__aeabi_dmul+0x1c2>
 8000732:	f001 4600 	and.w	r6, r1, #2147483648	@ 0x80000000
 8000736:	0040      	lsls	r0, r0, #1
 8000738:	eb41 0101 	adc.w	r1, r1, r1
 800073c:	f411 1f80 	tst.w	r1, #1048576	@ 0x100000
 8000740:	bf08      	it	eq
 8000742:	3c01      	subeq	r4, #1
 8000744:	d0f7      	beq.n	8000736 <__aeabi_dmul+0x1a6>
 8000746:	ea41 0106 	orr.w	r1, r1, r6
 800074a:	f095 0f00 	teq	r5, #0
 800074e:	bf18      	it	ne
 8000750:	4770      	bxne	lr
 8000752:	f003 4600 	and.w	r6, r3, #2147483648	@ 0x80000000
 8000756:	0052      	lsls	r2, r2, #1
 8000758:	eb43 0303 	adc.w	r3, r3, r3
 800075c:	f413 1f80 	tst.w	r3, #1048576	@ 0x100000
 8000760:	bf08      	it	eq
 8000762:	3d01      	subeq	r5, #1
 8000764:	d0f7      	beq.n	8000756 <__aeabi_dmul+0x1c6>
 8000766:	ea43 0306 	orr.w	r3, r3, r6
 800076a:	4770      	bx	lr
 800076c:	ea94 0f0c 	teq	r4, ip
 8000770:	ea0c 5513 	and.w	r5, ip, r3, lsr #20
 8000774:	bf18      	it	ne
 8000776:	ea95 0f0c 	teqne	r5, ip
 800077a:	d00c      	beq.n	8000796 <__aeabi_dmul+0x206>
 800077c:	ea50 0641 	orrs.w	r6, r0, r1, lsl #1
 8000780:	bf18      	it	ne
 8000782:	ea52 0643 	orrsne.w	r6, r2, r3, lsl #1
 8000786:	d1d1      	bne.n	800072c <__aeabi_dmul+0x19c>
 8000788:	ea81 0103 	eor.w	r1, r1, r3
 800078c:	f001 4100 	and.w	r1, r1, #2147483648	@ 0x80000000
 8000790:	f04f 0000 	mov.w	r0, #0
 8000794:	bd70      	pop	{r4, r5, r6, pc}
 8000796:	ea50 0641 	orrs.w	r6, r0, r1, lsl #1
 800079a:	bf06      	itte	eq
 800079c:	4610      	moveq	r0, r2
 800079e:	4619      	moveq	r1, r3
 80007a0:	ea52 0643 	orrsne.w	r6, r2, r3, lsl #1
 80007a4:	d019      	beq.n	80007da <__aeabi_dmul+0x24a>
 80007a6:	ea94 0f0c 	teq	r4, ip
 80007aa:	d102      	bne.n	80007b2 <__aeabi_dmul+0x222>
 80007ac:	ea50 3601 	orrs.w	r6, r0, r1, lsl #12
 80007b0:	d113      	bne.n	80007da <__aeabi_dmul+0x24a>
 80007b2:	ea95 0f0c 	teq	r5, ip
 80007b6:	d105      	bne.n	80007c4 <__aeabi_dmul+0x234>
 80007b8:	ea52 3603 	orrs.w	r6, r2, r3, lsl #12
 80007bc:	bf1c      	itt	ne
 80007be:	4610      	movne	r0, r2
 80007c0:	4619      	movne	r1, r3
 80007c2:	d10a      	bne.n	80007da <__aeabi_dmul+0x24a>
 80007c4:	ea81 0103 	eor.w	r1, r1, r3
 80007c8:	f001 4100 	and.w	r1, r1, #2147483648	@ 0x80000000
 80007cc:	f041 41fe 	orr.w	r1, r1, #2130706432	@ 0x7f000000
 80007d0:	f441 0170 	orr.w	r1, r1, #15728640	@ 0xf00000
 80007d4:	f04f 0000 	mov.w	r0, #0
 80007d8:	bd70      	pop	{r4, r5, r6, pc}
 80007da:	f041 41fe 	orr.w	r1, r1, #2130706432	@ 0x7f000000
 80007de:	f441 0178 	orr.w	r1, r1, #16252928	@ 0xf80000
 80007e2:	bd70      	pop	{r4, r5, r6, pc}

080007e4 <__aeabi_ddiv>:
 80007e4:	b570      	push	{r4, r5, r6, lr}
 80007e6:	f04f 0cff 	mov.w	ip, #255	@ 0xff
 80007ea:	f44c 6ce0 	orr.w	ip, ip, #1792	@ 0x700
 80007ee:	ea1c 5411 	ands.w	r4, ip, r1, lsr #20
 80007f2:	bf1d      	ittte	ne
 80007f4:	ea1c 5513 	andsne.w	r5, ip, r3, lsr #20
 80007f8:	ea94 0f0c 	teqne	r4, ip
 80007fc:	ea95 0f0c 	teqne	r5, ip
 8000800:	f000 f8a7 	bleq	8000952 <__aeabi_ddiv+0x16e>
 8000804:	eba4 0405 	sub.w	r4, r4, r5
 8000808:	ea81 0e03 	eor.w	lr, r1, r3
 800080c:	ea52 3503 	orrs.w	r5, r2, r3, lsl #12
 8000810:	ea4f 3101 	mov.w	r1, r1, lsl #12
 8000814:	f000 8088 	beq.w	8000928 <__aeabi_ddiv+0x144>
 8000818:	ea4f 3303 	mov.w	r3, r3, lsl #12
 800081c:	f04f 5580 	mov.w	r5, #268435456	@ 0x10000000
 8000820:	ea45 1313 	orr.w	r3, r5, r3, lsr #4
 8000824:	ea43 6312 	orr.w	r3, r3, r2, lsr #24
 8000828:	ea4f 2202 	mov.w	r2, r2, lsl #8
 800082c:	ea45 1511 	orr.w	r5, r5, r1, lsr #4
 8000830:	ea45 6510 	orr.w	r5, r5, r0, lsr #24
 8000834:	ea4f 2600 	mov.w	r6, r0, lsl #8
 8000838:	f00e 4100 	and.w	r1, lr, #2147483648	@ 0x80000000
 800083c:	429d      	cmp	r5, r3
 800083e:	bf08      	it	eq
 8000840:	4296      	cmpeq	r6, r2
 8000842:	f144 04fd 	adc.w	r4, r4, #253	@ 0xfd
 8000846:	f504 7440 	add.w	r4, r4, #768	@ 0x300
 800084a:	d202      	bcs.n	8000852 <__aeabi_ddiv+0x6e>
 800084c:	085b      	lsrs	r3, r3, #1
 800084e:	ea4f 0232 	mov.w	r2, r2, rrx
 8000852:	1ab6      	subs	r6, r6, r2
 8000854:	eb65 0503 	sbc.w	r5, r5, r3
 8000858:	085b      	lsrs	r3, r3, #1
 800085a:	ea4f 0232 	mov.w	r2, r2, rrx
 800085e:	f44f 1080 	mov.w	r0, #1048576	@ 0x100000
 8000862:	f44f 2c00 	mov.w	ip, #524288	@ 0x80000
 8000866:	ebb6 0e02 	subs.w	lr, r6, r2
 800086a:	eb75 0e03 	sbcs.w	lr, r5, r3
 800086e:	bf22      	ittt	cs
 8000870:	1ab6      	subcs	r6, r6, r2
 8000872:	4675      	movcs	r5, lr
 8000874:	ea40 000c 	orrcs.w	r0, r0, ip
 8000878:	085b      	lsrs	r3, r3, #1
 800087a:	ea4f 0232 	mov.w	r2, r2, rrx
 800087e:	ebb6 0e02 	subs.w	lr, r6, r2
 8000882:	eb75 0e03 	sbcs.w	lr, r5, r3
 8000886:	bf22      	ittt	cs
 8000888:	1ab6      	subcs	r6, r6, r2
 800088a:	4675      	movcs	r5, lr
 800088c:	ea40 005c 	orrcs.w	r0, r0, ip, lsr #1
 8000890:	085b      	lsrs	r3, r3, #1
 8000892:	ea4f 0232 	mov.w	r2, r2, rrx
 8000896:	ebb6 0e02 	subs.w	lr, r6, r2
 800089a:	eb75 0e03 	sbcs.w	lr, r5, r3
 800089e:	bf22      	ittt	cs
 80008a0:	1ab6      	subcs	r6, r6, r2
 80008a2:	4675      	movcs	r5, lr
 80008a4:	ea40 009c 	orrcs.w	r0, r0, ip, lsr #2
 80008a8:	085b      	lsrs	r3, r3, #1
 80008aa:	ea4f 0232 	mov.w	r2, r2, rrx
 80008ae:	ebb6 0e02 	subs.w	lr, r6, r2
 80008b2:	eb75 0e03 	sbcs.w	lr, r5, r3
 80008b6:	bf22      	ittt	cs
 80008b8:	1ab6      	subcs	r6, r6, r2
 80008ba:	4675      	movcs	r5, lr
 80008bc:	ea40 00dc 	orrcs.w	r0, r0, ip, lsr #3
 80008c0:	ea55 0e06 	orrs.w	lr, r5, r6
 80008c4:	d018      	beq.n	80008f8 <__aeabi_ddiv+0x114>
 80008c6:	ea4f 1505 	mov.w	r5, r5, lsl #4
 80008ca:	ea45 7516 	orr.w	r5, r5, r6, lsr #28
 80008ce:	ea4f 1606 	mov.w	r6, r6, lsl #4
 80008d2:	ea4f 03c3 	mov.w	r3, r3, lsl #3
 80008d6:	ea43 7352 	orr.w	r3, r3, r2, lsr #29
 80008da:	ea4f 02c2 	mov.w	r2, r2, lsl #3
 80008de:	ea5f 1c1c 	movs.w	ip, ip, lsr #4
 80008e2:	d1c0      	bne.n	8000866 <__aeabi_ddiv+0x82>
 80008e4:	f411 1f80 	tst.w	r1, #1048576	@ 0x100000
 80008e8:	d10b      	bne.n	8000902 <__aeabi_ddiv+0x11e>
 80008ea:	ea41 0100 	orr.w	r1, r1, r0
 80008ee:	f04f 0000 	mov.w	r0, #0
 80008f2:	f04f 4c00 	mov.w	ip, #2147483648	@ 0x80000000
 80008f6:	e7b6      	b.n	8000866 <__aeabi_ddiv+0x82>
 80008f8:	f411 1f80 	tst.w	r1, #1048576	@ 0x100000
 80008fc:	bf04      	itt	eq
 80008fe:	4301      	orreq	r1, r0
 8000900:	2000      	moveq	r0, #0
 8000902:	f1b4 0cfd 	subs.w	ip, r4, #253	@ 0xfd
 8000906:	bf88      	it	hi
 8000908:	f5bc 6fe0 	cmphi.w	ip, #1792	@ 0x700
 800090c:	f63f aeaf 	bhi.w	800066e <__aeabi_dmul+0xde>
 8000910:	ebb5 0c03 	subs.w	ip, r5, r3
 8000914:	bf04      	itt	eq
 8000916:	ebb6 0c02 	subseq.w	ip, r6, r2
 800091a:	ea5f 0c50 	movseq.w	ip, r0, lsr #1
 800091e:	f150 0000 	adcs.w	r0, r0, #0
 8000922:	eb41 5104 	adc.w	r1, r1, r4, lsl #20
 8000926:	bd70      	pop	{r4, r5, r6, pc}
 8000928:	f00e 4e00 	and.w	lr, lr, #2147483648	@ 0x80000000
 800092c:	ea4e 3111 	orr.w	r1, lr, r1, lsr #12
 8000930:	eb14 045c 	adds.w	r4, r4, ip, lsr #1
 8000934:	bfc2      	ittt	gt
 8000936:	ebd4 050c 	rsbsgt	r5, r4, ip
 800093a:	ea41 5104 	orrgt.w	r1, r1, r4, lsl #20
 800093e:	bd70      	popgt	{r4, r5, r6, pc}
 8000940:	f441 1180 	orr.w	r1, r1, #1048576	@ 0x100000
 8000944:	f04f 0e00 	mov.w	lr, #0
 8000948:	3c01      	subs	r4, #1
 800094a:	e690      	b.n	800066e <__aeabi_dmul+0xde>
 800094c:	ea45 0e06 	orr.w	lr, r5, r6
 8000950:	e68d      	b.n	800066e <__aeabi_dmul+0xde>
 8000952:	ea0c 5513 	and.w	r5, ip, r3, lsr #20
 8000956:	ea94 0f0c 	teq	r4, ip
 800095a:	bf08      	it	eq
 800095c:	ea95 0f0c 	teqeq	r5, ip
 8000960:	f43f af3b 	beq.w	80007da <__aeabi_dmul+0x24a>
 8000964:	ea94 0f0c 	teq	r4, ip
 8000968:	d10a      	bne.n	8000980 <__aeabi_ddiv+0x19c>
 800096a:	ea50 3401 	orrs.w	r4, r0, r1, lsl #12
 800096e:	f47f af34 	bne.w	80007da <__aeabi_dmul+0x24a>
 8000972:	ea95 0f0c 	teq	r5, ip
 8000976:	f47f af25 	bne.w	80007c4 <__aeabi_dmul+0x234>
 800097a:	4610      	mov	r0, r2
 800097c:	4619      	mov	r1, r3
 800097e:	e72c      	b.n	80007da <__aeabi_dmul+0x24a>
 8000980:	ea95 0f0c 	teq	r5, ip
 8000984:	d106      	bne.n	8000994 <__aeabi_ddiv+0x1b0>
 8000986:	ea52 3503 	orrs.w	r5, r2, r3, lsl #12
 800098a:	f43f aefd 	beq.w	8000788 <__aeabi_dmul+0x1f8>
 800098e:	4610      	mov	r0, r2
 8000990:	4619      	mov	r1, r3
 8000992:	e722      	b.n	80007da <__aeabi_dmul+0x24a>
 8000994:	ea50 0641 	orrs.w	r6, r0, r1, lsl #1
 8000998:	bf18      	it	ne
 800099a:	ea52 0643 	orrsne.w	r6, r2, r3, lsl #1
 800099e:	f47f aec5 	bne.w	800072c <__aeabi_dmul+0x19c>
 80009a2:	ea50 0441 	orrs.w	r4, r0, r1, lsl #1
 80009a6:	f47f af0d 	bne.w	80007c4 <__aeabi_dmul+0x234>
 80009aa:	ea52 0543 	orrs.w	r5, r2, r3, lsl #1
 80009ae:	f47f aeeb 	bne.w	8000788 <__aeabi_dmul+0x1f8>
 80009b2:	e712      	b.n	80007da <__aeabi_dmul+0x24a>

080009b4 <__aeabi_d2f>:
 80009b4:	ea4f 0241 	mov.w	r2, r1, lsl #1
 80009b8:	f1b2 43e0 	subs.w	r3, r2, #1879048192	@ 0x70000000
 80009bc:	bf24      	itt	cs
 80009be:	f5b3 1c00 	subscs.w	ip, r3, #2097152	@ 0x200000
 80009c2:	f1dc 5cfe 	rsbscs	ip, ip, #532676608	@ 0x1fc00000
 80009c6:	d90d      	bls.n	80009e4 <__aeabi_d2f+0x30>
 80009c8:	f001 4c00 	and.w	ip, r1, #2147483648	@ 0x80000000
 80009cc:	ea4f 02c0 	mov.w	r2, r0, lsl #3
 80009d0:	ea4c 7050 	orr.w	r0, ip, r0, lsr #29
 80009d4:	f1b2 4f00 	cmp.w	r2, #2147483648	@ 0x80000000
 80009d8:	eb40 0083 	adc.w	r0, r0, r3, lsl #2
 80009dc:	bf08      	it	eq
 80009de:	f020 0001 	biceq.w	r0, r0, #1
 80009e2:	4770      	bx	lr
 80009e4:	f011 4f80 	tst.w	r1, #1073741824	@ 0x40000000
 80009e8:	d121      	bne.n	8000a2e <__aeabi_d2f+0x7a>
 80009ea:	f113 7238 	adds.w	r2, r3, #48234496	@ 0x2e00000
 80009ee:	bfbc      	itt	lt
 80009f0:	f001 4000 	andlt.w	r0, r1, #2147483648	@ 0x80000000
 80009f4:	4770      	bxlt	lr
 80009f6:	f441 1180 	orr.w	r1, r1, #1048576	@ 0x100000
 80009fa:	ea4f 5252 	mov.w	r2, r2, lsr #21
 80009fe:	f1c2 0218 	rsb	r2, r2, #24
 8000a02:	f1c2 0c20 	rsb	ip, r2, #32
 8000a06:	fa10 f30c 	lsls.w	r3, r0, ip
 8000a0a:	fa20 f002 	lsr.w	r0, r0, r2
 8000a0e:	bf18      	it	ne
 8000a10:	f040 0001 	orrne.w	r0, r0, #1
 8000a14:	ea4f 23c1 	mov.w	r3, r1, lsl #11
 8000a18:	ea4f 23d3 	mov.w	r3, r3, lsr #11
 8000a1c:	fa03 fc0c 	lsl.w	ip, r3, ip
 8000a20:	ea40 000c 	orr.w	r0, r0, ip
 8000a24:	fa23 f302 	lsr.w	r3, r3, r2
 8000a28:	ea4f 0343 	mov.w	r3, r3, lsl #1
 8000a2c:	e7cc      	b.n	80009c8 <__aeabi_d2f+0x14>
 8000a2e:	ea7f 5362 	mvns.w	r3, r2, asr #21
 8000a32:	d107      	bne.n	8000a44 <__aeabi_d2f+0x90>
 8000a34:	ea50 3301 	orrs.w	r3, r0, r1, lsl #12
 8000a38:	bf1e      	ittt	ne
 8000a3a:	f04f 40fe 	movne.w	r0, #2130706432	@ 0x7f000000
 8000a3e:	f440 0040 	orrne.w	r0, r0, #12582912	@ 0xc00000
 8000a42:	4770      	bxne	lr
 8000a44:	f001 4000 	and.w	r0, r1, #2147483648	@ 0x80000000
 8000a48:	f040 40fe 	orr.w	r0, r0, #2130706432	@ 0x7f000000
 8000a4c:	f440 0000 	orr.w	r0, r0, #8388608	@ 0x800000
 8000a50:	4770      	bx	lr
 8000a52:	bf00      	nop

08000a54 <__aeabi_uldivmod>:
 8000a54:	b953      	cbnz	r3, 8000a6c <__aeabi_uldivmod+0x18>
 8000a56:	b94a      	cbnz	r2, 8000a6c <__aeabi_uldivmod+0x18>
 8000a58:	2900      	cmp	r1, #0
 8000a5a:	bf08      	it	eq
 8000a5c:	2800      	cmpeq	r0, #0
 8000a5e:	bf1c      	itt	ne
 8000a60:	f04f 31ff 	movne.w	r1, #4294967295
 8000a64:	f04f 30ff 	movne.w	r0, #4294967295
 8000a68:	f000 b988 	b.w	8000d7c <__aeabi_idiv0>
 8000a6c:	f1ad 0c08 	sub.w	ip, sp, #8
 8000a70:	e96d ce04 	strd	ip, lr, [sp, #-16]!
 8000a74:	f000 f806 	bl	8000a84 <__udivmoddi4>
 8000a78:	f8dd e004 	ldr.w	lr, [sp, #4]
 8000a7c:	e9dd 2302 	ldrd	r2, r3, [sp, #8]
 8000a80:	b004      	add	sp, #16
 8000a82:	4770      	bx	lr

08000a84 <__udivmoddi4>:
 8000a84:	e92d 47f0 	stmdb	sp!, {r4, r5, r6, r7, r8, r9, sl, lr}
 8000a88:	9d08      	ldr	r5, [sp, #32]
 8000a8a:	460f      	mov	r7, r1
 8000a8c:	4604      	mov	r4, r0
 8000a8e:	468c      	mov	ip, r1
 8000a90:	2b00      	cmp	r3, #0
 8000a92:	d148      	bne.n	8000b26 <__udivmoddi4+0xa2>
 8000a94:	428a      	cmp	r2, r1
 8000a96:	4616      	mov	r6, r2
 8000a98:	d961      	bls.n	8000b5e <__udivmoddi4+0xda>
 8000a9a:	fab2 f382 	clz	r3, r2
 8000a9e:	b14b      	cbz	r3, 8000ab4 <__udivmoddi4+0x30>
 8000aa0:	f1c3 0220 	rsb	r2, r3, #32
 8000aa4:	fa01 fc03 	lsl.w	ip, r1, r3
 8000aa8:	fa20 f202 	lsr.w	r2, r0, r2
 8000aac:	409e      	lsls	r6, r3
 8000aae:	ea42 0c0c 	orr.w	ip, r2, ip
 8000ab2:	409c      	lsls	r4, r3
 8000ab4:	ea4f 4e16 	mov.w	lr, r6, lsr #16
 8000ab8:	b2b7      	uxth	r7, r6
 8000aba:	fbbc f1fe 	udiv	r1, ip, lr
 8000abe:	0c22      	lsrs	r2, r4, #16
 8000ac0:	fb0e cc11 	mls	ip, lr, r1, ip
 8000ac4:	ea42 420c 	orr.w	r2, r2, ip, lsl #16
 8000ac8:	fb01 f007 	mul.w	r0, r1, r7
 8000acc:	4290      	cmp	r0, r2
 8000ace:	d909      	bls.n	8000ae4 <__udivmoddi4+0x60>
 8000ad0:	18b2      	adds	r2, r6, r2
 8000ad2:	f101 3cff 	add.w	ip, r1, #4294967295
 8000ad6:	f080 80ee 	bcs.w	8000cb6 <__udivmoddi4+0x232>
 8000ada:	4290      	cmp	r0, r2
 8000adc:	f240 80eb 	bls.w	8000cb6 <__udivmoddi4+0x232>
 8000ae0:	3902      	subs	r1, #2
 8000ae2:	4432      	add	r2, r6
 8000ae4:	1a12      	subs	r2, r2, r0
 8000ae6:	b2a4      	uxth	r4, r4
 8000ae8:	fbb2 f0fe 	udiv	r0, r2, lr
 8000aec:	fb0e 2210 	mls	r2, lr, r0, r2
 8000af0:	ea44 4402 	orr.w	r4, r4, r2, lsl #16
 8000af4:	fb00 f707 	mul.w	r7, r0, r7
 8000af8:	42a7      	cmp	r7, r4
 8000afa:	d909      	bls.n	8000b10 <__udivmoddi4+0x8c>
 8000afc:	1934      	adds	r4, r6, r4
 8000afe:	f100 32ff 	add.w	r2, r0, #4294967295
 8000b02:	f080 80da 	bcs.w	8000cba <__udivmoddi4+0x236>
 8000b06:	42a7      	cmp	r7, r4
 8000b08:	f240 80d7 	bls.w	8000cba <__udivmoddi4+0x236>
 8000b0c:	4434      	add	r4, r6
 8000b0e:	3802      	subs	r0, #2
 8000b10:	ea40 4001 	orr.w	r0, r0, r1, lsl #16
 8000b14:	1be4      	subs	r4, r4, r7
 8000b16:	2100      	movs	r1, #0
 8000b18:	b11d      	cbz	r5, 8000b22 <__udivmoddi4+0x9e>
 8000b1a:	40dc      	lsrs	r4, r3
 8000b1c:	2300      	movs	r3, #0
 8000b1e:	e9c5 4300 	strd	r4, r3, [r5]
 8000b22:	e8bd 87f0 	ldmia.w	sp!, {r4, r5, r6, r7, r8, r9, sl, pc}
 8000b26:	428b      	cmp	r3, r1
 8000b28:	d906      	bls.n	8000b38 <__udivmoddi4+0xb4>
 8000b2a:	b10d      	cbz	r5, 8000b30 <__udivmoddi4+0xac>
 8000b2c:	e9c5 0100 	strd	r0, r1, [r5]
 8000b30:	2100      	movs	r1, #0
 8000b32:	4608      	mov	r0, r1
 8000b34:	e8bd 87f0 	ldmia.w	sp!, {r4, r5, r6, r7, r8, r9, sl, pc}
 8000b38:	fab3 f183 	clz	r1, r3
 8000b3c:	2900      	cmp	r1, #0
 8000b3e:	d148      	bne.n	8000bd2 <__udivmoddi4+0x14e>
 8000b40:	42bb      	cmp	r3, r7
 8000b42:	d302      	bcc.n	8000b4a <__udivmoddi4+0xc6>
 8000b44:	4282      	cmp	r2, r0
 8000b46:	f200 8107 	bhi.w	8000d58 <__udivmoddi4+0x2d4>
 8000b4a:	1a84      	subs	r4, r0, r2
 8000b4c:	eb67 0203 	sbc.w	r2, r7, r3
 8000b50:	2001      	movs	r0, #1
 8000b52:	4694      	mov	ip, r2
 8000b54:	2d00      	cmp	r5, #0
 8000b56:	d0e4      	beq.n	8000b22 <__udivmoddi4+0x9e>
 8000b58:	e9c5 4c00 	strd	r4, ip, [r5]
 8000b5c:	e7e1      	b.n	8000b22 <__udivmoddi4+0x9e>
 8000b5e:	2a00      	cmp	r2, #0
 8000b60:	f000 8092 	beq.w	8000c88 <__udivmoddi4+0x204>
 8000b64:	fab2 f382 	clz	r3, r2
 8000b68:	2b00      	cmp	r3, #0
 8000b6a:	f040 80a8 	bne.w	8000cbe <__udivmoddi4+0x23a>
 8000b6e:	1a8a      	subs	r2, r1, r2
 8000b70:	ea4f 4e16 	mov.w	lr, r6, lsr #16
 8000b74:	fa1f fc86 	uxth.w	ip, r6
 8000b78:	2101      	movs	r1, #1
 8000b7a:	0c20      	lsrs	r0, r4, #16
 8000b7c:	fbb2 f7fe 	udiv	r7, r2, lr
 8000b80:	fb0e 2217 	mls	r2, lr, r7, r2
 8000b84:	ea40 4202 	orr.w	r2, r0, r2, lsl #16
 8000b88:	fb0c f007 	mul.w	r0, ip, r7
 8000b8c:	4290      	cmp	r0, r2
 8000b8e:	d907      	bls.n	8000ba0 <__udivmoddi4+0x11c>
 8000b90:	18b2      	adds	r2, r6, r2
 8000b92:	f107 38ff 	add.w	r8, r7, #4294967295
 8000b96:	d202      	bcs.n	8000b9e <__udivmoddi4+0x11a>
 8000b98:	4290      	cmp	r0, r2
 8000b9a:	f200 80e2 	bhi.w	8000d62 <__udivmoddi4+0x2de>
 8000b9e:	4647      	mov	r7, r8
 8000ba0:	1a12      	subs	r2, r2, r0
 8000ba2:	b2a4      	uxth	r4, r4
 8000ba4:	fbb2 f0fe 	udiv	r0, r2, lr
 8000ba8:	fb0e 2210 	mls	r2, lr, r0, r2
 8000bac:	ea44 4402 	orr.w	r4, r4, r2, lsl #16
 8000bb0:	fb0c fc00 	mul.w	ip, ip, r0
 8000bb4:	45a4      	cmp	ip, r4
 8000bb6:	d907      	bls.n	8000bc8 <__udivmoddi4+0x144>
 8000bb8:	1934      	adds	r4, r6, r4
 8000bba:	f100 32ff 	add.w	r2, r0, #4294967295
 8000bbe:	d202      	bcs.n	8000bc6 <__udivmoddi4+0x142>
 8000bc0:	45a4      	cmp	ip, r4
 8000bc2:	f200 80cb 	bhi.w	8000d5c <__udivmoddi4+0x2d8>
 8000bc6:	4610      	mov	r0, r2
 8000bc8:	eba4 040c 	sub.w	r4, r4, ip
 8000bcc:	ea40 4007 	orr.w	r0, r0, r7, lsl #16
 8000bd0:	e7a2      	b.n	8000b18 <__udivmoddi4+0x94>
 8000bd2:	f1c1 0620 	rsb	r6, r1, #32
 8000bd6:	408b      	lsls	r3, r1
 8000bd8:	fa22 fc06 	lsr.w	ip, r2, r6
 8000bdc:	ea4c 0c03 	orr.w	ip, ip, r3
 8000be0:	fa07 f401 	lsl.w	r4, r7, r1
 8000be4:	fa20 f306 	lsr.w	r3, r0, r6
 8000be8:	40f7      	lsrs	r7, r6
 8000bea:	ea4f 491c 	mov.w	r9, ip, lsr #16
 8000bee:	4323      	orrs	r3, r4
 8000bf0:	fa00 f801 	lsl.w	r8, r0, r1
 8000bf4:	fa1f fe8c 	uxth.w	lr, ip
 8000bf8:	fbb7 f0f9 	udiv	r0, r7, r9
 8000bfc:	0c1c      	lsrs	r4, r3, #16
 8000bfe:	fb09 7710 	mls	r7, r9, r0, r7
 8000c02:	ea44 4407 	orr.w	r4, r4, r7, lsl #16
 8000c06:	fb00 f70e 	mul.w	r7, r0, lr
 8000c0a:	42a7      	cmp	r7, r4
 8000c0c:	fa02 f201 	lsl.w	r2, r2, r1
 8000c10:	d90a      	bls.n	8000c28 <__udivmoddi4+0x1a4>
 8000c12:	eb1c 0404 	adds.w	r4, ip, r4
 8000c16:	f100 3aff 	add.w	sl, r0, #4294967295
 8000c1a:	f080 809b 	bcs.w	8000d54 <__udivmoddi4+0x2d0>
 8000c1e:	42a7      	cmp	r7, r4
 8000c20:	f240 8098 	bls.w	8000d54 <__udivmoddi4+0x2d0>
 8000c24:	3802      	subs	r0, #2
 8000c26:	4464      	add	r4, ip
 8000c28:	1be4      	subs	r4, r4, r7
 8000c2a:	b29f      	uxth	r7, r3
 8000c2c:	fbb4 f3f9 	udiv	r3, r4, r9
 8000c30:	fb09 4413 	mls	r4, r9, r3, r4
 8000c34:	ea47 4404 	orr.w	r4, r7, r4, lsl #16
 8000c38:	fb03 fe0e 	mul.w	lr, r3, lr
 8000c3c:	45a6      	cmp	lr, r4
 8000c3e:	d909      	bls.n	8000c54 <__udivmoddi4+0x1d0>
 8000c40:	eb1c 0404 	adds.w	r4, ip, r4
 8000c44:	f103 37ff 	add.w	r7, r3, #4294967295
 8000c48:	f080 8082 	bcs.w	8000d50 <__udivmoddi4+0x2cc>
 8000c4c:	45a6      	cmp	lr, r4
 8000c4e:	d97f      	bls.n	8000d50 <__udivmoddi4+0x2cc>
 8000c50:	3b02      	subs	r3, #2
 8000c52:	4464      	add	r4, ip
 8000c54:	ea43 4000 	orr.w	r0, r3, r0, lsl #16
 8000c58:	eba4 040e 	sub.w	r4, r4, lr
 8000c5c:	fba0 e702 	umull	lr, r7, r0, r2
 8000c60:	42bc      	cmp	r4, r7
 8000c62:	4673      	mov	r3, lr
 8000c64:	46b9      	mov	r9, r7
 8000c66:	d363      	bcc.n	8000d30 <__udivmoddi4+0x2ac>
 8000c68:	d060      	beq.n	8000d2c <__udivmoddi4+0x2a8>
 8000c6a:	b15d      	cbz	r5, 8000c84 <__udivmoddi4+0x200>
 8000c6c:	ebb8 0203 	subs.w	r2, r8, r3
 8000c70:	eb64 0409 	sbc.w	r4, r4, r9
 8000c74:	fa04 f606 	lsl.w	r6, r4, r6
 8000c78:	fa22 f301 	lsr.w	r3, r2, r1
 8000c7c:	431e      	orrs	r6, r3
 8000c7e:	40cc      	lsrs	r4, r1
 8000c80:	e9c5 6400 	strd	r6, r4, [r5]
 8000c84:	2100      	movs	r1, #0
 8000c86:	e74c      	b.n	8000b22 <__udivmoddi4+0x9e>
 8000c88:	0862      	lsrs	r2, r4, #1
 8000c8a:	0848      	lsrs	r0, r1, #1
 8000c8c:	ea42 71c1 	orr.w	r1, r2, r1, lsl #31
 8000c90:	0c0b      	lsrs	r3, r1, #16
 8000c92:	ea43 4300 	orr.w	r3, r3, r0, lsl #16
 8000c96:	b28a      	uxth	r2, r1
 8000c98:	ea42 4203 	orr.w	r2, r2, r3, lsl #16
 8000c9c:	fbb3 f1f6 	udiv	r1, r3, r6
 8000ca0:	07e4      	lsls	r4, r4, #31
 8000ca2:	46b4      	mov	ip, r6
 8000ca4:	4637      	mov	r7, r6
 8000ca6:	46b6      	mov	lr, r6
 8000ca8:	231f      	movs	r3, #31
 8000caa:	fbb0 f0f6 	udiv	r0, r0, r6
 8000cae:	1bd2      	subs	r2, r2, r7
 8000cb0:	ea41 4100 	orr.w	r1, r1, r0, lsl #16
 8000cb4:	e761      	b.n	8000b7a <__udivmoddi4+0xf6>
 8000cb6:	4661      	mov	r1, ip
 8000cb8:	e714      	b.n	8000ae4 <__udivmoddi4+0x60>
 8000cba:	4610      	mov	r0, r2
 8000cbc:	e728      	b.n	8000b10 <__udivmoddi4+0x8c>
 8000cbe:	f1c3 0120 	rsb	r1, r3, #32
 8000cc2:	fa20 f201 	lsr.w	r2, r0, r1
 8000cc6:	409e      	lsls	r6, r3
 8000cc8:	fa27 f101 	lsr.w	r1, r7, r1
 8000ccc:	409f      	lsls	r7, r3
 8000cce:	433a      	orrs	r2, r7
 8000cd0:	ea4f 4e16 	mov.w	lr, r6, lsr #16
 8000cd4:	fa1f fc86 	uxth.w	ip, r6
 8000cd8:	fbb1 f7fe 	udiv	r7, r1, lr
 8000cdc:	fb0e 1017 	mls	r0, lr, r7, r1
 8000ce0:	0c11      	lsrs	r1, r2, #16
 8000ce2:	ea41 4100 	orr.w	r1, r1, r0, lsl #16
 8000ce6:	fb07 f80c 	mul.w	r8, r7, ip
 8000cea:	4588      	cmp	r8, r1
 8000cec:	fa04 f403 	lsl.w	r4, r4, r3
 8000cf0:	d93a      	bls.n	8000d68 <__udivmoddi4+0x2e4>
 8000cf2:	1871      	adds	r1, r6, r1
 8000cf4:	f107 30ff 	add.w	r0, r7, #4294967295
 8000cf8:	d201      	bcs.n	8000cfe <__udivmoddi4+0x27a>
 8000cfa:	4588      	cmp	r8, r1
 8000cfc:	d81f      	bhi.n	8000d3e <__udivmoddi4+0x2ba>
 8000cfe:	eba1 0108 	sub.w	r1, r1, r8
 8000d02:	fbb1 f8fe 	udiv	r8, r1, lr
 8000d06:	fb08 f70c 	mul.w	r7, r8, ip
 8000d0a:	fb0e 1118 	mls	r1, lr, r8, r1
 8000d0e:	b292      	uxth	r2, r2
 8000d10:	ea42 4201 	orr.w	r2, r2, r1, lsl #16
 8000d14:	42ba      	cmp	r2, r7
 8000d16:	d22f      	bcs.n	8000d78 <__udivmoddi4+0x2f4>
 8000d18:	18b2      	adds	r2, r6, r2
 8000d1a:	f108 31ff 	add.w	r1, r8, #4294967295
 8000d1e:	d2c6      	bcs.n	8000cae <__udivmoddi4+0x22a>
 8000d20:	42ba      	cmp	r2, r7
 8000d22:	d2c4      	bcs.n	8000cae <__udivmoddi4+0x22a>
 8000d24:	f1a8 0102 	sub.w	r1, r8, #2
 8000d28:	4432      	add	r2, r6
 8000d2a:	e7c0      	b.n	8000cae <__udivmoddi4+0x22a>
 8000d2c:	45f0      	cmp	r8, lr
 8000d2e:	d29c      	bcs.n	8000c6a <__udivmoddi4+0x1e6>
 8000d30:	ebbe 0302 	subs.w	r3, lr, r2
 8000d34:	eb67 070c 	sbc.w	r7, r7, ip
 8000d38:	3801      	subs	r0, #1
 8000d3a:	46b9      	mov	r9, r7
 8000d3c:	e795      	b.n	8000c6a <__udivmoddi4+0x1e6>
 8000d3e:	eba6 0808 	sub.w	r8, r6, r8
 8000d42:	4441      	add	r1, r8
 8000d44:	1eb8      	subs	r0, r7, #2
 8000d46:	fbb1 f8fe 	udiv	r8, r1, lr
 8000d4a:	fb08 f70c 	mul.w	r7, r8, ip
 8000d4e:	e7dc      	b.n	8000d0a <__udivmoddi4+0x286>
 8000d50:	463b      	mov	r3, r7
 8000d52:	e77f      	b.n	8000c54 <__udivmoddi4+0x1d0>
 8000d54:	4650      	mov	r0, sl
 8000d56:	e767      	b.n	8000c28 <__udivmoddi4+0x1a4>
 8000d58:	4608      	mov	r0, r1
 8000d5a:	e6fb      	b.n	8000b54 <__udivmoddi4+0xd0>
 8000d5c:	4434      	add	r4, r6
 8000d5e:	3802      	subs	r0, #2
 8000d60:	e732      	b.n	8000bc8 <__udivmoddi4+0x144>
 8000d62:	3f02      	subs	r7, #2
 8000d64:	4432      	add	r2, r6
 8000d66:	e71b      	b.n	8000ba0 <__udivmoddi4+0x11c>
 8000d68:	eba1 0108 	sub.w	r1, r1, r8
 8000d6c:	4638      	mov	r0, r7
 8000d6e:	fbb1 f8fe 	udiv	r8, r1, lr
 8000d72:	fb08 f70c 	mul.w	r7, r8, ip
 8000d76:	e7c8      	b.n	8000d0a <__udivmoddi4+0x286>
 8000d78:	4641      	mov	r1, r8
 8000d7a:	e798      	b.n	8000cae <__udivmoddi4+0x22a>

08000d7c <__aeabi_idiv0>:
 8000d7c:	4770      	bx	lr
 8000d7e:	bf00      	nop

08000d80 <MX_ADC1_Init>:
 8000d80:	b510      	push	{r4, lr}
 8000d82:	2400      	movs	r4, #0
 8000d84:	b08c      	sub	sp, #48	@ 0x30
 8000d86:	2220      	movs	r2, #32
 8000d88:	4621      	mov	r1, r4
 8000d8a:	a804      	add	r0, sp, #16
 8000d8c:	e9cd 4401 	strd	r4, r4, [sp, #4]
 8000d90:	9403      	str	r4, [sp, #12]
 8000d92:	f00d fd19 	bl	800e7c8 <memset>
 8000d96:	4a20      	ldr	r2, [pc, #128]	@ (8000e18 <MX_ADC1_Init+0x98>)
 8000d98:	f04f 43a0 	mov.w	r3, #1342177280	@ 0x50000000
 8000d9c:	6013      	str	r3, [r2, #0]
 8000d9e:	f44f 3340 	mov.w	r3, #196608	@ 0x30000
 8000da2:	6053      	str	r3, [r2, #4]
 8000da4:	2304      	movs	r3, #4
 8000da6:	6193      	str	r3, [r2, #24]
 8000da8:	4610      	mov	r0, r2
 8000daa:	2301      	movs	r3, #1
 8000dac:	e9c2 4402 	strd	r4, r4, [r2, #8]
 8000db0:	e9c2 4404 	strd	r4, r4, [r2, #16]
 8000db4:	e9c2 440b 	strd	r4, r4, [r2, #44]	@ 0x2c
 8000db8:	8394      	strh	r4, [r2, #28]
 8000dba:	6213      	str	r3, [r2, #32]
 8000dbc:	f882 4024 	strb.w	r4, [r2, #36]	@ 0x24
 8000dc0:	f882 4038 	strb.w	r4, [r2, #56]	@ 0x38
 8000dc4:	63d4      	str	r4, [r2, #60]	@ 0x3c
 8000dc6:	f882 4040 	strb.w	r4, [r2, #64]	@ 0x40
 8000dca:	f000 fdab 	bl	8001924 <HAL_ADC_Init>
 8000dce:	b9c0      	cbnz	r0, 8000e02 <MX_ADC1_Init+0x82>
 8000dd0:	2300      	movs	r3, #0
 8000dd2:	4811      	ldr	r0, [pc, #68]	@ (8000e18 <MX_ADC1_Init+0x98>)
 8000dd4:	9301      	str	r3, [sp, #4]
 8000dd6:	a901      	add	r1, sp, #4
 8000dd8:	f001 fbcc 	bl	8002574 <HAL_ADCEx_MultiModeConfigChannel>
 8000ddc:	b9c0      	cbnz	r0, 8000e10 <MX_ADC1_Init+0x90>
 8000dde:	480f      	ldr	r0, [pc, #60]	@ (8000e1c <MX_ADC1_Init+0x9c>)
 8000de0:	2206      	movs	r2, #6
 8000de2:	e9cd 0204 	strd	r0, r2, [sp, #16]
 8000de6:	2300      	movs	r3, #0
 8000de8:	247f      	movs	r4, #127	@ 0x7f
 8000dea:	2204      	movs	r2, #4
 8000dec:	480a      	ldr	r0, [pc, #40]	@ (8000e18 <MX_ADC1_Init+0x98>)
 8000dee:	a904      	add	r1, sp, #16
 8000df0:	e9cd 3406 	strd	r3, r4, [sp, #24]
 8000df4:	e9cd 2308 	strd	r2, r3, [sp, #32]
 8000df8:	f000 ff56 	bl	8001ca8 <HAL_ADC_ConfigChannel>
 8000dfc:	b920      	cbnz	r0, 8000e08 <MX_ADC1_Init+0x88>
 8000dfe:	b00c      	add	sp, #48	@ 0x30
 8000e00:	bd10      	pop	{r4, pc}
 8000e02:	f000 fb9d 	bl	8001540 <Error_Handler>
 8000e06:	e7e3      	b.n	8000dd0 <MX_ADC1_Init+0x50>
 8000e08:	f000 fb9a 	bl	8001540 <Error_Handler>
 8000e0c:	b00c      	add	sp, #48	@ 0x30
 8000e0e:	bd10      	pop	{r4, pc}
 8000e10:	f000 fb96 	bl	8001540 <Error_Handler>
 8000e14:	e7e3      	b.n	8000dde <MX_ADC1_Init+0x5e>
 8000e16:	bf00      	nop
 8000e18:	200000ec 	.word	0x200000ec
 8000e1c:	1d500080 	.word	0x1d500080

08000e20 <MX_ADC2_Init>:
 8000e20:	b510      	push	{r4, lr}
 8000e22:	b088      	sub	sp, #32
 8000e24:	2220      	movs	r2, #32
 8000e26:	2100      	movs	r1, #0
 8000e28:	4668      	mov	r0, sp
 8000e2a:	f00d fccd 	bl	800e7c8 <memset>
 8000e2e:	481a      	ldr	r0, [pc, #104]	@ (8000e98 <MX_ADC2_Init+0x78>)
 8000e30:	491a      	ldr	r1, [pc, #104]	@ (8000e9c <MX_ADC2_Init+0x7c>)
 8000e32:	f44f 3240 	mov.w	r2, #196608	@ 0x30000
 8000e36:	2300      	movs	r3, #0
 8000e38:	e9c0 1200 	strd	r1, r2, [r0]
 8000e3c:	2104      	movs	r1, #4
 8000e3e:	2201      	movs	r2, #1
 8000e40:	e9c0 3302 	strd	r3, r3, [r0, #8]
 8000e44:	e9c0 3304 	strd	r3, r3, [r0, #16]
 8000e48:	e9c0 330b 	strd	r3, r3, [r0, #44]	@ 0x2c
 8000e4c:	6181      	str	r1, [r0, #24]
 8000e4e:	8383      	strh	r3, [r0, #28]
 8000e50:	6202      	str	r2, [r0, #32]
 8000e52:	f880 3024 	strb.w	r3, [r0, #36]	@ 0x24
 8000e56:	f880 3038 	strb.w	r3, [r0, #56]	@ 0x38
 8000e5a:	63c3      	str	r3, [r0, #60]	@ 0x3c
 8000e5c:	f880 3040 	strb.w	r3, [r0, #64]	@ 0x40
 8000e60:	f000 fd60 	bl	8001924 <HAL_ADC_Init>
 8000e64:	b988      	cbnz	r0, 8000e8a <MX_ADC2_Init+0x6a>
 8000e66:	480e      	ldr	r0, [pc, #56]	@ (8000ea0 <MX_ADC2_Init+0x80>)
 8000e68:	2206      	movs	r2, #6
 8000e6a:	e9cd 0200 	strd	r0, r2, [sp]
 8000e6e:	2300      	movs	r3, #0
 8000e70:	247f      	movs	r4, #127	@ 0x7f
 8000e72:	2204      	movs	r2, #4
 8000e74:	4808      	ldr	r0, [pc, #32]	@ (8000e98 <MX_ADC2_Init+0x78>)
 8000e76:	4669      	mov	r1, sp
 8000e78:	e9cd 3402 	strd	r3, r4, [sp, #8]
 8000e7c:	e9cd 2304 	strd	r2, r3, [sp, #16]
 8000e80:	f000 ff12 	bl	8001ca8 <HAL_ADC_ConfigChannel>
 8000e84:	b920      	cbnz	r0, 8000e90 <MX_ADC2_Init+0x70>
 8000e86:	b008      	add	sp, #32
 8000e88:	bd10      	pop	{r4, pc}
 8000e8a:	f000 fb59 	bl	8001540 <Error_Handler>
 8000e8e:	e7ea      	b.n	8000e66 <MX_ADC2_Init+0x46>
 8000e90:	f000 fb56 	bl	8001540 <Error_Handler>
 8000e94:	b008      	add	sp, #32
 8000e96:	bd10      	pop	{r4, pc}
 8000e98:	20000080 	.word	0x20000080
 8000e9c:	50000100 	.word	0x50000100
 8000ea0:	14f00020 	.word	0x14f00020
 8000ea4:	00000000 	.word	0x00000000

08000ea8 <HAL_ADC_MspInit>:
 8000ea8:	b510      	push	{r4, lr}
 8000eaa:	4604      	mov	r4, r0
 8000eac:	b09e      	sub	sp, #120	@ 0x78
 8000eae:	2100      	movs	r1, #0
 8000eb0:	2254      	movs	r2, #84	@ 0x54
 8000eb2:	a809      	add	r0, sp, #36	@ 0x24
 8000eb4:	e9cd 1104 	strd	r1, r1, [sp, #16]
 8000eb8:	e9cd 1106 	strd	r1, r1, [sp, #24]
 8000ebc:	9108      	str	r1, [sp, #32]
 8000ebe:	f00d fc83 	bl	800e7c8 <memset>
 8000ec2:	6823      	ldr	r3, [r4, #0]
 8000ec4:	f1b3 4fa0 	cmp.w	r3, #1342177280	@ 0x50000000
 8000ec8:	d004      	beq.n	8000ed4 <HAL_ADC_MspInit+0x2c>
 8000eca:	4a3b      	ldr	r2, [pc, #236]	@ (8000fb8 <HAL_ADC_MspInit+0x110>)
 8000ecc:	4293      	cmp	r3, r2
 8000ece:	d032      	beq.n	8000f36 <HAL_ADC_MspInit+0x8e>
 8000ed0:	b01e      	add	sp, #120	@ 0x78
 8000ed2:	bd10      	pop	{r4, pc}
 8000ed4:	f44f 4200 	mov.w	r2, #32768	@ 0x8000
 8000ed8:	f04f 5300 	mov.w	r3, #536870912	@ 0x20000000
 8000edc:	a809      	add	r0, sp, #36	@ 0x24
 8000ede:	9209      	str	r2, [sp, #36]	@ 0x24
 8000ee0:	931a      	str	r3, [sp, #104]	@ 0x68
 8000ee2:	f002 fbbb 	bl	800365c <HAL_RCCEx_PeriphCLKConfig>
 8000ee6:	2800      	cmp	r0, #0
 8000ee8:	d155      	bne.n	8000f96 <HAL_ADC_MspInit+0xee>
 8000eea:	4a34      	ldr	r2, [pc, #208]	@ (8000fbc <HAL_ADC_MspInit+0x114>)
 8000eec:	6813      	ldr	r3, [r2, #0]
 8000eee:	3301      	adds	r3, #1
 8000ef0:	2b01      	cmp	r3, #1
 8000ef2:	6013      	str	r3, [r2, #0]
 8000ef4:	d109      	bne.n	8000f0a <HAL_ADC_MspInit+0x62>
 8000ef6:	4b32      	ldr	r3, [pc, #200]	@ (8000fc0 <HAL_ADC_MspInit+0x118>)
 8000ef8:	6cda      	ldr	r2, [r3, #76]	@ 0x4c
 8000efa:	f442 5200 	orr.w	r2, r2, #8192	@ 0x2000
 8000efe:	64da      	str	r2, [r3, #76]	@ 0x4c
 8000f00:	6cdb      	ldr	r3, [r3, #76]	@ 0x4c
 8000f02:	f403 5300 	and.w	r3, r3, #8192	@ 0x2000
 8000f06:	9300      	str	r3, [sp, #0]
 8000f08:	9b00      	ldr	r3, [sp, #0]
 8000f0a:	4b2d      	ldr	r3, [pc, #180]	@ (8000fc0 <HAL_ADC_MspInit+0x118>)
 8000f0c:	482d      	ldr	r0, [pc, #180]	@ (8000fc4 <HAL_ADC_MspInit+0x11c>)
 8000f0e:	6cda      	ldr	r2, [r3, #76]	@ 0x4c
 8000f10:	f042 0204 	orr.w	r2, r2, #4
 8000f14:	64da      	str	r2, [r3, #76]	@ 0x4c
 8000f16:	6cdb      	ldr	r3, [r3, #76]	@ 0x4c
 8000f18:	ed9f 7b23 	vldr	d7, [pc, #140]	@ 8000fa8 <HAL_ADC_MspInit+0x100>
 8000f1c:	f003 0304 	and.w	r3, r3, #4
 8000f20:	9301      	str	r3, [sp, #4]
 8000f22:	a904      	add	r1, sp, #16
 8000f24:	2300      	movs	r3, #0
 8000f26:	ed8d 7b04 	vstr	d7, [sp, #16]
 8000f2a:	9a01      	ldr	r2, [sp, #4]
 8000f2c:	9306      	str	r3, [sp, #24]
 8000f2e:	f001 fdab 	bl	8002a88 <HAL_GPIO_Init>
 8000f32:	b01e      	add	sp, #120	@ 0x78
 8000f34:	bd10      	pop	{r4, pc}
 8000f36:	f44f 4200 	mov.w	r2, #32768	@ 0x8000
 8000f3a:	f04f 5300 	mov.w	r3, #536870912	@ 0x20000000
 8000f3e:	a809      	add	r0, sp, #36	@ 0x24
 8000f40:	9209      	str	r2, [sp, #36]	@ 0x24
 8000f42:	931a      	str	r3, [sp, #104]	@ 0x68
 8000f44:	f002 fb8a 	bl	800365c <HAL_RCCEx_PeriphCLKConfig>
 8000f48:	bb40      	cbnz	r0, 8000f9c <HAL_ADC_MspInit+0xf4>
 8000f4a:	4a1c      	ldr	r2, [pc, #112]	@ (8000fbc <HAL_ADC_MspInit+0x114>)
 8000f4c:	6813      	ldr	r3, [r2, #0]
 8000f4e:	3301      	adds	r3, #1
 8000f50:	2b01      	cmp	r3, #1
 8000f52:	6013      	str	r3, [r2, #0]
 8000f54:	d109      	bne.n	8000f6a <HAL_ADC_MspInit+0xc2>
 8000f56:	4b1a      	ldr	r3, [pc, #104]	@ (8000fc0 <HAL_ADC_MspInit+0x118>)
 8000f58:	6cda      	ldr	r2, [r3, #76]	@ 0x4c
 8000f5a:	f442 5200 	orr.w	r2, r2, #8192	@ 0x2000
 8000f5e:	64da      	str	r2, [r3, #76]	@ 0x4c
 8000f60:	6cdb      	ldr	r3, [r3, #76]	@ 0x4c
 8000f62:	f403 5300 	and.w	r3, r3, #8192	@ 0x2000
 8000f66:	9302      	str	r3, [sp, #8]
 8000f68:	9b02      	ldr	r3, [sp, #8]
 8000f6a:	4b15      	ldr	r3, [pc, #84]	@ (8000fc0 <HAL_ADC_MspInit+0x118>)
 8000f6c:	4815      	ldr	r0, [pc, #84]	@ (8000fc4 <HAL_ADC_MspInit+0x11c>)
 8000f6e:	6cda      	ldr	r2, [r3, #76]	@ 0x4c
 8000f70:	f042 0204 	orr.w	r2, r2, #4
 8000f74:	64da      	str	r2, [r3, #76]	@ 0x4c
 8000f76:	6cdb      	ldr	r3, [r3, #76]	@ 0x4c
 8000f78:	ed9f 7b0d 	vldr	d7, [pc, #52]	@ 8000fb0 <HAL_ADC_MspInit+0x108>
 8000f7c:	f003 0304 	and.w	r3, r3, #4
 8000f80:	9303      	str	r3, [sp, #12]
 8000f82:	a904      	add	r1, sp, #16
 8000f84:	2300      	movs	r3, #0
 8000f86:	ed8d 7b04 	vstr	d7, [sp, #16]
 8000f8a:	9a03      	ldr	r2, [sp, #12]
 8000f8c:	9306      	str	r3, [sp, #24]
 8000f8e:	f001 fd7b 	bl	8002a88 <HAL_GPIO_Init>
 8000f92:	b01e      	add	sp, #120	@ 0x78
 8000f94:	bd10      	pop	{r4, pc}
 8000f96:	f000 fad3 	bl	8001540 <Error_Handler>
 8000f9a:	e7a6      	b.n	8000eea <HAL_ADC_MspInit+0x42>
 8000f9c:	f000 fad0 	bl	8001540 <Error_Handler>
 8000fa0:	e7d3      	b.n	8000f4a <HAL_ADC_MspInit+0xa2>
 8000fa2:	bf00      	nop
 8000fa4:	f3af 8000 	nop.w
 8000fa8:	00000002 	.word	0x00000002
 8000fac:	00000003 	.word	0x00000003
 8000fb0:	00000010 	.word	0x00000010
 8000fb4:	00000003 	.word	0x00000003
 8000fb8:	50000100 	.word	0x50000100
 8000fbc:	2000007c 	.word	0x2000007c
 8000fc0:	40021000 	.word	0x40021000
 8000fc4:	48000800 	.word	0x48000800

08000fc8 <MX_DAC1_Init>:
 8000fc8:	b510      	push	{r4, lr}
 8000fca:	b08c      	sub	sp, #48	@ 0x30
 8000fcc:	2230      	movs	r2, #48	@ 0x30
 8000fce:	2100      	movs	r1, #0
 8000fd0:	4668      	mov	r0, sp
 8000fd2:	f00d fbf9 	bl	800e7c8 <memset>
 8000fd6:	4810      	ldr	r0, [pc, #64]	@ (8001018 <MX_DAC1_Init+0x50>)
 8000fd8:	4b10      	ldr	r3, [pc, #64]	@ (800101c <MX_DAC1_Init+0x54>)
 8000fda:	6003      	str	r3, [r0, #0]
 8000fdc:	f001 fbe8 	bl	80027b0 <HAL_DAC_Init>
 8000fe0:	b990      	cbnz	r0, 8001008 <MX_DAC1_Init+0x40>
 8000fe2:	2200      	movs	r2, #0
 8000fe4:	2402      	movs	r4, #2
 8000fe6:	2301      	movs	r3, #1
 8000fe8:	480b      	ldr	r0, [pc, #44]	@ (8001018 <MX_DAC1_Init+0x50>)
 8000fea:	9400      	str	r4, [sp, #0]
 8000fec:	4669      	mov	r1, sp
 8000fee:	e9cd 2202 	strd	r2, r2, [sp, #8]
 8000ff2:	e9cd 2204 	strd	r2, r2, [sp, #16]
 8000ff6:	e9cd 3206 	strd	r3, r2, [sp, #24]
 8000ffa:	f8ad 2004 	strh.w	r2, [sp, #4]
 8000ffe:	f001 fc57 	bl	80028b0 <HAL_DAC_ConfigChannel>
 8001002:	b920      	cbnz	r0, 800100e <MX_DAC1_Init+0x46>
 8001004:	b00c      	add	sp, #48	@ 0x30
 8001006:	bd10      	pop	{r4, pc}
 8001008:	f000 fa9a 	bl	8001540 <Error_Handler>
 800100c:	e7e9      	b.n	8000fe2 <MX_DAC1_Init+0x1a>
 800100e:	f000 fa97 	bl	8001540 <Error_Handler>
 8001012:	b00c      	add	sp, #48	@ 0x30
 8001014:	bd10      	pop	{r4, pc}
 8001016:	bf00      	nop
 8001018:	2000016c 	.word	0x2000016c
 800101c:	50000800 	.word	0x50000800

08001020 <MX_DAC2_Init>:
 8001020:	b510      	push	{r4, lr}
 8001022:	b08c      	sub	sp, #48	@ 0x30
 8001024:	2230      	movs	r2, #48	@ 0x30
 8001026:	2100      	movs	r1, #0
 8001028:	4668      	mov	r0, sp
 800102a:	f00d fbcd 	bl	800e7c8 <memset>
 800102e:	4810      	ldr	r0, [pc, #64]	@ (8001070 <MX_DAC2_Init+0x50>)
 8001030:	4b10      	ldr	r3, [pc, #64]	@ (8001074 <MX_DAC2_Init+0x54>)
 8001032:	6003      	str	r3, [r0, #0]
 8001034:	f001 fbbc 	bl	80027b0 <HAL_DAC_Init>
 8001038:	b990      	cbnz	r0, 8001060 <MX_DAC2_Init+0x40>
 800103a:	2200      	movs	r2, #0
 800103c:	2402      	movs	r4, #2
 800103e:	2301      	movs	r3, #1
 8001040:	480b      	ldr	r0, [pc, #44]	@ (8001070 <MX_DAC2_Init+0x50>)
 8001042:	9400      	str	r4, [sp, #0]
 8001044:	4669      	mov	r1, sp
 8001046:	e9cd 2202 	strd	r2, r2, [sp, #8]
 800104a:	e9cd 2204 	strd	r2, r2, [sp, #16]
 800104e:	e9cd 3206 	strd	r3, r2, [sp, #24]
 8001052:	f8ad 2004 	strh.w	r2, [sp, #4]
 8001056:	f001 fc2b 	bl	80028b0 <HAL_DAC_ConfigChannel>
 800105a:	b920      	cbnz	r0, 8001066 <MX_DAC2_Init+0x46>
 800105c:	b00c      	add	sp, #48	@ 0x30
 800105e:	bd10      	pop	{r4, pc}
 8001060:	f000 fa6e 	bl	8001540 <Error_Handler>
 8001064:	e7e9      	b.n	800103a <MX_DAC2_Init+0x1a>
 8001066:	f000 fa6b 	bl	8001540 <Error_Handler>
 800106a:	b00c      	add	sp, #48	@ 0x30
 800106c:	bd10      	pop	{r4, pc}
 800106e:	bf00      	nop
 8001070:	20000158 	.word	0x20000158
 8001074:	50000c00 	.word	0x50000c00

08001078 <HAL_DAC_MspInit>:
 8001078:	b500      	push	{lr}
 800107a:	6802      	ldr	r2, [r0, #0]
 800107c:	492c      	ldr	r1, [pc, #176]	@ (8001130 <HAL_DAC_MspInit+0xb8>)
 800107e:	b08b      	sub	sp, #44	@ 0x2c
 8001080:	2300      	movs	r3, #0
 8001082:	428a      	cmp	r2, r1
 8001084:	e9cd 3304 	strd	r3, r3, [sp, #16]
 8001088:	e9cd 3306 	strd	r3, r3, [sp, #24]
 800108c:	9308      	str	r3, [sp, #32]
 800108e:	d004      	beq.n	800109a <HAL_DAC_MspInit+0x22>
 8001090:	4b28      	ldr	r3, [pc, #160]	@ (8001134 <HAL_DAC_MspInit+0xbc>)
 8001092:	429a      	cmp	r2, r3
 8001094:	d022      	beq.n	80010dc <HAL_DAC_MspInit+0x64>
 8001096:	b00b      	add	sp, #44	@ 0x2c
 8001098:	bd00      	pop	{pc}
 800109a:	f103 4380 	add.w	r3, r3, #1073741824	@ 0x40000000
 800109e:	f503 3304 	add.w	r3, r3, #135168	@ 0x21000
 80010a2:	ed9f 7b1f 	vldr	d7, [pc, #124]	@ 8001120 <HAL_DAC_MspInit+0xa8>
 80010a6:	6cda      	ldr	r2, [r3, #76]	@ 0x4c
 80010a8:	f442 3280 	orr.w	r2, r2, #65536	@ 0x10000
 80010ac:	64da      	str	r2, [r3, #76]	@ 0x4c
 80010ae:	6cda      	ldr	r2, [r3, #76]	@ 0x4c
 80010b0:	f402 3280 	and.w	r2, r2, #65536	@ 0x10000
 80010b4:	9200      	str	r2, [sp, #0]
 80010b6:	9a00      	ldr	r2, [sp, #0]
 80010b8:	6cda      	ldr	r2, [r3, #76]	@ 0x4c
 80010ba:	f042 0201 	orr.w	r2, r2, #1
 80010be:	64da      	str	r2, [r3, #76]	@ 0x4c
 80010c0:	6cdb      	ldr	r3, [r3, #76]	@ 0x4c
 80010c2:	f003 0301 	and.w	r3, r3, #1
 80010c6:	9301      	str	r3, [sp, #4]
 80010c8:	a904      	add	r1, sp, #16
 80010ca:	f04f 4090 	mov.w	r0, #1207959552	@ 0x48000000
 80010ce:	ed8d 7b04 	vstr	d7, [sp, #16]
 80010d2:	9b01      	ldr	r3, [sp, #4]
 80010d4:	f001 fcd8 	bl	8002a88 <HAL_GPIO_Init>
 80010d8:	b00b      	add	sp, #44	@ 0x2c
 80010da:	bd00      	pop	{pc}
 80010dc:	f103 4370 	add.w	r3, r3, #4026531840	@ 0xf0000000
 80010e0:	f503 3301 	add.w	r3, r3, #132096	@ 0x20400
 80010e4:	ed9f 7b10 	vldr	d7, [pc, #64]	@ 8001128 <HAL_DAC_MspInit+0xb0>
 80010e8:	6cda      	ldr	r2, [r3, #76]	@ 0x4c
 80010ea:	f442 3200 	orr.w	r2, r2, #131072	@ 0x20000
 80010ee:	64da      	str	r2, [r3, #76]	@ 0x4c
 80010f0:	6cda      	ldr	r2, [r3, #76]	@ 0x4c
 80010f2:	f402 3200 	and.w	r2, r2, #131072	@ 0x20000
 80010f6:	9202      	str	r2, [sp, #8]
 80010f8:	9a02      	ldr	r2, [sp, #8]
 80010fa:	6cda      	ldr	r2, [r3, #76]	@ 0x4c
 80010fc:	f042 0201 	orr.w	r2, r2, #1
 8001100:	64da      	str	r2, [r3, #76]	@ 0x4c
 8001102:	6cdb      	ldr	r3, [r3, #76]	@ 0x4c
 8001104:	f003 0301 	and.w	r3, r3, #1
 8001108:	9303      	str	r3, [sp, #12]
 800110a:	a904      	add	r1, sp, #16
 800110c:	f04f 4090 	mov.w	r0, #1207959552	@ 0x48000000
 8001110:	ed8d 7b04 	vstr	d7, [sp, #16]
 8001114:	9b03      	ldr	r3, [sp, #12]
 8001116:	f001 fcb7 	bl	8002a88 <HAL_GPIO_Init>
 800111a:	b00b      	add	sp, #44	@ 0x2c
 800111c:	bd00      	pop	{pc}
 800111e:	bf00      	nop
 8001120:	00000010 	.word	0x00000010
 8001124:	00000003 	.word	0x00000003
 8001128:	00000040 	.word	0x00000040
 800112c:	00000003 	.word	0x00000003
 8001130:	50000800 	.word	0x50000800
 8001134:	50000c00 	.word	0x50000c00

08001138 <MX_GPIO_Init>:
 8001138:	b570      	push	{r4, r5, r6, lr}
 800113a:	2400      	movs	r4, #0
 800113c:	b08a      	sub	sp, #40	@ 0x28
 800113e:	e9cd 4404 	strd	r4, r4, [sp, #16]
 8001142:	e9cd 4406 	strd	r4, r4, [sp, #24]
 8001146:	4b38      	ldr	r3, [pc, #224]	@ (8001228 <MX_GPIO_Init+0xf0>)
 8001148:	9408      	str	r4, [sp, #32]
 800114a:	6cd9      	ldr	r1, [r3, #76]	@ 0x4c
 800114c:	f041 0104 	orr.w	r1, r1, #4
 8001150:	64d9      	str	r1, [r3, #76]	@ 0x4c
 8001152:	6cd9      	ldr	r1, [r3, #76]	@ 0x4c
 8001154:	f001 0104 	and.w	r1, r1, #4
 8001158:	9100      	str	r1, [sp, #0]
 800115a:	9900      	ldr	r1, [sp, #0]
 800115c:	6cd9      	ldr	r1, [r3, #76]	@ 0x4c
 800115e:	f041 0120 	orr.w	r1, r1, #32
 8001162:	64d9      	str	r1, [r3, #76]	@ 0x4c
 8001164:	6cd9      	ldr	r1, [r3, #76]	@ 0x4c
 8001166:	f001 0120 	and.w	r1, r1, #32
 800116a:	9101      	str	r1, [sp, #4]
 800116c:	9901      	ldr	r1, [sp, #4]
 800116e:	6cd9      	ldr	r1, [r3, #76]	@ 0x4c
 8001170:	f041 0101 	orr.w	r1, r1, #1
 8001174:	64d9      	str	r1, [r3, #76]	@ 0x4c
 8001176:	6cd9      	ldr	r1, [r3, #76]	@ 0x4c
 8001178:	f001 0101 	and.w	r1, r1, #1
 800117c:	9102      	str	r1, [sp, #8]
 800117e:	9902      	ldr	r1, [sp, #8]
 8001180:	6cd9      	ldr	r1, [r3, #76]	@ 0x4c
 8001182:	f041 0102 	orr.w	r1, r1, #2
 8001186:	64d9      	str	r1, [r3, #76]	@ 0x4c
 8001188:	6cdb      	ldr	r3, [r3, #76]	@ 0x4c
 800118a:	f003 0302 	and.w	r3, r3, #2
 800118e:	4622      	mov	r2, r4
 8001190:	9303      	str	r3, [sp, #12]
 8001192:	2120      	movs	r1, #32
 8001194:	f04f 4090 	mov.w	r0, #1207959552	@ 0x48000000
 8001198:	9b03      	ldr	r3, [sp, #12]
 800119a:	f001 fe29 	bl	8002df0 <HAL_GPIO_WritePin>
 800119e:	4622      	mov	r2, r4
 80011a0:	4822      	ldr	r0, [pc, #136]	@ (800122c <MX_GPIO_Init+0xf4>)
 80011a2:	2118      	movs	r1, #24
 80011a4:	f001 fe24 	bl	8002df0 <HAL_GPIO_WritePin>
 80011a8:	f44f 5200 	mov.w	r2, #8192	@ 0x2000
 80011ac:	f44f 1388 	mov.w	r3, #1114112	@ 0x110000
 80011b0:	a904      	add	r1, sp, #16
 80011b2:	481f      	ldr	r0, [pc, #124]	@ (8001230 <MX_GPIO_Init+0xf8>)
 80011b4:	9406      	str	r4, [sp, #24]
 80011b6:	e9cd 2304 	strd	r2, r3, [sp, #16]
 80011ba:	2501      	movs	r5, #1
 80011bc:	f001 fc64 	bl	8002a88 <HAL_GPIO_Init>
 80011c0:	2320      	movs	r3, #32
 80011c2:	a904      	add	r1, sp, #16
 80011c4:	f04f 4090 	mov.w	r0, #1207959552	@ 0x48000000
 80011c8:	e9cd 3504 	strd	r3, r5, [sp, #16]
 80011cc:	2602      	movs	r6, #2
 80011ce:	e9cd 4406 	strd	r4, r4, [sp, #24]
 80011d2:	f001 fc59 	bl	8002a88 <HAL_GPIO_Init>
 80011d6:	a904      	add	r1, sp, #16
 80011d8:	2220      	movs	r2, #32
 80011da:	2300      	movs	r3, #0
 80011dc:	4814      	ldr	r0, [pc, #80]	@ (8001230 <MX_GPIO_Init+0xf8>)
 80011de:	9606      	str	r6, [sp, #24]
 80011e0:	e9cd 2304 	strd	r2, r3, [sp, #16]
 80011e4:	f001 fc50 	bl	8002a88 <HAL_GPIO_Init>
 80011e8:	f44f 7280 	mov.w	r2, #256	@ 0x100
 80011ec:	a904      	add	r1, sp, #16
 80011ee:	2300      	movs	r3, #0
 80011f0:	f04f 4090 	mov.w	r0, #1207959552	@ 0x48000000
 80011f4:	e9cd 2304 	strd	r2, r3, [sp, #16]
 80011f8:	9606      	str	r6, [sp, #24]
 80011fa:	f001 fc45 	bl	8002a88 <HAL_GPIO_Init>
 80011fe:	2318      	movs	r3, #24
 8001200:	a904      	add	r1, sp, #16
 8001202:	9304      	str	r3, [sp, #16]
 8001204:	4809      	ldr	r0, [pc, #36]	@ (800122c <MX_GPIO_Init+0xf4>)
 8001206:	2303      	movs	r3, #3
 8001208:	9307      	str	r3, [sp, #28]
 800120a:	e9cd 5405 	strd	r5, r4, [sp, #20]
 800120e:	f001 fc3b 	bl	8002a88 <HAL_GPIO_Init>
 8001212:	4622      	mov	r2, r4
 8001214:	4621      	mov	r1, r4
 8001216:	2028      	movs	r0, #40	@ 0x28
 8001218:	f001 fa68 	bl	80026ec <HAL_NVIC_SetPriority>
 800121c:	2028      	movs	r0, #40	@ 0x28
 800121e:	f001 fa9f 	bl	8002760 <HAL_NVIC_EnableIRQ>
 8001222:	b00a      	add	sp, #40	@ 0x28
 8001224:	bd70      	pop	{r4, r5, r6, pc}
 8001226:	bf00      	nop
 8001228:	40021000 	.word	0x40021000
 800122c:	48000400 	.word	0x48000400
 8001230:	48000800 	.word	0x48000800

08001234 <SystemClock_Config>:
 8001234:	b510      	push	{r4, lr}
 8001236:	b094      	sub	sp, #80	@ 0x50
 8001238:	2238      	movs	r2, #56	@ 0x38
 800123a:	2100      	movs	r1, #0
 800123c:	a806      	add	r0, sp, #24
 800123e:	f00d fac3 	bl	800e7c8 <memset>
 8001242:	2000      	movs	r0, #0
 8001244:	e9cd 0001 	strd	r0, r0, [sp, #4]
 8001248:	e9cd 0003 	strd	r0, r0, [sp, #12]
 800124c:	9005      	str	r0, [sp, #20]
 800124e:	f001 fde3 	bl	8002e18 <HAL_PWREx_ControlVoltageScaling>
 8001252:	2240      	movs	r2, #64	@ 0x40
 8001254:	f44f 7180 	mov.w	r1, #256	@ 0x100
 8001258:	2302      	movs	r3, #2
 800125a:	e9cd 1209 	strd	r1, r2, [sp, #36]	@ 0x24
 800125e:	2404      	movs	r4, #4
 8001260:	2255      	movs	r2, #85	@ 0x55
 8001262:	a806      	add	r0, sp, #24
 8001264:	e9cd 330d 	strd	r3, r3, [sp, #52]	@ 0x34
 8001268:	e9cd 420f 	strd	r4, r2, [sp, #60]	@ 0x3c
 800126c:	e9cd 3311 	strd	r3, r3, [sp, #68]	@ 0x44
 8001270:	9306      	str	r3, [sp, #24]
 8001272:	9313      	str	r3, [sp, #76]	@ 0x4c
 8001274:	f001 fe4a 	bl	8002f0c <HAL_RCC_OscConfig>
 8001278:	b108      	cbz	r0, 800127e <SystemClock_Config+0x4a>
 800127a:	b672      	cpsid	i
 800127c:	e7fe      	b.n	800127c <SystemClock_Config+0x48>
 800127e:	4603      	mov	r3, r0
 8001280:	f04f 0c0f 	mov.w	ip, #15
 8001284:	2203      	movs	r2, #3
 8001286:	4621      	mov	r1, r4
 8001288:	a801      	add	r0, sp, #4
 800128a:	e9cd c201 	strd	ip, r2, [sp, #4]
 800128e:	e9cd 3303 	strd	r3, r3, [sp, #12]
 8001292:	9305      	str	r3, [sp, #20]
 8001294:	f002 f8b4 	bl	8003400 <HAL_RCC_ClockConfig>
 8001298:	b108      	cbz	r0, 800129e <SystemClock_Config+0x6a>
 800129a:	b672      	cpsid	i
 800129c:	e7fe      	b.n	800129c <SystemClock_Config+0x68>
 800129e:	b014      	add	sp, #80	@ 0x50
 80012a0:	bd10      	pop	{r4, pc}
 80012a2:	bf00      	nop

080012a4 <main>:
 80012a4:	b580      	push	{r7, lr}
 80012a6:	f000 fb1b 	bl	80018e0 <HAL_Init>
 80012aa:	f7ff ffc3 	bl	8001234 <SystemClock_Config>
 80012ae:	f7ff ff43 	bl	8001138 <MX_GPIO_Init>
 80012b2:	f000 f989 	bl	80015c8 <MX_TIM1_Init>
 80012b6:	f000 fa2f 	bl	8001718 <MX_LPUART1_UART_Init>
 80012ba:	f7ff fe85 	bl	8000fc8 <MX_DAC1_Init>
 80012be:	f7ff feaf 	bl	8001020 <MX_DAC2_Init>
 80012c2:	f7ff fd5d 	bl	8000d80 <MX_ADC1_Init>
 80012c6:	f7ff fdab 	bl	8000e20 <MX_ADC2_Init>
 80012ca:	491b      	ldr	r1, [pc, #108]	@ (8001338 <main+0x94>)
 80012cc:	4b1b      	ldr	r3, [pc, #108]	@ (800133c <main+0x98>)
 80012ce:	f8d1 20fc 	ldr.w	r2, [r1, #252]	@ 0xfc
 80012d2:	4d1b      	ldr	r5, [pc, #108]	@ (8001340 <main+0x9c>)
 80012d4:	4c1b      	ldr	r4, [pc, #108]	@ (8001344 <main+0xa0>)
 80012d6:	2700      	movs	r7, #0
 80012d8:	f042 7280 	orr.w	r2, r2, #16777216	@ 0x1000000
 80012dc:	f8c1 20fc 	str.w	r2, [r1, #252]	@ 0xfc
 80012e0:	605f      	str	r7, [r3, #4]
 80012e2:	681a      	ldr	r2, [r3, #0]
 80012e4:	f042 0201 	orr.w	r2, r2, #1
 80012e8:	601a      	str	r2, [r3, #0]
 80012ea:	4628      	mov	r0, r5
 80012ec:	f007 ffca 	bl	8009284 <Startup_H96e4298bd9675fbbcb46b0c1f68b039a5627ebc5_cb4a8a449b4ada864625ee5a4355578a3aaf08ed>
 80012f0:	4a15      	ldr	r2, [pc, #84]	@ (8001348 <main+0xa4>)
 80012f2:	f8d5 3244 	ldr.w	r3, [r5, #580]	@ 0x244
 80012f6:	6812      	ldr	r2, [r2, #0]
 80012f8:	4814      	ldr	r0, [pc, #80]	@ (800134c <main+0xa8>)
 80012fa:	1a9b      	subs	r3, r3, r2
 80012fc:	fab3 f383 	clz	r3, r3
 8001300:	095b      	lsrs	r3, r3, #5
 8001302:	4639      	mov	r1, r7
 8001304:	7023      	strb	r3, [r4, #0]
 8001306:	f001 fa69 	bl	80027dc <HAL_DAC_Start>
 800130a:	4639      	mov	r1, r7
 800130c:	4810      	ldr	r0, [pc, #64]	@ (8001350 <main+0xac>)
 800130e:	f001 fa65 	bl	80027dc <HAL_DAC_Start>
 8001312:	4810      	ldr	r0, [pc, #64]	@ (8001354 <main+0xb0>)
 8001314:	f002 fc9e 	bl	8003c54 <HAL_TIM_Base_Start_IT>
 8001318:	b662      	cpsie	i
 800131a:	4e0f      	ldr	r6, [pc, #60]	@ (8001358 <main+0xb4>)
 800131c:	f241 3588 	movw	r5, #5000	@ 0x1388
 8001320:	7823      	ldrb	r3, [r4, #0]
 8001322:	2b00      	cmp	r3, #0
 8001324:	d0fc      	beq.n	8001320 <main+0x7c>
 8001326:	f000 faf7 	bl	8001918 <HAL_GetTick>
 800132a:	6833      	ldr	r3, [r6, #0]
 800132c:	1ac0      	subs	r0, r0, r3
 800132e:	42a8      	cmp	r0, r5
 8001330:	d9f6      	bls.n	8001320 <main+0x7c>
 8001332:	7027      	strb	r7, [r4, #0]
 8001334:	e7f4      	b.n	8001320 <main+0x7c>
 8001336:	bf00      	nop
 8001338:	e000ed00 	.word	0xe000ed00
 800133c:	e0001000 	.word	0xe0001000
 8001340:	2000018c 	.word	0x2000018c
 8001344:	20000184 	.word	0x20000184
 8001348:	0800f8b8 	.word	0x0800f8b8
 800134c:	2000016c 	.word	0x2000016c
 8001350:	20000158 	.word	0x20000158
 8001354:	200003d8 	.word	0x200003d8
 8001358:	20000180 	.word	0x20000180

0800135c <HAL_TIM_PeriodElapsedCallback>:
 800135c:	b5f8      	push	{r3, r4, r5, r6, r7, lr}
 800135e:	6802      	ldr	r2, [r0, #0]
 8001360:	4b65      	ldr	r3, [pc, #404]	@ (80014f8 <HAL_TIM_PeriodElapsedCallback+0x19c>)
 8001362:	429a      	cmp	r2, r3
 8001364:	d000      	beq.n	8001368 <HAL_TIM_PeriodElapsedCallback+0xc>
 8001366:	bdf8      	pop	{r3, r4, r5, r6, r7, pc}
 8001368:	4b64      	ldr	r3, [pc, #400]	@ (80014fc <HAL_TIM_PeriodElapsedCallback+0x1a0>)
 800136a:	4c65      	ldr	r4, [pc, #404]	@ (8001500 <HAL_TIM_PeriodElapsedCallback+0x1a4>)
 800136c:	4865      	ldr	r0, [pc, #404]	@ (8001504 <HAL_TIM_PeriodElapsedCallback+0x1a8>)
 800136e:	681e      	ldr	r6, [r3, #0]
 8001370:	6867      	ldr	r7, [r4, #4]
 8001372:	4c65      	ldr	r4, [pc, #404]	@ (8001508 <HAL_TIM_PeriodElapsedCallback+0x1ac>)
 8001374:	2201      	movs	r2, #1
 8001376:	2108      	movs	r1, #8
 8001378:	f001 fd3a 	bl	8002df0 <HAL_GPIO_WritePin>
 800137c:	f44f 5100 	mov.w	r1, #8192	@ 0x2000
 8001380:	4862      	ldr	r0, [pc, #392]	@ (800150c <HAL_TIM_PeriodElapsedCallback+0x1b0>)
 8001382:	f001 fd2f 	bl	8002de4 <HAL_GPIO_ReadPin>
 8001386:	f1a0 0001 	sub.w	r0, r0, #1
 800138a:	fab0 f080 	clz	r0, r0
 800138e:	0940      	lsrs	r0, r0, #5
 8001390:	f44f 7180 	mov.w	r1, #256	@ 0x100
 8001394:	7020      	strb	r0, [r4, #0]
 8001396:	f04f 4090 	mov.w	r0, #1207959552	@ 0x48000000
 800139a:	f001 fd23 	bl	8002de4 <HAL_GPIO_ReadPin>
 800139e:	f1a0 0301 	sub.w	r3, r0, #1
 80013a2:	fab3 f383 	clz	r3, r3
 80013a6:	095b      	lsrs	r3, r3, #5
 80013a8:	2120      	movs	r1, #32
 80013aa:	4858      	ldr	r0, [pc, #352]	@ (800150c <HAL_TIM_PeriodElapsedCallback+0x1b0>)
 80013ac:	7063      	strb	r3, [r4, #1]
 80013ae:	f001 fd19 	bl	8002de4 <HAL_GPIO_ReadPin>
 80013b2:	f1a0 0301 	sub.w	r3, r0, #1
 80013b6:	fab3 f383 	clz	r3, r3
 80013ba:	095b      	lsrs	r3, r3, #5
 80013bc:	4854      	ldr	r0, [pc, #336]	@ (8001510 <HAL_TIM_PeriodElapsedCallback+0x1b4>)
 80013be:	70a3      	strb	r3, [r4, #2]
 80013c0:	f000 fff4 	bl	80023ac <HAL_ADC_Start>
 80013c4:	4852      	ldr	r0, [pc, #328]	@ (8001510 <HAL_TIM_PeriodElapsedCallback+0x1b4>)
 80013c6:	2101      	movs	r1, #1
 80013c8:	f000 fbbc 	bl	8001b44 <HAL_ADC_PollForConversion>
 80013cc:	2800      	cmp	r0, #0
 80013ce:	f000 8081 	beq.w	80014d4 <HAL_TIM_PeriodElapsedCallback+0x178>
 80013d2:	2700      	movs	r7, #0
 80013d4:	484e      	ldr	r0, [pc, #312]	@ (8001510 <HAL_TIM_PeriodElapsedCallback+0x1b4>)
 80013d6:	f001 f8a7 	bl	8002528 <HAL_ADC_Stop>
 80013da:	484e      	ldr	r0, [pc, #312]	@ (8001514 <HAL_TIM_PeriodElapsedCallback+0x1b8>)
 80013dc:	f000 ffe6 	bl	80023ac <HAL_ADC_Start>
 80013e0:	484c      	ldr	r0, [pc, #304]	@ (8001514 <HAL_TIM_PeriodElapsedCallback+0x1b8>)
 80013e2:	2101      	movs	r1, #1
 80013e4:	f000 fbae 	bl	8001b44 <HAL_ADC_PollForConversion>
 80013e8:	2800      	cmp	r0, #0
 80013ea:	d061      	beq.n	80014b0 <HAL_TIM_PeriodElapsedCallback+0x154>
 80013ec:	2700      	movs	r7, #0
 80013ee:	4849      	ldr	r0, [pc, #292]	@ (8001514 <HAL_TIM_PeriodElapsedCallback+0x1b8>)
 80013f0:	f001 f89a 	bl	8002528 <HAL_ADC_Stop>
 80013f4:	4844      	ldr	r0, [pc, #272]	@ (8001508 <HAL_TIM_PeriodElapsedCallback+0x1ac>)
 80013f6:	f008 f82b 	bl	8009450 <DoStep_H96e4298bd9675fbbcb46b0c1f68b039a5627ebc5_cb4a8a449b4ada864625ee5a4355578a3aaf08ed>
 80013fa:	ed9f 7a47 	vldr	s14, [pc, #284]	@ 8001518 <HAL_TIM_PeriodElapsedCallback+0x1bc>
 80013fe:	edd4 7a05 	vldr	s15, [r4, #20]
 8001402:	f8d4 5244 	ldr.w	r5, [r4, #580]	@ 0x244
 8001406:	ee67 7a87 	vmul.f32	s15, s15, s14
 800140a:	4335      	orrs	r5, r6
 800140c:	eef5 7ac0 	vcmpe.f32	s15, #0.0
 8001410:	eef1 fa10 	vmrs	APSR_nzcv, fpscr
 8001414:	d44a      	bmi.n	80014ac <HAL_TIM_PeriodElapsedCallback+0x150>
 8001416:	ed9f 7a41 	vldr	s14, [pc, #260]	@ 800151c <HAL_TIM_PeriodElapsedCallback+0x1c0>
 800141a:	eef4 7ac7 	vcmpe.f32	s15, s14
 800141e:	eef1 fa10 	vmrs	APSR_nzcv, fpscr
 8001422:	bfd8      	it	le
 8001424:	eeb0 7a67 	vmovle.f32	s14, s15
 8001428:	eefc 7ac7 	vcvt.u32.f32	s15, s14
 800142c:	ee17 3a90 	vmov	r3, s15
 8001430:	2200      	movs	r2, #0
 8001432:	483b      	ldr	r0, [pc, #236]	@ (8001520 <HAL_TIM_PeriodElapsedCallback+0x1c4>)
 8001434:	4611      	mov	r1, r2
 8001436:	f001 fa1d 	bl	8002874 <HAL_DAC_SetValue>
 800143a:	ed9f 7a37 	vldr	s14, [pc, #220]	@ 8001518 <HAL_TIM_PeriodElapsedCallback+0x1bc>
 800143e:	edd4 7a07 	vldr	s15, [r4, #28]
 8001442:	ee67 7a87 	vmul.f32	s15, s15, s14
 8001446:	eef5 7ac0 	vcmpe.f32	s15, #0.0
 800144a:	eef1 fa10 	vmrs	APSR_nzcv, fpscr
 800144e:	d42b      	bmi.n	80014a8 <HAL_TIM_PeriodElapsedCallback+0x14c>
 8001450:	ed9f 7a32 	vldr	s14, [pc, #200]	@ 800151c <HAL_TIM_PeriodElapsedCallback+0x1c0>
 8001454:	eef4 7ac7 	vcmpe.f32	s15, s14
 8001458:	eef1 fa10 	vmrs	APSR_nzcv, fpscr
 800145c:	bfd8      	it	le
 800145e:	eeb0 7a67 	vmovle.f32	s14, s15
 8001462:	eefc 7ac7 	vcvt.u32.f32	s15, s14
 8001466:	ee17 3a90 	vmov	r3, s15
 800146a:	2200      	movs	r2, #0
 800146c:	4611      	mov	r1, r2
 800146e:	482d      	ldr	r0, [pc, #180]	@ (8001524 <HAL_TIM_PeriodElapsedCallback+0x1c8>)
 8001470:	f001 fa00 	bl	8002874 <HAL_DAC_SetValue>
 8001474:	2200      	movs	r2, #0
 8001476:	4823      	ldr	r0, [pc, #140]	@ (8001504 <HAL_TIM_PeriodElapsedCallback+0x1a8>)
 8001478:	2108      	movs	r1, #8
 800147a:	f001 fcb9 	bl	8002df0 <HAL_GPIO_WritePin>
 800147e:	4b20      	ldr	r3, [pc, #128]	@ (8001500 <HAL_TIM_PeriodElapsedCallback+0x1a4>)
 8001480:	4a29      	ldr	r2, [pc, #164]	@ (8001528 <HAL_TIM_PeriodElapsedCallback+0x1cc>)
 8001482:	685b      	ldr	r3, [r3, #4]
 8001484:	42ae      	cmp	r6, r5
 8001486:	eba3 0307 	sub.w	r3, r3, r7
 800148a:	6013      	str	r3, [r2, #0]
 800148c:	d104      	bne.n	8001498 <HAL_TIM_PeriodElapsedCallback+0x13c>
 800148e:	6812      	ldr	r2, [r2, #0]
 8001490:	4b26      	ldr	r3, [pc, #152]	@ (800152c <HAL_TIM_PeriodElapsedCallback+0x1d0>)
 8001492:	429a      	cmp	r2, r3
 8001494:	f67f af67 	bls.w	8001366 <HAL_TIM_PeriodElapsedCallback+0xa>
 8001498:	4b25      	ldr	r3, [pc, #148]	@ (8001530 <HAL_TIM_PeriodElapsedCallback+0x1d4>)
 800149a:	2201      	movs	r2, #1
 800149c:	701a      	strb	r2, [r3, #0]
 800149e:	f000 fa3b 	bl	8001918 <HAL_GetTick>
 80014a2:	4b24      	ldr	r3, [pc, #144]	@ (8001534 <HAL_TIM_PeriodElapsedCallback+0x1d8>)
 80014a4:	6018      	str	r0, [r3, #0]
 80014a6:	bdf8      	pop	{r3, r4, r5, r6, r7, pc}
 80014a8:	2300      	movs	r3, #0
 80014aa:	e7de      	b.n	800146a <HAL_TIM_PeriodElapsedCallback+0x10e>
 80014ac:	2300      	movs	r3, #0
 80014ae:	e7bf      	b.n	8001430 <HAL_TIM_PeriodElapsedCallback+0xd4>
 80014b0:	4818      	ldr	r0, [pc, #96]	@ (8001514 <HAL_TIM_PeriodElapsedCallback+0x1b8>)
 80014b2:	f000 fbf5 	bl	8001ca0 <HAL_ADC_GetValue>
 80014b6:	ee07 0a90 	vmov	s15, r0
 80014ba:	eddf 6a1f 	vldr	s13, [pc, #124]	@ 8001538 <HAL_TIM_PeriodElapsedCallback+0x1dc>
 80014be:	eef8 7a67 	vcvt.f32.u32	s15, s15
 80014c2:	eeb3 7a04 	vmov.f32	s14, #52	@ 0x41a00000  20.0
 80014c6:	ee67 7aa6 	vmul.f32	s15, s15, s13
 80014ca:	ee77 7ac7 	vsub.f32	s15, s15, s14
 80014ce:	edc4 7a01 	vstr	s15, [r4, #4]
 80014d2:	e78c      	b.n	80013ee <HAL_TIM_PeriodElapsedCallback+0x92>
 80014d4:	480e      	ldr	r0, [pc, #56]	@ (8001510 <HAL_TIM_PeriodElapsedCallback+0x1b4>)
 80014d6:	f000 fbe3 	bl	8001ca0 <HAL_ADC_GetValue>
 80014da:	ee07 0a90 	vmov	s15, r0
 80014de:	eddf 6a17 	vldr	s13, [pc, #92]	@ 800153c <HAL_TIM_PeriodElapsedCallback+0x1e0>
 80014e2:	eef8 7a67 	vcvt.f32.u32	s15, s15
 80014e6:	eeb7 7a08 	vmov.f32	s14, #120	@ 0x3fc00000  1.5
 80014ea:	ee67 7aa6 	vmul.f32	s15, s15, s13
 80014ee:	ee77 7ac7 	vsub.f32	s15, s15, s14
 80014f2:	edc4 7a02 	vstr	s15, [r4, #8]
 80014f6:	e76d      	b.n	80013d4 <HAL_TIM_PeriodElapsedCallback+0x78>
 80014f8:	40012c00 	.word	0x40012c00
 80014fc:	0800f8b8 	.word	0x0800f8b8
 8001500:	e0001000 	.word	0xe0001000
 8001504:	48000400 	.word	0x48000400
 8001508:	2000018c 	.word	0x2000018c
 800150c:	48000800 	.word	0x48000800
 8001510:	200000ec 	.word	0x200000ec
 8001514:	20000080 	.word	0x20000080
 8001518:	449b1d17 	.word	0x449b1d17
 800151c:	457ff000 	.word	0x457ff000
 8001520:	2000016c 	.word	0x2000016c
 8001524:	20000158 	.word	0x20000158
 8001528:	20000188 	.word	0x20000188
 800152c:	00029810 	.word	0x00029810
 8001530:	20000184 	.word	0x20000184
 8001534:	20000180 	.word	0x20000180
 8001538:	3c200a01 	.word	0x3c200a01
 800153c:	3a534067 	.word	0x3a534067

08001540 <Error_Handler>:
 8001540:	b672      	cpsid	i
 8001542:	e7fe      	b.n	8001542 <Error_Handler+0x2>

08001544 <HAL_MspInit>:
 8001544:	4b0b      	ldr	r3, [pc, #44]	@ (8001574 <HAL_MspInit+0x30>)
 8001546:	6e1a      	ldr	r2, [r3, #96]	@ 0x60
 8001548:	f042 0201 	orr.w	r2, r2, #1
 800154c:	b082      	sub	sp, #8
 800154e:	661a      	str	r2, [r3, #96]	@ 0x60
 8001550:	6e1a      	ldr	r2, [r3, #96]	@ 0x60
 8001552:	f002 0201 	and.w	r2, r2, #1
 8001556:	9200      	str	r2, [sp, #0]
 8001558:	9a00      	ldr	r2, [sp, #0]
 800155a:	6d9a      	ldr	r2, [r3, #88]	@ 0x58
 800155c:	f042 5280 	orr.w	r2, r2, #268435456	@ 0x10000000
 8001560:	659a      	str	r2, [r3, #88]	@ 0x58
 8001562:	6d9b      	ldr	r3, [r3, #88]	@ 0x58
 8001564:	f003 5380 	and.w	r3, r3, #268435456	@ 0x10000000
 8001568:	9301      	str	r3, [sp, #4]
 800156a:	9b01      	ldr	r3, [sp, #4]
 800156c:	b002      	add	sp, #8
 800156e:	f001 bcc5 	b.w	8002efc <HAL_PWREx_DisableUCPDDeadBattery>
 8001572:	bf00      	nop
 8001574:	40021000 	.word	0x40021000

08001578 <NMI_Handler>:
 8001578:	e7fe      	b.n	8001578 <NMI_Handler>
 800157a:	bf00      	nop

0800157c <HardFault_Handler>:
 800157c:	e7fe      	b.n	800157c <HardFault_Handler>
 800157e:	bf00      	nop

08001580 <MemManage_Handler>:
 8001580:	e7fe      	b.n	8001580 <MemManage_Handler>
 8001582:	bf00      	nop

08001584 <BusFault_Handler>:
 8001584:	e7fe      	b.n	8001584 <BusFault_Handler>
 8001586:	bf00      	nop

08001588 <UsageFault_Handler>:
 8001588:	e7fe      	b.n	8001588 <UsageFault_Handler>
 800158a:	bf00      	nop

0800158c <SVC_Handler>:
 800158c:	4770      	bx	lr
 800158e:	bf00      	nop

08001590 <DebugMon_Handler>:
 8001590:	4770      	bx	lr
 8001592:	bf00      	nop

08001594 <PendSV_Handler>:
 8001594:	4770      	bx	lr
 8001596:	bf00      	nop

08001598 <SysTick_Handler>:
 8001598:	f000 b9b2 	b.w	8001900 <HAL_IncTick>

0800159c <TIM1_UP_TIM16_IRQHandler>:
 800159c:	4801      	ldr	r0, [pc, #4]	@ (80015a4 <TIM1_UP_TIM16_IRQHandler+0x8>)
 800159e:	f002 bd67 	b.w	8004070 <HAL_TIM_IRQHandler>
 80015a2:	bf00      	nop
 80015a4:	200003d8 	.word	0x200003d8

080015a8 <EXTI15_10_IRQHandler>:
 80015a8:	f44f 5000 	mov.w	r0, #8192	@ 0x2000
 80015ac:	f001 bc28 	b.w	8002e00 <HAL_GPIO_EXTI_IRQHandler>

080015b0 <SystemInit>:
 80015b0:	4a03      	ldr	r2, [pc, #12]	@ (80015c0 <SystemInit+0x10>)
 80015b2:	f8d2 3088 	ldr.w	r3, [r2, #136]	@ 0x88
 80015b6:	f443 0370 	orr.w	r3, r3, #15728640	@ 0xf00000
 80015ba:	f8c2 3088 	str.w	r3, [r2, #136]	@ 0x88
 80015be:	4770      	bx	lr
 80015c0:	e000ed00 	.word	0xe000ed00
 80015c4:	00000000 	.word	0x00000000

080015c8 <MX_TIM1_Init>:
 80015c8:	b510      	push	{r4, lr}
 80015ca:	2400      	movs	r4, #0
 80015cc:	b09c      	sub	sp, #112	@ 0x70
 80015ce:	2234      	movs	r2, #52	@ 0x34
 80015d0:	4621      	mov	r1, r4
 80015d2:	a80f      	add	r0, sp, #60	@ 0x3c
 80015d4:	e9cd 4405 	strd	r4, r4, [sp, #20]
 80015d8:	e9cd 4401 	strd	r4, r4, [sp, #4]
 80015dc:	e9cd 4409 	strd	r4, r4, [sp, #36]	@ 0x24
 80015e0:	e9cd 440b 	strd	r4, r4, [sp, #44]	@ 0x2c
 80015e4:	e9cd 440d 	strd	r4, r4, [sp, #52]	@ 0x34
 80015e8:	9404      	str	r4, [sp, #16]
 80015ea:	9400      	str	r4, [sp, #0]
 80015ec:	9408      	str	r4, [sp, #32]
 80015ee:	9407      	str	r4, [sp, #28]
 80015f0:	f00d f8ea 	bl	800e7c8 <memset>
 80015f4:	4a36      	ldr	r2, [pc, #216]	@ (80016d0 <MX_TIM1_Init+0x108>)
 80015f6:	4937      	ldr	r1, [pc, #220]	@ (80016d4 <MX_TIM1_Init+0x10c>)
 80015f8:	2321      	movs	r3, #33	@ 0x21
 80015fa:	2010      	movs	r0, #16
 80015fc:	e9c2 1300 	strd	r1, r3, [r2]
 8001600:	f240 33e7 	movw	r3, #999	@ 0x3e7
 8001604:	e9c2 0302 	strd	r0, r3, [r2, #8]
 8001608:	2380      	movs	r3, #128	@ 0x80
 800160a:	4610      	mov	r0, r2
 800160c:	e9c2 4404 	strd	r4, r4, [r2, #16]
 8001610:	6193      	str	r3, [r2, #24]
 8001612:	f002 fa81 	bl	8003b18 <HAL_TIM_Base_Init>
 8001616:	2800      	cmp	r0, #0
 8001618:	d140      	bne.n	800169c <MX_TIM1_Init+0xd4>
 800161a:	f44f 5380 	mov.w	r3, #4096	@ 0x1000
 800161e:	482c      	ldr	r0, [pc, #176]	@ (80016d0 <MX_TIM1_Init+0x108>)
 8001620:	9304      	str	r3, [sp, #16]
 8001622:	a904      	add	r1, sp, #16
 8001624:	f002 fbf6 	bl	8003e14 <HAL_TIM_ConfigClockSource>
 8001628:	2800      	cmp	r0, #0
 800162a:	d147      	bne.n	80016bc <MX_TIM1_Init+0xf4>
 800162c:	4828      	ldr	r0, [pc, #160]	@ (80016d0 <MX_TIM1_Init+0x108>)
 800162e:	f002 fb53 	bl	8003cd8 <HAL_TIM_OC_Init>
 8001632:	2800      	cmp	r0, #0
 8001634:	d13f      	bne.n	80016b6 <MX_TIM1_Init+0xee>
 8001636:	2300      	movs	r3, #0
 8001638:	2200      	movs	r2, #0
 800163a:	e9cd 2300 	strd	r2, r3, [sp]
 800163e:	4824      	ldr	r0, [pc, #144]	@ (80016d0 <MX_TIM1_Init+0x108>)
 8001640:	2300      	movs	r3, #0
 8001642:	4669      	mov	r1, sp
 8001644:	9302      	str	r3, [sp, #8]
 8001646:	f002 fedb 	bl	8004400 <HAL_TIMEx_MasterConfigSynchronization>
 800164a:	bb88      	cbnz	r0, 80016b0 <MX_TIM1_Init+0xe8>
 800164c:	ed9f 7b1e 	vldr	d7, [pc, #120]	@ 80016c8 <MX_TIM1_Init+0x100>
 8001650:	2200      	movs	r2, #0
 8001652:	481f      	ldr	r0, [pc, #124]	@ (80016d0 <MX_TIM1_Init+0x108>)
 8001654:	920e      	str	r2, [sp, #56]	@ 0x38
 8001656:	a908      	add	r1, sp, #32
 8001658:	ed8d 7b0c 	vstr	d7, [sp, #48]	@ 0x30
 800165c:	e9cd 2208 	strd	r2, r2, [sp, #32]
 8001660:	e9cd 220a 	strd	r2, r2, [sp, #40]	@ 0x28
 8001664:	f002 fe2e 	bl	80042c4 <HAL_TIM_OC_ConfigChannel>
 8001668:	b9f8      	cbnz	r0, 80016aa <MX_TIM1_Init+0xe2>
 800166a:	2300      	movs	r3, #0
 800166c:	f44f 5400 	mov.w	r4, #8192	@ 0x2000
 8001670:	f04f 7200 	mov.w	r2, #33554432	@ 0x2000000
 8001674:	4816      	ldr	r0, [pc, #88]	@ (80016d0 <MX_TIM1_Init+0x108>)
 8001676:	931b      	str	r3, [sp, #108]	@ 0x6c
 8001678:	a90f      	add	r1, sp, #60	@ 0x3c
 800167a:	e9cd 330f 	strd	r3, r3, [sp, #60]	@ 0x3c
 800167e:	e9cd 3311 	strd	r3, r3, [sp, #68]	@ 0x44
 8001682:	e9cd 3413 	strd	r3, r4, [sp, #76]	@ 0x4c
 8001686:	e9cd 3315 	strd	r3, r3, [sp, #84]	@ 0x54
 800168a:	e9cd 3217 	strd	r3, r2, [sp, #92]	@ 0x5c
 800168e:	e9cd 3319 	strd	r3, r3, [sp, #100]	@ 0x64
 8001692:	f002 ff0f 	bl	80044b4 <HAL_TIMEx_ConfigBreakDeadTime>
 8001696:	b920      	cbnz	r0, 80016a2 <MX_TIM1_Init+0xda>
 8001698:	b01c      	add	sp, #112	@ 0x70
 800169a:	bd10      	pop	{r4, pc}
 800169c:	f7ff ff50 	bl	8001540 <Error_Handler>
 80016a0:	e7bb      	b.n	800161a <MX_TIM1_Init+0x52>
 80016a2:	f7ff ff4d 	bl	8001540 <Error_Handler>
 80016a6:	b01c      	add	sp, #112	@ 0x70
 80016a8:	bd10      	pop	{r4, pc}
 80016aa:	f7ff ff49 	bl	8001540 <Error_Handler>
 80016ae:	e7dc      	b.n	800166a <MX_TIM1_Init+0xa2>
 80016b0:	f7ff ff46 	bl	8001540 <Error_Handler>
 80016b4:	e7ca      	b.n	800164c <MX_TIM1_Init+0x84>
 80016b6:	f7ff ff43 	bl	8001540 <Error_Handler>
 80016ba:	e7bc      	b.n	8001636 <MX_TIM1_Init+0x6e>
 80016bc:	f7ff ff40 	bl	8001540 <Error_Handler>
 80016c0:	e7b4      	b.n	800162c <MX_TIM1_Init+0x64>
 80016c2:	bf00      	nop
 80016c4:	f3af 8000 	nop.w
	...
 80016d0:	200003d8 	.word	0x200003d8
 80016d4:	40012c00 	.word	0x40012c00

080016d8 <HAL_TIM_Base_MspInit>:
 80016d8:	4b0e      	ldr	r3, [pc, #56]	@ (8001714 <HAL_TIM_Base_MspInit+0x3c>)
 80016da:	6802      	ldr	r2, [r0, #0]
 80016dc:	429a      	cmp	r2, r3
 80016de:	d000      	beq.n	80016e2 <HAL_TIM_Base_MspInit+0xa>
 80016e0:	4770      	bx	lr
 80016e2:	b500      	push	{lr}
 80016e4:	f503 4364 	add.w	r3, r3, #58368	@ 0xe400
 80016e8:	b083      	sub	sp, #12
 80016ea:	6e18      	ldr	r0, [r3, #96]	@ 0x60
 80016ec:	f440 6000 	orr.w	r0, r0, #2048	@ 0x800
 80016f0:	6618      	str	r0, [r3, #96]	@ 0x60
 80016f2:	6e1b      	ldr	r3, [r3, #96]	@ 0x60
 80016f4:	2200      	movs	r2, #0
 80016f6:	f403 6300 	and.w	r3, r3, #2048	@ 0x800
 80016fa:	9301      	str	r3, [sp, #4]
 80016fc:	4611      	mov	r1, r2
 80016fe:	2019      	movs	r0, #25
 8001700:	9b01      	ldr	r3, [sp, #4]
 8001702:	f000 fff3 	bl	80026ec <HAL_NVIC_SetPriority>
 8001706:	2019      	movs	r0, #25
 8001708:	b003      	add	sp, #12
 800170a:	f85d eb04 	ldr.w	lr, [sp], #4
 800170e:	f001 b827 	b.w	8002760 <HAL_NVIC_EnableIRQ>
 8001712:	bf00      	nop
 8001714:	40012c00 	.word	0x40012c00

08001718 <MX_LPUART1_UART_Init>:
 8001718:	b510      	push	{r4, lr}
 800171a:	4820      	ldr	r0, [pc, #128]	@ (800179c <MX_LPUART1_UART_Init+0x84>)
 800171c:	4c20      	ldr	r4, [pc, #128]	@ (80017a0 <MX_LPUART1_UART_Init+0x88>)
 800171e:	f44f 2161 	mov.w	r1, #921600	@ 0xe1000
 8001722:	e9c4 0100 	strd	r0, r1, [r4]
 8001726:	2000      	movs	r0, #0
 8001728:	2100      	movs	r1, #0
 800172a:	2300      	movs	r3, #0
 800172c:	e9c4 0108 	strd	r0, r1, [r4, #32]
 8001730:	220c      	movs	r2, #12
 8001732:	4620      	mov	r0, r4
 8001734:	e9c4 3302 	strd	r3, r3, [r4, #8]
 8001738:	e9c4 3204 	strd	r3, r2, [r4, #16]
 800173c:	61a3      	str	r3, [r4, #24]
 800173e:	62a3      	str	r3, [r4, #40]	@ 0x28
 8001740:	f003 f9ee 	bl	8004b20 <HAL_UART_Init>
 8001744:	b970      	cbnz	r0, 8001764 <MX_LPUART1_UART_Init+0x4c>
 8001746:	4816      	ldr	r0, [pc, #88]	@ (80017a0 <MX_LPUART1_UART_Init+0x88>)
 8001748:	2100      	movs	r1, #0
 800174a:	f003 fa3b 	bl	8004bc4 <HAL_UARTEx_SetTxFifoThreshold>
 800174e:	b988      	cbnz	r0, 8001774 <MX_LPUART1_UART_Init+0x5c>
 8001750:	4813      	ldr	r0, [pc, #76]	@ (80017a0 <MX_LPUART1_UART_Init+0x88>)
 8001752:	2100      	movs	r1, #0
 8001754:	f003 fa78 	bl	8004c48 <HAL_UARTEx_SetRxFifoThreshold>
 8001758:	b9a0      	cbnz	r0, 8001784 <MX_LPUART1_UART_Init+0x6c>
 800175a:	4811      	ldr	r0, [pc, #68]	@ (80017a0 <MX_LPUART1_UART_Init+0x88>)
 800175c:	f003 fa14 	bl	8004b88 <HAL_UARTEx_DisableFifoMode>
 8001760:	b9b8      	cbnz	r0, 8001792 <MX_LPUART1_UART_Init+0x7a>
 8001762:	bd10      	pop	{r4, pc}
 8001764:	f7ff feec 	bl	8001540 <Error_Handler>
 8001768:	480d      	ldr	r0, [pc, #52]	@ (80017a0 <MX_LPUART1_UART_Init+0x88>)
 800176a:	2100      	movs	r1, #0
 800176c:	f003 fa2a 	bl	8004bc4 <HAL_UARTEx_SetTxFifoThreshold>
 8001770:	2800      	cmp	r0, #0
 8001772:	d0ed      	beq.n	8001750 <MX_LPUART1_UART_Init+0x38>
 8001774:	f7ff fee4 	bl	8001540 <Error_Handler>
 8001778:	4809      	ldr	r0, [pc, #36]	@ (80017a0 <MX_LPUART1_UART_Init+0x88>)
 800177a:	2100      	movs	r1, #0
 800177c:	f003 fa64 	bl	8004c48 <HAL_UARTEx_SetRxFifoThreshold>
 8001780:	2800      	cmp	r0, #0
 8001782:	d0ea      	beq.n	800175a <MX_LPUART1_UART_Init+0x42>
 8001784:	f7ff fedc 	bl	8001540 <Error_Handler>
 8001788:	4805      	ldr	r0, [pc, #20]	@ (80017a0 <MX_LPUART1_UART_Init+0x88>)
 800178a:	f003 f9fd 	bl	8004b88 <HAL_UARTEx_DisableFifoMode>
 800178e:	2800      	cmp	r0, #0
 8001790:	d0e7      	beq.n	8001762 <MX_LPUART1_UART_Init+0x4a>
 8001792:	e8bd 4010 	ldmia.w	sp!, {r4, lr}
 8001796:	f7ff bed3 	b.w	8001540 <Error_Handler>
 800179a:	bf00      	nop
 800179c:	40008000 	.word	0x40008000
 80017a0:	20000428 	.word	0x20000428
 80017a4:	00000000 	.word	0x00000000

080017a8 <HAL_UART_MspInit>:
 80017a8:	b510      	push	{r4, lr}
 80017aa:	4604      	mov	r4, r0
 80017ac:	b09c      	sub	sp, #112	@ 0x70
 80017ae:	2100      	movs	r1, #0
 80017b0:	2254      	movs	r2, #84	@ 0x54
 80017b2:	a807      	add	r0, sp, #28
 80017b4:	e9cd 1102 	strd	r1, r1, [sp, #8]
 80017b8:	e9cd 1104 	strd	r1, r1, [sp, #16]
 80017bc:	9106      	str	r1, [sp, #24]
 80017be:	f00d f803 	bl	800e7c8 <memset>
 80017c2:	4b1d      	ldr	r3, [pc, #116]	@ (8001838 <HAL_UART_MspInit+0x90>)
 80017c4:	6822      	ldr	r2, [r4, #0]
 80017c6:	429a      	cmp	r2, r3
 80017c8:	d001      	beq.n	80017ce <HAL_UART_MspInit+0x26>
 80017ca:	b01c      	add	sp, #112	@ 0x70
 80017cc:	bd10      	pop	{r4, pc}
 80017ce:	2320      	movs	r3, #32
 80017d0:	a807      	add	r0, sp, #28
 80017d2:	9307      	str	r3, [sp, #28]
 80017d4:	f001 ff42 	bl	800365c <HAL_RCCEx_PeriphCLKConfig>
 80017d8:	bb18      	cbnz	r0, 8001822 <HAL_UART_MspInit+0x7a>
 80017da:	4b18      	ldr	r3, [pc, #96]	@ (800183c <HAL_UART_MspInit+0x94>)
 80017dc:	6dda      	ldr	r2, [r3, #92]	@ 0x5c
 80017de:	f042 0201 	orr.w	r2, r2, #1
 80017e2:	65da      	str	r2, [r3, #92]	@ 0x5c
 80017e4:	6dda      	ldr	r2, [r3, #92]	@ 0x5c
 80017e6:	f002 0201 	and.w	r2, r2, #1
 80017ea:	9200      	str	r2, [sp, #0]
 80017ec:	9a00      	ldr	r2, [sp, #0]
 80017ee:	6cda      	ldr	r2, [r3, #76]	@ 0x4c
 80017f0:	ed9f 7b0d 	vldr	d7, [pc, #52]	@ 8001828 <HAL_UART_MspInit+0x80>
 80017f4:	f042 0201 	orr.w	r2, r2, #1
 80017f8:	64da      	str	r2, [r3, #76]	@ 0x4c
 80017fa:	6cdb      	ldr	r3, [r3, #76]	@ 0x4c
 80017fc:	ed8d 7b02 	vstr	d7, [sp, #8]
 8001800:	ed9f 7b0b 	vldr	d7, [pc, #44]	@ 8001830 <HAL_UART_MspInit+0x88>
 8001804:	f003 0301 	and.w	r3, r3, #1
 8001808:	9301      	str	r3, [sp, #4]
 800180a:	a902      	add	r1, sp, #8
 800180c:	230c      	movs	r3, #12
 800180e:	f04f 4090 	mov.w	r0, #1207959552	@ 0x48000000
 8001812:	ed8d 7b04 	vstr	d7, [sp, #16]
 8001816:	9a01      	ldr	r2, [sp, #4]
 8001818:	9306      	str	r3, [sp, #24]
 800181a:	f001 f935 	bl	8002a88 <HAL_GPIO_Init>
 800181e:	b01c      	add	sp, #112	@ 0x70
 8001820:	bd10      	pop	{r4, pc}
 8001822:	f7ff fe8d 	bl	8001540 <Error_Handler>
 8001826:	e7d8      	b.n	80017da <HAL_UART_MspInit+0x32>
 8001828:	0000000c 	.word	0x0000000c
 800182c:	00000002 	.word	0x00000002
	...
 8001838:	40008000 	.word	0x40008000
 800183c:	40021000 	.word	0x40021000

08001840 <Reset_Handler>:
 8001840:	480d      	ldr	r0, [pc, #52]	@ (8001878 <LoopForever+0x2>)
 8001842:	4685      	mov	sp, r0
 8001844:	f7ff feb4 	bl	80015b0 <SystemInit>
 8001848:	480c      	ldr	r0, [pc, #48]	@ (800187c <LoopForever+0x6>)
 800184a:	490d      	ldr	r1, [pc, #52]	@ (8001880 <LoopForever+0xa>)
 800184c:	4a0d      	ldr	r2, [pc, #52]	@ (8001884 <LoopForever+0xe>)
 800184e:	2300      	movs	r3, #0
 8001850:	e002      	b.n	8001858 <LoopCopyDataInit>

08001852 <CopyDataInit>:
 8001852:	58d4      	ldr	r4, [r2, r3]
 8001854:	50c4      	str	r4, [r0, r3]
 8001856:	3304      	adds	r3, #4

08001858 <LoopCopyDataInit>:
 8001858:	18c4      	adds	r4, r0, r3
 800185a:	428c      	cmp	r4, r1
 800185c:	d3f9      	bcc.n	8001852 <CopyDataInit>
 800185e:	4a0a      	ldr	r2, [pc, #40]	@ (8001888 <LoopForever+0x12>)
 8001860:	4c0a      	ldr	r4, [pc, #40]	@ (800188c <LoopForever+0x16>)
 8001862:	2300      	movs	r3, #0
 8001864:	e001      	b.n	800186a <LoopFillZerobss>

08001866 <FillZerobss>:
 8001866:	6013      	str	r3, [r2, #0]
 8001868:	3204      	adds	r2, #4

0800186a <LoopFillZerobss>:
 800186a:	42a2      	cmp	r2, r4
 800186c:	d3fb      	bcc.n	8001866 <FillZerobss>
 800186e:	f00c ffb9 	bl	800e7e4 <__libc_init_array>
 8001872:	f7ff fd17 	bl	80012a4 <main>

08001876 <LoopForever>:
 8001876:	e7fe      	b.n	8001876 <LoopForever>
 8001878:	20020000 	.word	0x20020000
 800187c:	20000000 	.word	0x20000000
 8001880:	20000060 	.word	0x20000060
 8001884:	0800fcd4 	.word	0x0800fcd4
 8001888:	20000060 	.word	0x20000060
 800188c:	200005fc 	.word	0x200005fc

08001890 <ADC1_2_IRQHandler>:
 8001890:	e7fe      	b.n	8001890 <ADC1_2_IRQHandler>
	...

08001894 <HAL_InitTick>:
 8001894:	b538      	push	{r3, r4, r5, lr}
 8001896:	4b0f      	ldr	r3, [pc, #60]	@ (80018d4 <HAL_InitTick+0x40>)
 8001898:	681b      	ldr	r3, [r3, #0]
 800189a:	b90b      	cbnz	r3, 80018a0 <HAL_InitTick+0xc>
 800189c:	2001      	movs	r0, #1
 800189e:	bd38      	pop	{r3, r4, r5, pc}
 80018a0:	490d      	ldr	r1, [pc, #52]	@ (80018d8 <HAL_InitTick+0x44>)
 80018a2:	f44f 727a 	mov.w	r2, #1000	@ 0x3e8
 80018a6:	4605      	mov	r5, r0
 80018a8:	fbb2 f3f3 	udiv	r3, r2, r3
 80018ac:	6808      	ldr	r0, [r1, #0]
 80018ae:	fbb0 f0f3 	udiv	r0, r0, r3
 80018b2:	f000 ff63 	bl	800277c <HAL_SYSTICK_Config>
 80018b6:	4604      	mov	r4, r0
 80018b8:	2800      	cmp	r0, #0
 80018ba:	d1ef      	bne.n	800189c <HAL_InitTick+0x8>
 80018bc:	2d0f      	cmp	r5, #15
 80018be:	d8ed      	bhi.n	800189c <HAL_InitTick+0x8>
 80018c0:	4602      	mov	r2, r0
 80018c2:	4629      	mov	r1, r5
 80018c4:	f04f 30ff 	mov.w	r0, #4294967295
 80018c8:	f000 ff10 	bl	80026ec <HAL_NVIC_SetPriority>
 80018cc:	4b03      	ldr	r3, [pc, #12]	@ (80018dc <HAL_InitTick+0x48>)
 80018ce:	4620      	mov	r0, r4
 80018d0:	601d      	str	r5, [r3, #0]
 80018d2:	bd38      	pop	{r3, r4, r5, pc}
 80018d4:	20000004 	.word	0x20000004
 80018d8:	20000000 	.word	0x20000000
 80018dc:	20000008 	.word	0x20000008

080018e0 <HAL_Init>:
 80018e0:	b510      	push	{r4, lr}
 80018e2:	2003      	movs	r0, #3
 80018e4:	f000 fef0 	bl	80026c8 <HAL_NVIC_SetPriorityGrouping>
 80018e8:	2000      	movs	r0, #0
 80018ea:	f7ff ffd3 	bl	8001894 <HAL_InitTick>
 80018ee:	b110      	cbz	r0, 80018f6 <HAL_Init+0x16>
 80018f0:	2401      	movs	r4, #1
 80018f2:	4620      	mov	r0, r4
 80018f4:	bd10      	pop	{r4, pc}
 80018f6:	4604      	mov	r4, r0
 80018f8:	f7ff fe24 	bl	8001544 <HAL_MspInit>
 80018fc:	4620      	mov	r0, r4
 80018fe:	bd10      	pop	{r4, pc}

08001900 <HAL_IncTick>:
 8001900:	4a03      	ldr	r2, [pc, #12]	@ (8001910 <HAL_IncTick+0x10>)
 8001902:	4904      	ldr	r1, [pc, #16]	@ (8001914 <HAL_IncTick+0x14>)
 8001904:	6813      	ldr	r3, [r2, #0]
 8001906:	6809      	ldr	r1, [r1, #0]
 8001908:	440b      	add	r3, r1
 800190a:	6013      	str	r3, [r2, #0]
 800190c:	4770      	bx	lr
 800190e:	bf00      	nop
 8001910:	200004bc 	.word	0x200004bc
 8001914:	20000004 	.word	0x20000004

08001918 <HAL_GetTick>:
 8001918:	4b01      	ldr	r3, [pc, #4]	@ (8001920 <HAL_GetTick+0x8>)
 800191a:	6818      	ldr	r0, [r3, #0]
 800191c:	4770      	bx	lr
 800191e:	bf00      	nop
 8001920:	200004bc 	.word	0x200004bc

08001924 <HAL_ADC_Init>:
 8001924:	b530      	push	{r4, r5, lr}
 8001926:	b083      	sub	sp, #12
 8001928:	2300      	movs	r3, #0
 800192a:	9301      	str	r3, [sp, #4]
 800192c:	2800      	cmp	r0, #0
 800192e:	d063      	beq.n	80019f8 <HAL_ADC_Init+0xd4>
 8001930:	6dc5      	ldr	r5, [r0, #92]	@ 0x5c
 8001932:	4604      	mov	r4, r0
 8001934:	2d00      	cmp	r5, #0
 8001936:	f000 80c6 	beq.w	8001ac6 <HAL_ADC_Init+0x1a2>
 800193a:	6822      	ldr	r2, [r4, #0]
 800193c:	6893      	ldr	r3, [r2, #8]
 800193e:	009b      	lsls	r3, r3, #2
 8001940:	d505      	bpl.n	800194e <HAL_ADC_Init+0x2a>
 8001942:	6893      	ldr	r3, [r2, #8]
 8001944:	f023 4320 	bic.w	r3, r3, #2684354560	@ 0xa0000000
 8001948:	f023 033f 	bic.w	r3, r3, #63	@ 0x3f
 800194c:	6093      	str	r3, [r2, #8]
 800194e:	6893      	ldr	r3, [r2, #8]
 8001950:	00dd      	lsls	r5, r3, #3
 8001952:	d419      	bmi.n	8001988 <HAL_ADC_Init+0x64>
 8001954:	4b72      	ldr	r3, [pc, #456]	@ (8001b20 <HAL_ADC_Init+0x1fc>)
 8001956:	4873      	ldr	r0, [pc, #460]	@ (8001b24 <HAL_ADC_Init+0x200>)
 8001958:	681b      	ldr	r3, [r3, #0]
 800195a:	6891      	ldr	r1, [r2, #8]
 800195c:	099b      	lsrs	r3, r3, #6
 800195e:	fba0 0303 	umull	r0, r3, r0, r3
 8001962:	f021 4110 	bic.w	r1, r1, #2415919104	@ 0x90000000
 8001966:	099b      	lsrs	r3, r3, #6
 8001968:	f021 013f 	bic.w	r1, r1, #63	@ 0x3f
 800196c:	3301      	adds	r3, #1
 800196e:	005b      	lsls	r3, r3, #1
 8001970:	f041 5180 	orr.w	r1, r1, #268435456	@ 0x10000000
 8001974:	6091      	str	r1, [r2, #8]
 8001976:	9301      	str	r3, [sp, #4]
 8001978:	9b01      	ldr	r3, [sp, #4]
 800197a:	b12b      	cbz	r3, 8001988 <HAL_ADC_Init+0x64>
 800197c:	9b01      	ldr	r3, [sp, #4]
 800197e:	3b01      	subs	r3, #1
 8001980:	9301      	str	r3, [sp, #4]
 8001982:	9b01      	ldr	r3, [sp, #4]
 8001984:	2b00      	cmp	r3, #0
 8001986:	d1f9      	bne.n	800197c <HAL_ADC_Init+0x58>
 8001988:	6893      	ldr	r3, [r2, #8]
 800198a:	00d8      	lsls	r0, r3, #3
 800198c:	d429      	bmi.n	80019e2 <HAL_ADC_Init+0xbe>
 800198e:	6de3      	ldr	r3, [r4, #92]	@ 0x5c
 8001990:	f043 0310 	orr.w	r3, r3, #16
 8001994:	65e3      	str	r3, [r4, #92]	@ 0x5c
 8001996:	6e23      	ldr	r3, [r4, #96]	@ 0x60
 8001998:	2001      	movs	r0, #1
 800199a:	4303      	orrs	r3, r0
 800199c:	6623      	str	r3, [r4, #96]	@ 0x60
 800199e:	6893      	ldr	r3, [r2, #8]
 80019a0:	f013 0f04 	tst.w	r3, #4
 80019a4:	6de3      	ldr	r3, [r4, #92]	@ 0x5c
 80019a6:	d123      	bne.n	80019f0 <HAL_ADC_Init+0xcc>
 80019a8:	06d9      	lsls	r1, r3, #27
 80019aa:	d421      	bmi.n	80019f0 <HAL_ADC_Init+0xcc>
 80019ac:	6de3      	ldr	r3, [r4, #92]	@ 0x5c
 80019ae:	f423 7381 	bic.w	r3, r3, #258	@ 0x102
 80019b2:	f043 0302 	orr.w	r3, r3, #2
 80019b6:	65e3      	str	r3, [r4, #92]	@ 0x5c
 80019b8:	6893      	ldr	r3, [r2, #8]
 80019ba:	07db      	lsls	r3, r3, #31
 80019bc:	d42e      	bmi.n	8001a1c <HAL_ADC_Init+0xf8>
 80019be:	f1b2 4fa0 	cmp.w	r2, #1342177280	@ 0x50000000
 80019c2:	d01c      	beq.n	80019fe <HAL_ADC_Init+0xda>
 80019c4:	4b58      	ldr	r3, [pc, #352]	@ (8001b28 <HAL_ADC_Init+0x204>)
 80019c6:	429a      	cmp	r2, r3
 80019c8:	d019      	beq.n	80019fe <HAL_ADC_Init+0xda>
 80019ca:	4958      	ldr	r1, [pc, #352]	@ (8001b2c <HAL_ADC_Init+0x208>)
 80019cc:	4b58      	ldr	r3, [pc, #352]	@ (8001b30 <HAL_ADC_Init+0x20c>)
 80019ce:	6889      	ldr	r1, [r1, #8]
 80019d0:	689b      	ldr	r3, [r3, #8]
 80019d2:	430b      	orrs	r3, r1
 80019d4:	4957      	ldr	r1, [pc, #348]	@ (8001b34 <HAL_ADC_Init+0x210>)
 80019d6:	6889      	ldr	r1, [r1, #8]
 80019d8:	430b      	orrs	r3, r1
 80019da:	07d9      	lsls	r1, r3, #31
 80019dc:	d41e      	bmi.n	8001a1c <HAL_ADC_Init+0xf8>
 80019de:	4956      	ldr	r1, [pc, #344]	@ (8001b38 <HAL_ADC_Init+0x214>)
 80019e0:	e016      	b.n	8001a10 <HAL_ADC_Init+0xec>
 80019e2:	6893      	ldr	r3, [r2, #8]
 80019e4:	f013 0f04 	tst.w	r3, #4
 80019e8:	f04f 0000 	mov.w	r0, #0
 80019ec:	6de3      	ldr	r3, [r4, #92]	@ 0x5c
 80019ee:	d0db      	beq.n	80019a8 <HAL_ADC_Init+0x84>
 80019f0:	6de3      	ldr	r3, [r4, #92]	@ 0x5c
 80019f2:	f043 0310 	orr.w	r3, r3, #16
 80019f6:	65e3      	str	r3, [r4, #92]	@ 0x5c
 80019f8:	2001      	movs	r0, #1
 80019fa:	b003      	add	sp, #12
 80019fc:	bd30      	pop	{r4, r5, pc}
 80019fe:	4b4a      	ldr	r3, [pc, #296]	@ (8001b28 <HAL_ADC_Init+0x204>)
 8001a00:	f04f 41a0 	mov.w	r1, #1342177280	@ 0x50000000
 8001a04:	6889      	ldr	r1, [r1, #8]
 8001a06:	689b      	ldr	r3, [r3, #8]
 8001a08:	430b      	orrs	r3, r1
 8001a0a:	07dd      	lsls	r5, r3, #31
 8001a0c:	d406      	bmi.n	8001a1c <HAL_ADC_Init+0xf8>
 8001a0e:	494b      	ldr	r1, [pc, #300]	@ (8001b3c <HAL_ADC_Init+0x218>)
 8001a10:	688b      	ldr	r3, [r1, #8]
 8001a12:	6865      	ldr	r5, [r4, #4]
 8001a14:	f423 137c 	bic.w	r3, r3, #4128768	@ 0x3f0000
 8001a18:	432b      	orrs	r3, r5
 8001a1a:	608b      	str	r3, [r1, #8]
 8001a1c:	68e5      	ldr	r5, [r4, #12]
 8001a1e:	6be3      	ldr	r3, [r4, #60]	@ 0x3c
 8001a20:	f894 1024 	ldrb.w	r1, [r4, #36]	@ 0x24
 8001a24:	432b      	orrs	r3, r5
 8001a26:	68a5      	ldr	r5, [r4, #8]
 8001a28:	432b      	orrs	r3, r5
 8001a2a:	7f65      	ldrb	r5, [r4, #29]
 8001a2c:	2901      	cmp	r1, #1
 8001a2e:	ea43 3345 	orr.w	r3, r3, r5, lsl #13
 8001a32:	ea43 4301 	orr.w	r3, r3, r1, lsl #16
 8001a36:	d04c      	beq.n	8001ad2 <HAL_ADC_Init+0x1ae>
 8001a38:	6ae1      	ldr	r1, [r4, #44]	@ 0x2c
 8001a3a:	b121      	cbz	r1, 8001a46 <HAL_ADC_Init+0x122>
 8001a3c:	6b25      	ldr	r5, [r4, #48]	@ 0x30
 8001a3e:	f401 7178 	and.w	r1, r1, #992	@ 0x3e0
 8001a42:	4329      	orrs	r1, r5
 8001a44:	430b      	orrs	r3, r1
 8001a46:	68d5      	ldr	r5, [r2, #12]
 8001a48:	493d      	ldr	r1, [pc, #244]	@ (8001b40 <HAL_ADC_Init+0x21c>)
 8001a4a:	4029      	ands	r1, r5
 8001a4c:	4319      	orrs	r1, r3
 8001a4e:	60d1      	str	r1, [r2, #12]
 8001a50:	6913      	ldr	r3, [r2, #16]
 8001a52:	6b61      	ldr	r1, [r4, #52]	@ 0x34
 8001a54:	f023 6340 	bic.w	r3, r3, #201326592	@ 0xc000000
 8001a58:	430b      	orrs	r3, r1
 8001a5a:	6113      	str	r3, [r2, #16]
 8001a5c:	6893      	ldr	r3, [r2, #8]
 8001a5e:	071b      	lsls	r3, r3, #28
 8001a60:	d422      	bmi.n	8001aa8 <HAL_ADC_Init+0x184>
 8001a62:	68d1      	ldr	r1, [r2, #12]
 8001a64:	f894 3038 	ldrb.w	r3, [r4, #56]	@ 0x38
 8001a68:	7f25      	ldrb	r5, [r4, #28]
 8001a6a:	f421 4180 	bic.w	r1, r1, #16384	@ 0x4000
 8001a6e:	005b      	lsls	r3, r3, #1
 8001a70:	f021 0102 	bic.w	r1, r1, #2
 8001a74:	ea43 3385 	orr.w	r3, r3, r5, lsl #14
 8001a78:	430b      	orrs	r3, r1
 8001a7a:	6921      	ldr	r1, [r4, #16]
 8001a7c:	60d3      	str	r3, [r2, #12]
 8001a7e:	6913      	ldr	r3, [r2, #16]
 8001a80:	2900      	cmp	r1, #0
 8001a82:	d033      	beq.n	8001aec <HAL_ADC_Init+0x1c8>
 8001a84:	f443 3380 	orr.w	r3, r3, #65536	@ 0x10000
 8001a88:	6113      	str	r3, [r2, #16]
 8001a8a:	f8d2 30c0 	ldr.w	r3, [r2, #192]	@ 0xc0
 8001a8e:	f36f 030d 	bfc	r3, #0, #14
 8001a92:	430b      	orrs	r3, r1
 8001a94:	f8c2 30c0 	str.w	r3, [r2, #192]	@ 0xc0
 8001a98:	f894 3040 	ldrb.w	r3, [r4, #64]	@ 0x40
 8001a9c:	2b01      	cmp	r3, #1
 8001a9e:	d02f      	beq.n	8001b00 <HAL_ADC_Init+0x1dc>
 8001aa0:	6913      	ldr	r3, [r2, #16]
 8001aa2:	f023 0301 	bic.w	r3, r3, #1
 8001aa6:	6113      	str	r3, [r2, #16]
 8001aa8:	6963      	ldr	r3, [r4, #20]
 8001aaa:	2b01      	cmp	r3, #1
 8001aac:	d016      	beq.n	8001adc <HAL_ADC_Init+0x1b8>
 8001aae:	6b13      	ldr	r3, [r2, #48]	@ 0x30
 8001ab0:	f023 030f 	bic.w	r3, r3, #15
 8001ab4:	6313      	str	r3, [r2, #48]	@ 0x30
 8001ab6:	6de3      	ldr	r3, [r4, #92]	@ 0x5c
 8001ab8:	f023 0303 	bic.w	r3, r3, #3
 8001abc:	f043 0301 	orr.w	r3, r3, #1
 8001ac0:	65e3      	str	r3, [r4, #92]	@ 0x5c
 8001ac2:	b003      	add	sp, #12
 8001ac4:	bd30      	pop	{r4, r5, pc}
 8001ac6:	f7ff f9ef 	bl	8000ea8 <HAL_ADC_MspInit>
 8001aca:	6625      	str	r5, [r4, #96]	@ 0x60
 8001acc:	f884 5058 	strb.w	r5, [r4, #88]	@ 0x58
 8001ad0:	e733      	b.n	800193a <HAL_ADC_Init+0x16>
 8001ad2:	6aa1      	ldr	r1, [r4, #40]	@ 0x28
 8001ad4:	3901      	subs	r1, #1
 8001ad6:	ea43 4341 	orr.w	r3, r3, r1, lsl #17
 8001ada:	e7ad      	b.n	8001a38 <HAL_ADC_Init+0x114>
 8001adc:	6b11      	ldr	r1, [r2, #48]	@ 0x30
 8001ade:	6a23      	ldr	r3, [r4, #32]
 8001ae0:	f021 010f 	bic.w	r1, r1, #15
 8001ae4:	3b01      	subs	r3, #1
 8001ae6:	430b      	orrs	r3, r1
 8001ae8:	6313      	str	r3, [r2, #48]	@ 0x30
 8001aea:	e7e4      	b.n	8001ab6 <HAL_ADC_Init+0x192>
 8001aec:	f423 3380 	bic.w	r3, r3, #65536	@ 0x10000
 8001af0:	6113      	str	r3, [r2, #16]
 8001af2:	f8d2 30c0 	ldr.w	r3, [r2, #192]	@ 0xc0
 8001af6:	f36f 030d 	bfc	r3, #0, #14
 8001afa:	f8c2 30c0 	str.w	r3, [r2, #192]	@ 0xc0
 8001afe:	e7cb      	b.n	8001a98 <HAL_ADC_Init+0x174>
 8001b00:	6911      	ldr	r1, [r2, #16]
 8001b02:	6c63      	ldr	r3, [r4, #68]	@ 0x44
 8001b04:	6ca5      	ldr	r5, [r4, #72]	@ 0x48
 8001b06:	f36f 018a 	bfc	r1, #2, #9
 8001b0a:	432b      	orrs	r3, r5
 8001b0c:	430b      	orrs	r3, r1
 8001b0e:	6ce1      	ldr	r1, [r4, #76]	@ 0x4c
 8001b10:	430b      	orrs	r3, r1
 8001b12:	6d21      	ldr	r1, [r4, #80]	@ 0x50
 8001b14:	430b      	orrs	r3, r1
 8001b16:	f043 0301 	orr.w	r3, r3, #1
 8001b1a:	6113      	str	r3, [r2, #16]
 8001b1c:	e7c4      	b.n	8001aa8 <HAL_ADC_Init+0x184>
 8001b1e:	bf00      	nop
 8001b20:	20000000 	.word	0x20000000
 8001b24:	053e2d63 	.word	0x053e2d63
 8001b28:	50000100 	.word	0x50000100
 8001b2c:	50000400 	.word	0x50000400
 8001b30:	50000500 	.word	0x50000500
 8001b34:	50000600 	.word	0x50000600
 8001b38:	50000700 	.word	0x50000700
 8001b3c:	50000300 	.word	0x50000300
 8001b40:	fff04007 	.word	0xfff04007

08001b44 <HAL_ADC_PollForConversion>:
 8001b44:	6803      	ldr	r3, [r0, #0]
 8001b46:	f1b3 4fa0 	cmp.w	r3, #1342177280	@ 0x50000000
 8001b4a:	e92d 41f0 	stmdb	sp!, {r4, r5, r6, r7, r8, lr}
 8001b4e:	4605      	mov	r5, r0
 8001b50:	460f      	mov	r7, r1
 8001b52:	d029      	beq.n	8001ba8 <HAL_ADC_PollForConversion+0x64>
 8001b54:	4a4e      	ldr	r2, [pc, #312]	@ (8001c90 <HAL_ADC_PollForConversion+0x14c>)
 8001b56:	4293      	cmp	r3, r2
 8001b58:	d026      	beq.n	8001ba8 <HAL_ADC_PollForConversion+0x64>
 8001b5a:	69ac      	ldr	r4, [r5, #24]
 8001b5c:	f8d2 6608 	ldr.w	r6, [r2, #1544]	@ 0x608
 8001b60:	2c08      	cmp	r4, #8
 8001b62:	f502 62c0 	add.w	r2, r2, #1536	@ 0x600
 8001b66:	f006 061f 	and.w	r6, r6, #31
 8001b6a:	d124      	bne.n	8001bb6 <HAL_ADC_PollForConversion+0x72>
 8001b6c:	f7ff fed4 	bl	8001918 <HAL_GetTick>
 8001b70:	1c79      	adds	r1, r7, #1
 8001b72:	682a      	ldr	r2, [r5, #0]
 8001b74:	4680      	mov	r8, r0
 8001b76:	d035      	beq.n	8001be4 <HAL_ADC_PollForConversion+0xa0>
 8001b78:	2f00      	cmp	r7, #0
 8001b7a:	d077      	beq.n	8001c6c <HAL_ADC_PollForConversion+0x128>
 8001b7c:	6813      	ldr	r3, [r2, #0]
 8001b7e:	421c      	tst	r4, r3
 8001b80:	d133      	bne.n	8001bea <HAL_ADC_PollForConversion+0xa6>
 8001b82:	f7ff fec9 	bl	8001918 <HAL_GetTick>
 8001b86:	eba0 0308 	sub.w	r3, r0, r8
 8001b8a:	429f      	cmp	r7, r3
 8001b8c:	682a      	ldr	r2, [r5, #0]
 8001b8e:	d2f5      	bcs.n	8001b7c <HAL_ADC_PollForConversion+0x38>
 8001b90:	6813      	ldr	r3, [r2, #0]
 8001b92:	421c      	tst	r4, r3
 8001b94:	d1f2      	bne.n	8001b7c <HAL_ADC_PollForConversion+0x38>
 8001b96:	6deb      	ldr	r3, [r5, #92]	@ 0x5c
 8001b98:	2200      	movs	r2, #0
 8001b9a:	f043 0304 	orr.w	r3, r3, #4
 8001b9e:	65eb      	str	r3, [r5, #92]	@ 0x5c
 8001ba0:	f885 2058 	strb.w	r2, [r5, #88]	@ 0x58
 8001ba4:	2003      	movs	r0, #3
 8001ba6:	e047      	b.n	8001c38 <HAL_ADC_PollForConversion+0xf4>
 8001ba8:	4a3a      	ldr	r2, [pc, #232]	@ (8001c94 <HAL_ADC_PollForConversion+0x150>)
 8001baa:	69ac      	ldr	r4, [r5, #24]
 8001bac:	6896      	ldr	r6, [r2, #8]
 8001bae:	2c08      	cmp	r4, #8
 8001bb0:	f006 061f 	and.w	r6, r6, #31
 8001bb4:	d0da      	beq.n	8001b6c <HAL_ADC_PollForConversion+0x28>
 8001bb6:	f240 2221 	movw	r2, #545	@ 0x221
 8001bba:	40f2      	lsrs	r2, r6
 8001bbc:	07d4      	lsls	r4, r2, #31
 8001bbe:	d43d      	bmi.n	8001c3c <HAL_ADC_PollForConversion+0xf8>
 8001bc0:	f1b3 4fa0 	cmp.w	r3, #1342177280	@ 0x50000000
 8001bc4:	d05c      	beq.n	8001c80 <HAL_ADC_PollForConversion+0x13c>
 8001bc6:	4a32      	ldr	r2, [pc, #200]	@ (8001c90 <HAL_ADC_PollForConversion+0x14c>)
 8001bc8:	4293      	cmp	r3, r2
 8001bca:	d059      	beq.n	8001c80 <HAL_ADC_PollForConversion+0x13c>
 8001bcc:	4b32      	ldr	r3, [pc, #200]	@ (8001c98 <HAL_ADC_PollForConversion+0x154>)
 8001bce:	689b      	ldr	r3, [r3, #8]
 8001bd0:	f413 4f60 	tst.w	r3, #57344	@ 0xe000
 8001bd4:	d035      	beq.n	8001c42 <HAL_ADC_PollForConversion+0xfe>
 8001bd6:	6deb      	ldr	r3, [r5, #92]	@ 0x5c
 8001bd8:	f043 0320 	orr.w	r3, r3, #32
 8001bdc:	65eb      	str	r3, [r5, #92]	@ 0x5c
 8001bde:	2001      	movs	r0, #1
 8001be0:	e8bd 81f0 	ldmia.w	sp!, {r4, r5, r6, r7, r8, pc}
 8001be4:	6813      	ldr	r3, [r2, #0]
 8001be6:	421c      	tst	r4, r3
 8001be8:	d0fc      	beq.n	8001be4 <HAL_ADC_PollForConversion+0xa0>
 8001bea:	6deb      	ldr	r3, [r5, #92]	@ 0x5c
 8001bec:	f443 7300 	orr.w	r3, r3, #512	@ 0x200
 8001bf0:	65eb      	str	r3, [r5, #92]	@ 0x5c
 8001bf2:	68d3      	ldr	r3, [r2, #12]
 8001bf4:	f413 6f40 	tst.w	r3, #3072	@ 0xc00
 8001bf8:	d10f      	bne.n	8001c1a <HAL_ADC_PollForConversion+0xd6>
 8001bfa:	7f6b      	ldrb	r3, [r5, #29]
 8001bfc:	b96b      	cbnz	r3, 8001c1a <HAL_ADC_PollForConversion+0xd6>
 8001bfe:	6813      	ldr	r3, [r2, #0]
 8001c00:	071b      	lsls	r3, r3, #28
 8001c02:	d50a      	bpl.n	8001c1a <HAL_ADC_PollForConversion+0xd6>
 8001c04:	6deb      	ldr	r3, [r5, #92]	@ 0x5c
 8001c06:	f423 7380 	bic.w	r3, r3, #256	@ 0x100
 8001c0a:	65eb      	str	r3, [r5, #92]	@ 0x5c
 8001c0c:	6deb      	ldr	r3, [r5, #92]	@ 0x5c
 8001c0e:	04df      	lsls	r7, r3, #19
 8001c10:	d403      	bmi.n	8001c1a <HAL_ADC_PollForConversion+0xd6>
 8001c12:	6deb      	ldr	r3, [r5, #92]	@ 0x5c
 8001c14:	f043 0301 	orr.w	r3, r3, #1
 8001c18:	65eb      	str	r3, [r5, #92]	@ 0x5c
 8001c1a:	4b1d      	ldr	r3, [pc, #116]	@ (8001c90 <HAL_ADC_PollForConversion+0x14c>)
 8001c1c:	429a      	cmp	r2, r3
 8001c1e:	d019      	beq.n	8001c54 <HAL_ADC_PollForConversion+0x110>
 8001c20:	f503 6380 	add.w	r3, r3, #1024	@ 0x400
 8001c24:	429a      	cmp	r2, r3
 8001c26:	d031      	beq.n	8001c8c <HAL_ADC_PollForConversion+0x148>
 8001c28:	2c08      	cmp	r4, #8
 8001c2a:	68d3      	ldr	r3, [r2, #12]
 8001c2c:	d01c      	beq.n	8001c68 <HAL_ADC_PollForConversion+0x124>
 8001c2e:	045b      	lsls	r3, r3, #17
 8001c30:	d401      	bmi.n	8001c36 <HAL_ADC_PollForConversion+0xf2>
 8001c32:	230c      	movs	r3, #12
 8001c34:	6013      	str	r3, [r2, #0]
 8001c36:	2000      	movs	r0, #0
 8001c38:	e8bd 81f0 	ldmia.w	sp!, {r4, r5, r6, r7, r8, pc}
 8001c3c:	68db      	ldr	r3, [r3, #12]
 8001c3e:	07d8      	lsls	r0, r3, #31
 8001c40:	d4c9      	bmi.n	8001bd6 <HAL_ADC_PollForConversion+0x92>
 8001c42:	f7ff fe69 	bl	8001918 <HAL_GetTick>
 8001c46:	1c79      	adds	r1, r7, #1
 8001c48:	682a      	ldr	r2, [r5, #0]
 8001c4a:	f04f 0404 	mov.w	r4, #4
 8001c4e:	4680      	mov	r8, r0
 8001c50:	d192      	bne.n	8001b78 <HAL_ADC_PollForConversion+0x34>
 8001c52:	e7c7      	b.n	8001be4 <HAL_ADC_PollForConversion+0xa0>
 8001c54:	f04f 41a0 	mov.w	r1, #1342177280	@ 0x50000000
 8001c58:	f240 2321 	movw	r3, #545	@ 0x221
 8001c5c:	40f3      	lsrs	r3, r6
 8001c5e:	07d8      	lsls	r0, r3, #31
 8001c60:	d4e2      	bmi.n	8001c28 <HAL_ADC_PollForConversion+0xe4>
 8001c62:	2c08      	cmp	r4, #8
 8001c64:	68cb      	ldr	r3, [r1, #12]
 8001c66:	d1e2      	bne.n	8001c2e <HAL_ADC_PollForConversion+0xea>
 8001c68:	6014      	str	r4, [r2, #0]
 8001c6a:	e7e4      	b.n	8001c36 <HAL_ADC_PollForConversion+0xf2>
 8001c6c:	6813      	ldr	r3, [r2, #0]
 8001c6e:	421c      	tst	r4, r3
 8001c70:	d1bb      	bne.n	8001bea <HAL_ADC_PollForConversion+0xa6>
 8001c72:	f7ff fe51 	bl	8001918 <HAL_GetTick>
 8001c76:	682a      	ldr	r2, [r5, #0]
 8001c78:	6813      	ldr	r3, [r2, #0]
 8001c7a:	4223      	tst	r3, r4
 8001c7c:	d1f6      	bne.n	8001c6c <HAL_ADC_PollForConversion+0x128>
 8001c7e:	e78a      	b.n	8001b96 <HAL_ADC_PollForConversion+0x52>
 8001c80:	4b04      	ldr	r3, [pc, #16]	@ (8001c94 <HAL_ADC_PollForConversion+0x150>)
 8001c82:	689b      	ldr	r3, [r3, #8]
 8001c84:	f413 4f60 	tst.w	r3, #57344	@ 0xe000
 8001c88:	d0db      	beq.n	8001c42 <HAL_ADC_PollForConversion+0xfe>
 8001c8a:	e7a4      	b.n	8001bd6 <HAL_ADC_PollForConversion+0x92>
 8001c8c:	4903      	ldr	r1, [pc, #12]	@ (8001c9c <HAL_ADC_PollForConversion+0x158>)
 8001c8e:	e7e3      	b.n	8001c58 <HAL_ADC_PollForConversion+0x114>
 8001c90:	50000100 	.word	0x50000100
 8001c94:	50000300 	.word	0x50000300
 8001c98:	50000700 	.word	0x50000700
 8001c9c:	50000400 	.word	0x50000400

08001ca0 <HAL_ADC_GetValue>:
 8001ca0:	6803      	ldr	r3, [r0, #0]
 8001ca2:	6c18      	ldr	r0, [r3, #64]	@ 0x40
 8001ca4:	4770      	bx	lr
 8001ca6:	bf00      	nop

08001ca8 <HAL_ADC_ConfigChannel>:
 8001ca8:	e92d 41f0 	stmdb	sp!, {r4, r5, r6, r7, r8, lr}
 8001cac:	f890 2058 	ldrb.w	r2, [r0, #88]	@ 0x58
 8001cb0:	b082      	sub	sp, #8
 8001cb2:	4603      	mov	r3, r0
 8001cb4:	2a01      	cmp	r2, #1
 8001cb6:	f04f 0000 	mov.w	r0, #0
 8001cba:	9001      	str	r0, [sp, #4]
 8001cbc:	f000 8149 	beq.w	8001f52 <HAL_ADC_ConfigChannel+0x2aa>
 8001cc0:	681a      	ldr	r2, [r3, #0]
 8001cc2:	2001      	movs	r0, #1
 8001cc4:	f883 0058 	strb.w	r0, [r3, #88]	@ 0x58
 8001cc8:	6894      	ldr	r4, [r2, #8]
 8001cca:	0766      	lsls	r6, r4, #29
 8001ccc:	d509      	bpl.n	8001ce2 <HAL_ADC_ConfigChannel+0x3a>
 8001cce:	6dda      	ldr	r2, [r3, #92]	@ 0x5c
 8001cd0:	f042 0220 	orr.w	r2, r2, #32
 8001cd4:	65da      	str	r2, [r3, #92]	@ 0x5c
 8001cd6:	2200      	movs	r2, #0
 8001cd8:	f883 2058 	strb.w	r2, [r3, #88]	@ 0x58
 8001cdc:	b002      	add	sp, #8
 8001cde:	e8bd 81f0 	ldmia.w	sp!, {r4, r5, r6, r7, r8, pc}
 8001ce2:	6848      	ldr	r0, [r1, #4]
 8001ce4:	ea4f 1e90 	mov.w	lr, r0, lsr #6
 8001ce8:	f000 0c1f 	and.w	ip, r0, #31
 8001cec:	f102 0430 	add.w	r4, r2, #48	@ 0x30
 8001cf0:	6808      	ldr	r0, [r1, #0]
 8001cf2:	f00e 0e0c 	and.w	lr, lr, #12
 8001cf6:	f3c0 6084 	ubfx	r0, r0, #26, #5
 8001cfa:	f854 500e 	ldr.w	r5, [r4, lr]
 8001cfe:	261f      	movs	r6, #31
 8001d00:	fa00 f00c 	lsl.w	r0, r0, ip
 8001d04:	fa06 fc0c 	lsl.w	ip, r6, ip
 8001d08:	ea25 0c0c 	bic.w	ip, r5, ip
 8001d0c:	ea40 000c 	orr.w	r0, r0, ip
 8001d10:	f844 000e 	str.w	r0, [r4, lr]
 8001d14:	6894      	ldr	r4, [r2, #8]
 8001d16:	6808      	ldr	r0, [r1, #0]
 8001d18:	f014 0f04 	tst.w	r4, #4
 8001d1c:	6894      	ldr	r4, [r2, #8]
 8001d1e:	d14e      	bne.n	8001dbe <HAL_ADC_ConfigChannel+0x116>
 8001d20:	0725      	lsls	r5, r4, #28
 8001d22:	d44c      	bmi.n	8001dbe <HAL_ADC_ConfigChannel+0x116>
 8001d24:	688d      	ldr	r5, [r1, #8]
 8001d26:	f3c0 5604 	ubfx	r6, r0, #20, #5
 8001d2a:	2407      	movs	r4, #7
 8001d2c:	0dc0      	lsrs	r0, r0, #23
 8001d2e:	40b4      	lsls	r4, r6
 8001d30:	f1b5 4f00 	cmp.w	r5, #2147483648	@ 0x80000000
 8001d34:	f000 0004 	and.w	r0, r0, #4
 8001d38:	ea6f 0404 	mvn.w	r4, r4
 8001d3c:	f000 816f 	beq.w	800201e <HAL_ADC_ConfigChannel+0x376>
 8001d40:	f102 0714 	add.w	r7, r2, #20
 8001d44:	40b5      	lsls	r5, r6
 8001d46:	583e      	ldr	r6, [r7, r0]
 8001d48:	4034      	ands	r4, r6
 8001d4a:	432c      	orrs	r4, r5
 8001d4c:	503c      	str	r4, [r7, r0]
 8001d4e:	6950      	ldr	r0, [r2, #20]
 8001d50:	f020 4000 	bic.w	r0, r0, #2147483648	@ 0x80000000
 8001d54:	6150      	str	r0, [r2, #20]
 8001d56:	690f      	ldr	r7, [r1, #16]
 8001d58:	6808      	ldr	r0, [r1, #0]
 8001d5a:	68d4      	ldr	r4, [r2, #12]
 8001d5c:	2f04      	cmp	r7, #4
 8001d5e:	4605      	mov	r5, r0
 8001d60:	f000 8131 	beq.w	8001fc6 <HAL_ADC_ConfigChannel+0x31e>
 8001d64:	f3c4 04c1 	ubfx	r4, r4, #3, #2
 8001d68:	0065      	lsls	r5, r4, #1
 8001d6a:	f102 0460 	add.w	r4, r2, #96	@ 0x60
 8001d6e:	4eb1      	ldr	r6, [pc, #708]	@ (8002034 <HAL_ADC_ConfigChannel+0x38c>)
 8001d70:	f854 c027 	ldr.w	ip, [r4, r7, lsl #2]
 8001d74:	f000 40f8 	and.w	r0, r0, #2080374784	@ 0x7c000000
 8001d78:	ea0c 0606 	and.w	r6, ip, r6
 8001d7c:	4306      	orrs	r6, r0
 8001d7e:	6948      	ldr	r0, [r1, #20]
 8001d80:	40a8      	lsls	r0, r5
 8001d82:	4330      	orrs	r0, r6
 8001d84:	f040 4000 	orr.w	r0, r0, #2147483648	@ 0x80000000
 8001d88:	f844 0027 	str.w	r0, [r4, r7, lsl #2]
 8001d8c:	690d      	ldr	r5, [r1, #16]
 8001d8e:	698e      	ldr	r6, [r1, #24]
 8001d90:	f854 0025 	ldr.w	r0, [r4, r5, lsl #2]
 8001d94:	f020 7080 	bic.w	r0, r0, #16777216	@ 0x1000000
 8001d98:	4330      	orrs	r0, r6
 8001d9a:	f844 0025 	str.w	r0, [r4, r5, lsl #2]
 8001d9e:	690e      	ldr	r6, [r1, #16]
 8001da0:	7f0d      	ldrb	r5, [r1, #28]
 8001da2:	f854 0026 	ldr.w	r0, [r4, r6, lsl #2]
 8001da6:	f1a5 0501 	sub.w	r5, r5, #1
 8001daa:	fab5 f585 	clz	r5, r5
 8001dae:	096d      	lsrs	r5, r5, #5
 8001db0:	f020 7000 	bic.w	r0, r0, #33554432	@ 0x2000000
 8001db4:	ea40 6045 	orr.w	r0, r0, r5, lsl #25
 8001db8:	f844 0026 	str.w	r0, [r4, r6, lsl #2]
 8001dbc:	6808      	ldr	r0, [r1, #0]
 8001dbe:	6894      	ldr	r4, [r2, #8]
 8001dc0:	07e4      	lsls	r4, r4, #31
 8001dc2:	d411      	bmi.n	8001de8 <HAL_ADC_ConfigChannel+0x140>
 8001dc4:	68ce      	ldr	r6, [r1, #12]
 8001dc6:	4c9c      	ldr	r4, [pc, #624]	@ (8002038 <HAL_ADC_ConfigChannel+0x390>)
 8001dc8:	f8d2 50b0 	ldr.w	r5, [r2, #176]	@ 0xb0
 8001dcc:	f006 0718 	and.w	r7, r6, #24
 8001dd0:	40fc      	lsrs	r4, r7
 8001dd2:	f3c0 0712 	ubfx	r7, r0, #0, #19
 8001dd6:	4004      	ands	r4, r0
 8001dd8:	ea25 0507 	bic.w	r5, r5, r7
 8001ddc:	432c      	orrs	r4, r5
 8001dde:	f8c2 40b0 	str.w	r4, [r2, #176]	@ 0xb0
 8001de2:	4c96      	ldr	r4, [pc, #600]	@ (800203c <HAL_ADC_ConfigChannel+0x394>)
 8001de4:	42a6      	cmp	r6, r4
 8001de6:	d031      	beq.n	8001e4c <HAL_ADC_ConfigChannel+0x1a4>
 8001de8:	4995      	ldr	r1, [pc, #596]	@ (8002040 <HAL_ADC_ConfigChannel+0x398>)
 8001dea:	4208      	tst	r0, r1
 8001dec:	d101      	bne.n	8001df2 <HAL_ADC_ConfigChannel+0x14a>
 8001dee:	2000      	movs	r0, #0
 8001df0:	e771      	b.n	8001cd6 <HAL_ADC_ConfigChannel+0x2e>
 8001df2:	f1b2 4fa0 	cmp.w	r2, #1342177280	@ 0x50000000
 8001df6:	d078      	beq.n	8001eea <HAL_ADC_ConfigChannel+0x242>
 8001df8:	4992      	ldr	r1, [pc, #584]	@ (8002044 <HAL_ADC_ConfigChannel+0x39c>)
 8001dfa:	428a      	cmp	r2, r1
 8001dfc:	f000 80d3 	beq.w	8001fa6 <HAL_ADC_ConfigChannel+0x2fe>
 8001e00:	4d91      	ldr	r5, [pc, #580]	@ (8002048 <HAL_ADC_ConfigChannel+0x3a0>)
 8001e02:	f8d1 1608 	ldr.w	r1, [r1, #1544]	@ 0x608
 8001e06:	42a8      	cmp	r0, r5
 8001e08:	f001 74e0 	and.w	r4, r1, #29360128	@ 0x1c00000
 8001e0c:	f000 8098 	beq.w	8001f40 <HAL_ADC_ConfigChannel+0x298>
 8001e10:	4d8e      	ldr	r5, [pc, #568]	@ (800204c <HAL_ADC_ConfigChannel+0x3a4>)
 8001e12:	42a8      	cmp	r0, r5
 8001e14:	f000 8094 	beq.w	8001f40 <HAL_ADC_ConfigChannel+0x298>
 8001e18:	4d8d      	ldr	r5, [pc, #564]	@ (8002050 <HAL_ADC_ConfigChannel+0x3a8>)
 8001e1a:	42a8      	cmp	r0, r5
 8001e1c:	f000 80ae 	beq.w	8001f7c <HAL_ADC_ConfigChannel+0x2d4>
 8001e20:	4d8c      	ldr	r5, [pc, #560]	@ (8002054 <HAL_ADC_ConfigChannel+0x3ac>)
 8001e22:	42a8      	cmp	r0, r5
 8001e24:	d1e3      	bne.n	8001dee <HAL_ADC_ConfigChannel+0x146>
 8001e26:	0249      	lsls	r1, r1, #9
 8001e28:	d4e1      	bmi.n	8001dee <HAL_ADC_ConfigChannel+0x146>
 8001e2a:	4986      	ldr	r1, [pc, #536]	@ (8002044 <HAL_ADC_ConfigChannel+0x39c>)
 8001e2c:	428a      	cmp	r2, r1
 8001e2e:	d0de      	beq.n	8001dee <HAL_ADC_ConfigChannel+0x146>
 8001e30:	f1b2 4fa0 	cmp.w	r2, #1342177280	@ 0x50000000
 8001e34:	bf14      	ite	ne
 8001e36:	4988      	ldrne	r1, [pc, #544]	@ (8002058 <HAL_ADC_ConfigChannel+0x3b0>)
 8001e38:	f501 7100 	addeq.w	r1, r1, #512	@ 0x200
 8001e3c:	688a      	ldr	r2, [r1, #8]
 8001e3e:	f022 72e0 	bic.w	r2, r2, #29360128	@ 0x1c00000
 8001e42:	4322      	orrs	r2, r4
 8001e44:	f442 0280 	orr.w	r2, r2, #4194304	@ 0x400000
 8001e48:	608a      	str	r2, [r1, #8]
 8001e4a:	e7d0      	b.n	8001dee <HAL_ADC_ConfigChannel+0x146>
 8001e4c:	2f00      	cmp	r7, #0
 8001e4e:	f000 8084 	beq.w	8001f5a <HAL_ADC_ConfigChannel+0x2b2>
 8001e52:	fa90 f4a0 	rbit	r4, r0
 8001e56:	2c00      	cmp	r4, #0
 8001e58:	f000 813f 	beq.w	80020da <HAL_ADC_ConfigChannel+0x432>
 8001e5c:	fab4 f484 	clz	r4, r4
 8001e60:	3401      	adds	r4, #1
 8001e62:	f004 041f 	and.w	r4, r4, #31
 8001e66:	2c09      	cmp	r4, #9
 8001e68:	f240 8137 	bls.w	80020da <HAL_ADC_ConfigChannel+0x432>
 8001e6c:	fa90 f4a0 	rbit	r4, r0
 8001e70:	2c00      	cmp	r4, #0
 8001e72:	f000 81a0 	beq.w	80021b6 <HAL_ADC_ConfigChannel+0x50e>
 8001e76:	fab4 f484 	clz	r4, r4
 8001e7a:	3401      	adds	r4, #1
 8001e7c:	06a4      	lsls	r4, r4, #26
 8001e7e:	f004 44f8 	and.w	r4, r4, #2080374784	@ 0x7c000000
 8001e82:	fa90 f5a0 	rbit	r5, r0
 8001e86:	2d00      	cmp	r5, #0
 8001e88:	f000 8193 	beq.w	80021b2 <HAL_ADC_ConfigChannel+0x50a>
 8001e8c:	fab5 f585 	clz	r5, r5
 8001e90:	3501      	adds	r5, #1
 8001e92:	f005 051f 	and.w	r5, r5, #31
 8001e96:	2601      	movs	r6, #1
 8001e98:	fa06 f505 	lsl.w	r5, r6, r5
 8001e9c:	432c      	orrs	r4, r5
 8001e9e:	fa90 f0a0 	rbit	r0, r0
 8001ea2:	2800      	cmp	r0, #0
 8001ea4:	f000 8183 	beq.w	80021ae <HAL_ADC_ConfigChannel+0x506>
 8001ea8:	fab0 f080 	clz	r0, r0
 8001eac:	3001      	adds	r0, #1
 8001eae:	f000 001f 	and.w	r0, r0, #31
 8001eb2:	eb00 0040 	add.w	r0, r0, r0, lsl #1
 8001eb6:	381e      	subs	r0, #30
 8001eb8:	0500      	lsls	r0, r0, #20
 8001eba:	f040 7000 	orr.w	r0, r0, #33554432	@ 0x2000000
 8001ebe:	4304      	orrs	r4, r0
 8001ec0:	0de5      	lsrs	r5, r4, #23
 8001ec2:	6888      	ldr	r0, [r1, #8]
 8001ec4:	f005 0504 	and.w	r5, r5, #4
 8001ec8:	f102 0614 	add.w	r6, r2, #20
 8001ecc:	f3c4 5404 	ubfx	r4, r4, #20, #5
 8001ed0:	fa00 f704 	lsl.w	r7, r0, r4
 8001ed4:	f04f 0c07 	mov.w	ip, #7
 8001ed8:	5970      	ldr	r0, [r6, r5]
 8001eda:	fa0c f404 	lsl.w	r4, ip, r4
 8001ede:	ea20 0004 	bic.w	r0, r0, r4
 8001ee2:	4338      	orrs	r0, r7
 8001ee4:	5170      	str	r0, [r6, r5]
 8001ee6:	6808      	ldr	r0, [r1, #0]
 8001ee8:	e77e      	b.n	8001de8 <HAL_ADC_ConfigChannel+0x140>
 8001eea:	4d5c      	ldr	r5, [pc, #368]	@ (800205c <HAL_ADC_ConfigChannel+0x3b4>)
 8001eec:	4e56      	ldr	r6, [pc, #344]	@ (8002048 <HAL_ADC_ConfigChannel+0x3a0>)
 8001eee:	68a9      	ldr	r1, [r5, #8]
 8001ef0:	42b0      	cmp	r0, r6
 8001ef2:	f001 74e0 	and.w	r4, r1, #29360128	@ 0x1c00000
 8001ef6:	d002      	beq.n	8001efe <HAL_ADC_ConfigChannel+0x256>
 8001ef8:	4e54      	ldr	r6, [pc, #336]	@ (800204c <HAL_ADC_ConfigChannel+0x3a4>)
 8001efa:	42b0      	cmp	r0, r6
 8001efc:	d18c      	bne.n	8001e18 <HAL_ADC_ConfigChannel+0x170>
 8001efe:	020e      	lsls	r6, r1, #8
 8001f00:	f53f af75 	bmi.w	8001dee <HAL_ADC_ConfigChannel+0x146>
 8001f04:	4a56      	ldr	r2, [pc, #344]	@ (8002060 <HAL_ADC_ConfigChannel+0x3b8>)
 8001f06:	4857      	ldr	r0, [pc, #348]	@ (8002064 <HAL_ADC_ConfigChannel+0x3bc>)
 8001f08:	6812      	ldr	r2, [r2, #0]
 8001f0a:	68a9      	ldr	r1, [r5, #8]
 8001f0c:	0992      	lsrs	r2, r2, #6
 8001f0e:	fba0 0202 	umull	r0, r2, r0, r2
 8001f12:	0992      	lsrs	r2, r2, #6
 8001f14:	f021 71e0 	bic.w	r1, r1, #29360128	@ 0x1c00000
 8001f18:	3201      	adds	r2, #1
 8001f1a:	4321      	orrs	r1, r4
 8001f1c:	eb02 0242 	add.w	r2, r2, r2, lsl #1
 8001f20:	0092      	lsls	r2, r2, #2
 8001f22:	f441 0100 	orr.w	r1, r1, #8388608	@ 0x800000
 8001f26:	60a9      	str	r1, [r5, #8]
 8001f28:	9201      	str	r2, [sp, #4]
 8001f2a:	9a01      	ldr	r2, [sp, #4]
 8001f2c:	2a00      	cmp	r2, #0
 8001f2e:	f43f af5e 	beq.w	8001dee <HAL_ADC_ConfigChannel+0x146>
 8001f32:	9a01      	ldr	r2, [sp, #4]
 8001f34:	3a01      	subs	r2, #1
 8001f36:	9201      	str	r2, [sp, #4]
 8001f38:	9a01      	ldr	r2, [sp, #4]
 8001f3a:	2a00      	cmp	r2, #0
 8001f3c:	d1f9      	bne.n	8001f32 <HAL_ADC_ConfigChannel+0x28a>
 8001f3e:	e756      	b.n	8001dee <HAL_ADC_ConfigChannel+0x146>
 8001f40:	020f      	lsls	r7, r1, #8
 8001f42:	f53f af54 	bmi.w	8001dee <HAL_ADC_ConfigChannel+0x146>
 8001f46:	4948      	ldr	r1, [pc, #288]	@ (8002068 <HAL_ADC_ConfigChannel+0x3c0>)
 8001f48:	428a      	cmp	r2, r1
 8001f4a:	f47f af50 	bne.w	8001dee <HAL_ADC_ConfigChannel+0x146>
 8001f4e:	4d42      	ldr	r5, [pc, #264]	@ (8002058 <HAL_ADC_ConfigChannel+0x3b0>)
 8001f50:	e7d8      	b.n	8001f04 <HAL_ADC_ConfigChannel+0x25c>
 8001f52:	2002      	movs	r0, #2
 8001f54:	b002      	add	sp, #8
 8001f56:	e8bd 81f0 	ldmia.w	sp!, {r4, r5, r6, r7, r8, pc}
 8001f5a:	0e80      	lsrs	r0, r0, #26
 8001f5c:	3001      	adds	r0, #1
 8001f5e:	f000 051f 	and.w	r5, r0, #31
 8001f62:	2401      	movs	r4, #1
 8001f64:	0680      	lsls	r0, r0, #26
 8001f66:	f000 40f8 	and.w	r0, r0, #2080374784	@ 0x7c000000
 8001f6a:	40ac      	lsls	r4, r5
 8001f6c:	2d09      	cmp	r5, #9
 8001f6e:	ea44 0400 	orr.w	r4, r4, r0
 8001f72:	eb05 0045 	add.w	r0, r5, r5, lsl #1
 8001f76:	d89e      	bhi.n	8001eb6 <HAL_ADC_ConfigChannel+0x20e>
 8001f78:	0500      	lsls	r0, r0, #20
 8001f7a:	e7a0      	b.n	8001ebe <HAL_ADC_ConfigChannel+0x216>
 8001f7c:	01c8      	lsls	r0, r1, #7
 8001f7e:	f53f af36 	bmi.w	8001dee <HAL_ADC_ConfigChannel+0x146>
 8001f82:	493a      	ldr	r1, [pc, #232]	@ (800206c <HAL_ADC_ConfigChannel+0x3c4>)
 8001f84:	428a      	cmp	r2, r1
 8001f86:	f43f af32 	beq.w	8001dee <HAL_ADC_ConfigChannel+0x146>
 8001f8a:	f1b2 4fa0 	cmp.w	r2, #1342177280	@ 0x50000000
 8001f8e:	bf14      	ite	ne
 8001f90:	4931      	ldrne	r1, [pc, #196]	@ (8002058 <HAL_ADC_ConfigChannel+0x3b0>)
 8001f92:	f5a1 7100 	subeq.w	r1, r1, #512	@ 0x200
 8001f96:	688a      	ldr	r2, [r1, #8]
 8001f98:	f022 72e0 	bic.w	r2, r2, #29360128	@ 0x1c00000
 8001f9c:	4322      	orrs	r2, r4
 8001f9e:	f042 7280 	orr.w	r2, r2, #16777216	@ 0x1000000
 8001fa2:	608a      	str	r2, [r1, #8]
 8001fa4:	e723      	b.n	8001dee <HAL_ADC_ConfigChannel+0x146>
 8001fa6:	4c28      	ldr	r4, [pc, #160]	@ (8002048 <HAL_ADC_ConfigChannel+0x3a0>)
 8001fa8:	492c      	ldr	r1, [pc, #176]	@ (800205c <HAL_ADC_ConfigChannel+0x3b4>)
 8001faa:	42a0      	cmp	r0, r4
 8001fac:	6889      	ldr	r1, [r1, #8]
 8001fae:	f43f af1e 	beq.w	8001dee <HAL_ADC_ConfigChannel+0x146>
 8001fb2:	4d26      	ldr	r5, [pc, #152]	@ (800204c <HAL_ADC_ConfigChannel+0x3a4>)
 8001fb4:	42a8      	cmp	r0, r5
 8001fb6:	f001 74e0 	and.w	r4, r1, #29360128	@ 0x1c00000
 8001fba:	d0c1      	beq.n	8001f40 <HAL_ADC_ConfigChannel+0x298>
 8001fbc:	4d24      	ldr	r5, [pc, #144]	@ (8002050 <HAL_ADC_ConfigChannel+0x3a8>)
 8001fbe:	42a8      	cmp	r0, r5
 8001fc0:	f47f af2e 	bne.w	8001e20 <HAL_ADC_ConfigChannel+0x178>
 8001fc4:	e713      	b.n	8001dee <HAL_ADC_ConfigChannel+0x146>
 8001fc6:	6e14      	ldr	r4, [r2, #96]	@ 0x60
 8001fc8:	6e14      	ldr	r4, [r2, #96]	@ 0x60
 8001fca:	f3c0 0612 	ubfx	r6, r0, #0, #19
 8001fce:	f3c4 6484 	ubfx	r4, r4, #26, #5
 8001fd2:	2e00      	cmp	r6, #0
 8001fd4:	d14c      	bne.n	8002070 <HAL_ADC_ConfigChannel+0x3c8>
 8001fd6:	f3c0 6084 	ubfx	r0, r0, #26, #5
 8001fda:	4284      	cmp	r4, r0
 8001fdc:	f000 80bc 	beq.w	8002158 <HAL_ADC_ConfigChannel+0x4b0>
 8001fe0:	6e54      	ldr	r4, [r2, #100]	@ 0x64
 8001fe2:	6e56      	ldr	r6, [r2, #100]	@ 0x64
 8001fe4:	f102 0460 	add.w	r4, r2, #96	@ 0x60
 8001fe8:	f3c6 6684 	ubfx	r6, r6, #26, #5
 8001fec:	f102 0e64 	add.w	lr, r2, #100	@ 0x64
 8001ff0:	4286      	cmp	r6, r0
 8001ff2:	f000 8095 	beq.w	8002120 <HAL_ADC_ConfigChannel+0x478>
 8001ff6:	68a6      	ldr	r6, [r4, #8]
 8001ff8:	68a6      	ldr	r6, [r4, #8]
 8001ffa:	f104 0c08 	add.w	ip, r4, #8
 8001ffe:	f3c6 6684 	ubfx	r6, r6, #26, #5
 8002002:	4286      	cmp	r6, r0
 8002004:	f000 80bd 	beq.w	8002182 <HAL_ADC_ConfigChannel+0x4da>
 8002008:	68e6      	ldr	r6, [r4, #12]
 800200a:	68e6      	ldr	r6, [r4, #12]
 800200c:	f104 070c 	add.w	r7, r4, #12
 8002010:	f3c6 6484 	ubfx	r4, r6, #26, #5
 8002014:	42a0      	cmp	r0, r4
 8002016:	f000 8099 	beq.w	800214c <HAL_ADC_ConfigChannel+0x4a4>
 800201a:	4628      	mov	r0, r5
 800201c:	e6cf      	b.n	8001dbe <HAL_ADC_ConfigChannel+0x116>
 800201e:	f102 0614 	add.w	r6, r2, #20
 8002022:	5835      	ldr	r5, [r6, r0]
 8002024:	402c      	ands	r4, r5
 8002026:	5034      	str	r4, [r6, r0]
 8002028:	6950      	ldr	r0, [r2, #20]
 800202a:	f040 4000 	orr.w	r0, r0, #2147483648	@ 0x80000000
 800202e:	6150      	str	r0, [r2, #20]
 8002030:	e691      	b.n	8001d56 <HAL_ADC_ConfigChannel+0xae>
 8002032:	bf00      	nop
 8002034:	03fff000 	.word	0x03fff000
 8002038:	0007ffff 	.word	0x0007ffff
 800203c:	407f0000 	.word	0x407f0000
 8002040:	80080000 	.word	0x80080000
 8002044:	50000100 	.word	0x50000100
 8002048:	c3210000 	.word	0xc3210000
 800204c:	90c00010 	.word	0x90c00010
 8002050:	c7520000 	.word	0xc7520000
 8002054:	cb840000 	.word	0xcb840000
 8002058:	50000700 	.word	0x50000700
 800205c:	50000300 	.word	0x50000300
 8002060:	20000000 	.word	0x20000000
 8002064:	053e2d63 	.word	0x053e2d63
 8002068:	50000600 	.word	0x50000600
 800206c:	50000500 	.word	0x50000500
 8002070:	fa90 f6a0 	rbit	r6, r0
 8002074:	b11e      	cbz	r6, 800207e <HAL_ADC_ConfigChannel+0x3d6>
 8002076:	fab6 f686 	clz	r6, r6
 800207a:	42b4      	cmp	r4, r6
 800207c:	d06c      	beq.n	8002158 <HAL_ADC_ConfigChannel+0x4b0>
 800207e:	6e54      	ldr	r4, [r2, #100]	@ 0x64
 8002080:	6e56      	ldr	r6, [r2, #100]	@ 0x64
 8002082:	f102 0460 	add.w	r4, r2, #96	@ 0x60
 8002086:	f3c6 6684 	ubfx	r6, r6, #26, #5
 800208a:	f102 0e64 	add.w	lr, r2, #100	@ 0x64
 800208e:	fa95 f7a5 	rbit	r7, r5
 8002092:	f104 0c08 	add.w	ip, r4, #8
 8002096:	46e0      	mov	r8, ip
 8002098:	b11f      	cbz	r7, 80020a2 <HAL_ADC_ConfigChannel+0x3fa>
 800209a:	fab7 f787 	clz	r7, r7
 800209e:	42b7      	cmp	r7, r6
 80020a0:	d040      	beq.n	8002124 <HAL_ADC_ConfigChannel+0x47c>
 80020a2:	68a6      	ldr	r6, [r4, #8]
 80020a4:	68a6      	ldr	r6, [r4, #8]
 80020a6:	f3c6 6684 	ubfx	r6, r6, #26, #5
 80020aa:	fa95 fea5 	rbit	lr, r5
 80020ae:	f104 070c 	add.w	r7, r4, #12
 80020b2:	46b8      	mov	r8, r7
 80020b4:	f1be 0f00 	cmp.w	lr, #0
 80020b8:	d003      	beq.n	80020c2 <HAL_ADC_ConfigChannel+0x41a>
 80020ba:	fabe fe8e 	clz	lr, lr
 80020be:	45b6      	cmp	lr, r6
 80020c0:	d061      	beq.n	8002186 <HAL_ADC_ConfigChannel+0x4de>
 80020c2:	68e6      	ldr	r6, [r4, #12]
 80020c4:	68e4      	ldr	r4, [r4, #12]
 80020c6:	f3c4 6484 	ubfx	r4, r4, #26, #5
 80020ca:	fa95 f6a5 	rbit	r6, r5
 80020ce:	2e00      	cmp	r6, #0
 80020d0:	f43f ae75 	beq.w	8001dbe <HAL_ADC_ConfigChannel+0x116>
 80020d4:	fab6 f086 	clz	r0, r6
 80020d8:	e79c      	b.n	8002014 <HAL_ADC_ConfigChannel+0x36c>
 80020da:	fa90 f4a0 	rbit	r4, r0
 80020de:	2c00      	cmp	r4, #0
 80020e0:	d071      	beq.n	80021c6 <HAL_ADC_ConfigChannel+0x51e>
 80020e2:	fab4 f484 	clz	r4, r4
 80020e6:	3401      	adds	r4, #1
 80020e8:	06a4      	lsls	r4, r4, #26
 80020ea:	f004 44f8 	and.w	r4, r4, #2080374784	@ 0x7c000000
 80020ee:	fa90 f5a0 	rbit	r5, r0
 80020f2:	2d00      	cmp	r5, #0
 80020f4:	d065      	beq.n	80021c2 <HAL_ADC_ConfigChannel+0x51a>
 80020f6:	fab5 f585 	clz	r5, r5
 80020fa:	3501      	adds	r5, #1
 80020fc:	f005 051f 	and.w	r5, r5, #31
 8002100:	2601      	movs	r6, #1
 8002102:	fa06 f505 	lsl.w	r5, r6, r5
 8002106:	432c      	orrs	r4, r5
 8002108:	fa90 f0a0 	rbit	r0, r0
 800210c:	2800      	cmp	r0, #0
 800210e:	d055      	beq.n	80021bc <HAL_ADC_ConfigChannel+0x514>
 8002110:	fab0 f080 	clz	r0, r0
 8002114:	3001      	adds	r0, #1
 8002116:	f000 001f 	and.w	r0, r0, #31
 800211a:	eb00 0040 	add.w	r0, r0, r0, lsl #1
 800211e:	e72b      	b.n	8001f78 <HAL_ADC_ConfigChannel+0x2d0>
 8002120:	f104 0808 	add.w	r8, r4, #8
 8002124:	f8de 0000 	ldr.w	r0, [lr]
 8002128:	f020 4000 	bic.w	r0, r0, #2147483648	@ 0x80000000
 800212c:	f8ce 0000 	str.w	r0, [lr]
 8002130:	680d      	ldr	r5, [r1, #0]
 8002132:	68a0      	ldr	r0, [r4, #8]
 8002134:	68a6      	ldr	r6, [r4, #8]
 8002136:	f3c5 0712 	ubfx	r7, r5, #0, #19
 800213a:	46c4      	mov	ip, r8
 800213c:	f3c6 6684 	ubfx	r6, r6, #26, #5
 8002140:	4628      	mov	r0, r5
 8002142:	2f00      	cmp	r7, #0
 8002144:	d1b1      	bne.n	80020aa <HAL_ADC_ConfigChannel+0x402>
 8002146:	f3c5 6084 	ubfx	r0, r5, #26, #5
 800214a:	e75a      	b.n	8002002 <HAL_ADC_ConfigChannel+0x35a>
 800214c:	6838      	ldr	r0, [r7, #0]
 800214e:	f020 4000 	bic.w	r0, r0, #2147483648	@ 0x80000000
 8002152:	6038      	str	r0, [r7, #0]
 8002154:	6808      	ldr	r0, [r1, #0]
 8002156:	e632      	b.n	8001dbe <HAL_ADC_ConfigChannel+0x116>
 8002158:	6e10      	ldr	r0, [r2, #96]	@ 0x60
 800215a:	4614      	mov	r4, r2
 800215c:	f020 4000 	bic.w	r0, r0, #2147483648	@ 0x80000000
 8002160:	f844 0f60 	str.w	r0, [r4, #96]!
 8002164:	680d      	ldr	r5, [r1, #0]
 8002166:	6e50      	ldr	r0, [r2, #100]	@ 0x64
 8002168:	6e56      	ldr	r6, [r2, #100]	@ 0x64
 800216a:	f3c5 0712 	ubfx	r7, r5, #0, #19
 800216e:	f102 0e64 	add.w	lr, r2, #100	@ 0x64
 8002172:	f3c6 6684 	ubfx	r6, r6, #26, #5
 8002176:	4628      	mov	r0, r5
 8002178:	2f00      	cmp	r7, #0
 800217a:	d188      	bne.n	800208e <HAL_ADC_ConfigChannel+0x3e6>
 800217c:	f3c5 6084 	ubfx	r0, r5, #26, #5
 8002180:	e736      	b.n	8001ff0 <HAL_ADC_ConfigChannel+0x348>
 8002182:	f104 080c 	add.w	r8, r4, #12
 8002186:	f8dc 0000 	ldr.w	r0, [ip]
 800218a:	f020 4000 	bic.w	r0, r0, #2147483648	@ 0x80000000
 800218e:	f8cc 0000 	str.w	r0, [ip]
 8002192:	680d      	ldr	r5, [r1, #0]
 8002194:	68e0      	ldr	r0, [r4, #12]
 8002196:	68e4      	ldr	r4, [r4, #12]
 8002198:	f3c5 0612 	ubfx	r6, r5, #0, #19
 800219c:	4647      	mov	r7, r8
 800219e:	f3c4 6484 	ubfx	r4, r4, #26, #5
 80021a2:	4628      	mov	r0, r5
 80021a4:	2e00      	cmp	r6, #0
 80021a6:	d190      	bne.n	80020ca <HAL_ADC_ConfigChannel+0x422>
 80021a8:	f3c5 6084 	ubfx	r0, r5, #26, #5
 80021ac:	e732      	b.n	8002014 <HAL_ADC_ConfigChannel+0x36c>
 80021ae:	4807      	ldr	r0, [pc, #28]	@ (80021cc <HAL_ADC_ConfigChannel+0x524>)
 80021b0:	e685      	b.n	8001ebe <HAL_ADC_ConfigChannel+0x216>
 80021b2:	2502      	movs	r5, #2
 80021b4:	e672      	b.n	8001e9c <HAL_ADC_ConfigChannel+0x1f4>
 80021b6:	f04f 6480 	mov.w	r4, #67108864	@ 0x4000000
 80021ba:	e662      	b.n	8001e82 <HAL_ADC_ConfigChannel+0x1da>
 80021bc:	f44f 1040 	mov.w	r0, #3145728	@ 0x300000
 80021c0:	e67d      	b.n	8001ebe <HAL_ADC_ConfigChannel+0x216>
 80021c2:	2502      	movs	r5, #2
 80021c4:	e79f      	b.n	8002106 <HAL_ADC_ConfigChannel+0x45e>
 80021c6:	f04f 6480 	mov.w	r4, #67108864	@ 0x4000000
 80021ca:	e790      	b.n	80020ee <HAL_ADC_ConfigChannel+0x446>
 80021cc:	fe500000 	.word	0xfe500000

080021d0 <ADC_ConversionStop>:
 80021d0:	6803      	ldr	r3, [r0, #0]
 80021d2:	689a      	ldr	r2, [r3, #8]
 80021d4:	f012 0f04 	tst.w	r2, #4
 80021d8:	b570      	push	{r4, r5, r6, lr}
 80021da:	689a      	ldr	r2, [r3, #8]
 80021dc:	4604      	mov	r4, r0
 80021de:	d101      	bne.n	80021e4 <ADC_ConversionStop+0x14>
 80021e0:	0716      	lsls	r6, r2, #28
 80021e2:	d53c      	bpl.n	800225e <ADC_ConversionStop+0x8e>
 80021e4:	68da      	ldr	r2, [r3, #12]
 80021e6:	0195      	lsls	r5, r2, #6
 80021e8:	d504      	bpl.n	80021f4 <ADC_ConversionStop+0x24>
 80021ea:	8ba0      	ldrh	r0, [r4, #28]
 80021ec:	f240 1201 	movw	r2, #257	@ 0x101
 80021f0:	4290      	cmp	r0, r2
 80021f2:	d045      	beq.n	8002280 <ADC_ConversionStop+0xb0>
 80021f4:	2902      	cmp	r1, #2
 80021f6:	689a      	ldr	r2, [r3, #8]
 80021f8:	d033      	beq.n	8002262 <ADC_ConversionStop+0x92>
 80021fa:	0750      	lsls	r0, r2, #29
 80021fc:	d502      	bpl.n	8002204 <ADC_ConversionStop+0x34>
 80021fe:	689a      	ldr	r2, [r3, #8]
 8002200:	0792      	lsls	r2, r2, #30
 8002202:	d559      	bpl.n	80022b8 <ADC_ConversionStop+0xe8>
 8002204:	2901      	cmp	r1, #1
 8002206:	d055      	beq.n	80022b4 <ADC_ConversionStop+0xe4>
 8002208:	689a      	ldr	r2, [r3, #8]
 800220a:	0710      	lsls	r0, r2, #28
 800220c:	d50a      	bpl.n	8002224 <ADC_ConversionStop+0x54>
 800220e:	689a      	ldr	r2, [r3, #8]
 8002210:	0792      	lsls	r2, r2, #30
 8002212:	d407      	bmi.n	8002224 <ADC_ConversionStop+0x54>
 8002214:	689a      	ldr	r2, [r3, #8]
 8002216:	f022 4200 	bic.w	r2, r2, #2147483648	@ 0x80000000
 800221a:	f022 023f 	bic.w	r2, r2, #63	@ 0x3f
 800221e:	f042 0220 	orr.w	r2, r2, #32
 8002222:	609a      	str	r2, [r3, #8]
 8002224:	2903      	cmp	r1, #3
 8002226:	d145      	bne.n	80022b4 <ADC_ConversionStop+0xe4>
 8002228:	250c      	movs	r5, #12
 800222a:	f7ff fb75 	bl	8001918 <HAL_GetTick>
 800222e:	6823      	ldr	r3, [r4, #0]
 8002230:	4606      	mov	r6, r0
 8002232:	689b      	ldr	r3, [r3, #8]
 8002234:	421d      	tst	r5, r3
 8002236:	d012      	beq.n	800225e <ADC_ConversionStop+0x8e>
 8002238:	f7ff fb6e 	bl	8001918 <HAL_GetTick>
 800223c:	1b80      	subs	r0, r0, r6
 800223e:	2805      	cmp	r0, #5
 8002240:	6823      	ldr	r3, [r4, #0]
 8002242:	d9f6      	bls.n	8002232 <ADC_ConversionStop+0x62>
 8002244:	689a      	ldr	r2, [r3, #8]
 8002246:	422a      	tst	r2, r5
 8002248:	d0f3      	beq.n	8002232 <ADC_ConversionStop+0x62>
 800224a:	6de3      	ldr	r3, [r4, #92]	@ 0x5c
 800224c:	f043 0310 	orr.w	r3, r3, #16
 8002250:	65e3      	str	r3, [r4, #92]	@ 0x5c
 8002252:	6e23      	ldr	r3, [r4, #96]	@ 0x60
 8002254:	f043 0301 	orr.w	r3, r3, #1
 8002258:	6623      	str	r3, [r4, #96]	@ 0x60
 800225a:	2001      	movs	r0, #1
 800225c:	bd70      	pop	{r4, r5, r6, pc}
 800225e:	2000      	movs	r0, #0
 8002260:	bd70      	pop	{r4, r5, r6, pc}
 8002262:	0716      	lsls	r6, r2, #28
 8002264:	d50a      	bpl.n	800227c <ADC_ConversionStop+0xac>
 8002266:	689a      	ldr	r2, [r3, #8]
 8002268:	0795      	lsls	r5, r2, #30
 800226a:	d407      	bmi.n	800227c <ADC_ConversionStop+0xac>
 800226c:	689a      	ldr	r2, [r3, #8]
 800226e:	f022 4200 	bic.w	r2, r2, #2147483648	@ 0x80000000
 8002272:	f022 023f 	bic.w	r2, r2, #63	@ 0x3f
 8002276:	f042 0220 	orr.w	r2, r2, #32
 800227a:	609a      	str	r2, [r3, #8]
 800227c:	2508      	movs	r5, #8
 800227e:	e7d4      	b.n	800222a <ADC_ConversionStop+0x5a>
 8002280:	681a      	ldr	r2, [r3, #0]
 8002282:	0650      	lsls	r0, r2, #25
 8002284:	d406      	bmi.n	8002294 <ADC_ConversionStop+0xc4>
 8002286:	4a11      	ldr	r2, [pc, #68]	@ (80022cc <ADC_ConversionStop+0xfc>)
 8002288:	e001      	b.n	800228e <ADC_ConversionStop+0xbe>
 800228a:	3a01      	subs	r2, #1
 800228c:	d0dd      	beq.n	800224a <ADC_ConversionStop+0x7a>
 800228e:	6819      	ldr	r1, [r3, #0]
 8002290:	0649      	lsls	r1, r1, #25
 8002292:	d5fa      	bpl.n	800228a <ADC_ConversionStop+0xba>
 8002294:	2240      	movs	r2, #64	@ 0x40
 8002296:	601a      	str	r2, [r3, #0]
 8002298:	689a      	ldr	r2, [r3, #8]
 800229a:	0756      	lsls	r6, r2, #29
 800229c:	d50a      	bpl.n	80022b4 <ADC_ConversionStop+0xe4>
 800229e:	689a      	ldr	r2, [r3, #8]
 80022a0:	0795      	lsls	r5, r2, #30
 80022a2:	d407      	bmi.n	80022b4 <ADC_ConversionStop+0xe4>
 80022a4:	689a      	ldr	r2, [r3, #8]
 80022a6:	f022 4200 	bic.w	r2, r2, #2147483648	@ 0x80000000
 80022aa:	f022 023f 	bic.w	r2, r2, #63	@ 0x3f
 80022ae:	f042 0210 	orr.w	r2, r2, #16
 80022b2:	609a      	str	r2, [r3, #8]
 80022b4:	2504      	movs	r5, #4
 80022b6:	e7b8      	b.n	800222a <ADC_ConversionStop+0x5a>
 80022b8:	689a      	ldr	r2, [r3, #8]
 80022ba:	f022 4200 	bic.w	r2, r2, #2147483648	@ 0x80000000
 80022be:	f022 023f 	bic.w	r2, r2, #63	@ 0x3f
 80022c2:	f042 0210 	orr.w	r2, r2, #16
 80022c6:	609a      	str	r2, [r3, #8]
 80022c8:	e79c      	b.n	8002204 <ADC_ConversionStop+0x34>
 80022ca:	bf00      	nop
 80022cc:	a3400000 	.word	0xa3400000

080022d0 <ADC_Enable>:
 80022d0:	b570      	push	{r4, r5, r6, lr}
 80022d2:	b082      	sub	sp, #8
 80022d4:	2200      	movs	r2, #0
 80022d6:	6803      	ldr	r3, [r0, #0]
 80022d8:	9201      	str	r2, [sp, #4]
 80022da:	689a      	ldr	r2, [r3, #8]
 80022dc:	07d2      	lsls	r2, r2, #31
 80022de:	d446      	bmi.n	800236e <ADC_Enable+0x9e>
 80022e0:	6899      	ldr	r1, [r3, #8]
 80022e2:	4a2b      	ldr	r2, [pc, #172]	@ (8002390 <ADC_Enable+0xc0>)
 80022e4:	4211      	tst	r1, r2
 80022e6:	4605      	mov	r5, r0
 80022e8:	d144      	bne.n	8002374 <ADC_Enable+0xa4>
 80022ea:	689a      	ldr	r2, [r3, #8]
 80022ec:	f022 4200 	bic.w	r2, r2, #2147483648	@ 0x80000000
 80022f0:	f022 023f 	bic.w	r2, r2, #63	@ 0x3f
 80022f4:	f042 0201 	orr.w	r2, r2, #1
 80022f8:	f1b3 4fa0 	cmp.w	r3, #1342177280	@ 0x50000000
 80022fc:	609a      	str	r2, [r3, #8]
 80022fe:	d044      	beq.n	800238a <ADC_Enable+0xba>
 8002300:	4a24      	ldr	r2, [pc, #144]	@ (8002394 <ADC_Enable+0xc4>)
 8002302:	4293      	cmp	r3, r2
 8002304:	d041      	beq.n	800238a <ADC_Enable+0xba>
 8002306:	4b24      	ldr	r3, [pc, #144]	@ (8002398 <ADC_Enable+0xc8>)
 8002308:	689b      	ldr	r3, [r3, #8]
 800230a:	021e      	lsls	r6, r3, #8
 800230c:	d513      	bpl.n	8002336 <ADC_Enable+0x66>
 800230e:	4b23      	ldr	r3, [pc, #140]	@ (800239c <ADC_Enable+0xcc>)
 8002310:	4a23      	ldr	r2, [pc, #140]	@ (80023a0 <ADC_Enable+0xd0>)
 8002312:	681b      	ldr	r3, [r3, #0]
 8002314:	099b      	lsrs	r3, r3, #6
 8002316:	fba2 2303 	umull	r2, r3, r2, r3
 800231a:	099b      	lsrs	r3, r3, #6
 800231c:	3301      	adds	r3, #1
 800231e:	eb03 0343 	add.w	r3, r3, r3, lsl #1
 8002322:	009b      	lsls	r3, r3, #2
 8002324:	9301      	str	r3, [sp, #4]
 8002326:	9b01      	ldr	r3, [sp, #4]
 8002328:	b12b      	cbz	r3, 8002336 <ADC_Enable+0x66>
 800232a:	9b01      	ldr	r3, [sp, #4]
 800232c:	3b01      	subs	r3, #1
 800232e:	9301      	str	r3, [sp, #4]
 8002330:	9b01      	ldr	r3, [sp, #4]
 8002332:	2b00      	cmp	r3, #0
 8002334:	d1f9      	bne.n	800232a <ADC_Enable+0x5a>
 8002336:	f7ff faef 	bl	8001918 <HAL_GetTick>
 800233a:	682b      	ldr	r3, [r5, #0]
 800233c:	681a      	ldr	r2, [r3, #0]
 800233e:	07d4      	lsls	r4, r2, #31
 8002340:	4606      	mov	r6, r0
 8002342:	d414      	bmi.n	800236e <ADC_Enable+0x9e>
 8002344:	4c17      	ldr	r4, [pc, #92]	@ (80023a4 <ADC_Enable+0xd4>)
 8002346:	689a      	ldr	r2, [r3, #8]
 8002348:	07d0      	lsls	r0, r2, #31
 800234a:	d404      	bmi.n	8002356 <ADC_Enable+0x86>
 800234c:	689a      	ldr	r2, [r3, #8]
 800234e:	4022      	ands	r2, r4
 8002350:	f042 0201 	orr.w	r2, r2, #1
 8002354:	609a      	str	r2, [r3, #8]
 8002356:	f7ff fadf 	bl	8001918 <HAL_GetTick>
 800235a:	1b82      	subs	r2, r0, r6
 800235c:	2a02      	cmp	r2, #2
 800235e:	682b      	ldr	r3, [r5, #0]
 8002360:	d902      	bls.n	8002368 <ADC_Enable+0x98>
 8002362:	681a      	ldr	r2, [r3, #0]
 8002364:	07d1      	lsls	r1, r2, #31
 8002366:	d505      	bpl.n	8002374 <ADC_Enable+0xa4>
 8002368:	681a      	ldr	r2, [r3, #0]
 800236a:	07d2      	lsls	r2, r2, #31
 800236c:	d5eb      	bpl.n	8002346 <ADC_Enable+0x76>
 800236e:	2000      	movs	r0, #0
 8002370:	b002      	add	sp, #8
 8002372:	bd70      	pop	{r4, r5, r6, pc}
 8002374:	6deb      	ldr	r3, [r5, #92]	@ 0x5c
 8002376:	f043 0310 	orr.w	r3, r3, #16
 800237a:	65eb      	str	r3, [r5, #92]	@ 0x5c
 800237c:	6e2b      	ldr	r3, [r5, #96]	@ 0x60
 800237e:	2001      	movs	r0, #1
 8002380:	f043 0301 	orr.w	r3, r3, #1
 8002384:	662b      	str	r3, [r5, #96]	@ 0x60
 8002386:	b002      	add	sp, #8
 8002388:	bd70      	pop	{r4, r5, r6, pc}
 800238a:	4b07      	ldr	r3, [pc, #28]	@ (80023a8 <ADC_Enable+0xd8>)
 800238c:	e7bc      	b.n	8002308 <ADC_Enable+0x38>
 800238e:	bf00      	nop
 8002390:	8000003f 	.word	0x8000003f
 8002394:	50000100 	.word	0x50000100
 8002398:	50000700 	.word	0x50000700
 800239c:	20000000 	.word	0x20000000
 80023a0:	053e2d63 	.word	0x053e2d63
 80023a4:	7fffffc0 	.word	0x7fffffc0
 80023a8:	50000300 	.word	0x50000300

080023ac <HAL_ADC_Start>:
 80023ac:	6803      	ldr	r3, [r0, #0]
 80023ae:	f1b3 4fa0 	cmp.w	r3, #1342177280	@ 0x50000000
 80023b2:	b570      	push	{r4, r5, r6, lr}
 80023b4:	4604      	mov	r4, r0
 80023b6:	d00c      	beq.n	80023d2 <HAL_ADC_Start+0x26>
 80023b8:	4a3b      	ldr	r2, [pc, #236]	@ (80024a8 <HAL_ADC_Start+0xfc>)
 80023ba:	4293      	cmp	r3, r2
 80023bc:	d009      	beq.n	80023d2 <HAL_ADC_Start+0x26>
 80023be:	f8d2 6608 	ldr.w	r6, [r2, #1544]	@ 0x608
 80023c2:	689d      	ldr	r5, [r3, #8]
 80023c4:	f015 0504 	ands.w	r5, r5, #4
 80023c8:	f502 62c0 	add.w	r2, r2, #1536	@ 0x600
 80023cc:	d007      	beq.n	80023de <HAL_ADC_Start+0x32>
 80023ce:	2002      	movs	r0, #2
 80023d0:	bd70      	pop	{r4, r5, r6, pc}
 80023d2:	4a36      	ldr	r2, [pc, #216]	@ (80024ac <HAL_ADC_Start+0x100>)
 80023d4:	6896      	ldr	r6, [r2, #8]
 80023d6:	689d      	ldr	r5, [r3, #8]
 80023d8:	f015 0504 	ands.w	r5, r5, #4
 80023dc:	d1f7      	bne.n	80023ce <HAL_ADC_Start+0x22>
 80023de:	f894 3058 	ldrb.w	r3, [r4, #88]	@ 0x58
 80023e2:	2b01      	cmp	r3, #1
 80023e4:	d0f3      	beq.n	80023ce <HAL_ADC_Start+0x22>
 80023e6:	2301      	movs	r3, #1
 80023e8:	f884 3058 	strb.w	r3, [r4, #88]	@ 0x58
 80023ec:	4620      	mov	r0, r4
 80023ee:	f7ff ff6f 	bl	80022d0 <ADC_Enable>
 80023f2:	2800      	cmp	r0, #0
 80023f4:	d139      	bne.n	800246a <HAL_ADC_Start+0xbe>
 80023f6:	6de3      	ldr	r3, [r4, #92]	@ 0x5c
 80023f8:	6822      	ldr	r2, [r4, #0]
 80023fa:	f423 6370 	bic.w	r3, r3, #3840	@ 0xf00
 80023fe:	f023 0301 	bic.w	r3, r3, #1
 8002402:	f443 7380 	orr.w	r3, r3, #256	@ 0x100
 8002406:	65e3      	str	r3, [r4, #92]	@ 0x5c
 8002408:	4b27      	ldr	r3, [pc, #156]	@ (80024a8 <HAL_ADC_Start+0xfc>)
 800240a:	429a      	cmp	r2, r3
 800240c:	f006 061f 	and.w	r6, r6, #31
 8002410:	d040      	beq.n	8002494 <HAL_ADC_Start+0xe8>
 8002412:	f503 6380 	add.w	r3, r3, #1024	@ 0x400
 8002416:	429a      	cmp	r2, r3
 8002418:	d041      	beq.n	800249e <HAL_ADC_Start+0xf2>
 800241a:	4611      	mov	r1, r2
 800241c:	6de3      	ldr	r3, [r4, #92]	@ 0x5c
 800241e:	f423 1380 	bic.w	r3, r3, #1048576	@ 0x100000
 8002422:	65e3      	str	r3, [r4, #92]	@ 0x5c
 8002424:	6de3      	ldr	r3, [r4, #92]	@ 0x5c
 8002426:	f413 5380 	ands.w	r3, r3, #4096	@ 0x1000
 800242a:	bf1c      	itt	ne
 800242c:	6e23      	ldrne	r3, [r4, #96]	@ 0x60
 800242e:	f023 0306 	bicne.w	r3, r3, #6
 8002432:	6623      	str	r3, [r4, #96]	@ 0x60
 8002434:	231c      	movs	r3, #28
 8002436:	6013      	str	r3, [r2, #0]
 8002438:	428a      	cmp	r2, r1
 800243a:	f04f 0300 	mov.w	r3, #0
 800243e:	f884 3058 	strb.w	r3, [r4, #88]	@ 0x58
 8002442:	d015      	beq.n	8002470 <HAL_ADC_Start+0xc4>
 8002444:	f240 2321 	movw	r3, #545	@ 0x221
 8002448:	40f3      	lsrs	r3, r6
 800244a:	07dd      	lsls	r5, r3, #31
 800244c:	d410      	bmi.n	8002470 <HAL_ADC_Start+0xc4>
 800244e:	6de3      	ldr	r3, [r4, #92]	@ 0x5c
 8002450:	f443 1380 	orr.w	r3, r3, #1048576	@ 0x100000
 8002454:	65e3      	str	r3, [r4, #92]	@ 0x5c
 8002456:	68cb      	ldr	r3, [r1, #12]
 8002458:	019b      	lsls	r3, r3, #6
 800245a:	d5b9      	bpl.n	80023d0 <HAL_ADC_Start+0x24>
 800245c:	6de3      	ldr	r3, [r4, #92]	@ 0x5c
 800245e:	f423 5340 	bic.w	r3, r3, #12288	@ 0x3000
 8002462:	f443 5380 	orr.w	r3, r3, #4096	@ 0x1000
 8002466:	65e3      	str	r3, [r4, #92]	@ 0x5c
 8002468:	bd70      	pop	{r4, r5, r6, pc}
 800246a:	f884 5058 	strb.w	r5, [r4, #88]	@ 0x58
 800246e:	bd70      	pop	{r4, r5, r6, pc}
 8002470:	68d3      	ldr	r3, [r2, #12]
 8002472:	0199      	lsls	r1, r3, #6
 8002474:	d505      	bpl.n	8002482 <HAL_ADC_Start+0xd6>
 8002476:	6de3      	ldr	r3, [r4, #92]	@ 0x5c
 8002478:	f423 5340 	bic.w	r3, r3, #12288	@ 0x3000
 800247c:	f443 5380 	orr.w	r3, r3, #4096	@ 0x1000
 8002480:	65e3      	str	r3, [r4, #92]	@ 0x5c
 8002482:	6893      	ldr	r3, [r2, #8]
 8002484:	f023 4300 	bic.w	r3, r3, #2147483648	@ 0x80000000
 8002488:	f023 033f 	bic.w	r3, r3, #63	@ 0x3f
 800248c:	f043 0304 	orr.w	r3, r3, #4
 8002490:	6093      	str	r3, [r2, #8]
 8002492:	bd70      	pop	{r4, r5, r6, pc}
 8002494:	f04f 41a0 	mov.w	r1, #1342177280	@ 0x50000000
 8002498:	2e00      	cmp	r6, #0
 800249a:	d1c3      	bne.n	8002424 <HAL_ADC_Start+0x78>
 800249c:	e7be      	b.n	800241c <HAL_ADC_Start+0x70>
 800249e:	4904      	ldr	r1, [pc, #16]	@ (80024b0 <HAL_ADC_Start+0x104>)
 80024a0:	2e00      	cmp	r6, #0
 80024a2:	d1bf      	bne.n	8002424 <HAL_ADC_Start+0x78>
 80024a4:	e7ba      	b.n	800241c <HAL_ADC_Start+0x70>
 80024a6:	bf00      	nop
 80024a8:	50000100 	.word	0x50000100
 80024ac:	50000300 	.word	0x50000300
 80024b0:	50000400 	.word	0x50000400

080024b4 <ADC_Disable>:
 80024b4:	b538      	push	{r3, r4, r5, lr}
 80024b6:	6803      	ldr	r3, [r0, #0]
 80024b8:	689a      	ldr	r2, [r3, #8]
 80024ba:	0795      	lsls	r5, r2, #30
 80024bc:	d502      	bpl.n	80024c4 <ADC_Disable+0x10>
 80024be:	689b      	ldr	r3, [r3, #8]
 80024c0:	2000      	movs	r0, #0
 80024c2:	bd38      	pop	{r3, r4, r5, pc}
 80024c4:	689a      	ldr	r2, [r3, #8]
 80024c6:	07d4      	lsls	r4, r2, #31
 80024c8:	d5fa      	bpl.n	80024c0 <ADC_Disable+0xc>
 80024ca:	689a      	ldr	r2, [r3, #8]
 80024cc:	f002 020d 	and.w	r2, r2, #13
 80024d0:	2a01      	cmp	r2, #1
 80024d2:	4604      	mov	r4, r0
 80024d4:	d009      	beq.n	80024ea <ADC_Disable+0x36>
 80024d6:	6de3      	ldr	r3, [r4, #92]	@ 0x5c
 80024d8:	f043 0310 	orr.w	r3, r3, #16
 80024dc:	65e3      	str	r3, [r4, #92]	@ 0x5c
 80024de:	6e23      	ldr	r3, [r4, #96]	@ 0x60
 80024e0:	f043 0301 	orr.w	r3, r3, #1
 80024e4:	6623      	str	r3, [r4, #96]	@ 0x60
 80024e6:	2001      	movs	r0, #1
 80024e8:	bd38      	pop	{r3, r4, r5, pc}
 80024ea:	689a      	ldr	r2, [r3, #8]
 80024ec:	f022 4200 	bic.w	r2, r2, #2147483648	@ 0x80000000
 80024f0:	f022 023f 	bic.w	r2, r2, #63	@ 0x3f
 80024f4:	2103      	movs	r1, #3
 80024f6:	f042 0202 	orr.w	r2, r2, #2
 80024fa:	609a      	str	r2, [r3, #8]
 80024fc:	6019      	str	r1, [r3, #0]
 80024fe:	f7ff fa0b 	bl	8001918 <HAL_GetTick>
 8002502:	6823      	ldr	r3, [r4, #0]
 8002504:	689b      	ldr	r3, [r3, #8]
 8002506:	07d9      	lsls	r1, r3, #31
 8002508:	4605      	mov	r5, r0
 800250a:	d403      	bmi.n	8002514 <ADC_Disable+0x60>
 800250c:	e7d8      	b.n	80024c0 <ADC_Disable+0xc>
 800250e:	689b      	ldr	r3, [r3, #8]
 8002510:	07db      	lsls	r3, r3, #31
 8002512:	d5d5      	bpl.n	80024c0 <ADC_Disable+0xc>
 8002514:	f7ff fa00 	bl	8001918 <HAL_GetTick>
 8002518:	1b40      	subs	r0, r0, r5
 800251a:	2802      	cmp	r0, #2
 800251c:	6823      	ldr	r3, [r4, #0]
 800251e:	d9f6      	bls.n	800250e <ADC_Disable+0x5a>
 8002520:	689a      	ldr	r2, [r3, #8]
 8002522:	07d2      	lsls	r2, r2, #31
 8002524:	d5f3      	bpl.n	800250e <ADC_Disable+0x5a>
 8002526:	e7d6      	b.n	80024d6 <ADC_Disable+0x22>

08002528 <HAL_ADC_Stop>:
 8002528:	f890 3058 	ldrb.w	r3, [r0, #88]	@ 0x58
 800252c:	2b01      	cmp	r3, #1
 800252e:	d01e      	beq.n	800256e <HAL_ADC_Stop+0x46>
 8002530:	2301      	movs	r3, #1
 8002532:	b510      	push	{r4, lr}
 8002534:	2103      	movs	r1, #3
 8002536:	f880 3058 	strb.w	r3, [r0, #88]	@ 0x58
 800253a:	4604      	mov	r4, r0
 800253c:	f7ff fe48 	bl	80021d0 <ADC_ConversionStop>
 8002540:	b120      	cbz	r0, 800254c <HAL_ADC_Stop+0x24>
 8002542:	2300      	movs	r3, #0
 8002544:	f884 3058 	strb.w	r3, [r4, #88]	@ 0x58
 8002548:	2001      	movs	r0, #1
 800254a:	bd10      	pop	{r4, pc}
 800254c:	4620      	mov	r0, r4
 800254e:	f7ff ffb1 	bl	80024b4 <ADC_Disable>
 8002552:	2800      	cmp	r0, #0
 8002554:	d1f5      	bne.n	8002542 <HAL_ADC_Stop+0x1a>
 8002556:	6de3      	ldr	r3, [r4, #92]	@ 0x5c
 8002558:	f423 5388 	bic.w	r3, r3, #4352	@ 0x1100
 800255c:	f023 0301 	bic.w	r3, r3, #1
 8002560:	f043 0301 	orr.w	r3, r3, #1
 8002564:	65e3      	str	r3, [r4, #92]	@ 0x5c
 8002566:	2300      	movs	r3, #0
 8002568:	f884 3058 	strb.w	r3, [r4, #88]	@ 0x58
 800256c:	bd10      	pop	{r4, pc}
 800256e:	2002      	movs	r0, #2
 8002570:	4770      	bx	lr
 8002572:	bf00      	nop

08002574 <HAL_ADCEx_MultiModeConfigChannel>:
 8002574:	f890 2058 	ldrb.w	r2, [r0, #88]	@ 0x58
 8002578:	2a01      	cmp	r2, #1
 800257a:	d04c      	beq.n	8002616 <HAL_ADCEx_MultiModeConfigChannel+0xa2>
 800257c:	b470      	push	{r4, r5, r6}
 800257e:	6802      	ldr	r2, [r0, #0]
 8002580:	b09d      	sub	sp, #116	@ 0x74
 8002582:	4603      	mov	r3, r0
 8002584:	2400      	movs	r4, #0
 8002586:	2001      	movs	r0, #1
 8002588:	f1b2 4fa0 	cmp.w	r2, #1342177280	@ 0x50000000
 800258c:	9418      	str	r4, [sp, #96]	@ 0x60
 800258e:	f883 0058 	strb.w	r0, [r3, #88]	@ 0x58
 8002592:	9419      	str	r4, [sp, #100]	@ 0x64
 8002594:	d00b      	beq.n	80025ae <HAL_ADCEx_MultiModeConfigChannel+0x3a>
 8002596:	4d46      	ldr	r5, [pc, #280]	@ (80026b0 <HAL_ADCEx_MultiModeConfigChannel+0x13c>)
 8002598:	42aa      	cmp	r2, r5
 800259a:	d03a      	beq.n	8002612 <HAL_ADCEx_MultiModeConfigChannel+0x9e>
 800259c:	6dda      	ldr	r2, [r3, #92]	@ 0x5c
 800259e:	f883 4058 	strb.w	r4, [r3, #88]	@ 0x58
 80025a2:	f042 0220 	orr.w	r2, r2, #32
 80025a6:	65da      	str	r2, [r3, #92]	@ 0x5c
 80025a8:	b01d      	add	sp, #116	@ 0x74
 80025aa:	bc70      	pop	{r4, r5, r6}
 80025ac:	4770      	bx	lr
 80025ae:	4841      	ldr	r0, [pc, #260]	@ (80026b4 <HAL_ADCEx_MultiModeConfigChannel+0x140>)
 80025b0:	6880      	ldr	r0, [r0, #8]
 80025b2:	0740      	lsls	r0, r0, #29
 80025b4:	d50b      	bpl.n	80025ce <HAL_ADCEx_MultiModeConfigChannel+0x5a>
 80025b6:	6892      	ldr	r2, [r2, #8]
 80025b8:	6dda      	ldr	r2, [r3, #92]	@ 0x5c
 80025ba:	f042 0220 	orr.w	r2, r2, #32
 80025be:	2001      	movs	r0, #1
 80025c0:	65da      	str	r2, [r3, #92]	@ 0x5c
 80025c2:	2200      	movs	r2, #0
 80025c4:	f883 2058 	strb.w	r2, [r3, #88]	@ 0x58
 80025c8:	b01d      	add	sp, #116	@ 0x74
 80025ca:	bc70      	pop	{r4, r5, r6}
 80025cc:	4770      	bx	lr
 80025ce:	6890      	ldr	r0, [r2, #8]
 80025d0:	0740      	lsls	r0, r0, #29
 80025d2:	d4f1      	bmi.n	80025b8 <HAL_ADCEx_MultiModeConfigChannel+0x44>
 80025d4:	f1b2 4fa0 	cmp.w	r2, #1342177280	@ 0x50000000
 80025d8:	6808      	ldr	r0, [r1, #0]
 80025da:	d01e      	beq.n	800261a <HAL_ADCEx_MultiModeConfigChannel+0xa6>
 80025dc:	2800      	cmp	r0, #0
 80025de:	d131      	bne.n	8002644 <HAL_ADCEx_MultiModeConfigChannel+0xd0>
 80025e0:	4935      	ldr	r1, [pc, #212]	@ (80026b8 <HAL_ADCEx_MultiModeConfigChannel+0x144>)
 80025e2:	4c33      	ldr	r4, [pc, #204]	@ (80026b0 <HAL_ADCEx_MultiModeConfigChannel+0x13c>)
 80025e4:	688a      	ldr	r2, [r1, #8]
 80025e6:	4835      	ldr	r0, [pc, #212]	@ (80026bc <HAL_ADCEx_MultiModeConfigChannel+0x148>)
 80025e8:	f422 4260 	bic.w	r2, r2, #57344	@ 0xe000
 80025ec:	608a      	str	r2, [r1, #8]
 80025ee:	68a4      	ldr	r4, [r4, #8]
 80025f0:	6882      	ldr	r2, [r0, #8]
 80025f2:	07d6      	lsls	r6, r2, #31
 80025f4:	d458      	bmi.n	80026a8 <HAL_ADCEx_MultiModeConfigChannel+0x134>
 80025f6:	4a32      	ldr	r2, [pc, #200]	@ (80026c0 <HAL_ADCEx_MultiModeConfigChannel+0x14c>)
 80025f8:	6892      	ldr	r2, [r2, #8]
 80025fa:	07d0      	lsls	r0, r2, #31
 80025fc:	d407      	bmi.n	800260e <HAL_ADCEx_MultiModeConfigChannel+0x9a>
 80025fe:	07e2      	lsls	r2, r4, #31
 8002600:	d405      	bmi.n	800260e <HAL_ADCEx_MultiModeConfigChannel+0x9a>
 8002602:	688a      	ldr	r2, [r1, #8]
 8002604:	f422 6271 	bic.w	r2, r2, #3856	@ 0xf10
 8002608:	f022 020f 	bic.w	r2, r2, #15
 800260c:	608a      	str	r2, [r1, #8]
 800260e:	2000      	movs	r0, #0
 8002610:	e7d7      	b.n	80025c2 <HAL_ADCEx_MultiModeConfigChannel+0x4e>
 8002612:	482a      	ldr	r0, [pc, #168]	@ (80026bc <HAL_ADCEx_MultiModeConfigChannel+0x148>)
 8002614:	e7cc      	b.n	80025b0 <HAL_ADCEx_MultiModeConfigChannel+0x3c>
 8002616:	2002      	movs	r0, #2
 8002618:	4770      	bx	lr
 800261a:	2800      	cmp	r0, #0
 800261c:	d034      	beq.n	8002688 <HAL_ADCEx_MultiModeConfigChannel+0x114>
 800261e:	4d29      	ldr	r5, [pc, #164]	@ (80026c4 <HAL_ADCEx_MultiModeConfigChannel+0x150>)
 8002620:	684e      	ldr	r6, [r1, #4]
 8002622:	68ac      	ldr	r4, [r5, #8]
 8002624:	f893 c038 	ldrb.w	ip, [r3, #56]	@ 0x38
 8002628:	f424 4460 	bic.w	r4, r4, #57344	@ 0xe000
 800262c:	4334      	orrs	r4, r6
 800262e:	ea44 344c 	orr.w	r4, r4, ip, lsl #13
 8002632:	60ac      	str	r4, [r5, #8]
 8002634:	6892      	ldr	r2, [r2, #8]
 8002636:	07d4      	lsls	r4, r2, #31
 8002638:	d433      	bmi.n	80026a2 <HAL_ADCEx_MultiModeConfigChannel+0x12e>
 800263a:	4a1e      	ldr	r2, [pc, #120]	@ (80026b4 <HAL_ADCEx_MultiModeConfigChannel+0x140>)
 800263c:	6892      	ldr	r2, [r2, #8]
 800263e:	07d4      	lsls	r4, r2, #31
 8002640:	d518      	bpl.n	8002674 <HAL_ADCEx_MultiModeConfigChannel+0x100>
 8002642:	e7e4      	b.n	800260e <HAL_ADCEx_MultiModeConfigChannel+0x9a>
 8002644:	4d1c      	ldr	r5, [pc, #112]	@ (80026b8 <HAL_ADCEx_MultiModeConfigChannel+0x144>)
 8002646:	684c      	ldr	r4, [r1, #4]
 8002648:	68aa      	ldr	r2, [r5, #8]
 800264a:	f422 4260 	bic.w	r2, r2, #57344	@ 0xe000
 800264e:	4322      	orrs	r2, r4
 8002650:	f893 4038 	ldrb.w	r4, [r3, #56]	@ 0x38
 8002654:	ea42 3244 	orr.w	r2, r2, r4, lsl #13
 8002658:	60aa      	str	r2, [r5, #8]
 800265a:	4a15      	ldr	r2, [pc, #84]	@ (80026b0 <HAL_ADCEx_MultiModeConfigChannel+0x13c>)
 800265c:	6894      	ldr	r4, [r2, #8]
 800265e:	f502 7280 	add.w	r2, r2, #256	@ 0x100
 8002662:	6892      	ldr	r2, [r2, #8]
 8002664:	07d6      	lsls	r6, r2, #31
 8002666:	d41f      	bmi.n	80026a8 <HAL_ADCEx_MultiModeConfigChannel+0x134>
 8002668:	4a15      	ldr	r2, [pc, #84]	@ (80026c0 <HAL_ADCEx_MultiModeConfigChannel+0x14c>)
 800266a:	6892      	ldr	r2, [r2, #8]
 800266c:	07d2      	lsls	r2, r2, #31
 800266e:	d4ce      	bmi.n	800260e <HAL_ADCEx_MultiModeConfigChannel+0x9a>
 8002670:	07e6      	lsls	r6, r4, #31
 8002672:	d4cc      	bmi.n	800260e <HAL_ADCEx_MultiModeConfigChannel+0x9a>
 8002674:	68ac      	ldr	r4, [r5, #8]
 8002676:	688a      	ldr	r2, [r1, #8]
 8002678:	f424 6171 	bic.w	r1, r4, #3856	@ 0xf10
 800267c:	4302      	orrs	r2, r0
 800267e:	f021 010f 	bic.w	r1, r1, #15
 8002682:	430a      	orrs	r2, r1
 8002684:	60aa      	str	r2, [r5, #8]
 8002686:	e7c2      	b.n	800260e <HAL_ADCEx_MultiModeConfigChannel+0x9a>
 8002688:	490e      	ldr	r1, [pc, #56]	@ (80026c4 <HAL_ADCEx_MultiModeConfigChannel+0x150>)
 800268a:	6888      	ldr	r0, [r1, #8]
 800268c:	f420 4060 	bic.w	r0, r0, #57344	@ 0xe000
 8002690:	6088      	str	r0, [r1, #8]
 8002692:	6892      	ldr	r2, [r2, #8]
 8002694:	07d5      	lsls	r5, r2, #31
 8002696:	d404      	bmi.n	80026a2 <HAL_ADCEx_MultiModeConfigChannel+0x12e>
 8002698:	4a06      	ldr	r2, [pc, #24]	@ (80026b4 <HAL_ADCEx_MultiModeConfigChannel+0x140>)
 800269a:	6892      	ldr	r2, [r2, #8]
 800269c:	07d4      	lsls	r4, r2, #31
 800269e:	d4b6      	bmi.n	800260e <HAL_ADCEx_MultiModeConfigChannel+0x9a>
 80026a0:	e7af      	b.n	8002602 <HAL_ADCEx_MultiModeConfigChannel+0x8e>
 80026a2:	4a04      	ldr	r2, [pc, #16]	@ (80026b4 <HAL_ADCEx_MultiModeConfigChannel+0x140>)
 80026a4:	6892      	ldr	r2, [r2, #8]
 80026a6:	e7b2      	b.n	800260e <HAL_ADCEx_MultiModeConfigChannel+0x9a>
 80026a8:	4a05      	ldr	r2, [pc, #20]	@ (80026c0 <HAL_ADCEx_MultiModeConfigChannel+0x14c>)
 80026aa:	6892      	ldr	r2, [r2, #8]
 80026ac:	e7af      	b.n	800260e <HAL_ADCEx_MultiModeConfigChannel+0x9a>
 80026ae:	bf00      	nop
 80026b0:	50000400 	.word	0x50000400
 80026b4:	50000100 	.word	0x50000100
 80026b8:	50000700 	.word	0x50000700
 80026bc:	50000500 	.word	0x50000500
 80026c0:	50000600 	.word	0x50000600
 80026c4:	50000300 	.word	0x50000300

080026c8 <HAL_NVIC_SetPriorityGrouping>:
 80026c8:	4907      	ldr	r1, [pc, #28]	@ (80026e8 <HAL_NVIC_SetPriorityGrouping+0x20>)
 80026ca:	68ca      	ldr	r2, [r1, #12]
 80026cc:	0203      	lsls	r3, r0, #8
 80026ce:	f64f 00ff 	movw	r0, #63743	@ 0xf8ff
 80026d2:	f403 63e0 	and.w	r3, r3, #1792	@ 0x700
 80026d6:	4002      	ands	r2, r0
 80026d8:	4313      	orrs	r3, r2
 80026da:	f043 63bf 	orr.w	r3, r3, #100139008	@ 0x5f80000
 80026de:	f443 3300 	orr.w	r3, r3, #131072	@ 0x20000
 80026e2:	60cb      	str	r3, [r1, #12]
 80026e4:	4770      	bx	lr
 80026e6:	bf00      	nop
 80026e8:	e000ed00 	.word	0xe000ed00

080026ec <HAL_NVIC_SetPriority>:
 80026ec:	4b1a      	ldr	r3, [pc, #104]	@ (8002758 <HAL_NVIC_SetPriority+0x6c>)
 80026ee:	68db      	ldr	r3, [r3, #12]
 80026f0:	f3c3 2302 	ubfx	r3, r3, #8, #3
 80026f4:	b500      	push	{lr}
 80026f6:	f1c3 0e07 	rsb	lr, r3, #7
 80026fa:	f1be 0f04 	cmp.w	lr, #4
 80026fe:	f103 0c04 	add.w	ip, r3, #4
 8002702:	bf28      	it	cs
 8002704:	f04f 0e04 	movcs.w	lr, #4
 8002708:	f1bc 0f06 	cmp.w	ip, #6
 800270c:	d91b      	bls.n	8002746 <HAL_NVIC_SetPriority+0x5a>
 800270e:	f1a3 0c03 	sub.w	ip, r3, #3
 8002712:	f04f 33ff 	mov.w	r3, #4294967295
 8002716:	fa03 f30c 	lsl.w	r3, r3, ip
 800271a:	ea22 0203 	bic.w	r2, r2, r3
 800271e:	f04f 33ff 	mov.w	r3, #4294967295
 8002722:	fa03 f30e 	lsl.w	r3, r3, lr
 8002726:	ea21 0303 	bic.w	r3, r1, r3
 800272a:	fa03 f30c 	lsl.w	r3, r3, ip
 800272e:	4313      	orrs	r3, r2
 8002730:	011b      	lsls	r3, r3, #4
 8002732:	2800      	cmp	r0, #0
 8002734:	b2db      	uxtb	r3, r3
 8002736:	db09      	blt.n	800274c <HAL_NVIC_SetPriority+0x60>
 8002738:	f100 4060 	add.w	r0, r0, #3758096384	@ 0xe0000000
 800273c:	f500 4061 	add.w	r0, r0, #57600	@ 0xe100
 8002740:	f880 3300 	strb.w	r3, [r0, #768]	@ 0x300
 8002744:	bd00      	pop	{pc}
 8002746:	2200      	movs	r2, #0
 8002748:	4694      	mov	ip, r2
 800274a:	e7e8      	b.n	800271e <HAL_NVIC_SetPriority+0x32>
 800274c:	4a03      	ldr	r2, [pc, #12]	@ (800275c <HAL_NVIC_SetPriority+0x70>)
 800274e:	f000 000f 	and.w	r0, r0, #15
 8002752:	4402      	add	r2, r0
 8002754:	7613      	strb	r3, [r2, #24]
 8002756:	bd00      	pop	{pc}
 8002758:	e000ed00 	.word	0xe000ed00
 800275c:	e000ecfc 	.word	0xe000ecfc

08002760 <HAL_NVIC_EnableIRQ>:
 8002760:	2800      	cmp	r0, #0
 8002762:	db07      	blt.n	8002774 <HAL_NVIC_EnableIRQ+0x14>
 8002764:	4a04      	ldr	r2, [pc, #16]	@ (8002778 <HAL_NVIC_EnableIRQ+0x18>)
 8002766:	0941      	lsrs	r1, r0, #5
 8002768:	2301      	movs	r3, #1
 800276a:	f000 001f 	and.w	r0, r0, #31
 800276e:	4083      	lsls	r3, r0
 8002770:	f842 3021 	str.w	r3, [r2, r1, lsl #2]
 8002774:	4770      	bx	lr
 8002776:	bf00      	nop
 8002778:	e000e100 	.word	0xe000e100

0800277c <HAL_SYSTICK_Config>:
 800277c:	3801      	subs	r0, #1
 800277e:	f1b0 7f80 	cmp.w	r0, #16777216	@ 0x1000000
 8002782:	d301      	bcc.n	8002788 <HAL_SYSTICK_Config+0xc>
 8002784:	2001      	movs	r0, #1
 8002786:	4770      	bx	lr
 8002788:	b410      	push	{r4}
 800278a:	f04f 23e0 	mov.w	r3, #3758153728	@ 0xe000e000
 800278e:	4c07      	ldr	r4, [pc, #28]	@ (80027ac <HAL_SYSTICK_Config+0x30>)
 8002790:	6158      	str	r0, [r3, #20]
 8002792:	f04f 0cf0 	mov.w	ip, #240	@ 0xf0
 8002796:	f884 c023 	strb.w	ip, [r4, #35]	@ 0x23
 800279a:	2200      	movs	r2, #0
 800279c:	2107      	movs	r1, #7
 800279e:	4610      	mov	r0, r2
 80027a0:	619a      	str	r2, [r3, #24]
 80027a2:	f85d 4b04 	ldr.w	r4, [sp], #4
 80027a6:	6119      	str	r1, [r3, #16]
 80027a8:	4770      	bx	lr
 80027aa:	bf00      	nop
 80027ac:	e000ed00 	.word	0xe000ed00

080027b0 <HAL_DAC_Init>:
 80027b0:	b188      	cbz	r0, 80027d6 <HAL_DAC_Init+0x26>
 80027b2:	b510      	push	{r4, lr}
 80027b4:	7903      	ldrb	r3, [r0, #4]
 80027b6:	4604      	mov	r4, r0
 80027b8:	f003 02ff 	and.w	r2, r3, #255	@ 0xff
 80027bc:	b13b      	cbz	r3, 80027ce <HAL_DAC_Init+0x1e>
 80027be:	2300      	movs	r3, #0
 80027c0:	2102      	movs	r1, #2
 80027c2:	2201      	movs	r2, #1
 80027c4:	7121      	strb	r1, [r4, #4]
 80027c6:	6123      	str	r3, [r4, #16]
 80027c8:	7122      	strb	r2, [r4, #4]
 80027ca:	4618      	mov	r0, r3
 80027cc:	bd10      	pop	{r4, pc}
 80027ce:	7142      	strb	r2, [r0, #5]
 80027d0:	f7fe fc52 	bl	8001078 <HAL_DAC_MspInit>
 80027d4:	e7f3      	b.n	80027be <HAL_DAC_Init+0xe>
 80027d6:	2001      	movs	r0, #1
 80027d8:	4770      	bx	lr
 80027da:	bf00      	nop

080027dc <HAL_DAC_Start>:
 80027dc:	2800      	cmp	r0, #0
 80027de:	d041      	beq.n	8002864 <HAL_DAC_Start+0x88>
 80027e0:	7943      	ldrb	r3, [r0, #5]
 80027e2:	2b01      	cmp	r3, #1
 80027e4:	4602      	mov	r2, r0
 80027e6:	d03f      	beq.n	8002868 <HAL_DAC_Start+0x8c>
 80027e8:	b430      	push	{r4, r5}
 80027ea:	2302      	movs	r3, #2
 80027ec:	b082      	sub	sp, #8
 80027ee:	7103      	strb	r3, [r0, #4]
 80027f0:	4b1e      	ldr	r3, [pc, #120]	@ (800286c <HAL_DAC_Start+0x90>)
 80027f2:	6804      	ldr	r4, [r0, #0]
 80027f4:	681b      	ldr	r3, [r3, #0]
 80027f6:	481e      	ldr	r0, [pc, #120]	@ (8002870 <HAL_DAC_Start+0x94>)
 80027f8:	6825      	ldr	r5, [r4, #0]
 80027fa:	099b      	lsrs	r3, r3, #6
 80027fc:	fba0 0303 	umull	r0, r3, r0, r3
 8002800:	f001 0c10 	and.w	ip, r1, #16
 8002804:	2001      	movs	r0, #1
 8002806:	099b      	lsrs	r3, r3, #6
 8002808:	fa00 f00c 	lsl.w	r0, r0, ip
 800280c:	3301      	adds	r3, #1
 800280e:	4328      	orrs	r0, r5
 8002810:	6020      	str	r0, [r4, #0]
 8002812:	9301      	str	r3, [sp, #4]
 8002814:	9b01      	ldr	r3, [sp, #4]
 8002816:	b12b      	cbz	r3, 8002824 <HAL_DAC_Start+0x48>
 8002818:	9b01      	ldr	r3, [sp, #4]
 800281a:	3b01      	subs	r3, #1
 800281c:	9301      	str	r3, [sp, #4]
 800281e:	9b01      	ldr	r3, [sp, #4]
 8002820:	2b00      	cmp	r3, #0
 8002822:	d1f9      	bne.n	8002818 <HAL_DAC_Start+0x3c>
 8002824:	6823      	ldr	r3, [r4, #0]
 8002826:	b971      	cbnz	r1, 8002846 <HAL_DAC_Start+0x6a>
 8002828:	f003 033e 	and.w	r3, r3, #62	@ 0x3e
 800282c:	2b02      	cmp	r3, #2
 800282e:	d103      	bne.n	8002838 <HAL_DAC_Start+0x5c>
 8002830:	6863      	ldr	r3, [r4, #4]
 8002832:	f043 0301 	orr.w	r3, r3, #1
 8002836:	6063      	str	r3, [r4, #4]
 8002838:	2000      	movs	r0, #0
 800283a:	2301      	movs	r3, #1
 800283c:	7113      	strb	r3, [r2, #4]
 800283e:	7150      	strb	r0, [r2, #5]
 8002840:	b002      	add	sp, #8
 8002842:	bc30      	pop	{r4, r5}
 8002844:	4770      	bx	lr
 8002846:	f1bc 0f00 	cmp.w	ip, #0
 800284a:	f403 1378 	and.w	r3, r3, #4063232	@ 0x3e0000
 800284e:	bf0c      	ite	eq
 8002850:	2102      	moveq	r1, #2
 8002852:	f44f 3100 	movne.w	r1, #131072	@ 0x20000
 8002856:	428b      	cmp	r3, r1
 8002858:	d1ee      	bne.n	8002838 <HAL_DAC_Start+0x5c>
 800285a:	6863      	ldr	r3, [r4, #4]
 800285c:	f043 0302 	orr.w	r3, r3, #2
 8002860:	6063      	str	r3, [r4, #4]
 8002862:	e7e9      	b.n	8002838 <HAL_DAC_Start+0x5c>
 8002864:	2001      	movs	r0, #1
 8002866:	4770      	bx	lr
 8002868:	2002      	movs	r0, #2
 800286a:	4770      	bx	lr
 800286c:	20000000 	.word	0x20000000
 8002870:	053e2d63 	.word	0x053e2d63

08002874 <HAL_DAC_SetValue>:
 8002874:	b410      	push	{r4}
 8002876:	b083      	sub	sp, #12
 8002878:	2400      	movs	r4, #0
 800287a:	9401      	str	r4, [sp, #4]
 800287c:	b198      	cbz	r0, 80028a6 <HAL_DAC_SetValue+0x32>
 800287e:	6800      	ldr	r0, [r0, #0]
 8002880:	6bc4      	ldr	r4, [r0, #60]	@ 0x3c
 8002882:	9001      	str	r0, [sp, #4]
 8002884:	b151      	cbz	r1, 800289c <HAL_DAC_SetValue+0x28>
 8002886:	9901      	ldr	r1, [sp, #4]
 8002888:	3114      	adds	r1, #20
 800288a:	440a      	add	r2, r1
 800288c:	9201      	str	r2, [sp, #4]
 800288e:	9a01      	ldr	r2, [sp, #4]
 8002890:	2000      	movs	r0, #0
 8002892:	6013      	str	r3, [r2, #0]
 8002894:	b003      	add	sp, #12
 8002896:	f85d 4b04 	ldr.w	r4, [sp], #4
 800289a:	4770      	bx	lr
 800289c:	9901      	ldr	r1, [sp, #4]
 800289e:	3108      	adds	r1, #8
 80028a0:	440a      	add	r2, r1
 80028a2:	9201      	str	r2, [sp, #4]
 80028a4:	e7f3      	b.n	800288e <HAL_DAC_SetValue+0x1a>
 80028a6:	2001      	movs	r0, #1
 80028a8:	b003      	add	sp, #12
 80028aa:	f85d 4b04 	ldr.w	r4, [sp], #4
 80028ae:	4770      	bx	lr

080028b0 <HAL_DAC_ConfigChannel>:
 80028b0:	2800      	cmp	r0, #0
 80028b2:	f000 80c2 	beq.w	8002a3a <HAL_DAC_ConfigChannel+0x18a>
 80028b6:	e92d 41f0 	stmdb	sp!, {r4, r5, r6, r7, r8, lr}
 80028ba:	460f      	mov	r7, r1
 80028bc:	2900      	cmp	r1, #0
 80028be:	f000 80be 	beq.w	8002a3e <HAL_DAC_ConfigChannel+0x18e>
 80028c2:	7943      	ldrb	r3, [r0, #5]
 80028c4:	2b01      	cmp	r3, #1
 80028c6:	4605      	mov	r5, r0
 80028c8:	6888      	ldr	r0, [r1, #8]
 80028ca:	f000 80c7 	beq.w	8002a5c <HAL_DAC_ConfigChannel+0x1ac>
 80028ce:	2301      	movs	r3, #1
 80028d0:	716b      	strb	r3, [r5, #5]
 80028d2:	2804      	cmp	r0, #4
 80028d4:	f04f 0302 	mov.w	r3, #2
 80028d8:	4616      	mov	r6, r2
 80028da:	712b      	strb	r3, [r5, #4]
 80028dc:	d06f      	beq.n	80029be <HAL_DAC_ConfigChannel+0x10e>
 80028de:	682b      	ldr	r3, [r5, #0]
 80028e0:	f002 0610 	and.w	r6, r2, #16
 80028e4:	69fa      	ldr	r2, [r7, #28]
 80028e6:	2a01      	cmp	r2, #1
 80028e8:	d108      	bne.n	80028fc <HAL_DAC_ConfigChannel+0x4c>
 80028ea:	6b99      	ldr	r1, [r3, #56]	@ 0x38
 80028ec:	6a3a      	ldr	r2, [r7, #32]
 80028ee:	241f      	movs	r4, #31
 80028f0:	40b4      	lsls	r4, r6
 80028f2:	40b2      	lsls	r2, r6
 80028f4:	ea21 0104 	bic.w	r1, r1, r4
 80028f8:	430a      	orrs	r2, r1
 80028fa:	639a      	str	r2, [r3, #56]	@ 0x38
 80028fc:	69b9      	ldr	r1, [r7, #24]
 80028fe:	6bda      	ldr	r2, [r3, #60]	@ 0x3c
 8002900:	f8d7 e014 	ldr.w	lr, [r7, #20]
 8002904:	2901      	cmp	r1, #1
 8002906:	f000 8095 	beq.w	8002a34 <HAL_DAC_ConfigChannel+0x184>
 800290a:	2902      	cmp	r1, #2
 800290c:	f000 809a 	beq.w	8002a44 <HAL_DAC_ConfigChannel+0x194>
 8002910:	fabe fc8e 	clz	ip, lr
 8002914:	ea4f 1c5c 	mov.w	ip, ip, lsr #5
 8002918:	797c      	ldrb	r4, [r7, #5]
 800291a:	7939      	ldrb	r1, [r7, #4]
 800291c:	f1a4 0401 	sub.w	r4, r4, #1
 8002920:	fab4 f484 	clz	r4, r4
 8002924:	f1a1 0101 	sub.w	r1, r1, #1
 8002928:	0964      	lsrs	r4, r4, #5
 800292a:	fab1 f181 	clz	r1, r1
 800292e:	0949      	lsrs	r1, r1, #5
 8002930:	0264      	lsls	r4, r4, #9
 8002932:	ea44 2401 	orr.w	r4, r4, r1, lsl #8
 8002936:	f240 3107 	movw	r1, #775	@ 0x307
 800293a:	40b1      	lsls	r1, r6
 800293c:	ea22 0801 	bic.w	r8, r2, r1
 8002940:	683a      	ldr	r2, [r7, #0]
 8002942:	ea44 040e 	orr.w	r4, r4, lr
 8002946:	4304      	orrs	r4, r0
 8002948:	2a02      	cmp	r2, #2
 800294a:	ea44 040c 	orr.w	r4, r4, ip
 800294e:	f428 4840 	bic.w	r8, r8, #49152	@ 0xc000
 8002952:	d07a      	beq.n	8002a4a <HAL_DAC_ConfigChannel+0x19a>
 8002954:	ea48 0802 	orr.w	r8, r8, r2
 8002958:	40b4      	lsls	r4, r6
 800295a:	ea44 0408 	orr.w	r4, r4, r8
 800295e:	63dc      	str	r4, [r3, #60]	@ 0x3c
 8002960:	681a      	ldr	r2, [r3, #0]
 8002962:	f44f 4180 	mov.w	r1, #16384	@ 0x4000
 8002966:	40b1      	lsls	r1, r6
 8002968:	ea22 0201 	bic.w	r2, r2, r1
 800296c:	601a      	str	r2, [r3, #0]
 800296e:	e9d7 1203 	ldrd	r1, r2, [r7, #12]
 8002972:	681c      	ldr	r4, [r3, #0]
 8002974:	f640 70fe 	movw	r0, #4094	@ 0xffe
 8002978:	40b0      	lsls	r0, r6
 800297a:	ea24 0400 	bic.w	r4, r4, r0
 800297e:	fa01 f006 	lsl.w	r0, r1, r6
 8002982:	4320      	orrs	r0, r4
 8002984:	0192      	lsls	r2, r2, #6
 8002986:	6018      	str	r0, [r3, #0]
 8002988:	f3c1 0183 	ubfx	r1, r1, #2, #4
 800298c:	f402 6270 	and.w	r2, r2, #3840	@ 0xf00
 8002990:	430a      	orrs	r2, r1
 8002992:	24c0      	movs	r4, #192	@ 0xc0
 8002994:	6819      	ldr	r1, [r3, #0]
 8002996:	40b4      	lsls	r4, r6
 8002998:	ea21 0104 	bic.w	r1, r1, r4
 800299c:	6019      	str	r1, [r3, #0]
 800299e:	6e19      	ldr	r1, [r3, #96]	@ 0x60
 80029a0:	f640 700f 	movw	r0, #3855	@ 0xf0f
 80029a4:	40b0      	lsls	r0, r6
 80029a6:	ea21 0100 	bic.w	r1, r1, r0
 80029aa:	40b2      	lsls	r2, r6
 80029ac:	2400      	movs	r4, #0
 80029ae:	430a      	orrs	r2, r1
 80029b0:	2101      	movs	r1, #1
 80029b2:	661a      	str	r2, [r3, #96]	@ 0x60
 80029b4:	4620      	mov	r0, r4
 80029b6:	7129      	strb	r1, [r5, #4]
 80029b8:	716c      	strb	r4, [r5, #5]
 80029ba:	e8bd 81f0 	ldmia.w	sp!, {r4, r5, r6, r7, r8, pc}
 80029be:	f7fe ffab 	bl	8001918 <HAL_GetTick>
 80029c2:	682b      	ldr	r3, [r5, #0]
 80029c4:	4604      	mov	r4, r0
 80029c6:	6b5a      	ldr	r2, [r3, #52]	@ 0x34
 80029c8:	b156      	cbz	r6, 80029e0 <HAL_DAC_ConfigChannel+0x130>
 80029ca:	e018      	b.n	80029fe <HAL_DAC_ConfigChannel+0x14e>
 80029cc:	f7fe ffa4 	bl	8001918 <HAL_GetTick>
 80029d0:	1b00      	subs	r0, r0, r4
 80029d2:	2801      	cmp	r0, #1
 80029d4:	682b      	ldr	r3, [r5, #0]
 80029d6:	d902      	bls.n	80029de <HAL_DAC_ConfigChannel+0x12e>
 80029d8:	6b5a      	ldr	r2, [r3, #52]	@ 0x34
 80029da:	0411      	lsls	r1, r2, #16
 80029dc:	d447      	bmi.n	8002a6e <HAL_DAC_ConfigChannel+0x1be>
 80029de:	6b5a      	ldr	r2, [r3, #52]	@ 0x34
 80029e0:	0412      	lsls	r2, r2, #16
 80029e2:	d4f3      	bmi.n	80029cc <HAL_DAC_ConfigChannel+0x11c>
 80029e4:	6a7a      	ldr	r2, [r7, #36]	@ 0x24
 80029e6:	641a      	str	r2, [r3, #64]	@ 0x40
 80029e8:	e00d      	b.n	8002a06 <HAL_DAC_ConfigChannel+0x156>
 80029ea:	f7fe ff95 	bl	8001918 <HAL_GetTick>
 80029ee:	1b00      	subs	r0, r0, r4
 80029f0:	2801      	cmp	r0, #1
 80029f2:	682b      	ldr	r3, [r5, #0]
 80029f4:	d902      	bls.n	80029fc <HAL_DAC_ConfigChannel+0x14c>
 80029f6:	6b5a      	ldr	r2, [r3, #52]	@ 0x34
 80029f8:	2a00      	cmp	r2, #0
 80029fa:	db38      	blt.n	8002a6e <HAL_DAC_ConfigChannel+0x1be>
 80029fc:	6b5a      	ldr	r2, [r3, #52]	@ 0x34
 80029fe:	2a00      	cmp	r2, #0
 8002a00:	dbf3      	blt.n	80029ea <HAL_DAC_ConfigChannel+0x13a>
 8002a02:	6a7a      	ldr	r2, [r7, #36]	@ 0x24
 8002a04:	645a      	str	r2, [r3, #68]	@ 0x44
 8002a06:	6c9a      	ldr	r2, [r3, #72]	@ 0x48
 8002a08:	6ab9      	ldr	r1, [r7, #40]	@ 0x28
 8002a0a:	f006 0610 	and.w	r6, r6, #16
 8002a0e:	f240 30ff 	movw	r0, #1023	@ 0x3ff
 8002a12:	40b0      	lsls	r0, r6
 8002a14:	40b1      	lsls	r1, r6
 8002a16:	ea22 0200 	bic.w	r2, r2, r0
 8002a1a:	430a      	orrs	r2, r1
 8002a1c:	649a      	str	r2, [r3, #72]	@ 0x48
 8002a1e:	6cda      	ldr	r2, [r3, #76]	@ 0x4c
 8002a20:	6af9      	ldr	r1, [r7, #44]	@ 0x2c
 8002a22:	20ff      	movs	r0, #255	@ 0xff
 8002a24:	40b0      	lsls	r0, r6
 8002a26:	ea22 0200 	bic.w	r2, r2, r0
 8002a2a:	40b1      	lsls	r1, r6
 8002a2c:	430a      	orrs	r2, r1
 8002a2e:	68b8      	ldr	r0, [r7, #8]
 8002a30:	64da      	str	r2, [r3, #76]	@ 0x4c
 8002a32:	e757      	b.n	80028e4 <HAL_DAC_ConfigChannel+0x34>
 8002a34:	f04f 0c00 	mov.w	ip, #0
 8002a38:	e76e      	b.n	8002918 <HAL_DAC_ConfigChannel+0x68>
 8002a3a:	2001      	movs	r0, #1
 8002a3c:	4770      	bx	lr
 8002a3e:	2001      	movs	r0, #1
 8002a40:	e8bd 81f0 	ldmia.w	sp!, {r4, r5, r6, r7, r8, pc}
 8002a44:	f04f 0c01 	mov.w	ip, #1
 8002a48:	e766      	b.n	8002918 <HAL_DAC_ConfigChannel+0x68>
 8002a4a:	f000 fddd 	bl	8003608 <HAL_RCC_GetHCLKFreq>
 8002a4e:	4a0c      	ldr	r2, [pc, #48]	@ (8002a80 <HAL_DAC_ConfigChannel+0x1d0>)
 8002a50:	682b      	ldr	r3, [r5, #0]
 8002a52:	4290      	cmp	r0, r2
 8002a54:	d904      	bls.n	8002a60 <HAL_DAC_ConfigChannel+0x1b0>
 8002a56:	f448 4800 	orr.w	r8, r8, #32768	@ 0x8000
 8002a5a:	e77d      	b.n	8002958 <HAL_DAC_ConfigChannel+0xa8>
 8002a5c:	2002      	movs	r0, #2
 8002a5e:	e7ac      	b.n	80029ba <HAL_DAC_ConfigChannel+0x10a>
 8002a60:	4a08      	ldr	r2, [pc, #32]	@ (8002a84 <HAL_DAC_ConfigChannel+0x1d4>)
 8002a62:	4290      	cmp	r0, r2
 8002a64:	f67f af78 	bls.w	8002958 <HAL_DAC_ConfigChannel+0xa8>
 8002a68:	f448 4880 	orr.w	r8, r8, #16384	@ 0x4000
 8002a6c:	e774      	b.n	8002958 <HAL_DAC_ConfigChannel+0xa8>
 8002a6e:	692b      	ldr	r3, [r5, #16]
 8002a70:	2203      	movs	r2, #3
 8002a72:	f043 0308 	orr.w	r3, r3, #8
 8002a76:	612b      	str	r3, [r5, #16]
 8002a78:	2003      	movs	r0, #3
 8002a7a:	712a      	strb	r2, [r5, #4]
 8002a7c:	e79d      	b.n	80029ba <HAL_DAC_ConfigChannel+0x10a>
 8002a7e:	bf00      	nop
 8002a80:	09896800 	.word	0x09896800
 8002a84:	04c4b400 	.word	0x04c4b400

08002a88 <HAL_GPIO_Init>:
 8002a88:	680b      	ldr	r3, [r1, #0]
 8002a8a:	2b00      	cmp	r3, #0
 8002a8c:	f000 8194 	beq.w	8002db8 <HAL_GPIO_Init+0x330>
 8002a90:	e92d 4ff0 	stmdb	sp!, {r4, r5, r6, r7, r8, r9, sl, fp, lr}
 8002a94:	f1b0 4f90 	cmp.w	r0, #1207959552	@ 0x48000000
 8002a98:	b085      	sub	sp, #20
 8002a9a:	f04f 0200 	mov.w	r2, #0
 8002a9e:	f000 80d6 	beq.w	8002c4e <HAL_GPIO_Init+0x1c6>
 8002aa2:	f8df 8330 	ldr.w	r8, [pc, #816]	@ 8002dd4 <HAL_GPIO_Init+0x34c>
 8002aa6:	9100      	str	r1, [sp, #0]
 8002aa8:	f04f 0b01 	mov.w	fp, #1
 8002aac:	fa0b f502 	lsl.w	r5, fp, r2
 8002ab0:	ea15 0a03 	ands.w	sl, r5, r3
 8002ab4:	f000 8082 	beq.w	8002bbc <HAL_GPIO_Init+0x134>
 8002ab8:	9e00      	ldr	r6, [sp, #0]
 8002aba:	6877      	ldr	r7, [r6, #4]
 8002abc:	f007 0e03 	and.w	lr, r7, #3
 8002ac0:	2103      	movs	r1, #3
 8002ac2:	0054      	lsls	r4, r2, #1
 8002ac4:	f10e 39ff 	add.w	r9, lr, #4294967295
 8002ac8:	fa01 fc04 	lsl.w	ip, r1, r4
 8002acc:	f1b9 0f01 	cmp.w	r9, #1
 8002ad0:	4631      	mov	r1, r6
 8002ad2:	ea6f 0c0c 	mvn.w	ip, ip
 8002ad6:	68b6      	ldr	r6, [r6, #8]
 8002ad8:	d978      	bls.n	8002bcc <HAL_GPIO_Init+0x144>
 8002ada:	f1be 0f03 	cmp.w	lr, #3
 8002ade:	d101      	bne.n	8002ae4 <HAL_GPIO_Init+0x5c>
 8002ae0:	2e01      	cmp	r6, #1
 8002ae2:	d005      	beq.n	8002af0 <HAL_GPIO_Init+0x68>
 8002ae4:	68c5      	ldr	r5, [r0, #12]
 8002ae6:	40a6      	lsls	r6, r4
 8002ae8:	ea05 050c 	and.w	r5, r5, ip
 8002aec:	432e      	orrs	r6, r5
 8002aee:	60c6      	str	r6, [r0, #12]
 8002af0:	6805      	ldr	r5, [r0, #0]
 8002af2:	fa0e f404 	lsl.w	r4, lr, r4
 8002af6:	ea05 050c 	and.w	r5, r5, ip
 8002afa:	432c      	orrs	r4, r5
 8002afc:	f417 3f40 	tst.w	r7, #196608	@ 0x30000
 8002b00:	6004      	str	r4, [r0, #0]
 8002b02:	d05b      	beq.n	8002bbc <HAL_GPIO_Init+0x134>
 8002b04:	4db0      	ldr	r5, [pc, #704]	@ (8002dc8 <HAL_GPIO_Init+0x340>)
 8002b06:	6e2c      	ldr	r4, [r5, #96]	@ 0x60
 8002b08:	f044 0401 	orr.w	r4, r4, #1
 8002b0c:	662c      	str	r4, [r5, #96]	@ 0x60
 8002b0e:	6e2c      	ldr	r4, [r5, #96]	@ 0x60
 8002b10:	f004 0401 	and.w	r4, r4, #1
 8002b14:	9403      	str	r4, [sp, #12]
 8002b16:	9c03      	ldr	r4, [sp, #12]
 8002b18:	f022 0403 	bic.w	r4, r2, #3
 8002b1c:	f104 4480 	add.w	r4, r4, #1073741824	@ 0x40000000
 8002b20:	f002 0603 	and.w	r6, r2, #3
 8002b24:	210f      	movs	r1, #15
 8002b26:	f504 3480 	add.w	r4, r4, #65536	@ 0x10000
 8002b2a:	00b6      	lsls	r6, r6, #2
 8002b2c:	fa01 fc06 	lsl.w	ip, r1, r6
 8002b30:	49a6      	ldr	r1, [pc, #664]	@ (8002dcc <HAL_GPIO_Init+0x344>)
 8002b32:	68a5      	ldr	r5, [r4, #8]
 8002b34:	4288      	cmp	r0, r1
 8002b36:	ea25 050c 	bic.w	r5, r5, ip
 8002b3a:	f000 8082 	beq.w	8002c42 <HAL_GPIO_Init+0x1ba>
 8002b3e:	49a4      	ldr	r1, [pc, #656]	@ (8002dd0 <HAL_GPIO_Init+0x348>)
 8002b40:	4288      	cmp	r0, r1
 8002b42:	d078      	beq.n	8002c36 <HAL_GPIO_Init+0x1ae>
 8002b44:	f8df c290 	ldr.w	ip, [pc, #656]	@ 8002dd8 <HAL_GPIO_Init+0x350>
 8002b48:	4560      	cmp	r0, ip
 8002b4a:	f000 812f 	beq.w	8002dac <HAL_GPIO_Init+0x324>
 8002b4e:	f8df c28c 	ldr.w	ip, [pc, #652]	@ 8002ddc <HAL_GPIO_Init+0x354>
 8002b52:	4560      	cmp	r0, ip
 8002b54:	f000 8131 	beq.w	8002dba <HAL_GPIO_Init+0x332>
 8002b58:	f8df c284 	ldr.w	ip, [pc, #644]	@ 8002de0 <HAL_GPIO_Init+0x358>
 8002b5c:	4560      	cmp	r0, ip
 8002b5e:	bf0c      	ite	eq
 8002b60:	f04f 0c05 	moveq.w	ip, #5
 8002b64:	f04f 0c06 	movne.w	ip, #6
 8002b68:	fa0c f606 	lsl.w	r6, ip, r6
 8002b6c:	4335      	orrs	r5, r6
 8002b6e:	60a5      	str	r5, [r4, #8]
 8002b70:	f8d8 4008 	ldr.w	r4, [r8, #8]
 8002b74:	ea6f 050a 	mvn.w	r5, sl
 8002b78:	02fe      	lsls	r6, r7, #11
 8002b7a:	bf54      	ite	pl
 8002b7c:	402c      	andpl	r4, r5
 8002b7e:	ea4a 0404 	orrmi.w	r4, sl, r4
 8002b82:	f8c8 4008 	str.w	r4, [r8, #8]
 8002b86:	f8d8 400c 	ldr.w	r4, [r8, #12]
 8002b8a:	02b9      	lsls	r1, r7, #10
 8002b8c:	bf54      	ite	pl
 8002b8e:	402c      	andpl	r4, r5
 8002b90:	ea4a 0404 	orrmi.w	r4, sl, r4
 8002b94:	f8c8 400c 	str.w	r4, [r8, #12]
 8002b98:	f8d8 4004 	ldr.w	r4, [r8, #4]
 8002b9c:	03be      	lsls	r6, r7, #14
 8002b9e:	bf54      	ite	pl
 8002ba0:	402c      	andpl	r4, r5
 8002ba2:	ea4a 0404 	orrmi.w	r4, sl, r4
 8002ba6:	f8c8 4004 	str.w	r4, [r8, #4]
 8002baa:	f8d8 4000 	ldr.w	r4, [r8]
 8002bae:	03f9      	lsls	r1, r7, #15
 8002bb0:	bf54      	ite	pl
 8002bb2:	402c      	andpl	r4, r5
 8002bb4:	ea4a 0404 	orrmi.w	r4, sl, r4
 8002bb8:	f8c8 4000 	str.w	r4, [r8]
 8002bbc:	3201      	adds	r2, #1
 8002bbe:	fa33 f402 	lsrs.w	r4, r3, r2
 8002bc2:	f47f af73 	bne.w	8002aac <HAL_GPIO_Init+0x24>
 8002bc6:	b005      	add	sp, #20
 8002bc8:	e8bd 8ff0 	ldmia.w	sp!, {r4, r5, r6, r7, r8, r9, sl, fp, pc}
 8002bcc:	f8d0 9008 	ldr.w	r9, [r0, #8]
 8002bd0:	68c9      	ldr	r1, [r1, #12]
 8002bd2:	ea09 090c 	and.w	r9, r9, ip
 8002bd6:	40a1      	lsls	r1, r4
 8002bd8:	ea41 0909 	orr.w	r9, r1, r9
 8002bdc:	f8c0 9008 	str.w	r9, [r0, #8]
 8002be0:	f8d0 9004 	ldr.w	r9, [r0, #4]
 8002be4:	ea29 0905 	bic.w	r9, r9, r5
 8002be8:	f3c7 1500 	ubfx	r5, r7, #4, #1
 8002bec:	4095      	lsls	r5, r2
 8002bee:	ea45 0509 	orr.w	r5, r5, r9
 8002bf2:	6045      	str	r5, [r0, #4]
 8002bf4:	68c5      	ldr	r5, [r0, #12]
 8002bf6:	40a6      	lsls	r6, r4
 8002bf8:	ea05 050c 	and.w	r5, r5, ip
 8002bfc:	432e      	orrs	r6, r5
 8002bfe:	f1be 0f02 	cmp.w	lr, #2
 8002c02:	60c6      	str	r6, [r0, #12]
 8002c04:	f47f af74 	bne.w	8002af0 <HAL_GPIO_Init+0x68>
 8002c08:	ea4f 09d2 	mov.w	r9, r2, lsr #3
 8002c0c:	eb00 0989 	add.w	r9, r0, r9, lsl #2
 8002c10:	f002 0607 	and.w	r6, r2, #7
 8002c14:	f8d9 1020 	ldr.w	r1, [r9, #32]
 8002c18:	9101      	str	r1, [sp, #4]
 8002c1a:	9900      	ldr	r1, [sp, #0]
 8002c1c:	690d      	ldr	r5, [r1, #16]
 8002c1e:	00b6      	lsls	r6, r6, #2
 8002c20:	210f      	movs	r1, #15
 8002c22:	40b5      	lsls	r5, r6
 8002c24:	fa01 f606 	lsl.w	r6, r1, r6
 8002c28:	9901      	ldr	r1, [sp, #4]
 8002c2a:	ea21 0606 	bic.w	r6, r1, r6
 8002c2e:	4335      	orrs	r5, r6
 8002c30:	f8c9 5020 	str.w	r5, [r9, #32]
 8002c34:	e75c      	b.n	8002af0 <HAL_GPIO_Init+0x68>
 8002c36:	f04f 0c02 	mov.w	ip, #2
 8002c3a:	fa0c f606 	lsl.w	r6, ip, r6
 8002c3e:	4335      	orrs	r5, r6
 8002c40:	e795      	b.n	8002b6e <HAL_GPIO_Init+0xe6>
 8002c42:	f04f 0c01 	mov.w	ip, #1
 8002c46:	fa0c f606 	lsl.w	r6, ip, r6
 8002c4a:	4335      	orrs	r5, r6
 8002c4c:	e78f      	b.n	8002b6e <HAL_GPIO_Init+0xe6>
 8002c4e:	f8df 8184 	ldr.w	r8, [pc, #388]	@ 8002dd4 <HAL_GPIO_Init+0x34c>
 8002c52:	e051      	b.n	8002cf8 <HAL_GPIO_Init+0x270>
 8002c54:	2c03      	cmp	r4, #3
 8002c56:	d101      	bne.n	8002c5c <HAL_GPIO_Init+0x1d4>
 8002c58:	2e01      	cmp	r6, #1
 8002c5a:	d006      	beq.n	8002c6a <HAL_GPIO_Init+0x1e2>
 8002c5c:	68c5      	ldr	r5, [r0, #12]
 8002c5e:	fa06 f60e 	lsl.w	r6, r6, lr
 8002c62:	ea0c 0505 	and.w	r5, ip, r5
 8002c66:	432e      	orrs	r6, r5
 8002c68:	60c6      	str	r6, [r0, #12]
 8002c6a:	6805      	ldr	r5, [r0, #0]
 8002c6c:	fa04 f40e 	lsl.w	r4, r4, lr
 8002c70:	ea05 050c 	and.w	r5, r5, ip
 8002c74:	432c      	orrs	r4, r5
 8002c76:	f417 3f40 	tst.w	r7, #196608	@ 0x30000
 8002c7a:	6004      	str	r4, [r0, #0]
 8002c7c:	d037      	beq.n	8002cee <HAL_GPIO_Init+0x266>
 8002c7e:	4d52      	ldr	r5, [pc, #328]	@ (8002dc8 <HAL_GPIO_Init+0x340>)
 8002c80:	6e2c      	ldr	r4, [r5, #96]	@ 0x60
 8002c82:	f044 0401 	orr.w	r4, r4, #1
 8002c86:	662c      	str	r4, [r5, #96]	@ 0x60
 8002c88:	6e2c      	ldr	r4, [r5, #96]	@ 0x60
 8002c8a:	f004 0401 	and.w	r4, r4, #1
 8002c8e:	9403      	str	r4, [sp, #12]
 8002c90:	9c03      	ldr	r4, [sp, #12]
 8002c92:	f022 0403 	bic.w	r4, r2, #3
 8002c96:	f104 4480 	add.w	r4, r4, #1073741824	@ 0x40000000
 8002c9a:	f504 3480 	add.w	r4, r4, #65536	@ 0x10000
 8002c9e:	f002 0503 	and.w	r5, r2, #3
 8002ca2:	260f      	movs	r6, #15
 8002ca4:	00ad      	lsls	r5, r5, #2
 8002ca6:	fa06 f505 	lsl.w	r5, r6, r5
 8002caa:	68a6      	ldr	r6, [r4, #8]
 8002cac:	ea26 0505 	bic.w	r5, r6, r5
 8002cb0:	60a5      	str	r5, [r4, #8]
 8002cb2:	02fe      	lsls	r6, r7, #11
 8002cb4:	f8d8 4008 	ldr.w	r4, [r8, #8]
 8002cb8:	ea6f 0509 	mvn.w	r5, r9
 8002cbc:	d473      	bmi.n	8002da6 <HAL_GPIO_Init+0x31e>
 8002cbe:	402c      	ands	r4, r5
 8002cc0:	f8c8 4008 	str.w	r4, [r8, #8]
 8002cc4:	02be      	lsls	r6, r7, #10
 8002cc6:	f8d8 400c 	ldr.w	r4, [r8, #12]
 8002cca:	d469      	bmi.n	8002da0 <HAL_GPIO_Init+0x318>
 8002ccc:	402c      	ands	r4, r5
 8002cce:	f8c8 400c 	str.w	r4, [r8, #12]
 8002cd2:	03be      	lsls	r6, r7, #14
 8002cd4:	f8d8 4004 	ldr.w	r4, [r8, #4]
 8002cd8:	d45f      	bmi.n	8002d9a <HAL_GPIO_Init+0x312>
 8002cda:	402c      	ands	r4, r5
 8002cdc:	f8c8 4004 	str.w	r4, [r8, #4]
 8002ce0:	03ff      	lsls	r7, r7, #15
 8002ce2:	f8d8 4000 	ldr.w	r4, [r8]
 8002ce6:	d455      	bmi.n	8002d94 <HAL_GPIO_Init+0x30c>
 8002ce8:	402c      	ands	r4, r5
 8002cea:	f8c8 4000 	str.w	r4, [r8]
 8002cee:	3201      	adds	r2, #1
 8002cf0:	fa33 f402 	lsrs.w	r4, r3, r2
 8002cf4:	f43f af67 	beq.w	8002bc6 <HAL_GPIO_Init+0x13e>
 8002cf8:	2401      	movs	r4, #1
 8002cfa:	fa04 f502 	lsl.w	r5, r4, r2
 8002cfe:	ea13 0905 	ands.w	r9, r3, r5
 8002d02:	d0f4      	beq.n	8002cee <HAL_GPIO_Init+0x266>
 8002d04:	684f      	ldr	r7, [r1, #4]
 8002d06:	fa02 fe04 	lsl.w	lr, r2, r4
 8002d0a:	f007 0403 	and.w	r4, r7, #3
 8002d0e:	2603      	movs	r6, #3
 8002d10:	f104 3aff 	add.w	sl, r4, #4294967295
 8002d14:	fa06 fc0e 	lsl.w	ip, r6, lr
 8002d18:	f1ba 0f01 	cmp.w	sl, #1
 8002d1c:	688e      	ldr	r6, [r1, #8]
 8002d1e:	ea6f 0c0c 	mvn.w	ip, ip
 8002d22:	d897      	bhi.n	8002c54 <HAL_GPIO_Init+0x1cc>
 8002d24:	fa06 f60e 	lsl.w	r6, r6, lr
 8002d28:	f8d0 b008 	ldr.w	fp, [r0, #8]
 8002d2c:	9600      	str	r6, [sp, #0]
 8002d2e:	68ce      	ldr	r6, [r1, #12]
 8002d30:	ea0c 0b0b 	and.w	fp, ip, fp
 8002d34:	fa06 fa0e 	lsl.w	sl, r6, lr
 8002d38:	ea4a 0a0b 	orr.w	sl, sl, fp
 8002d3c:	f8c0 a008 	str.w	sl, [r0, #8]
 8002d40:	f8d0 a004 	ldr.w	sl, [r0, #4]
 8002d44:	9e00      	ldr	r6, [sp, #0]
 8002d46:	ea2a 0a05 	bic.w	sl, sl, r5
 8002d4a:	f3c7 1500 	ubfx	r5, r7, #4, #1
 8002d4e:	4095      	lsls	r5, r2
 8002d50:	ea45 050a 	orr.w	r5, r5, sl
 8002d54:	6045      	str	r5, [r0, #4]
 8002d56:	68c5      	ldr	r5, [r0, #12]
 8002d58:	ea0c 0505 	and.w	r5, ip, r5
 8002d5c:	432e      	orrs	r6, r5
 8002d5e:	2c02      	cmp	r4, #2
 8002d60:	60c6      	str	r6, [r0, #12]
 8002d62:	d182      	bne.n	8002c6a <HAL_GPIO_Init+0x1e2>
 8002d64:	08d6      	lsrs	r6, r2, #3
 8002d66:	690d      	ldr	r5, [r1, #16]
 8002d68:	00b6      	lsls	r6, r6, #2
 8002d6a:	f002 0a07 	and.w	sl, r2, #7
 8002d6e:	f106 4690 	add.w	r6, r6, #1207959552	@ 0x48000000
 8002d72:	ea4f 0a8a 	mov.w	sl, sl, lsl #2
 8002d76:	fa05 f50a 	lsl.w	r5, r5, sl
 8002d7a:	f8d6 b020 	ldr.w	fp, [r6, #32]
 8002d7e:	9500      	str	r5, [sp, #0]
 8002d80:	250f      	movs	r5, #15
 8002d82:	fa05 fa0a 	lsl.w	sl, r5, sl
 8002d86:	9d00      	ldr	r5, [sp, #0]
 8002d88:	ea2b 0b0a 	bic.w	fp, fp, sl
 8002d8c:	ea45 050b 	orr.w	r5, r5, fp
 8002d90:	6235      	str	r5, [r6, #32]
 8002d92:	e76a      	b.n	8002c6a <HAL_GPIO_Init+0x1e2>
 8002d94:	ea44 0409 	orr.w	r4, r4, r9
 8002d98:	e7a7      	b.n	8002cea <HAL_GPIO_Init+0x262>
 8002d9a:	ea44 0409 	orr.w	r4, r4, r9
 8002d9e:	e79d      	b.n	8002cdc <HAL_GPIO_Init+0x254>
 8002da0:	ea49 0404 	orr.w	r4, r9, r4
 8002da4:	e793      	b.n	8002cce <HAL_GPIO_Init+0x246>
 8002da6:	ea49 0404 	orr.w	r4, r9, r4
 8002daa:	e789      	b.n	8002cc0 <HAL_GPIO_Init+0x238>
 8002dac:	f04f 0c03 	mov.w	ip, #3
 8002db0:	fa0c f606 	lsl.w	r6, ip, r6
 8002db4:	4335      	orrs	r5, r6
 8002db6:	e6da      	b.n	8002b6e <HAL_GPIO_Init+0xe6>
 8002db8:	4770      	bx	lr
 8002dba:	f04f 0c04 	mov.w	ip, #4
 8002dbe:	fa0c f606 	lsl.w	r6, ip, r6
 8002dc2:	4335      	orrs	r5, r6
 8002dc4:	e6d3      	b.n	8002b6e <HAL_GPIO_Init+0xe6>
 8002dc6:	bf00      	nop
 8002dc8:	40021000 	.word	0x40021000
 8002dcc:	48000400 	.word	0x48000400
 8002dd0:	48000800 	.word	0x48000800
 8002dd4:	40010400 	.word	0x40010400
 8002dd8:	48000c00 	.word	0x48000c00
 8002ddc:	48001000 	.word	0x48001000
 8002de0:	48001400 	.word	0x48001400

08002de4 <HAL_GPIO_ReadPin>:
 8002de4:	6900      	ldr	r0, [r0, #16]
 8002de6:	4008      	ands	r0, r1
 8002de8:	3800      	subs	r0, #0
 8002dea:	bf18      	it	ne
 8002dec:	2001      	movne	r0, #1
 8002dee:	4770      	bx	lr

08002df0 <HAL_GPIO_WritePin>:
 8002df0:	b10a      	cbz	r2, 8002df6 <HAL_GPIO_WritePin+0x6>
 8002df2:	6181      	str	r1, [r0, #24]
 8002df4:	4770      	bx	lr
 8002df6:	6281      	str	r1, [r0, #40]	@ 0x28
 8002df8:	4770      	bx	lr
 8002dfa:	bf00      	nop

08002dfc <HAL_GPIO_EXTI_Callback>:
 8002dfc:	4770      	bx	lr
 8002dfe:	bf00      	nop

08002e00 <HAL_GPIO_EXTI_IRQHandler>:
 8002e00:	4a04      	ldr	r2, [pc, #16]	@ (8002e14 <HAL_GPIO_EXTI_IRQHandler+0x14>)
 8002e02:	6951      	ldr	r1, [r2, #20]
 8002e04:	4201      	tst	r1, r0
 8002e06:	d100      	bne.n	8002e0a <HAL_GPIO_EXTI_IRQHandler+0xa>
 8002e08:	4770      	bx	lr
 8002e0a:	b508      	push	{r3, lr}
 8002e0c:	6150      	str	r0, [r2, #20]
 8002e0e:	f7ff fff5 	bl	8002dfc <HAL_GPIO_EXTI_Callback>
 8002e12:	bd08      	pop	{r3, pc}
 8002e14:	40010400 	.word	0x40010400

08002e18 <HAL_PWREx_ControlVoltageScaling>:
 8002e18:	4a35      	ldr	r2, [pc, #212]	@ (8002ef0 <HAL_PWREx_ControlVoltageScaling+0xd8>)
 8002e1a:	6813      	ldr	r3, [r2, #0]
 8002e1c:	b960      	cbnz	r0, 8002e38 <HAL_PWREx_ControlVoltageScaling+0x20>
 8002e1e:	f403 63c0 	and.w	r3, r3, #1536	@ 0x600
 8002e22:	f5b3 6f80 	cmp.w	r3, #1024	@ 0x400
 8002e26:	f8d2 3080 	ldr.w	r3, [r2, #128]	@ 0x80
 8002e2a:	d01c      	beq.n	8002e66 <HAL_PWREx_ControlVoltageScaling+0x4e>
 8002e2c:	f423 7380 	bic.w	r3, r3, #256	@ 0x100
 8002e30:	f8c2 3080 	str.w	r3, [r2, #128]	@ 0x80
 8002e34:	2000      	movs	r0, #0
 8002e36:	4770      	bx	lr
 8002e38:	f5b0 7f00 	cmp.w	r0, #512	@ 0x200
 8002e3c:	d006      	beq.n	8002e4c <HAL_PWREx_ControlVoltageScaling+0x34>
 8002e3e:	f423 63c0 	bic.w	r3, r3, #1536	@ 0x600
 8002e42:	f443 6380 	orr.w	r3, r3, #1024	@ 0x400
 8002e46:	6013      	str	r3, [r2, #0]
 8002e48:	2000      	movs	r0, #0
 8002e4a:	4770      	bx	lr
 8002e4c:	f403 63c0 	and.w	r3, r3, #1536	@ 0x600
 8002e50:	f5b3 6f80 	cmp.w	r3, #1024	@ 0x400
 8002e54:	f8d2 3080 	ldr.w	r3, [r2, #128]	@ 0x80
 8002e58:	d02a      	beq.n	8002eb0 <HAL_PWREx_ControlVoltageScaling+0x98>
 8002e5a:	f443 7380 	orr.w	r3, r3, #256	@ 0x100
 8002e5e:	f8c2 3080 	str.w	r3, [r2, #128]	@ 0x80
 8002e62:	2000      	movs	r0, #0
 8002e64:	4770      	bx	lr
 8002e66:	f423 7380 	bic.w	r3, r3, #256	@ 0x100
 8002e6a:	f8c2 3080 	str.w	r3, [r2, #128]	@ 0x80
 8002e6e:	6813      	ldr	r3, [r2, #0]
 8002e70:	4820      	ldr	r0, [pc, #128]	@ (8002ef4 <HAL_PWREx_ControlVoltageScaling+0xdc>)
 8002e72:	4921      	ldr	r1, [pc, #132]	@ (8002ef8 <HAL_PWREx_ControlVoltageScaling+0xe0>)
 8002e74:	f423 63c0 	bic.w	r3, r3, #1536	@ 0x600
 8002e78:	f443 7300 	orr.w	r3, r3, #512	@ 0x200
 8002e7c:	6013      	str	r3, [r2, #0]
 8002e7e:	6803      	ldr	r3, [r0, #0]
 8002e80:	2032      	movs	r0, #50	@ 0x32
 8002e82:	fb00 f303 	mul.w	r3, r0, r3
 8002e86:	6950      	ldr	r0, [r2, #20]
 8002e88:	fba1 1303 	umull	r1, r3, r1, r3
 8002e8c:	0c9b      	lsrs	r3, r3, #18
 8002e8e:	0540      	lsls	r0, r0, #21
 8002e90:	f103 0301 	add.w	r3, r3, #1
 8002e94:	d506      	bpl.n	8002ea4 <HAL_PWREx_ControlVoltageScaling+0x8c>
 8002e96:	6951      	ldr	r1, [r2, #20]
 8002e98:	0549      	lsls	r1, r1, #21
 8002e9a:	f103 33ff 	add.w	r3, r3, #4294967295
 8002e9e:	d501      	bpl.n	8002ea4 <HAL_PWREx_ControlVoltageScaling+0x8c>
 8002ea0:	2b00      	cmp	r3, #0
 8002ea2:	d1f8      	bne.n	8002e96 <HAL_PWREx_ControlVoltageScaling+0x7e>
 8002ea4:	4b12      	ldr	r3, [pc, #72]	@ (8002ef0 <HAL_PWREx_ControlVoltageScaling+0xd8>)
 8002ea6:	695b      	ldr	r3, [r3, #20]
 8002ea8:	055b      	lsls	r3, r3, #21
 8002eaa:	d5cd      	bpl.n	8002e48 <HAL_PWREx_ControlVoltageScaling+0x30>
 8002eac:	2003      	movs	r0, #3
 8002eae:	4770      	bx	lr
 8002eb0:	f443 7380 	orr.w	r3, r3, #256	@ 0x100
 8002eb4:	f8c2 3080 	str.w	r3, [r2, #128]	@ 0x80
 8002eb8:	6813      	ldr	r3, [r2, #0]
 8002eba:	480e      	ldr	r0, [pc, #56]	@ (8002ef4 <HAL_PWREx_ControlVoltageScaling+0xdc>)
 8002ebc:	490e      	ldr	r1, [pc, #56]	@ (8002ef8 <HAL_PWREx_ControlVoltageScaling+0xe0>)
 8002ebe:	f423 63c0 	bic.w	r3, r3, #1536	@ 0x600
 8002ec2:	f443 7300 	orr.w	r3, r3, #512	@ 0x200
 8002ec6:	6013      	str	r3, [r2, #0]
 8002ec8:	6803      	ldr	r3, [r0, #0]
 8002eca:	2032      	movs	r0, #50	@ 0x32
 8002ecc:	fb00 f303 	mul.w	r3, r0, r3
 8002ed0:	6950      	ldr	r0, [r2, #20]
 8002ed2:	fba1 1303 	umull	r1, r3, r1, r3
 8002ed6:	0c9b      	lsrs	r3, r3, #18
 8002ed8:	0540      	lsls	r0, r0, #21
 8002eda:	f103 0301 	add.w	r3, r3, #1
 8002ede:	d5e1      	bpl.n	8002ea4 <HAL_PWREx_ControlVoltageScaling+0x8c>
 8002ee0:	6951      	ldr	r1, [r2, #20]
 8002ee2:	0549      	lsls	r1, r1, #21
 8002ee4:	f103 33ff 	add.w	r3, r3, #4294967295
 8002ee8:	d5dc      	bpl.n	8002ea4 <HAL_PWREx_ControlVoltageScaling+0x8c>
 8002eea:	2b00      	cmp	r3, #0
 8002eec:	d1f8      	bne.n	8002ee0 <HAL_PWREx_ControlVoltageScaling+0xc8>
 8002eee:	e7d9      	b.n	8002ea4 <HAL_PWREx_ControlVoltageScaling+0x8c>
 8002ef0:	40007000 	.word	0x40007000
 8002ef4:	20000000 	.word	0x20000000
 8002ef8:	431bde83 	.word	0x431bde83

08002efc <HAL_PWREx_DisableUCPDDeadBattery>:
 8002efc:	4a02      	ldr	r2, [pc, #8]	@ (8002f08 <HAL_PWREx_DisableUCPDDeadBattery+0xc>)
 8002efe:	6893      	ldr	r3, [r2, #8]
 8002f00:	f443 4380 	orr.w	r3, r3, #16384	@ 0x4000
 8002f04:	6093      	str	r3, [r2, #8]
 8002f06:	4770      	bx	lr
 8002f08:	40007000 	.word	0x40007000

08002f0c <HAL_RCC_OscConfig>:
 8002f0c:	2800      	cmp	r0, #0
 8002f0e:	f000 8239 	beq.w	8003384 <HAL_RCC_OscConfig+0x478>
 8002f12:	e92d 41f0 	stmdb	sp!, {r4, r5, r6, r7, r8, lr}
 8002f16:	6803      	ldr	r3, [r0, #0]
 8002f18:	07d9      	lsls	r1, r3, #31
 8002f1a:	b082      	sub	sp, #8
 8002f1c:	4604      	mov	r4, r0
 8002f1e:	d52d      	bpl.n	8002f7c <HAL_RCC_OscConfig+0x70>
 8002f20:	49a5      	ldr	r1, [pc, #660]	@ (80031b8 <HAL_RCC_OscConfig+0x2ac>)
 8002f22:	688a      	ldr	r2, [r1, #8]
 8002f24:	68c9      	ldr	r1, [r1, #12]
 8002f26:	f002 020c 	and.w	r2, r2, #12
 8002f2a:	2a0c      	cmp	r2, #12
 8002f2c:	f000 8102 	beq.w	8003134 <HAL_RCC_OscConfig+0x228>
 8002f30:	2a08      	cmp	r2, #8
 8002f32:	f000 8104 	beq.w	800313e <HAL_RCC_OscConfig+0x232>
 8002f36:	6863      	ldr	r3, [r4, #4]
 8002f38:	f5b3 3f80 	cmp.w	r3, #65536	@ 0x10000
 8002f3c:	f000 8129 	beq.w	8003192 <HAL_RCC_OscConfig+0x286>
 8002f40:	f5b3 2fa0 	cmp.w	r3, #327680	@ 0x50000
 8002f44:	f000 8192 	beq.w	800326c <HAL_RCC_OscConfig+0x360>
 8002f48:	4d9b      	ldr	r5, [pc, #620]	@ (80031b8 <HAL_RCC_OscConfig+0x2ac>)
 8002f4a:	682a      	ldr	r2, [r5, #0]
 8002f4c:	f422 3280 	bic.w	r2, r2, #65536	@ 0x10000
 8002f50:	602a      	str	r2, [r5, #0]
 8002f52:	682a      	ldr	r2, [r5, #0]
 8002f54:	f422 2280 	bic.w	r2, r2, #262144	@ 0x40000
 8002f58:	602a      	str	r2, [r5, #0]
 8002f5a:	2b00      	cmp	r3, #0
 8002f5c:	f040 811e 	bne.w	800319c <HAL_RCC_OscConfig+0x290>
 8002f60:	f7fe fcda 	bl	8001918 <HAL_GetTick>
 8002f64:	4606      	mov	r6, r0
 8002f66:	e005      	b.n	8002f74 <HAL_RCC_OscConfig+0x68>
 8002f68:	f7fe fcd6 	bl	8001918 <HAL_GetTick>
 8002f6c:	1b80      	subs	r0, r0, r6
 8002f6e:	2864      	cmp	r0, #100	@ 0x64
 8002f70:	f200 8139 	bhi.w	80031e6 <HAL_RCC_OscConfig+0x2da>
 8002f74:	682b      	ldr	r3, [r5, #0]
 8002f76:	0399      	lsls	r1, r3, #14
 8002f78:	d4f6      	bmi.n	8002f68 <HAL_RCC_OscConfig+0x5c>
 8002f7a:	6823      	ldr	r3, [r4, #0]
 8002f7c:	079a      	lsls	r2, r3, #30
 8002f7e:	d528      	bpl.n	8002fd2 <HAL_RCC_OscConfig+0xc6>
 8002f80:	4a8d      	ldr	r2, [pc, #564]	@ (80031b8 <HAL_RCC_OscConfig+0x2ac>)
 8002f82:	6893      	ldr	r3, [r2, #8]
 8002f84:	68d2      	ldr	r2, [r2, #12]
 8002f86:	f003 030c 	and.w	r3, r3, #12
 8002f8a:	2b0c      	cmp	r3, #12
 8002f8c:	f000 80e2 	beq.w	8003154 <HAL_RCC_OscConfig+0x248>
 8002f90:	2b04      	cmp	r3, #4
 8002f92:	f000 80e4 	beq.w	800315e <HAL_RCC_OscConfig+0x252>
 8002f96:	68e3      	ldr	r3, [r4, #12]
 8002f98:	4d87      	ldr	r5, [pc, #540]	@ (80031b8 <HAL_RCC_OscConfig+0x2ac>)
 8002f9a:	2b00      	cmp	r3, #0
 8002f9c:	f000 8114 	beq.w	80031c8 <HAL_RCC_OscConfig+0x2bc>
 8002fa0:	682b      	ldr	r3, [r5, #0]
 8002fa2:	f443 7380 	orr.w	r3, r3, #256	@ 0x100
 8002fa6:	602b      	str	r3, [r5, #0]
 8002fa8:	f7fe fcb6 	bl	8001918 <HAL_GetTick>
 8002fac:	4606      	mov	r6, r0
 8002fae:	e005      	b.n	8002fbc <HAL_RCC_OscConfig+0xb0>
 8002fb0:	f7fe fcb2 	bl	8001918 <HAL_GetTick>
 8002fb4:	1b80      	subs	r0, r0, r6
 8002fb6:	2802      	cmp	r0, #2
 8002fb8:	f200 8115 	bhi.w	80031e6 <HAL_RCC_OscConfig+0x2da>
 8002fbc:	682b      	ldr	r3, [r5, #0]
 8002fbe:	055f      	lsls	r7, r3, #21
 8002fc0:	d5f6      	bpl.n	8002fb0 <HAL_RCC_OscConfig+0xa4>
 8002fc2:	686b      	ldr	r3, [r5, #4]
 8002fc4:	6922      	ldr	r2, [r4, #16]
 8002fc6:	f023 43fe 	bic.w	r3, r3, #2130706432	@ 0x7f000000
 8002fca:	ea43 6302 	orr.w	r3, r3, r2, lsl #24
 8002fce:	606b      	str	r3, [r5, #4]
 8002fd0:	6823      	ldr	r3, [r4, #0]
 8002fd2:	071a      	lsls	r2, r3, #28
 8002fd4:	d519      	bpl.n	800300a <HAL_RCC_OscConfig+0xfe>
 8002fd6:	6963      	ldr	r3, [r4, #20]
 8002fd8:	4d77      	ldr	r5, [pc, #476]	@ (80031b8 <HAL_RCC_OscConfig+0x2ac>)
 8002fda:	2b00      	cmp	r3, #0
 8002fdc:	f000 8096 	beq.w	800310c <HAL_RCC_OscConfig+0x200>
 8002fe0:	f8d5 3094 	ldr.w	r3, [r5, #148]	@ 0x94
 8002fe4:	f043 0301 	orr.w	r3, r3, #1
 8002fe8:	f8c5 3094 	str.w	r3, [r5, #148]	@ 0x94
 8002fec:	f7fe fc94 	bl	8001918 <HAL_GetTick>
 8002ff0:	4606      	mov	r6, r0
 8002ff2:	e005      	b.n	8003000 <HAL_RCC_OscConfig+0xf4>
 8002ff4:	f7fe fc90 	bl	8001918 <HAL_GetTick>
 8002ff8:	1b80      	subs	r0, r0, r6
 8002ffa:	2802      	cmp	r0, #2
 8002ffc:	f200 80f3 	bhi.w	80031e6 <HAL_RCC_OscConfig+0x2da>
 8003000:	f8d5 3094 	ldr.w	r3, [r5, #148]	@ 0x94
 8003004:	079b      	lsls	r3, r3, #30
 8003006:	d5f5      	bpl.n	8002ff4 <HAL_RCC_OscConfig+0xe8>
 8003008:	6823      	ldr	r3, [r4, #0]
 800300a:	075d      	lsls	r5, r3, #29
 800300c:	d541      	bpl.n	8003092 <HAL_RCC_OscConfig+0x186>
 800300e:	4b6a      	ldr	r3, [pc, #424]	@ (80031b8 <HAL_RCC_OscConfig+0x2ac>)
 8003010:	6d9a      	ldr	r2, [r3, #88]	@ 0x58
 8003012:	00d0      	lsls	r0, r2, #3
 8003014:	f100 80eb 	bmi.w	80031ee <HAL_RCC_OscConfig+0x2e2>
 8003018:	6d9a      	ldr	r2, [r3, #88]	@ 0x58
 800301a:	f042 5280 	orr.w	r2, r2, #268435456	@ 0x10000000
 800301e:	659a      	str	r2, [r3, #88]	@ 0x58
 8003020:	6d9b      	ldr	r3, [r3, #88]	@ 0x58
 8003022:	f003 5380 	and.w	r3, r3, #268435456	@ 0x10000000
 8003026:	9301      	str	r3, [sp, #4]
 8003028:	9b01      	ldr	r3, [sp, #4]
 800302a:	2501      	movs	r5, #1
 800302c:	4e63      	ldr	r6, [pc, #396]	@ (80031bc <HAL_RCC_OscConfig+0x2b0>)
 800302e:	6833      	ldr	r3, [r6, #0]
 8003030:	05d9      	lsls	r1, r3, #23
 8003032:	f140 810a 	bpl.w	800324a <HAL_RCC_OscConfig+0x33e>
 8003036:	68a3      	ldr	r3, [r4, #8]
 8003038:	2b01      	cmp	r3, #1
 800303a:	f000 80da 	beq.w	80031f2 <HAL_RCC_OscConfig+0x2e6>
 800303e:	2b05      	cmp	r3, #5
 8003040:	f000 815e 	beq.w	8003300 <HAL_RCC_OscConfig+0x3f4>
 8003044:	4e5c      	ldr	r6, [pc, #368]	@ (80031b8 <HAL_RCC_OscConfig+0x2ac>)
 8003046:	f8d6 2090 	ldr.w	r2, [r6, #144]	@ 0x90
 800304a:	f022 0201 	bic.w	r2, r2, #1
 800304e:	f8c6 2090 	str.w	r2, [r6, #144]	@ 0x90
 8003052:	f8d6 2090 	ldr.w	r2, [r6, #144]	@ 0x90
 8003056:	f022 0204 	bic.w	r2, r2, #4
 800305a:	f8c6 2090 	str.w	r2, [r6, #144]	@ 0x90
 800305e:	2b00      	cmp	r3, #0
 8003060:	f040 80ce 	bne.w	8003200 <HAL_RCC_OscConfig+0x2f4>
 8003064:	f7fe fc58 	bl	8001918 <HAL_GetTick>
 8003068:	f241 3888 	movw	r8, #5000	@ 0x1388
 800306c:	4607      	mov	r7, r0
 800306e:	e005      	b.n	800307c <HAL_RCC_OscConfig+0x170>
 8003070:	f7fe fc52 	bl	8001918 <HAL_GetTick>
 8003074:	1bc0      	subs	r0, r0, r7
 8003076:	4540      	cmp	r0, r8
 8003078:	f200 80b5 	bhi.w	80031e6 <HAL_RCC_OscConfig+0x2da>
 800307c:	f8d6 3090 	ldr.w	r3, [r6, #144]	@ 0x90
 8003080:	0799      	lsls	r1, r3, #30
 8003082:	d4f5      	bmi.n	8003070 <HAL_RCC_OscConfig+0x164>
 8003084:	b125      	cbz	r5, 8003090 <HAL_RCC_OscConfig+0x184>
 8003086:	4a4c      	ldr	r2, [pc, #304]	@ (80031b8 <HAL_RCC_OscConfig+0x2ac>)
 8003088:	6d93      	ldr	r3, [r2, #88]	@ 0x58
 800308a:	f023 5380 	bic.w	r3, r3, #268435456	@ 0x10000000
 800308e:	6593      	str	r3, [r2, #88]	@ 0x58
 8003090:	6823      	ldr	r3, [r4, #0]
 8003092:	069a      	lsls	r2, r3, #26
 8003094:	d518      	bpl.n	80030c8 <HAL_RCC_OscConfig+0x1bc>
 8003096:	69a3      	ldr	r3, [r4, #24]
 8003098:	4d47      	ldr	r5, [pc, #284]	@ (80031b8 <HAL_RCC_OscConfig+0x2ac>)
 800309a:	2b00      	cmp	r3, #0
 800309c:	f000 80c1 	beq.w	8003222 <HAL_RCC_OscConfig+0x316>
 80030a0:	f8d5 3098 	ldr.w	r3, [r5, #152]	@ 0x98
 80030a4:	f043 0301 	orr.w	r3, r3, #1
 80030a8:	f8c5 3098 	str.w	r3, [r5, #152]	@ 0x98
 80030ac:	f7fe fc34 	bl	8001918 <HAL_GetTick>
 80030b0:	4606      	mov	r6, r0
 80030b2:	e005      	b.n	80030c0 <HAL_RCC_OscConfig+0x1b4>
 80030b4:	f7fe fc30 	bl	8001918 <HAL_GetTick>
 80030b8:	1b80      	subs	r0, r0, r6
 80030ba:	2802      	cmp	r0, #2
 80030bc:	f200 8093 	bhi.w	80031e6 <HAL_RCC_OscConfig+0x2da>
 80030c0:	f8d5 3098 	ldr.w	r3, [r5, #152]	@ 0x98
 80030c4:	079b      	lsls	r3, r3, #30
 80030c6:	d5f5      	bpl.n	80030b4 <HAL_RCC_OscConfig+0x1a8>
 80030c8:	69e3      	ldr	r3, [r4, #28]
 80030ca:	b1eb      	cbz	r3, 8003108 <HAL_RCC_OscConfig+0x1fc>
 80030cc:	4d3a      	ldr	r5, [pc, #232]	@ (80031b8 <HAL_RCC_OscConfig+0x2ac>)
 80030ce:	68aa      	ldr	r2, [r5, #8]
 80030d0:	f002 020c 	and.w	r2, r2, #12
 80030d4:	2a0c      	cmp	r2, #12
 80030d6:	f000 8121 	beq.w	800331c <HAL_RCC_OscConfig+0x410>
 80030da:	2b02      	cmp	r3, #2
 80030dc:	682b      	ldr	r3, [r5, #0]
 80030de:	f023 7380 	bic.w	r3, r3, #16777216	@ 0x1000000
 80030e2:	602b      	str	r3, [r5, #0]
 80030e4:	f000 80cf 	beq.w	8003286 <HAL_RCC_OscConfig+0x37a>
 80030e8:	f7fe fc16 	bl	8001918 <HAL_GetTick>
 80030ec:	4604      	mov	r4, r0
 80030ee:	e004      	b.n	80030fa <HAL_RCC_OscConfig+0x1ee>
 80030f0:	f7fe fc12 	bl	8001918 <HAL_GetTick>
 80030f4:	1b00      	subs	r0, r0, r4
 80030f6:	2802      	cmp	r0, #2
 80030f8:	d875      	bhi.n	80031e6 <HAL_RCC_OscConfig+0x2da>
 80030fa:	682b      	ldr	r3, [r5, #0]
 80030fc:	019b      	lsls	r3, r3, #6
 80030fe:	d4f7      	bmi.n	80030f0 <HAL_RCC_OscConfig+0x1e4>
 8003100:	68ea      	ldr	r2, [r5, #12]
 8003102:	4b2f      	ldr	r3, [pc, #188]	@ (80031c0 <HAL_RCC_OscConfig+0x2b4>)
 8003104:	4013      	ands	r3, r2
 8003106:	60eb      	str	r3, [r5, #12]
 8003108:	2000      	movs	r0, #0
 800310a:	e06d      	b.n	80031e8 <HAL_RCC_OscConfig+0x2dc>
 800310c:	f8d5 3094 	ldr.w	r3, [r5, #148]	@ 0x94
 8003110:	f023 0301 	bic.w	r3, r3, #1
 8003114:	f8c5 3094 	str.w	r3, [r5, #148]	@ 0x94
 8003118:	f7fe fbfe 	bl	8001918 <HAL_GetTick>
 800311c:	4606      	mov	r6, r0
 800311e:	e004      	b.n	800312a <HAL_RCC_OscConfig+0x21e>
 8003120:	f7fe fbfa 	bl	8001918 <HAL_GetTick>
 8003124:	1b80      	subs	r0, r0, r6
 8003126:	2802      	cmp	r0, #2
 8003128:	d85d      	bhi.n	80031e6 <HAL_RCC_OscConfig+0x2da>
 800312a:	f8d5 3094 	ldr.w	r3, [r5, #148]	@ 0x94
 800312e:	079f      	lsls	r7, r3, #30
 8003130:	d4f6      	bmi.n	8003120 <HAL_RCC_OscConfig+0x214>
 8003132:	e769      	b.n	8003008 <HAL_RCC_OscConfig+0xfc>
 8003134:	f001 0103 	and.w	r1, r1, #3
 8003138:	2903      	cmp	r1, #3
 800313a:	f47f aefc 	bne.w	8002f36 <HAL_RCC_OscConfig+0x2a>
 800313e:	4a1e      	ldr	r2, [pc, #120]	@ (80031b8 <HAL_RCC_OscConfig+0x2ac>)
 8003140:	6812      	ldr	r2, [r2, #0]
 8003142:	0392      	lsls	r2, r2, #14
 8003144:	f57f af1a 	bpl.w	8002f7c <HAL_RCC_OscConfig+0x70>
 8003148:	6862      	ldr	r2, [r4, #4]
 800314a:	2a00      	cmp	r2, #0
 800314c:	f47f af16 	bne.w	8002f7c <HAL_RCC_OscConfig+0x70>
 8003150:	2001      	movs	r0, #1
 8003152:	e049      	b.n	80031e8 <HAL_RCC_OscConfig+0x2dc>
 8003154:	f002 0203 	and.w	r2, r2, #3
 8003158:	2a02      	cmp	r2, #2
 800315a:	f47f af1c 	bne.w	8002f96 <HAL_RCC_OscConfig+0x8a>
 800315e:	4b16      	ldr	r3, [pc, #88]	@ (80031b8 <HAL_RCC_OscConfig+0x2ac>)
 8003160:	681b      	ldr	r3, [r3, #0]
 8003162:	055b      	lsls	r3, r3, #21
 8003164:	d502      	bpl.n	800316c <HAL_RCC_OscConfig+0x260>
 8003166:	68e3      	ldr	r3, [r4, #12]
 8003168:	2b00      	cmp	r3, #0
 800316a:	d0f1      	beq.n	8003150 <HAL_RCC_OscConfig+0x244>
 800316c:	4a12      	ldr	r2, [pc, #72]	@ (80031b8 <HAL_RCC_OscConfig+0x2ac>)
 800316e:	6920      	ldr	r0, [r4, #16]
 8003170:	6853      	ldr	r3, [r2, #4]
 8003172:	4914      	ldr	r1, [pc, #80]	@ (80031c4 <HAL_RCC_OscConfig+0x2b8>)
 8003174:	f023 43fe 	bic.w	r3, r3, #2130706432	@ 0x7f000000
 8003178:	ea43 6300 	orr.w	r3, r3, r0, lsl #24
 800317c:	6053      	str	r3, [r2, #4]
 800317e:	6808      	ldr	r0, [r1, #0]
 8003180:	f7fe fb88 	bl	8001894 <HAL_InitTick>
 8003184:	2800      	cmp	r0, #0
 8003186:	d1e3      	bne.n	8003150 <HAL_RCC_OscConfig+0x244>
 8003188:	6823      	ldr	r3, [r4, #0]
 800318a:	071a      	lsls	r2, r3, #28
 800318c:	f57f af3d 	bpl.w	800300a <HAL_RCC_OscConfig+0xfe>
 8003190:	e721      	b.n	8002fd6 <HAL_RCC_OscConfig+0xca>
 8003192:	4a09      	ldr	r2, [pc, #36]	@ (80031b8 <HAL_RCC_OscConfig+0x2ac>)
 8003194:	6813      	ldr	r3, [r2, #0]
 8003196:	f443 3380 	orr.w	r3, r3, #65536	@ 0x10000
 800319a:	6013      	str	r3, [r2, #0]
 800319c:	f7fe fbbc 	bl	8001918 <HAL_GetTick>
 80031a0:	4e05      	ldr	r6, [pc, #20]	@ (80031b8 <HAL_RCC_OscConfig+0x2ac>)
 80031a2:	4605      	mov	r5, r0
 80031a4:	e004      	b.n	80031b0 <HAL_RCC_OscConfig+0x2a4>
 80031a6:	f7fe fbb7 	bl	8001918 <HAL_GetTick>
 80031aa:	1b40      	subs	r0, r0, r5
 80031ac:	2864      	cmp	r0, #100	@ 0x64
 80031ae:	d81a      	bhi.n	80031e6 <HAL_RCC_OscConfig+0x2da>
 80031b0:	6833      	ldr	r3, [r6, #0]
 80031b2:	039f      	lsls	r7, r3, #14
 80031b4:	d5f7      	bpl.n	80031a6 <HAL_RCC_OscConfig+0x29a>
 80031b6:	e6e0      	b.n	8002f7a <HAL_RCC_OscConfig+0x6e>
 80031b8:	40021000 	.word	0x40021000
 80031bc:	40007000 	.word	0x40007000
 80031c0:	feeefffc 	.word	0xfeeefffc
 80031c4:	20000008 	.word	0x20000008
 80031c8:	682b      	ldr	r3, [r5, #0]
 80031ca:	f423 7380 	bic.w	r3, r3, #256	@ 0x100
 80031ce:	602b      	str	r3, [r5, #0]
 80031d0:	f7fe fba2 	bl	8001918 <HAL_GetTick>
 80031d4:	4606      	mov	r6, r0
 80031d6:	682b      	ldr	r3, [r5, #0]
 80031d8:	0559      	lsls	r1, r3, #21
 80031da:	d5d5      	bpl.n	8003188 <HAL_RCC_OscConfig+0x27c>
 80031dc:	f7fe fb9c 	bl	8001918 <HAL_GetTick>
 80031e0:	1b80      	subs	r0, r0, r6
 80031e2:	2802      	cmp	r0, #2
 80031e4:	d9f7      	bls.n	80031d6 <HAL_RCC_OscConfig+0x2ca>
 80031e6:	2003      	movs	r0, #3
 80031e8:	b002      	add	sp, #8
 80031ea:	e8bd 81f0 	ldmia.w	sp!, {r4, r5, r6, r7, r8, pc}
 80031ee:	2500      	movs	r5, #0
 80031f0:	e71c      	b.n	800302c <HAL_RCC_OscConfig+0x120>
 80031f2:	4a65      	ldr	r2, [pc, #404]	@ (8003388 <HAL_RCC_OscConfig+0x47c>)
 80031f4:	f8d2 3090 	ldr.w	r3, [r2, #144]	@ 0x90
 80031f8:	f043 0301 	orr.w	r3, r3, #1
 80031fc:	f8c2 3090 	str.w	r3, [r2, #144]	@ 0x90
 8003200:	f7fe fb8a 	bl	8001918 <HAL_GetTick>
 8003204:	4f60      	ldr	r7, [pc, #384]	@ (8003388 <HAL_RCC_OscConfig+0x47c>)
 8003206:	4606      	mov	r6, r0
 8003208:	f241 3888 	movw	r8, #5000	@ 0x1388
 800320c:	e004      	b.n	8003218 <HAL_RCC_OscConfig+0x30c>
 800320e:	f7fe fb83 	bl	8001918 <HAL_GetTick>
 8003212:	1b80      	subs	r0, r0, r6
 8003214:	4540      	cmp	r0, r8
 8003216:	d8e6      	bhi.n	80031e6 <HAL_RCC_OscConfig+0x2da>
 8003218:	f8d7 3090 	ldr.w	r3, [r7, #144]	@ 0x90
 800321c:	079b      	lsls	r3, r3, #30
 800321e:	d5f6      	bpl.n	800320e <HAL_RCC_OscConfig+0x302>
 8003220:	e730      	b.n	8003084 <HAL_RCC_OscConfig+0x178>
 8003222:	f8d5 3098 	ldr.w	r3, [r5, #152]	@ 0x98
 8003226:	f023 0301 	bic.w	r3, r3, #1
 800322a:	f8c5 3098 	str.w	r3, [r5, #152]	@ 0x98
 800322e:	f7fe fb73 	bl	8001918 <HAL_GetTick>
 8003232:	4606      	mov	r6, r0
 8003234:	e004      	b.n	8003240 <HAL_RCC_OscConfig+0x334>
 8003236:	f7fe fb6f 	bl	8001918 <HAL_GetTick>
 800323a:	1b80      	subs	r0, r0, r6
 800323c:	2802      	cmp	r0, #2
 800323e:	d8d2      	bhi.n	80031e6 <HAL_RCC_OscConfig+0x2da>
 8003240:	f8d5 3098 	ldr.w	r3, [r5, #152]	@ 0x98
 8003244:	079f      	lsls	r7, r3, #30
 8003246:	d4f6      	bmi.n	8003236 <HAL_RCC_OscConfig+0x32a>
 8003248:	e73e      	b.n	80030c8 <HAL_RCC_OscConfig+0x1bc>
 800324a:	6833      	ldr	r3, [r6, #0]
 800324c:	f443 7380 	orr.w	r3, r3, #256	@ 0x100
 8003250:	6033      	str	r3, [r6, #0]
 8003252:	f7fe fb61 	bl	8001918 <HAL_GetTick>
 8003256:	4607      	mov	r7, r0
 8003258:	6833      	ldr	r3, [r6, #0]
 800325a:	05da      	lsls	r2, r3, #23
 800325c:	f53f aeeb 	bmi.w	8003036 <HAL_RCC_OscConfig+0x12a>
 8003260:	f7fe fb5a 	bl	8001918 <HAL_GetTick>
 8003264:	1bc0      	subs	r0, r0, r7
 8003266:	2802      	cmp	r0, #2
 8003268:	d9f6      	bls.n	8003258 <HAL_RCC_OscConfig+0x34c>
 800326a:	e7bc      	b.n	80031e6 <HAL_RCC_OscConfig+0x2da>
 800326c:	f103 4380 	add.w	r3, r3, #1073741824	@ 0x40000000
 8003270:	f5a3 333c 	sub.w	r3, r3, #192512	@ 0x2f000
 8003274:	681a      	ldr	r2, [r3, #0]
 8003276:	f442 2280 	orr.w	r2, r2, #262144	@ 0x40000
 800327a:	601a      	str	r2, [r3, #0]
 800327c:	681a      	ldr	r2, [r3, #0]
 800327e:	f442 3280 	orr.w	r2, r2, #65536	@ 0x10000
 8003282:	601a      	str	r2, [r3, #0]
 8003284:	e78a      	b.n	800319c <HAL_RCC_OscConfig+0x290>
 8003286:	f7fe fb47 	bl	8001918 <HAL_GetTick>
 800328a:	4606      	mov	r6, r0
 800328c:	e004      	b.n	8003298 <HAL_RCC_OscConfig+0x38c>
 800328e:	f7fe fb43 	bl	8001918 <HAL_GetTick>
 8003292:	1b80      	subs	r0, r0, r6
 8003294:	2802      	cmp	r0, #2
 8003296:	d8a6      	bhi.n	80031e6 <HAL_RCC_OscConfig+0x2da>
 8003298:	682b      	ldr	r3, [r5, #0]
 800329a:	0199      	lsls	r1, r3, #6
 800329c:	d4f7      	bmi.n	800328e <HAL_RCC_OscConfig+0x382>
 800329e:	68e9      	ldr	r1, [r5, #12]
 80032a0:	4b3a      	ldr	r3, [pc, #232]	@ (800338c <HAL_RCC_OscConfig+0x480>)
 80032a2:	6a22      	ldr	r2, [r4, #32]
 80032a4:	6a60      	ldr	r0, [r4, #36]	@ 0x24
 80032a6:	400b      	ands	r3, r1
 80032a8:	4313      	orrs	r3, r2
 80032aa:	e9d4 120a 	ldrd	r1, r2, [r4, #40]	@ 0x28
 80032ae:	ea43 2301 	orr.w	r3, r3, r1, lsl #8
 80032b2:	ea43 63c2 	orr.w	r3, r3, r2, lsl #27
 80032b6:	e9d4 120c 	ldrd	r1, r2, [r4, #48]	@ 0x30
 80032ba:	3801      	subs	r0, #1
 80032bc:	0849      	lsrs	r1, r1, #1
 80032be:	ea43 1300 	orr.w	r3, r3, r0, lsl #4
 80032c2:	3901      	subs	r1, #1
 80032c4:	0852      	lsrs	r2, r2, #1
 80032c6:	ea43 5341 	orr.w	r3, r3, r1, lsl #21
 80032ca:	3a01      	subs	r2, #1
 80032cc:	ea43 6342 	orr.w	r3, r3, r2, lsl #25
 80032d0:	60eb      	str	r3, [r5, #12]
 80032d2:	682b      	ldr	r3, [r5, #0]
 80032d4:	f043 7380 	orr.w	r3, r3, #16777216	@ 0x1000000
 80032d8:	602b      	str	r3, [r5, #0]
 80032da:	68eb      	ldr	r3, [r5, #12]
 80032dc:	f043 7380 	orr.w	r3, r3, #16777216	@ 0x1000000
 80032e0:	60eb      	str	r3, [r5, #12]
 80032e2:	f7fe fb19 	bl	8001918 <HAL_GetTick>
 80032e6:	4d28      	ldr	r5, [pc, #160]	@ (8003388 <HAL_RCC_OscConfig+0x47c>)
 80032e8:	4604      	mov	r4, r0
 80032ea:	e005      	b.n	80032f8 <HAL_RCC_OscConfig+0x3ec>
 80032ec:	f7fe fb14 	bl	8001918 <HAL_GetTick>
 80032f0:	1b00      	subs	r0, r0, r4
 80032f2:	2802      	cmp	r0, #2
 80032f4:	f63f af77 	bhi.w	80031e6 <HAL_RCC_OscConfig+0x2da>
 80032f8:	682b      	ldr	r3, [r5, #0]
 80032fa:	019a      	lsls	r2, r3, #6
 80032fc:	d5f6      	bpl.n	80032ec <HAL_RCC_OscConfig+0x3e0>
 80032fe:	e703      	b.n	8003108 <HAL_RCC_OscConfig+0x1fc>
 8003300:	4b21      	ldr	r3, [pc, #132]	@ (8003388 <HAL_RCC_OscConfig+0x47c>)
 8003302:	f8d3 2090 	ldr.w	r2, [r3, #144]	@ 0x90
 8003306:	f042 0204 	orr.w	r2, r2, #4
 800330a:	f8c3 2090 	str.w	r2, [r3, #144]	@ 0x90
 800330e:	f8d3 2090 	ldr.w	r2, [r3, #144]	@ 0x90
 8003312:	f042 0201 	orr.w	r2, r2, #1
 8003316:	f8c3 2090 	str.w	r2, [r3, #144]	@ 0x90
 800331a:	e771      	b.n	8003200 <HAL_RCC_OscConfig+0x2f4>
 800331c:	2b01      	cmp	r3, #1
 800331e:	f43f af17 	beq.w	8003150 <HAL_RCC_OscConfig+0x244>
 8003322:	68eb      	ldr	r3, [r5, #12]
 8003324:	6a22      	ldr	r2, [r4, #32]
 8003326:	f003 0103 	and.w	r1, r3, #3
 800332a:	4291      	cmp	r1, r2
 800332c:	f47f af10 	bne.w	8003150 <HAL_RCC_OscConfig+0x244>
 8003330:	6a61      	ldr	r1, [r4, #36]	@ 0x24
 8003332:	f003 02f0 	and.w	r2, r3, #240	@ 0xf0
 8003336:	3901      	subs	r1, #1
 8003338:	ebb2 1f01 	cmp.w	r2, r1, lsl #4
 800333c:	f47f af08 	bne.w	8003150 <HAL_RCC_OscConfig+0x244>
 8003340:	6aa1      	ldr	r1, [r4, #40]	@ 0x28
 8003342:	f403 42fe 	and.w	r2, r3, #32512	@ 0x7f00
 8003346:	ebb2 2f01 	cmp.w	r2, r1, lsl #8
 800334a:	f47f af01 	bne.w	8003150 <HAL_RCC_OscConfig+0x244>
 800334e:	6ae1      	ldr	r1, [r4, #44]	@ 0x2c
 8003350:	f003 4278 	and.w	r2, r3, #4160749568	@ 0xf8000000
 8003354:	ebb2 6fc1 	cmp.w	r2, r1, lsl #27
 8003358:	f47f aefa 	bne.w	8003150 <HAL_RCC_OscConfig+0x244>
 800335c:	6b22      	ldr	r2, [r4, #48]	@ 0x30
 800335e:	0852      	lsrs	r2, r2, #1
 8003360:	f403 01c0 	and.w	r1, r3, #6291456	@ 0x600000
 8003364:	3a01      	subs	r2, #1
 8003366:	ebb1 5f42 	cmp.w	r1, r2, lsl #21
 800336a:	f47f aef1 	bne.w	8003150 <HAL_RCC_OscConfig+0x244>
 800336e:	6b62      	ldr	r2, [r4, #52]	@ 0x34
 8003370:	0852      	lsrs	r2, r2, #1
 8003372:	f003 63c0 	and.w	r3, r3, #100663296	@ 0x6000000
 8003376:	3a01      	subs	r2, #1
 8003378:	ebb3 6f42 	cmp.w	r3, r2, lsl #25
 800337c:	bf14      	ite	ne
 800337e:	2001      	movne	r0, #1
 8003380:	2000      	moveq	r0, #0
 8003382:	e731      	b.n	80031e8 <HAL_RCC_OscConfig+0x2dc>
 8003384:	2001      	movs	r0, #1
 8003386:	4770      	bx	lr
 8003388:	40021000 	.word	0x40021000
 800338c:	019f800c 	.word	0x019f800c

08003390 <HAL_RCC_GetSysClockFreq>:
 8003390:	4b18      	ldr	r3, [pc, #96]	@ (80033f4 <HAL_RCC_GetSysClockFreq+0x64>)
 8003392:	689a      	ldr	r2, [r3, #8]
 8003394:	f002 020c 	and.w	r2, r2, #12
 8003398:	2a04      	cmp	r2, #4
 800339a:	d026      	beq.n	80033ea <HAL_RCC_GetSysClockFreq+0x5a>
 800339c:	689a      	ldr	r2, [r3, #8]
 800339e:	f002 020c 	and.w	r2, r2, #12
 80033a2:	2a08      	cmp	r2, #8
 80033a4:	d023      	beq.n	80033ee <HAL_RCC_GetSysClockFreq+0x5e>
 80033a6:	689a      	ldr	r2, [r3, #8]
 80033a8:	f002 020c 	and.w	r2, r2, #12
 80033ac:	2a0c      	cmp	r2, #12
 80033ae:	d001      	beq.n	80033b4 <HAL_RCC_GetSysClockFreq+0x24>
 80033b0:	2000      	movs	r0, #0
 80033b2:	4770      	bx	lr
 80033b4:	68d9      	ldr	r1, [r3, #12]
 80033b6:	68da      	ldr	r2, [r3, #12]
 80033b8:	68d8      	ldr	r0, [r3, #12]
 80033ba:	f001 0103 	and.w	r1, r1, #3
 80033be:	2903      	cmp	r1, #3
 80033c0:	f3c2 1203 	ubfx	r2, r2, #4, #4
 80033c4:	f3c0 2006 	ubfx	r0, r0, #8, #7
 80033c8:	bf0c      	ite	eq
 80033ca:	4b0b      	ldreq	r3, [pc, #44]	@ (80033f8 <HAL_RCC_GetSysClockFreq+0x68>)
 80033cc:	4b0b      	ldrne	r3, [pc, #44]	@ (80033fc <HAL_RCC_GetSysClockFreq+0x6c>)
 80033ce:	3201      	adds	r2, #1
 80033d0:	fbb3 f3f2 	udiv	r3, r3, r2
 80033d4:	fb03 f000 	mul.w	r0, r3, r0
 80033d8:	4b06      	ldr	r3, [pc, #24]	@ (80033f4 <HAL_RCC_GetSysClockFreq+0x64>)
 80033da:	68db      	ldr	r3, [r3, #12]
 80033dc:	f3c3 6341 	ubfx	r3, r3, #25, #2
 80033e0:	3301      	adds	r3, #1
 80033e2:	005b      	lsls	r3, r3, #1
 80033e4:	fbb0 f0f3 	udiv	r0, r0, r3
 80033e8:	4770      	bx	lr
 80033ea:	4804      	ldr	r0, [pc, #16]	@ (80033fc <HAL_RCC_GetSysClockFreq+0x6c>)
 80033ec:	4770      	bx	lr
 80033ee:	4802      	ldr	r0, [pc, #8]	@ (80033f8 <HAL_RCC_GetSysClockFreq+0x68>)
 80033f0:	4770      	bx	lr
 80033f2:	bf00      	nop
 80033f4:	40021000 	.word	0x40021000
 80033f8:	016e3600 	.word	0x016e3600
 80033fc:	00f42400 	.word	0x00f42400

08003400 <HAL_RCC_ClockConfig>:
 8003400:	2800      	cmp	r0, #0
 8003402:	f000 80ee 	beq.w	80035e2 <HAL_RCC_ClockConfig+0x1e2>
 8003406:	4a78      	ldr	r2, [pc, #480]	@ (80035e8 <HAL_RCC_ClockConfig+0x1e8>)
 8003408:	e92d 43f8 	stmdb	sp!, {r3, r4, r5, r6, r7, r8, r9, lr}
 800340c:	6813      	ldr	r3, [r2, #0]
 800340e:	f003 030f 	and.w	r3, r3, #15
 8003412:	428b      	cmp	r3, r1
 8003414:	460d      	mov	r5, r1
 8003416:	4604      	mov	r4, r0
 8003418:	d20c      	bcs.n	8003434 <HAL_RCC_ClockConfig+0x34>
 800341a:	6813      	ldr	r3, [r2, #0]
 800341c:	f023 030f 	bic.w	r3, r3, #15
 8003420:	430b      	orrs	r3, r1
 8003422:	6013      	str	r3, [r2, #0]
 8003424:	6813      	ldr	r3, [r2, #0]
 8003426:	f003 030f 	and.w	r3, r3, #15
 800342a:	428b      	cmp	r3, r1
 800342c:	d002      	beq.n	8003434 <HAL_RCC_ClockConfig+0x34>
 800342e:	2001      	movs	r0, #1
 8003430:	e8bd 83f8 	ldmia.w	sp!, {r3, r4, r5, r6, r7, r8, r9, pc}
 8003434:	6823      	ldr	r3, [r4, #0]
 8003436:	07df      	lsls	r7, r3, #31
 8003438:	d569      	bpl.n	800350e <HAL_RCC_ClockConfig+0x10e>
 800343a:	6867      	ldr	r7, [r4, #4]
 800343c:	2f03      	cmp	r7, #3
 800343e:	f000 80a0 	beq.w	8003582 <HAL_RCC_ClockConfig+0x182>
 8003442:	4b6a      	ldr	r3, [pc, #424]	@ (80035ec <HAL_RCC_ClockConfig+0x1ec>)
 8003444:	2f02      	cmp	r7, #2
 8003446:	681b      	ldr	r3, [r3, #0]
 8003448:	f000 8097 	beq.w	800357a <HAL_RCC_ClockConfig+0x17a>
 800344c:	055b      	lsls	r3, r3, #21
 800344e:	d5ee      	bpl.n	800342e <HAL_RCC_ClockConfig+0x2e>
 8003450:	f7ff ff9e 	bl	8003390 <HAL_RCC_GetSysClockFreq>
 8003454:	4b66      	ldr	r3, [pc, #408]	@ (80035f0 <HAL_RCC_ClockConfig+0x1f0>)
 8003456:	4298      	cmp	r0, r3
 8003458:	f240 80c0 	bls.w	80035dc <HAL_RCC_ClockConfig+0x1dc>
 800345c:	4a63      	ldr	r2, [pc, #396]	@ (80035ec <HAL_RCC_ClockConfig+0x1ec>)
 800345e:	6893      	ldr	r3, [r2, #8]
 8003460:	f023 03f0 	bic.w	r3, r3, #240	@ 0xf0
 8003464:	f043 0380 	orr.w	r3, r3, #128	@ 0x80
 8003468:	6093      	str	r3, [r2, #8]
 800346a:	f04f 0980 	mov.w	r9, #128	@ 0x80
 800346e:	4e5f      	ldr	r6, [pc, #380]	@ (80035ec <HAL_RCC_ClockConfig+0x1ec>)
 8003470:	68b3      	ldr	r3, [r6, #8]
 8003472:	f023 0303 	bic.w	r3, r3, #3
 8003476:	433b      	orrs	r3, r7
 8003478:	60b3      	str	r3, [r6, #8]
 800347a:	f7fe fa4d 	bl	8001918 <HAL_GetTick>
 800347e:	f241 3888 	movw	r8, #5000	@ 0x1388
 8003482:	4607      	mov	r7, r0
 8003484:	e004      	b.n	8003490 <HAL_RCC_ClockConfig+0x90>
 8003486:	f7fe fa47 	bl	8001918 <HAL_GetTick>
 800348a:	1bc0      	subs	r0, r0, r7
 800348c:	4540      	cmp	r0, r8
 800348e:	d871      	bhi.n	8003574 <HAL_RCC_ClockConfig+0x174>
 8003490:	68b3      	ldr	r3, [r6, #8]
 8003492:	6862      	ldr	r2, [r4, #4]
 8003494:	f003 030c 	and.w	r3, r3, #12
 8003498:	ebb3 0f82 	cmp.w	r3, r2, lsl #2
 800349c:	d1f3      	bne.n	8003486 <HAL_RCC_ClockConfig+0x86>
 800349e:	6823      	ldr	r3, [r4, #0]
 80034a0:	079f      	lsls	r7, r3, #30
 80034a2:	d436      	bmi.n	8003512 <HAL_RCC_ClockConfig+0x112>
 80034a4:	f1b9 0f00 	cmp.w	r9, #0
 80034a8:	d003      	beq.n	80034b2 <HAL_RCC_ClockConfig+0xb2>
 80034aa:	68b3      	ldr	r3, [r6, #8]
 80034ac:	f023 03f0 	bic.w	r3, r3, #240	@ 0xf0
 80034b0:	60b3      	str	r3, [r6, #8]
 80034b2:	4e4d      	ldr	r6, [pc, #308]	@ (80035e8 <HAL_RCC_ClockConfig+0x1e8>)
 80034b4:	6833      	ldr	r3, [r6, #0]
 80034b6:	f003 030f 	and.w	r3, r3, #15
 80034ba:	42ab      	cmp	r3, r5
 80034bc:	d846      	bhi.n	800354c <HAL_RCC_ClockConfig+0x14c>
 80034be:	6823      	ldr	r3, [r4, #0]
 80034c0:	075a      	lsls	r2, r3, #29
 80034c2:	d506      	bpl.n	80034d2 <HAL_RCC_ClockConfig+0xd2>
 80034c4:	4949      	ldr	r1, [pc, #292]	@ (80035ec <HAL_RCC_ClockConfig+0x1ec>)
 80034c6:	68e0      	ldr	r0, [r4, #12]
 80034c8:	688a      	ldr	r2, [r1, #8]
 80034ca:	f422 62e0 	bic.w	r2, r2, #1792	@ 0x700
 80034ce:	4302      	orrs	r2, r0
 80034d0:	608a      	str	r2, [r1, #8]
 80034d2:	071b      	lsls	r3, r3, #28
 80034d4:	d507      	bpl.n	80034e6 <HAL_RCC_ClockConfig+0xe6>
 80034d6:	4a45      	ldr	r2, [pc, #276]	@ (80035ec <HAL_RCC_ClockConfig+0x1ec>)
 80034d8:	6921      	ldr	r1, [r4, #16]
 80034da:	6893      	ldr	r3, [r2, #8]
 80034dc:	f423 5360 	bic.w	r3, r3, #14336	@ 0x3800
 80034e0:	ea43 03c1 	orr.w	r3, r3, r1, lsl #3
 80034e4:	6093      	str	r3, [r2, #8]
 80034e6:	f7ff ff53 	bl	8003390 <HAL_RCC_GetSysClockFreq>
 80034ea:	4a40      	ldr	r2, [pc, #256]	@ (80035ec <HAL_RCC_ClockConfig+0x1ec>)
 80034ec:	4c41      	ldr	r4, [pc, #260]	@ (80035f4 <HAL_RCC_ClockConfig+0x1f4>)
 80034ee:	6892      	ldr	r2, [r2, #8]
 80034f0:	4941      	ldr	r1, [pc, #260]	@ (80035f8 <HAL_RCC_ClockConfig+0x1f8>)
 80034f2:	f3c2 1203 	ubfx	r2, r2, #4, #4
 80034f6:	4603      	mov	r3, r0
 80034f8:	5ca2      	ldrb	r2, [r4, r2]
 80034fa:	4840      	ldr	r0, [pc, #256]	@ (80035fc <HAL_RCC_ClockConfig+0x1fc>)
 80034fc:	f002 021f 	and.w	r2, r2, #31
 8003500:	40d3      	lsrs	r3, r2
 8003502:	600b      	str	r3, [r1, #0]
 8003504:	6800      	ldr	r0, [r0, #0]
 8003506:	e8bd 43f8 	ldmia.w	sp!, {r3, r4, r5, r6, r7, r8, r9, lr}
 800350a:	f7fe b9c3 	b.w	8001894 <HAL_InitTick>
 800350e:	079e      	lsls	r6, r3, #30
 8003510:	d5cf      	bpl.n	80034b2 <HAL_RCC_ClockConfig+0xb2>
 8003512:	0758      	lsls	r0, r3, #29
 8003514:	d504      	bpl.n	8003520 <HAL_RCC_ClockConfig+0x120>
 8003516:	4935      	ldr	r1, [pc, #212]	@ (80035ec <HAL_RCC_ClockConfig+0x1ec>)
 8003518:	688a      	ldr	r2, [r1, #8]
 800351a:	f442 62e0 	orr.w	r2, r2, #1792	@ 0x700
 800351e:	608a      	str	r2, [r1, #8]
 8003520:	0719      	lsls	r1, r3, #28
 8003522:	d506      	bpl.n	8003532 <HAL_RCC_ClockConfig+0x132>
 8003524:	4a31      	ldr	r2, [pc, #196]	@ (80035ec <HAL_RCC_ClockConfig+0x1ec>)
 8003526:	6893      	ldr	r3, [r2, #8]
 8003528:	f423 537c 	bic.w	r3, r3, #16128	@ 0x3f00
 800352c:	f443 63e0 	orr.w	r3, r3, #1792	@ 0x700
 8003530:	6093      	str	r3, [r2, #8]
 8003532:	4a2e      	ldr	r2, [pc, #184]	@ (80035ec <HAL_RCC_ClockConfig+0x1ec>)
 8003534:	68a1      	ldr	r1, [r4, #8]
 8003536:	6893      	ldr	r3, [r2, #8]
 8003538:	4e2b      	ldr	r6, [pc, #172]	@ (80035e8 <HAL_RCC_ClockConfig+0x1e8>)
 800353a:	f023 03f0 	bic.w	r3, r3, #240	@ 0xf0
 800353e:	430b      	orrs	r3, r1
 8003540:	6093      	str	r3, [r2, #8]
 8003542:	6833      	ldr	r3, [r6, #0]
 8003544:	f003 030f 	and.w	r3, r3, #15
 8003548:	42ab      	cmp	r3, r5
 800354a:	d9b8      	bls.n	80034be <HAL_RCC_ClockConfig+0xbe>
 800354c:	6833      	ldr	r3, [r6, #0]
 800354e:	f023 030f 	bic.w	r3, r3, #15
 8003552:	432b      	orrs	r3, r5
 8003554:	6033      	str	r3, [r6, #0]
 8003556:	f7fe f9df 	bl	8001918 <HAL_GetTick>
 800355a:	f241 3888 	movw	r8, #5000	@ 0x1388
 800355e:	4607      	mov	r7, r0
 8003560:	6833      	ldr	r3, [r6, #0]
 8003562:	f003 030f 	and.w	r3, r3, #15
 8003566:	42ab      	cmp	r3, r5
 8003568:	d0a9      	beq.n	80034be <HAL_RCC_ClockConfig+0xbe>
 800356a:	f7fe f9d5 	bl	8001918 <HAL_GetTick>
 800356e:	1bc0      	subs	r0, r0, r7
 8003570:	4540      	cmp	r0, r8
 8003572:	d9f5      	bls.n	8003560 <HAL_RCC_ClockConfig+0x160>
 8003574:	2003      	movs	r0, #3
 8003576:	e8bd 83f8 	ldmia.w	sp!, {r3, r4, r5, r6, r7, r8, r9, pc}
 800357a:	039a      	lsls	r2, r3, #14
 800357c:	f53f af68 	bmi.w	8003450 <HAL_RCC_ClockConfig+0x50>
 8003580:	e755      	b.n	800342e <HAL_RCC_ClockConfig+0x2e>
 8003582:	4a1a      	ldr	r2, [pc, #104]	@ (80035ec <HAL_RCC_ClockConfig+0x1ec>)
 8003584:	6811      	ldr	r1, [r2, #0]
 8003586:	0188      	lsls	r0, r1, #6
 8003588:	f57f af51 	bpl.w	800342e <HAL_RCC_ClockConfig+0x2e>
 800358c:	68d0      	ldr	r0, [r2, #12]
 800358e:	68d1      	ldr	r1, [r2, #12]
 8003590:	68d2      	ldr	r2, [r2, #12]
 8003592:	4e17      	ldr	r6, [pc, #92]	@ (80035f0 <HAL_RCC_ClockConfig+0x1f0>)
 8003594:	f000 0003 	and.w	r0, r0, #3
 8003598:	2803      	cmp	r0, #3
 800359a:	f3c1 1103 	ubfx	r1, r1, #4, #4
 800359e:	bf0c      	ite	eq
 80035a0:	4817      	ldreq	r0, [pc, #92]	@ (8003600 <HAL_RCC_ClockConfig+0x200>)
 80035a2:	4818      	ldrne	r0, [pc, #96]	@ (8003604 <HAL_RCC_ClockConfig+0x204>)
 80035a4:	3101      	adds	r1, #1
 80035a6:	fbb0 f1f1 	udiv	r1, r0, r1
 80035aa:	4810      	ldr	r0, [pc, #64]	@ (80035ec <HAL_RCC_ClockConfig+0x1ec>)
 80035ac:	f3c2 2206 	ubfx	r2, r2, #8, #7
 80035b0:	fb01 f202 	mul.w	r2, r1, r2
 80035b4:	68c1      	ldr	r1, [r0, #12]
 80035b6:	f3c1 6141 	ubfx	r1, r1, #25, #2
 80035ba:	3101      	adds	r1, #1
 80035bc:	0049      	lsls	r1, r1, #1
 80035be:	fbb2 f2f1 	udiv	r2, r2, r1
 80035c2:	42b2      	cmp	r2, r6
 80035c4:	d90a      	bls.n	80035dc <HAL_RCC_ClockConfig+0x1dc>
 80035c6:	6882      	ldr	r2, [r0, #8]
 80035c8:	f012 0ff0 	tst.w	r2, #240	@ 0xf0
 80035cc:	f43f af46 	beq.w	800345c <HAL_RCC_ClockConfig+0x5c>
 80035d0:	0799      	lsls	r1, r3, #30
 80035d2:	d503      	bpl.n	80035dc <HAL_RCC_ClockConfig+0x1dc>
 80035d4:	68a3      	ldr	r3, [r4, #8]
 80035d6:	2b00      	cmp	r3, #0
 80035d8:	f43f af40 	beq.w	800345c <HAL_RCC_ClockConfig+0x5c>
 80035dc:	f04f 0900 	mov.w	r9, #0
 80035e0:	e745      	b.n	800346e <HAL_RCC_ClockConfig+0x6e>
 80035e2:	2001      	movs	r0, #1
 80035e4:	4770      	bx	lr
 80035e6:	bf00      	nop
 80035e8:	40022000 	.word	0x40022000
 80035ec:	40021000 	.word	0x40021000
 80035f0:	04c4b400 	.word	0x04c4b400
 80035f4:	0800f87c 	.word	0x0800f87c
 80035f8:	20000000 	.word	0x20000000
 80035fc:	20000008 	.word	0x20000008
 8003600:	016e3600 	.word	0x016e3600
 8003604:	00f42400 	.word	0x00f42400

08003608 <HAL_RCC_GetHCLKFreq>:
 8003608:	4b01      	ldr	r3, [pc, #4]	@ (8003610 <HAL_RCC_GetHCLKFreq+0x8>)
 800360a:	6818      	ldr	r0, [r3, #0]
 800360c:	4770      	bx	lr
 800360e:	bf00      	nop
 8003610:	20000000 	.word	0x20000000

08003614 <HAL_RCC_GetPCLK1Freq>:
 8003614:	4b05      	ldr	r3, [pc, #20]	@ (800362c <HAL_RCC_GetPCLK1Freq+0x18>)
 8003616:	4a06      	ldr	r2, [pc, #24]	@ (8003630 <HAL_RCC_GetPCLK1Freq+0x1c>)
 8003618:	689b      	ldr	r3, [r3, #8]
 800361a:	4906      	ldr	r1, [pc, #24]	@ (8003634 <HAL_RCC_GetPCLK1Freq+0x20>)
 800361c:	f3c3 2302 	ubfx	r3, r3, #8, #3
 8003620:	6808      	ldr	r0, [r1, #0]
 8003622:	5cd3      	ldrb	r3, [r2, r3]
 8003624:	f003 031f 	and.w	r3, r3, #31
 8003628:	40d8      	lsrs	r0, r3
 800362a:	4770      	bx	lr
 800362c:	40021000 	.word	0x40021000
 8003630:	0800f874 	.word	0x0800f874
 8003634:	20000000 	.word	0x20000000

08003638 <HAL_RCC_GetPCLK2Freq>:
 8003638:	4b05      	ldr	r3, [pc, #20]	@ (8003650 <HAL_RCC_GetPCLK2Freq+0x18>)
 800363a:	4a06      	ldr	r2, [pc, #24]	@ (8003654 <HAL_RCC_GetPCLK2Freq+0x1c>)
 800363c:	689b      	ldr	r3, [r3, #8]
 800363e:	4906      	ldr	r1, [pc, #24]	@ (8003658 <HAL_RCC_GetPCLK2Freq+0x20>)
 8003640:	f3c3 23c2 	ubfx	r3, r3, #11, #3
 8003644:	6808      	ldr	r0, [r1, #0]
 8003646:	5cd3      	ldrb	r3, [r2, r3]
 8003648:	f003 031f 	and.w	r3, r3, #31
 800364c:	40d8      	lsrs	r0, r3
 800364e:	4770      	bx	lr
 8003650:	40021000 	.word	0x40021000
 8003654:	0800f874 	.word	0x0800f874
 8003658:	20000000 	.word	0x20000000

0800365c <HAL_RCCEx_PeriphCLKConfig>:
 800365c:	e92d 41f0 	stmdb	sp!, {r4, r5, r6, r7, r8, lr}
 8003660:	6803      	ldr	r3, [r0, #0]
 8003662:	4604      	mov	r4, r0
 8003664:	f413 2000 	ands.w	r0, r3, #524288	@ 0x80000
 8003668:	b082      	sub	sp, #8
 800366a:	d042      	beq.n	80036f2 <HAL_RCCEx_PeriphCLKConfig+0x96>
 800366c:	4bac      	ldr	r3, [pc, #688]	@ (8003920 <HAL_RCCEx_PeriphCLKConfig+0x2c4>)
 800366e:	6d9a      	ldr	r2, [r3, #88]	@ 0x58
 8003670:	00d5      	lsls	r5, r2, #3
 8003672:	f140 812a 	bpl.w	80038ca <HAL_RCCEx_PeriphCLKConfig+0x26e>
 8003676:	2700      	movs	r7, #0
 8003678:	4daa      	ldr	r5, [pc, #680]	@ (8003924 <HAL_RCCEx_PeriphCLKConfig+0x2c8>)
 800367a:	682b      	ldr	r3, [r5, #0]
 800367c:	f443 7380 	orr.w	r3, r3, #256	@ 0x100
 8003680:	602b      	str	r3, [r5, #0]
 8003682:	f7fe f949 	bl	8001918 <HAL_GetTick>
 8003686:	4606      	mov	r6, r0
 8003688:	e005      	b.n	8003696 <HAL_RCCEx_PeriphCLKConfig+0x3a>
 800368a:	f7fe f945 	bl	8001918 <HAL_GetTick>
 800368e:	1b83      	subs	r3, r0, r6
 8003690:	2b02      	cmp	r3, #2
 8003692:	f200 8125 	bhi.w	80038e0 <HAL_RCCEx_PeriphCLKConfig+0x284>
 8003696:	682b      	ldr	r3, [r5, #0]
 8003698:	05d8      	lsls	r0, r3, #23
 800369a:	d5f6      	bpl.n	800368a <HAL_RCCEx_PeriphCLKConfig+0x2e>
 800369c:	4da0      	ldr	r5, [pc, #640]	@ (8003920 <HAL_RCCEx_PeriphCLKConfig+0x2c4>)
 800369e:	6d22      	ldr	r2, [r4, #80]	@ 0x50
 80036a0:	f8d5 3090 	ldr.w	r3, [r5, #144]	@ 0x90
 80036a4:	f413 7340 	ands.w	r3, r3, #768	@ 0x300
 80036a8:	d016      	beq.n	80036d8 <HAL_RCCEx_PeriphCLKConfig+0x7c>
 80036aa:	4293      	cmp	r3, r2
 80036ac:	d014      	beq.n	80036d8 <HAL_RCCEx_PeriphCLKConfig+0x7c>
 80036ae:	f8d5 1090 	ldr.w	r1, [r5, #144]	@ 0x90
 80036b2:	f8d5 3090 	ldr.w	r3, [r5, #144]	@ 0x90
 80036b6:	f443 3380 	orr.w	r3, r3, #65536	@ 0x10000
 80036ba:	f8c5 3090 	str.w	r3, [r5, #144]	@ 0x90
 80036be:	f8d5 3090 	ldr.w	r3, [r5, #144]	@ 0x90
 80036c2:	f423 3380 	bic.w	r3, r3, #65536	@ 0x10000
 80036c6:	f8c5 3090 	str.w	r3, [r5, #144]	@ 0x90
 80036ca:	f421 7340 	bic.w	r3, r1, #768	@ 0x300
 80036ce:	07c9      	lsls	r1, r1, #31
 80036d0:	f8c5 3090 	str.w	r3, [r5, #144]	@ 0x90
 80036d4:	f100 813e 	bmi.w	8003954 <HAL_RCCEx_PeriphCLKConfig+0x2f8>
 80036d8:	4991      	ldr	r1, [pc, #580]	@ (8003920 <HAL_RCCEx_PeriphCLKConfig+0x2c4>)
 80036da:	f8d1 3090 	ldr.w	r3, [r1, #144]	@ 0x90
 80036de:	f423 7340 	bic.w	r3, r3, #768	@ 0x300
 80036e2:	4313      	orrs	r3, r2
 80036e4:	f8c1 3090 	str.w	r3, [r1, #144]	@ 0x90
 80036e8:	6823      	ldr	r3, [r4, #0]
 80036ea:	2000      	movs	r0, #0
 80036ec:	2f00      	cmp	r7, #0
 80036ee:	f040 80fc 	bne.w	80038ea <HAL_RCCEx_PeriphCLKConfig+0x28e>
 80036f2:	07dd      	lsls	r5, r3, #31
 80036f4:	d508      	bpl.n	8003708 <HAL_RCCEx_PeriphCLKConfig+0xac>
 80036f6:	498a      	ldr	r1, [pc, #552]	@ (8003920 <HAL_RCCEx_PeriphCLKConfig+0x2c4>)
 80036f8:	6865      	ldr	r5, [r4, #4]
 80036fa:	f8d1 2088 	ldr.w	r2, [r1, #136]	@ 0x88
 80036fe:	f022 0203 	bic.w	r2, r2, #3
 8003702:	432a      	orrs	r2, r5
 8003704:	f8c1 2088 	str.w	r2, [r1, #136]	@ 0x88
 8003708:	0799      	lsls	r1, r3, #30
 800370a:	d508      	bpl.n	800371e <HAL_RCCEx_PeriphCLKConfig+0xc2>
 800370c:	4984      	ldr	r1, [pc, #528]	@ (8003920 <HAL_RCCEx_PeriphCLKConfig+0x2c4>)
 800370e:	68a5      	ldr	r5, [r4, #8]
 8003710:	f8d1 2088 	ldr.w	r2, [r1, #136]	@ 0x88
 8003714:	f022 020c 	bic.w	r2, r2, #12
 8003718:	432a      	orrs	r2, r5
 800371a:	f8c1 2088 	str.w	r2, [r1, #136]	@ 0x88
 800371e:	075a      	lsls	r2, r3, #29
 8003720:	d508      	bpl.n	8003734 <HAL_RCCEx_PeriphCLKConfig+0xd8>
 8003722:	497f      	ldr	r1, [pc, #508]	@ (8003920 <HAL_RCCEx_PeriphCLKConfig+0x2c4>)
 8003724:	68e5      	ldr	r5, [r4, #12]
 8003726:	f8d1 2088 	ldr.w	r2, [r1, #136]	@ 0x88
 800372a:	f022 0230 	bic.w	r2, r2, #48	@ 0x30
 800372e:	432a      	orrs	r2, r5
 8003730:	f8c1 2088 	str.w	r2, [r1, #136]	@ 0x88
 8003734:	071f      	lsls	r7, r3, #28
 8003736:	d508      	bpl.n	800374a <HAL_RCCEx_PeriphCLKConfig+0xee>
 8003738:	4979      	ldr	r1, [pc, #484]	@ (8003920 <HAL_RCCEx_PeriphCLKConfig+0x2c4>)
 800373a:	6925      	ldr	r5, [r4, #16]
 800373c:	f8d1 2088 	ldr.w	r2, [r1, #136]	@ 0x88
 8003740:	f022 02c0 	bic.w	r2, r2, #192	@ 0xc0
 8003744:	432a      	orrs	r2, r5
 8003746:	f8c1 2088 	str.w	r2, [r1, #136]	@ 0x88
 800374a:	06de      	lsls	r6, r3, #27
 800374c:	d508      	bpl.n	8003760 <HAL_RCCEx_PeriphCLKConfig+0x104>
 800374e:	4974      	ldr	r1, [pc, #464]	@ (8003920 <HAL_RCCEx_PeriphCLKConfig+0x2c4>)
 8003750:	6965      	ldr	r5, [r4, #20]
 8003752:	f8d1 2088 	ldr.w	r2, [r1, #136]	@ 0x88
 8003756:	f422 7240 	bic.w	r2, r2, #768	@ 0x300
 800375a:	432a      	orrs	r2, r5
 800375c:	f8c1 2088 	str.w	r2, [r1, #136]	@ 0x88
 8003760:	069d      	lsls	r5, r3, #26
 8003762:	d508      	bpl.n	8003776 <HAL_RCCEx_PeriphCLKConfig+0x11a>
 8003764:	496e      	ldr	r1, [pc, #440]	@ (8003920 <HAL_RCCEx_PeriphCLKConfig+0x2c4>)
 8003766:	69a5      	ldr	r5, [r4, #24]
 8003768:	f8d1 2088 	ldr.w	r2, [r1, #136]	@ 0x88
 800376c:	f422 6240 	bic.w	r2, r2, #3072	@ 0xc00
 8003770:	432a      	orrs	r2, r5
 8003772:	f8c1 2088 	str.w	r2, [r1, #136]	@ 0x88
 8003776:	0659      	lsls	r1, r3, #25
 8003778:	d508      	bpl.n	800378c <HAL_RCCEx_PeriphCLKConfig+0x130>
 800377a:	4969      	ldr	r1, [pc, #420]	@ (8003920 <HAL_RCCEx_PeriphCLKConfig+0x2c4>)
 800377c:	69e5      	ldr	r5, [r4, #28]
 800377e:	f8d1 2088 	ldr.w	r2, [r1, #136]	@ 0x88
 8003782:	f422 5240 	bic.w	r2, r2, #12288	@ 0x3000
 8003786:	432a      	orrs	r2, r5
 8003788:	f8c1 2088 	str.w	r2, [r1, #136]	@ 0x88
 800378c:	061a      	lsls	r2, r3, #24
 800378e:	d508      	bpl.n	80037a2 <HAL_RCCEx_PeriphCLKConfig+0x146>
 8003790:	4963      	ldr	r1, [pc, #396]	@ (8003920 <HAL_RCCEx_PeriphCLKConfig+0x2c4>)
 8003792:	6a25      	ldr	r5, [r4, #32]
 8003794:	f8d1 2088 	ldr.w	r2, [r1, #136]	@ 0x88
 8003798:	f422 4240 	bic.w	r2, r2, #49152	@ 0xc000
 800379c:	432a      	orrs	r2, r5
 800379e:	f8c1 2088 	str.w	r2, [r1, #136]	@ 0x88
 80037a2:	05df      	lsls	r7, r3, #23
 80037a4:	d508      	bpl.n	80037b8 <HAL_RCCEx_PeriphCLKConfig+0x15c>
 80037a6:	495e      	ldr	r1, [pc, #376]	@ (8003920 <HAL_RCCEx_PeriphCLKConfig+0x2c4>)
 80037a8:	6a65      	ldr	r5, [r4, #36]	@ 0x24
 80037aa:	f8d1 2088 	ldr.w	r2, [r1, #136]	@ 0x88
 80037ae:	f422 3240 	bic.w	r2, r2, #196608	@ 0x30000
 80037b2:	432a      	orrs	r2, r5
 80037b4:	f8c1 2088 	str.w	r2, [r1, #136]	@ 0x88
 80037b8:	039e      	lsls	r6, r3, #14
 80037ba:	d508      	bpl.n	80037ce <HAL_RCCEx_PeriphCLKConfig+0x172>
 80037bc:	4958      	ldr	r1, [pc, #352]	@ (8003920 <HAL_RCCEx_PeriphCLKConfig+0x2c4>)
 80037be:	6aa5      	ldr	r5, [r4, #40]	@ 0x28
 80037c0:	f8d1 209c 	ldr.w	r2, [r1, #156]	@ 0x9c
 80037c4:	f022 0203 	bic.w	r2, r2, #3
 80037c8:	432a      	orrs	r2, r5
 80037ca:	f8c1 209c 	str.w	r2, [r1, #156]	@ 0x9c
 80037ce:	059d      	lsls	r5, r3, #22
 80037d0:	d508      	bpl.n	80037e4 <HAL_RCCEx_PeriphCLKConfig+0x188>
 80037d2:	4953      	ldr	r1, [pc, #332]	@ (8003920 <HAL_RCCEx_PeriphCLKConfig+0x2c4>)
 80037d4:	6ae5      	ldr	r5, [r4, #44]	@ 0x2c
 80037d6:	f8d1 2088 	ldr.w	r2, [r1, #136]	@ 0x88
 80037da:	f422 2240 	bic.w	r2, r2, #786432	@ 0xc0000
 80037de:	432a      	orrs	r2, r5
 80037e0:	f8c1 2088 	str.w	r2, [r1, #136]	@ 0x88
 80037e4:	0559      	lsls	r1, r3, #21
 80037e6:	d50b      	bpl.n	8003800 <HAL_RCCEx_PeriphCLKConfig+0x1a4>
 80037e8:	494d      	ldr	r1, [pc, #308]	@ (8003920 <HAL_RCCEx_PeriphCLKConfig+0x2c4>)
 80037ea:	6b25      	ldr	r5, [r4, #48]	@ 0x30
 80037ec:	f8d1 2088 	ldr.w	r2, [r1, #136]	@ 0x88
 80037f0:	f422 1240 	bic.w	r2, r2, #3145728	@ 0x300000
 80037f4:	432a      	orrs	r2, r5
 80037f6:	f5b5 1f80 	cmp.w	r5, #1048576	@ 0x100000
 80037fa:	f8c1 2088 	str.w	r2, [r1, #136]	@ 0x88
 80037fe:	d07a      	beq.n	80038f6 <HAL_RCCEx_PeriphCLKConfig+0x29a>
 8003800:	051a      	lsls	r2, r3, #20
 8003802:	d50b      	bpl.n	800381c <HAL_RCCEx_PeriphCLKConfig+0x1c0>
 8003804:	4946      	ldr	r1, [pc, #280]	@ (8003920 <HAL_RCCEx_PeriphCLKConfig+0x2c4>)
 8003806:	6b65      	ldr	r5, [r4, #52]	@ 0x34
 8003808:	f8d1 2088 	ldr.w	r2, [r1, #136]	@ 0x88
 800380c:	f422 0240 	bic.w	r2, r2, #12582912	@ 0xc00000
 8003810:	432a      	orrs	r2, r5
 8003812:	f5b5 0f80 	cmp.w	r5, #4194304	@ 0x400000
 8003816:	f8c1 2088 	str.w	r2, [r1, #136]	@ 0x88
 800381a:	d071      	beq.n	8003900 <HAL_RCCEx_PeriphCLKConfig+0x2a4>
 800381c:	04df      	lsls	r7, r3, #19
 800381e:	d50b      	bpl.n	8003838 <HAL_RCCEx_PeriphCLKConfig+0x1dc>
 8003820:	493f      	ldr	r1, [pc, #252]	@ (8003920 <HAL_RCCEx_PeriphCLKConfig+0x2c4>)
 8003822:	6ba5      	ldr	r5, [r4, #56]	@ 0x38
 8003824:	f8d1 2088 	ldr.w	r2, [r1, #136]	@ 0x88
 8003828:	f022 7240 	bic.w	r2, r2, #50331648	@ 0x3000000
 800382c:	432a      	orrs	r2, r5
 800382e:	f1b5 7f80 	cmp.w	r5, #16777216	@ 0x1000000
 8003832:	f8c1 2088 	str.w	r2, [r1, #136]	@ 0x88
 8003836:	d068      	beq.n	800390a <HAL_RCCEx_PeriphCLKConfig+0x2ae>
 8003838:	049e      	lsls	r6, r3, #18
 800383a:	d50b      	bpl.n	8003854 <HAL_RCCEx_PeriphCLKConfig+0x1f8>
 800383c:	4938      	ldr	r1, [pc, #224]	@ (8003920 <HAL_RCCEx_PeriphCLKConfig+0x2c4>)
 800383e:	6be5      	ldr	r5, [r4, #60]	@ 0x3c
 8003840:	f8d1 2088 	ldr.w	r2, [r1, #136]	@ 0x88
 8003844:	f022 6240 	bic.w	r2, r2, #201326592	@ 0xc000000
 8003848:	432a      	orrs	r2, r5
 800384a:	f1b5 6f00 	cmp.w	r5, #134217728	@ 0x8000000
 800384e:	f8c1 2088 	str.w	r2, [r1, #136]	@ 0x88
 8003852:	d05f      	beq.n	8003914 <HAL_RCCEx_PeriphCLKConfig+0x2b8>
 8003854:	045d      	lsls	r5, r3, #17
 8003856:	d50b      	bpl.n	8003870 <HAL_RCCEx_PeriphCLKConfig+0x214>
 8003858:	4931      	ldr	r1, [pc, #196]	@ (8003920 <HAL_RCCEx_PeriphCLKConfig+0x2c4>)
 800385a:	6c25      	ldr	r5, [r4, #64]	@ 0x40
 800385c:	f8d1 2088 	ldr.w	r2, [r1, #136]	@ 0x88
 8003860:	f022 6240 	bic.w	r2, r2, #201326592	@ 0xc000000
 8003864:	432a      	orrs	r2, r5
 8003866:	f1b5 6f00 	cmp.w	r5, #134217728	@ 0x8000000
 800386a:	f8c1 2088 	str.w	r2, [r1, #136]	@ 0x88
 800386e:	d05b      	beq.n	8003928 <HAL_RCCEx_PeriphCLKConfig+0x2cc>
 8003870:	0419      	lsls	r1, r3, #16
 8003872:	d50b      	bpl.n	800388c <HAL_RCCEx_PeriphCLKConfig+0x230>
 8003874:	492a      	ldr	r1, [pc, #168]	@ (8003920 <HAL_RCCEx_PeriphCLKConfig+0x2c4>)
 8003876:	6c65      	ldr	r5, [r4, #68]	@ 0x44
 8003878:	f8d1 2088 	ldr.w	r2, [r1, #136]	@ 0x88
 800387c:	f022 5240 	bic.w	r2, r2, #805306368	@ 0x30000000
 8003880:	432a      	orrs	r2, r5
 8003882:	f1b5 5f80 	cmp.w	r5, #268435456	@ 0x10000000
 8003886:	f8c1 2088 	str.w	r2, [r1, #136]	@ 0x88
 800388a:	d052      	beq.n	8003932 <HAL_RCCEx_PeriphCLKConfig+0x2d6>
 800388c:	03da      	lsls	r2, r3, #15
 800388e:	d50b      	bpl.n	80038a8 <HAL_RCCEx_PeriphCLKConfig+0x24c>
 8003890:	4923      	ldr	r1, [pc, #140]	@ (8003920 <HAL_RCCEx_PeriphCLKConfig+0x2c4>)
 8003892:	6ca5      	ldr	r5, [r4, #72]	@ 0x48
 8003894:	f8d1 2088 	ldr.w	r2, [r1, #136]	@ 0x88
 8003898:	f022 4240 	bic.w	r2, r2, #3221225472	@ 0xc0000000
 800389c:	432a      	orrs	r2, r5
 800389e:	f1b5 4f80 	cmp.w	r5, #1073741824	@ 0x40000000
 80038a2:	f8c1 2088 	str.w	r2, [r1, #136]	@ 0x88
 80038a6:	d049      	beq.n	800393c <HAL_RCCEx_PeriphCLKConfig+0x2e0>
 80038a8:	035b      	lsls	r3, r3, #13
 80038aa:	d50b      	bpl.n	80038c4 <HAL_RCCEx_PeriphCLKConfig+0x268>
 80038ac:	4a1c      	ldr	r2, [pc, #112]	@ (8003920 <HAL_RCCEx_PeriphCLKConfig+0x2c4>)
 80038ae:	6ce1      	ldr	r1, [r4, #76]	@ 0x4c
 80038b0:	f8d2 309c 	ldr.w	r3, [r2, #156]	@ 0x9c
 80038b4:	f423 1340 	bic.w	r3, r3, #3145728	@ 0x300000
 80038b8:	430b      	orrs	r3, r1
 80038ba:	f5b1 1f00 	cmp.w	r1, #2097152	@ 0x200000
 80038be:	f8c2 309c 	str.w	r3, [r2, #156]	@ 0x9c
 80038c2:	d040      	beq.n	8003946 <HAL_RCCEx_PeriphCLKConfig+0x2ea>
 80038c4:	b002      	add	sp, #8
 80038c6:	e8bd 81f0 	ldmia.w	sp!, {r4, r5, r6, r7, r8, pc}
 80038ca:	6d9a      	ldr	r2, [r3, #88]	@ 0x58
 80038cc:	f042 5280 	orr.w	r2, r2, #268435456	@ 0x10000000
 80038d0:	659a      	str	r2, [r3, #88]	@ 0x58
 80038d2:	6d9b      	ldr	r3, [r3, #88]	@ 0x58
 80038d4:	f003 5380 	and.w	r3, r3, #268435456	@ 0x10000000
 80038d8:	9301      	str	r3, [sp, #4]
 80038da:	9b01      	ldr	r3, [sp, #4]
 80038dc:	2701      	movs	r7, #1
 80038de:	e6cb      	b.n	8003678 <HAL_RCCEx_PeriphCLKConfig+0x1c>
 80038e0:	6823      	ldr	r3, [r4, #0]
 80038e2:	2003      	movs	r0, #3
 80038e4:	2f00      	cmp	r7, #0
 80038e6:	f43f af04 	beq.w	80036f2 <HAL_RCCEx_PeriphCLKConfig+0x96>
 80038ea:	490d      	ldr	r1, [pc, #52]	@ (8003920 <HAL_RCCEx_PeriphCLKConfig+0x2c4>)
 80038ec:	6d8a      	ldr	r2, [r1, #88]	@ 0x58
 80038ee:	f022 5280 	bic.w	r2, r2, #268435456	@ 0x10000000
 80038f2:	658a      	str	r2, [r1, #88]	@ 0x58
 80038f4:	e6fd      	b.n	80036f2 <HAL_RCCEx_PeriphCLKConfig+0x96>
 80038f6:	68ca      	ldr	r2, [r1, #12]
 80038f8:	f442 1280 	orr.w	r2, r2, #1048576	@ 0x100000
 80038fc:	60ca      	str	r2, [r1, #12]
 80038fe:	e77f      	b.n	8003800 <HAL_RCCEx_PeriphCLKConfig+0x1a4>
 8003900:	68ca      	ldr	r2, [r1, #12]
 8003902:	f442 1280 	orr.w	r2, r2, #1048576	@ 0x100000
 8003906:	60ca      	str	r2, [r1, #12]
 8003908:	e788      	b.n	800381c <HAL_RCCEx_PeriphCLKConfig+0x1c0>
 800390a:	68ca      	ldr	r2, [r1, #12]
 800390c:	f442 1280 	orr.w	r2, r2, #1048576	@ 0x100000
 8003910:	60ca      	str	r2, [r1, #12]
 8003912:	e791      	b.n	8003838 <HAL_RCCEx_PeriphCLKConfig+0x1dc>
 8003914:	68ca      	ldr	r2, [r1, #12]
 8003916:	f442 1280 	orr.w	r2, r2, #1048576	@ 0x100000
 800391a:	60ca      	str	r2, [r1, #12]
 800391c:	e79a      	b.n	8003854 <HAL_RCCEx_PeriphCLKConfig+0x1f8>
 800391e:	bf00      	nop
 8003920:	40021000 	.word	0x40021000
 8003924:	40007000 	.word	0x40007000
 8003928:	68ca      	ldr	r2, [r1, #12]
 800392a:	f442 1280 	orr.w	r2, r2, #1048576	@ 0x100000
 800392e:	60ca      	str	r2, [r1, #12]
 8003930:	e79e      	b.n	8003870 <HAL_RCCEx_PeriphCLKConfig+0x214>
 8003932:	68ca      	ldr	r2, [r1, #12]
 8003934:	f442 3280 	orr.w	r2, r2, #65536	@ 0x10000
 8003938:	60ca      	str	r2, [r1, #12]
 800393a:	e7a7      	b.n	800388c <HAL_RCCEx_PeriphCLKConfig+0x230>
 800393c:	68ca      	ldr	r2, [r1, #12]
 800393e:	f442 3280 	orr.w	r2, r2, #65536	@ 0x10000
 8003942:	60ca      	str	r2, [r1, #12]
 8003944:	e7b0      	b.n	80038a8 <HAL_RCCEx_PeriphCLKConfig+0x24c>
 8003946:	68d3      	ldr	r3, [r2, #12]
 8003948:	f443 1380 	orr.w	r3, r3, #1048576	@ 0x100000
 800394c:	60d3      	str	r3, [r2, #12]
 800394e:	b002      	add	sp, #8
 8003950:	e8bd 81f0 	ldmia.w	sp!, {r4, r5, r6, r7, r8, pc}
 8003954:	f7fd ffe0 	bl	8001918 <HAL_GetTick>
 8003958:	f241 3888 	movw	r8, #5000	@ 0x1388
 800395c:	4606      	mov	r6, r0
 800395e:	e004      	b.n	800396a <HAL_RCCEx_PeriphCLKConfig+0x30e>
 8003960:	f7fd ffda 	bl	8001918 <HAL_GetTick>
 8003964:	1b80      	subs	r0, r0, r6
 8003966:	4540      	cmp	r0, r8
 8003968:	d8ba      	bhi.n	80038e0 <HAL_RCCEx_PeriphCLKConfig+0x284>
 800396a:	f8d5 3090 	ldr.w	r3, [r5, #144]	@ 0x90
 800396e:	079b      	lsls	r3, r3, #30
 8003970:	d5f6      	bpl.n	8003960 <HAL_RCCEx_PeriphCLKConfig+0x304>
 8003972:	6d22      	ldr	r2, [r4, #80]	@ 0x50
 8003974:	e6b0      	b.n	80036d8 <HAL_RCCEx_PeriphCLKConfig+0x7c>
 8003976:	bf00      	nop

08003978 <TIM_OC1_SetConfig>:
 8003978:	6a03      	ldr	r3, [r0, #32]
 800397a:	6a02      	ldr	r2, [r0, #32]
 800397c:	f022 0201 	bic.w	r2, r2, #1
 8003980:	b470      	push	{r4, r5, r6}
 8003982:	6202      	str	r2, [r0, #32]
 8003984:	6844      	ldr	r4, [r0, #4]
 8003986:	6982      	ldr	r2, [r0, #24]
 8003988:	680d      	ldr	r5, [r1, #0]
 800398a:	f422 3280 	bic.w	r2, r2, #65536	@ 0x10000
 800398e:	f022 0273 	bic.w	r2, r2, #115	@ 0x73
 8003992:	432a      	orrs	r2, r5
 8003994:	688d      	ldr	r5, [r1, #8]
 8003996:	f023 0302 	bic.w	r3, r3, #2
 800399a:	432b      	orrs	r3, r5
 800399c:	4d16      	ldr	r5, [pc, #88]	@ (80039f8 <TIM_OC1_SetConfig+0x80>)
 800399e:	42a8      	cmp	r0, r5
 80039a0:	d013      	beq.n	80039ca <TIM_OC1_SetConfig+0x52>
 80039a2:	f505 6500 	add.w	r5, r5, #2048	@ 0x800
 80039a6:	42a8      	cmp	r0, r5
 80039a8:	d00f      	beq.n	80039ca <TIM_OC1_SetConfig+0x52>
 80039aa:	f505 6540 	add.w	r5, r5, #3072	@ 0xc00
 80039ae:	42a8      	cmp	r0, r5
 80039b0:	d00b      	beq.n	80039ca <TIM_OC1_SetConfig+0x52>
 80039b2:	f505 6580 	add.w	r5, r5, #1024	@ 0x400
 80039b6:	42a8      	cmp	r0, r5
 80039b8:	d007      	beq.n	80039ca <TIM_OC1_SetConfig+0x52>
 80039ba:	f505 6580 	add.w	r5, r5, #1024	@ 0x400
 80039be:	42a8      	cmp	r0, r5
 80039c0:	d003      	beq.n	80039ca <TIM_OC1_SetConfig+0x52>
 80039c2:	f505 6500 	add.w	r5, r5, #2048	@ 0x800
 80039c6:	42a8      	cmp	r0, r5
 80039c8:	d10f      	bne.n	80039ea <TIM_OC1_SetConfig+0x72>
 80039ca:	6a05      	ldr	r5, [r0, #32]
 80039cc:	f025 0504 	bic.w	r5, r5, #4
 80039d0:	6205      	str	r5, [r0, #32]
 80039d2:	68cd      	ldr	r5, [r1, #12]
 80039d4:	f023 0308 	bic.w	r3, r3, #8
 80039d8:	432b      	orrs	r3, r5
 80039da:	e9d1 6505 	ldrd	r6, r5, [r1, #20]
 80039de:	f424 7440 	bic.w	r4, r4, #768	@ 0x300
 80039e2:	ea46 0c05 	orr.w	ip, r6, r5
 80039e6:	ea4c 0404 	orr.w	r4, ip, r4
 80039ea:	6849      	ldr	r1, [r1, #4]
 80039ec:	6044      	str	r4, [r0, #4]
 80039ee:	6182      	str	r2, [r0, #24]
 80039f0:	bc70      	pop	{r4, r5, r6}
 80039f2:	6341      	str	r1, [r0, #52]	@ 0x34
 80039f4:	6203      	str	r3, [r0, #32]
 80039f6:	4770      	bx	lr
 80039f8:	40012c00 	.word	0x40012c00

080039fc <TIM_OC3_SetConfig>:
 80039fc:	6a03      	ldr	r3, [r0, #32]
 80039fe:	6a02      	ldr	r2, [r0, #32]
 8003a00:	f422 7280 	bic.w	r2, r2, #256	@ 0x100
 8003a04:	b470      	push	{r4, r5, r6}
 8003a06:	6202      	str	r2, [r0, #32]
 8003a08:	6844      	ldr	r4, [r0, #4]
 8003a0a:	69c2      	ldr	r2, [r0, #28]
 8003a0c:	680d      	ldr	r5, [r1, #0]
 8003a0e:	f422 3280 	bic.w	r2, r2, #65536	@ 0x10000
 8003a12:	f022 0273 	bic.w	r2, r2, #115	@ 0x73
 8003a16:	432a      	orrs	r2, r5
 8003a18:	688d      	ldr	r5, [r1, #8]
 8003a1a:	f423 7300 	bic.w	r3, r3, #512	@ 0x200
 8003a1e:	ea43 2305 	orr.w	r3, r3, r5, lsl #8
 8003a22:	4d17      	ldr	r5, [pc, #92]	@ (8003a80 <TIM_OC3_SetConfig+0x84>)
 8003a24:	42a8      	cmp	r0, r5
 8003a26:	d013      	beq.n	8003a50 <TIM_OC3_SetConfig+0x54>
 8003a28:	f505 6500 	add.w	r5, r5, #2048	@ 0x800
 8003a2c:	42a8      	cmp	r0, r5
 8003a2e:	d00f      	beq.n	8003a50 <TIM_OC3_SetConfig+0x54>
 8003a30:	f505 55e0 	add.w	r5, r5, #7168	@ 0x1c00
 8003a34:	42a8      	cmp	r0, r5
 8003a36:	d00b      	beq.n	8003a50 <TIM_OC3_SetConfig+0x54>
 8003a38:	f5a5 5580 	sub.w	r5, r5, #4096	@ 0x1000
 8003a3c:	42a8      	cmp	r0, r5
 8003a3e:	d010      	beq.n	8003a62 <TIM_OC3_SetConfig+0x66>
 8003a40:	4d10      	ldr	r5, [pc, #64]	@ (8003a84 <TIM_OC3_SetConfig+0x88>)
 8003a42:	42a8      	cmp	r0, r5
 8003a44:	d00d      	beq.n	8003a62 <TIM_OC3_SetConfig+0x66>
 8003a46:	f505 6580 	add.w	r5, r5, #1024	@ 0x400
 8003a4a:	42a8      	cmp	r0, r5
 8003a4c:	d111      	bne.n	8003a72 <TIM_OC3_SetConfig+0x76>
 8003a4e:	e008      	b.n	8003a62 <TIM_OC3_SetConfig+0x66>
 8003a50:	6a05      	ldr	r5, [r0, #32]
 8003a52:	f425 6580 	bic.w	r5, r5, #1024	@ 0x400
 8003a56:	6205      	str	r5, [r0, #32]
 8003a58:	68cd      	ldr	r5, [r1, #12]
 8003a5a:	f423 6300 	bic.w	r3, r3, #2048	@ 0x800
 8003a5e:	ea43 2305 	orr.w	r3, r3, r5, lsl #8
 8003a62:	e9d1 6505 	ldrd	r6, r5, [r1, #20]
 8003a66:	f424 5440 	bic.w	r4, r4, #12288	@ 0x3000
 8003a6a:	ea46 0c05 	orr.w	ip, r6, r5
 8003a6e:	ea44 140c 	orr.w	r4, r4, ip, lsl #4
 8003a72:	6849      	ldr	r1, [r1, #4]
 8003a74:	6044      	str	r4, [r0, #4]
 8003a76:	61c2      	str	r2, [r0, #28]
 8003a78:	bc70      	pop	{r4, r5, r6}
 8003a7a:	63c1      	str	r1, [r0, #60]	@ 0x3c
 8003a7c:	6203      	str	r3, [r0, #32]
 8003a7e:	4770      	bx	lr
 8003a80:	40012c00 	.word	0x40012c00
 8003a84:	40014400 	.word	0x40014400

08003a88 <TIM_OC4_SetConfig>:
 8003a88:	6a03      	ldr	r3, [r0, #32]
 8003a8a:	6a02      	ldr	r2, [r0, #32]
 8003a8c:	f422 5280 	bic.w	r2, r2, #4096	@ 0x1000
 8003a90:	b470      	push	{r4, r5, r6}
 8003a92:	6202      	str	r2, [r0, #32]
 8003a94:	6844      	ldr	r4, [r0, #4]
 8003a96:	69c2      	ldr	r2, [r0, #28]
 8003a98:	680d      	ldr	r5, [r1, #0]
 8003a9a:	f022 7280 	bic.w	r2, r2, #16777216	@ 0x1000000
 8003a9e:	f422 42e6 	bic.w	r2, r2, #29440	@ 0x7300
 8003aa2:	ea42 2205 	orr.w	r2, r2, r5, lsl #8
 8003aa6:	688d      	ldr	r5, [r1, #8]
 8003aa8:	f423 5300 	bic.w	r3, r3, #8192	@ 0x2000
 8003aac:	ea43 3305 	orr.w	r3, r3, r5, lsl #12
 8003ab0:	4d17      	ldr	r5, [pc, #92]	@ (8003b10 <TIM_OC4_SetConfig+0x88>)
 8003ab2:	42a8      	cmp	r0, r5
 8003ab4:	d013      	beq.n	8003ade <TIM_OC4_SetConfig+0x56>
 8003ab6:	f505 6500 	add.w	r5, r5, #2048	@ 0x800
 8003aba:	42a8      	cmp	r0, r5
 8003abc:	d00f      	beq.n	8003ade <TIM_OC4_SetConfig+0x56>
 8003abe:	f505 55e0 	add.w	r5, r5, #7168	@ 0x1c00
 8003ac2:	42a8      	cmp	r0, r5
 8003ac4:	d00b      	beq.n	8003ade <TIM_OC4_SetConfig+0x56>
 8003ac6:	f5a5 5580 	sub.w	r5, r5, #4096	@ 0x1000
 8003aca:	42a8      	cmp	r0, r5
 8003acc:	d010      	beq.n	8003af0 <TIM_OC4_SetConfig+0x68>
 8003ace:	4d11      	ldr	r5, [pc, #68]	@ (8003b14 <TIM_OC4_SetConfig+0x8c>)
 8003ad0:	42a8      	cmp	r0, r5
 8003ad2:	d00d      	beq.n	8003af0 <TIM_OC4_SetConfig+0x68>
 8003ad4:	f505 6580 	add.w	r5, r5, #1024	@ 0x400
 8003ad8:	42a8      	cmp	r0, r5
 8003ada:	d111      	bne.n	8003b00 <TIM_OC4_SetConfig+0x78>
 8003adc:	e008      	b.n	8003af0 <TIM_OC4_SetConfig+0x68>
 8003ade:	6a05      	ldr	r5, [r0, #32]
 8003ae0:	f425 4580 	bic.w	r5, r5, #16384	@ 0x4000
 8003ae4:	6205      	str	r5, [r0, #32]
 8003ae6:	68cd      	ldr	r5, [r1, #12]
 8003ae8:	f423 4300 	bic.w	r3, r3, #32768	@ 0x8000
 8003aec:	ea43 3305 	orr.w	r3, r3, r5, lsl #12
 8003af0:	e9d1 6505 	ldrd	r6, r5, [r1, #20]
 8003af4:	f424 4440 	bic.w	r4, r4, #49152	@ 0xc000
 8003af8:	ea46 0c05 	orr.w	ip, r6, r5
 8003afc:	ea44 148c 	orr.w	r4, r4, ip, lsl #6
 8003b00:	6849      	ldr	r1, [r1, #4]
 8003b02:	6044      	str	r4, [r0, #4]
 8003b04:	61c2      	str	r2, [r0, #28]
 8003b06:	bc70      	pop	{r4, r5, r6}
 8003b08:	6401      	str	r1, [r0, #64]	@ 0x40
 8003b0a:	6203      	str	r3, [r0, #32]
 8003b0c:	4770      	bx	lr
 8003b0e:	bf00      	nop
 8003b10:	40012c00 	.word	0x40012c00
 8003b14:	40014400 	.word	0x40014400

08003b18 <HAL_TIM_Base_Init>:
 8003b18:	2800      	cmp	r0, #0
 8003b1a:	f000 8085 	beq.w	8003c28 <HAL_TIM_Base_Init+0x110>
 8003b1e:	b570      	push	{r4, r5, r6, lr}
 8003b20:	f890 303d 	ldrb.w	r3, [r0, #61]	@ 0x3d
 8003b24:	4604      	mov	r4, r0
 8003b26:	f003 02ff 	and.w	r2, r3, #255	@ 0xff
 8003b2a:	2b00      	cmp	r3, #0
 8003b2c:	d077      	beq.n	8003c1e <HAL_TIM_Base_Init+0x106>
 8003b2e:	6822      	ldr	r2, [r4, #0]
 8003b30:	4e44      	ldr	r6, [pc, #272]	@ (8003c44 <HAL_TIM_Base_Init+0x12c>)
 8003b32:	69a0      	ldr	r0, [r4, #24]
 8003b34:	68e5      	ldr	r5, [r4, #12]
 8003b36:	6861      	ldr	r1, [r4, #4]
 8003b38:	2302      	movs	r3, #2
 8003b3a:	f884 303d 	strb.w	r3, [r4, #61]	@ 0x3d
 8003b3e:	42b2      	cmp	r2, r6
 8003b40:	6813      	ldr	r3, [r2, #0]
 8003b42:	d05e      	beq.n	8003c02 <HAL_TIM_Base_Init+0xea>
 8003b44:	f1b2 4f80 	cmp.w	r2, #1073741824	@ 0x40000000
 8003b48:	d024      	beq.n	8003b94 <HAL_TIM_Base_Init+0x7c>
 8003b4a:	f5a6 3694 	sub.w	r6, r6, #75776	@ 0x12800
 8003b4e:	42b2      	cmp	r2, r6
 8003b50:	d020      	beq.n	8003b94 <HAL_TIM_Base_Init+0x7c>
 8003b52:	f506 6680 	add.w	r6, r6, #1024	@ 0x400
 8003b56:	42b2      	cmp	r2, r6
 8003b58:	d01c      	beq.n	8003b94 <HAL_TIM_Base_Init+0x7c>
 8003b5a:	f506 6680 	add.w	r6, r6, #1024	@ 0x400
 8003b5e:	42b2      	cmp	r2, r6
 8003b60:	d018      	beq.n	8003b94 <HAL_TIM_Base_Init+0x7c>
 8003b62:	f506 3694 	add.w	r6, r6, #75776	@ 0x12800
 8003b66:	42b2      	cmp	r2, r6
 8003b68:	d04b      	beq.n	8003c02 <HAL_TIM_Base_Init+0xea>
 8003b6a:	f506 56e0 	add.w	r6, r6, #7168	@ 0x1c00
 8003b6e:	42b2      	cmp	r2, r6
 8003b70:	d047      	beq.n	8003c02 <HAL_TIM_Base_Init+0xea>
 8003b72:	4e35      	ldr	r6, [pc, #212]	@ (8003c48 <HAL_TIM_Base_Init+0x130>)
 8003b74:	42b2      	cmp	r2, r6
 8003b76:	d048      	beq.n	8003c0a <HAL_TIM_Base_Init+0xf2>
 8003b78:	f506 6680 	add.w	r6, r6, #1024	@ 0x400
 8003b7c:	42b2      	cmp	r2, r6
 8003b7e:	d00d      	beq.n	8003b9c <HAL_TIM_Base_Init+0x84>
 8003b80:	f506 6680 	add.w	r6, r6, #1024	@ 0x400
 8003b84:	42b2      	cmp	r2, r6
 8003b86:	d051      	beq.n	8003c2c <HAL_TIM_Base_Init+0x114>
 8003b88:	f023 0380 	bic.w	r3, r3, #128	@ 0x80
 8003b8c:	62d5      	str	r5, [r2, #44]	@ 0x2c
 8003b8e:	4318      	orrs	r0, r3
 8003b90:	6291      	str	r1, [r2, #40]	@ 0x28
 8003b92:	e015      	b.n	8003bc0 <HAL_TIM_Base_Init+0xa8>
 8003b94:	68a6      	ldr	r6, [r4, #8]
 8003b96:	f023 0370 	bic.w	r3, r3, #112	@ 0x70
 8003b9a:	4333      	orrs	r3, r6
 8003b9c:	6926      	ldr	r6, [r4, #16]
 8003b9e:	62d5      	str	r5, [r2, #44]	@ 0x2c
 8003ba0:	f423 7340 	bic.w	r3, r3, #768	@ 0x300
 8003ba4:	4333      	orrs	r3, r6
 8003ba6:	f023 0380 	bic.w	r3, r3, #128	@ 0x80
 8003baa:	4318      	orrs	r0, r3
 8003bac:	6291      	str	r1, [r2, #40]	@ 0x28
 8003bae:	4b27      	ldr	r3, [pc, #156]	@ (8003c4c <HAL_TIM_Base_Init+0x134>)
 8003bb0:	429a      	cmp	r2, r3
 8003bb2:	d003      	beq.n	8003bbc <HAL_TIM_Base_Init+0xa4>
 8003bb4:	f503 6380 	add.w	r3, r3, #1024	@ 0x400
 8003bb8:	429a      	cmp	r2, r3
 8003bba:	d101      	bne.n	8003bc0 <HAL_TIM_Base_Init+0xa8>
 8003bbc:	6963      	ldr	r3, [r4, #20]
 8003bbe:	6313      	str	r3, [r2, #48]	@ 0x30
 8003bc0:	6811      	ldr	r1, [r2, #0]
 8003bc2:	2301      	movs	r3, #1
 8003bc4:	f041 0104 	orr.w	r1, r1, #4
 8003bc8:	6011      	str	r1, [r2, #0]
 8003bca:	6153      	str	r3, [r2, #20]
 8003bcc:	6010      	str	r0, [r2, #0]
 8003bce:	f884 3048 	strb.w	r3, [r4, #72]	@ 0x48
 8003bd2:	f884 303e 	strb.w	r3, [r4, #62]	@ 0x3e
 8003bd6:	f884 303f 	strb.w	r3, [r4, #63]	@ 0x3f
 8003bda:	f884 3040 	strb.w	r3, [r4, #64]	@ 0x40
 8003bde:	f884 3041 	strb.w	r3, [r4, #65]	@ 0x41
 8003be2:	f884 3042 	strb.w	r3, [r4, #66]	@ 0x42
 8003be6:	f884 3043 	strb.w	r3, [r4, #67]	@ 0x43
 8003bea:	f884 3044 	strb.w	r3, [r4, #68]	@ 0x44
 8003bee:	f884 3045 	strb.w	r3, [r4, #69]	@ 0x45
 8003bf2:	f884 3046 	strb.w	r3, [r4, #70]	@ 0x46
 8003bf6:	f884 3047 	strb.w	r3, [r4, #71]	@ 0x47
 8003bfa:	f884 303d 	strb.w	r3, [r4, #61]	@ 0x3d
 8003bfe:	2000      	movs	r0, #0
 8003c00:	bd70      	pop	{r4, r5, r6, pc}
 8003c02:	68a6      	ldr	r6, [r4, #8]
 8003c04:	f023 0370 	bic.w	r3, r3, #112	@ 0x70
 8003c08:	4333      	orrs	r3, r6
 8003c0a:	6926      	ldr	r6, [r4, #16]
 8003c0c:	62d5      	str	r5, [r2, #44]	@ 0x2c
 8003c0e:	f423 7340 	bic.w	r3, r3, #768	@ 0x300
 8003c12:	4333      	orrs	r3, r6
 8003c14:	f023 0380 	bic.w	r3, r3, #128	@ 0x80
 8003c18:	4318      	orrs	r0, r3
 8003c1a:	6291      	str	r1, [r2, #40]	@ 0x28
 8003c1c:	e7ce      	b.n	8003bbc <HAL_TIM_Base_Init+0xa4>
 8003c1e:	f880 203c 	strb.w	r2, [r0, #60]	@ 0x3c
 8003c22:	f7fd fd59 	bl	80016d8 <HAL_TIM_Base_MspInit>
 8003c26:	e782      	b.n	8003b2e <HAL_TIM_Base_Init+0x16>
 8003c28:	2001      	movs	r0, #1
 8003c2a:	4770      	bx	lr
 8003c2c:	6926      	ldr	r6, [r4, #16]
 8003c2e:	f423 7340 	bic.w	r3, r3, #768	@ 0x300
 8003c32:	4333      	orrs	r3, r6
 8003c34:	f023 0380 	bic.w	r3, r3, #128	@ 0x80
 8003c38:	4318      	orrs	r0, r3
 8003c3a:	4b05      	ldr	r3, [pc, #20]	@ (8003c50 <HAL_TIM_Base_Init+0x138>)
 8003c3c:	62dd      	str	r5, [r3, #44]	@ 0x2c
 8003c3e:	6299      	str	r1, [r3, #40]	@ 0x28
 8003c40:	e7b5      	b.n	8003bae <HAL_TIM_Base_Init+0x96>
 8003c42:	bf00      	nop
 8003c44:	40012c00 	.word	0x40012c00
 8003c48:	40014000 	.word	0x40014000
 8003c4c:	40014400 	.word	0x40014400
 8003c50:	40014800 	.word	0x40014800

08003c54 <HAL_TIM_Base_Start_IT>:
 8003c54:	f890 303d 	ldrb.w	r3, [r0, #61]	@ 0x3d
 8003c58:	2b01      	cmp	r3, #1
 8003c5a:	d132      	bne.n	8003cc2 <HAL_TIM_Base_Start_IT+0x6e>
 8003c5c:	6803      	ldr	r3, [r0, #0]
 8003c5e:	491a      	ldr	r1, [pc, #104]	@ (8003cc8 <HAL_TIM_Base_Start_IT+0x74>)
 8003c60:	2202      	movs	r2, #2
 8003c62:	f880 203d 	strb.w	r2, [r0, #61]	@ 0x3d
 8003c66:	68da      	ldr	r2, [r3, #12]
 8003c68:	428b      	cmp	r3, r1
 8003c6a:	f042 0201 	orr.w	r2, r2, #1
 8003c6e:	60da      	str	r2, [r3, #12]
 8003c70:	d019      	beq.n	8003ca6 <HAL_TIM_Base_Start_IT+0x52>
 8003c72:	f1b3 4f80 	cmp.w	r3, #1073741824	@ 0x40000000
 8003c76:	d016      	beq.n	8003ca6 <HAL_TIM_Base_Start_IT+0x52>
 8003c78:	4a14      	ldr	r2, [pc, #80]	@ (8003ccc <HAL_TIM_Base_Start_IT+0x78>)
 8003c7a:	4293      	cmp	r3, r2
 8003c7c:	d013      	beq.n	8003ca6 <HAL_TIM_Base_Start_IT+0x52>
 8003c7e:	f502 6280 	add.w	r2, r2, #1024	@ 0x400
 8003c82:	4293      	cmp	r3, r2
 8003c84:	d00f      	beq.n	8003ca6 <HAL_TIM_Base_Start_IT+0x52>
 8003c86:	f502 6280 	add.w	r2, r2, #1024	@ 0x400
 8003c8a:	4293      	cmp	r3, r2
 8003c8c:	d00b      	beq.n	8003ca6 <HAL_TIM_Base_Start_IT+0x52>
 8003c8e:	f502 3294 	add.w	r2, r2, #75776	@ 0x12800
 8003c92:	4293      	cmp	r3, r2
 8003c94:	d007      	beq.n	8003ca6 <HAL_TIM_Base_Start_IT+0x52>
 8003c96:	f502 6240 	add.w	r2, r2, #3072	@ 0xc00
 8003c9a:	4293      	cmp	r3, r2
 8003c9c:	d003      	beq.n	8003ca6 <HAL_TIM_Base_Start_IT+0x52>
 8003c9e:	f502 5280 	add.w	r2, r2, #4096	@ 0x1000
 8003ca2:	4293      	cmp	r3, r2
 8003ca4:	d107      	bne.n	8003cb6 <HAL_TIM_Base_Start_IT+0x62>
 8003ca6:	6899      	ldr	r1, [r3, #8]
 8003ca8:	4a09      	ldr	r2, [pc, #36]	@ (8003cd0 <HAL_TIM_Base_Start_IT+0x7c>)
 8003caa:	400a      	ands	r2, r1
 8003cac:	2a06      	cmp	r2, #6
 8003cae:	d006      	beq.n	8003cbe <HAL_TIM_Base_Start_IT+0x6a>
 8003cb0:	f5b2 3f80 	cmp.w	r2, #65536	@ 0x10000
 8003cb4:	d003      	beq.n	8003cbe <HAL_TIM_Base_Start_IT+0x6a>
 8003cb6:	681a      	ldr	r2, [r3, #0]
 8003cb8:	f042 0201 	orr.w	r2, r2, #1
 8003cbc:	601a      	str	r2, [r3, #0]
 8003cbe:	2000      	movs	r0, #0
 8003cc0:	4770      	bx	lr
 8003cc2:	2001      	movs	r0, #1
 8003cc4:	4770      	bx	lr
 8003cc6:	bf00      	nop
 8003cc8:	40012c00 	.word	0x40012c00
 8003ccc:	40000400 	.word	0x40000400
 8003cd0:	00010007 	.word	0x00010007

08003cd4 <HAL_TIM_OC_MspInit>:
 8003cd4:	4770      	bx	lr
 8003cd6:	bf00      	nop

08003cd8 <HAL_TIM_OC_Init>:
 8003cd8:	2800      	cmp	r0, #0
 8003cda:	f000 8085 	beq.w	8003de8 <HAL_TIM_OC_Init+0x110>
 8003cde:	b570      	push	{r4, r5, r6, lr}
 8003ce0:	f890 303d 	ldrb.w	r3, [r0, #61]	@ 0x3d
 8003ce4:	4604      	mov	r4, r0
 8003ce6:	f003 02ff 	and.w	r2, r3, #255	@ 0xff
 8003cea:	2b00      	cmp	r3, #0
 8003cec:	d077      	beq.n	8003dde <HAL_TIM_OC_Init+0x106>
 8003cee:	6822      	ldr	r2, [r4, #0]
 8003cf0:	4e44      	ldr	r6, [pc, #272]	@ (8003e04 <HAL_TIM_OC_Init+0x12c>)
 8003cf2:	69a0      	ldr	r0, [r4, #24]
 8003cf4:	68e5      	ldr	r5, [r4, #12]
 8003cf6:	6861      	ldr	r1, [r4, #4]
 8003cf8:	2302      	movs	r3, #2
 8003cfa:	f884 303d 	strb.w	r3, [r4, #61]	@ 0x3d
 8003cfe:	42b2      	cmp	r2, r6
 8003d00:	6813      	ldr	r3, [r2, #0]
 8003d02:	d05e      	beq.n	8003dc2 <HAL_TIM_OC_Init+0xea>
 8003d04:	f1b2 4f80 	cmp.w	r2, #1073741824	@ 0x40000000
 8003d08:	d024      	beq.n	8003d54 <HAL_TIM_OC_Init+0x7c>
 8003d0a:	f5a6 3694 	sub.w	r6, r6, #75776	@ 0x12800
 8003d0e:	42b2      	cmp	r2, r6
 8003d10:	d020      	beq.n	8003d54 <HAL_TIM_OC_Init+0x7c>
 8003d12:	f506 6680 	add.w	r6, r6, #1024	@ 0x400
 8003d16:	42b2      	cmp	r2, r6
 8003d18:	d01c      	beq.n	8003d54 <HAL_TIM_OC_Init+0x7c>
 8003d1a:	f506 6680 	add.w	r6, r6, #1024	@ 0x400
 8003d1e:	42b2      	cmp	r2, r6
 8003d20:	d018      	beq.n	8003d54 <HAL_TIM_OC_Init+0x7c>
 8003d22:	f506 3694 	add.w	r6, r6, #75776	@ 0x12800
 8003d26:	42b2      	cmp	r2, r6
 8003d28:	d04b      	beq.n	8003dc2 <HAL_TIM_OC_Init+0xea>
 8003d2a:	f506 56e0 	add.w	r6, r6, #7168	@ 0x1c00
 8003d2e:	42b2      	cmp	r2, r6
 8003d30:	d047      	beq.n	8003dc2 <HAL_TIM_OC_Init+0xea>
 8003d32:	4e35      	ldr	r6, [pc, #212]	@ (8003e08 <HAL_TIM_OC_Init+0x130>)
 8003d34:	42b2      	cmp	r2, r6
 8003d36:	d048      	beq.n	8003dca <HAL_TIM_OC_Init+0xf2>
 8003d38:	f506 6680 	add.w	r6, r6, #1024	@ 0x400
 8003d3c:	42b2      	cmp	r2, r6
 8003d3e:	d00d      	beq.n	8003d5c <HAL_TIM_OC_Init+0x84>
 8003d40:	f506 6680 	add.w	r6, r6, #1024	@ 0x400
 8003d44:	42b2      	cmp	r2, r6
 8003d46:	d051      	beq.n	8003dec <HAL_TIM_OC_Init+0x114>
 8003d48:	f023 0380 	bic.w	r3, r3, #128	@ 0x80
 8003d4c:	62d5      	str	r5, [r2, #44]	@ 0x2c
 8003d4e:	4318      	orrs	r0, r3
 8003d50:	6291      	str	r1, [r2, #40]	@ 0x28
 8003d52:	e015      	b.n	8003d80 <HAL_TIM_OC_Init+0xa8>
 8003d54:	68a6      	ldr	r6, [r4, #8]
 8003d56:	f023 0370 	bic.w	r3, r3, #112	@ 0x70
 8003d5a:	4333      	orrs	r3, r6
 8003d5c:	6926      	ldr	r6, [r4, #16]
 8003d5e:	62d5      	str	r5, [r2, #44]	@ 0x2c
 8003d60:	f423 7340 	bic.w	r3, r3, #768	@ 0x300
 8003d64:	4333      	orrs	r3, r6
 8003d66:	f023 0380 	bic.w	r3, r3, #128	@ 0x80
 8003d6a:	4318      	orrs	r0, r3
 8003d6c:	6291      	str	r1, [r2, #40]	@ 0x28
 8003d6e:	4b27      	ldr	r3, [pc, #156]	@ (8003e0c <HAL_TIM_OC_Init+0x134>)
 8003d70:	429a      	cmp	r2, r3
 8003d72:	d003      	beq.n	8003d7c <HAL_TIM_OC_Init+0xa4>
 8003d74:	f503 6380 	add.w	r3, r3, #1024	@ 0x400
 8003d78:	429a      	cmp	r2, r3
 8003d7a:	d101      	bne.n	8003d80 <HAL_TIM_OC_Init+0xa8>
 8003d7c:	6963      	ldr	r3, [r4, #20]
 8003d7e:	6313      	str	r3, [r2, #48]	@ 0x30
 8003d80:	6811      	ldr	r1, [r2, #0]
 8003d82:	2301      	movs	r3, #1
 8003d84:	f041 0104 	orr.w	r1, r1, #4
 8003d88:	6011      	str	r1, [r2, #0]
 8003d8a:	6153      	str	r3, [r2, #20]
 8003d8c:	6010      	str	r0, [r2, #0]
 8003d8e:	f884 3048 	strb.w	r3, [r4, #72]	@ 0x48
 8003d92:	f884 303e 	strb.w	r3, [r4, #62]	@ 0x3e
 8003d96:	f884 303f 	strb.w	r3, [r4, #63]	@ 0x3f
 8003d9a:	f884 3040 	strb.w	r3, [r4, #64]	@ 0x40
 8003d9e:	f884 3041 	strb.w	r3, [r4, #65]	@ 0x41
 8003da2:	f884 3042 	strb.w	r3, [r4, #66]	@ 0x42
 8003da6:	f884 3043 	strb.w	r3, [r4, #67]	@ 0x43
 8003daa:	f884 3044 	strb.w	r3, [r4, #68]	@ 0x44
 8003dae:	f884 3045 	strb.w	r3, [r4, #69]	@ 0x45
 8003db2:	f884 3046 	strb.w	r3, [r4, #70]	@ 0x46
 8003db6:	f884 3047 	strb.w	r3, [r4, #71]	@ 0x47
 8003dba:	f884 303d 	strb.w	r3, [r4, #61]	@ 0x3d
 8003dbe:	2000      	movs	r0, #0
 8003dc0:	bd70      	pop	{r4, r5, r6, pc}
 8003dc2:	68a6      	ldr	r6, [r4, #8]
 8003dc4:	f023 0370 	bic.w	r3, r3, #112	@ 0x70
 8003dc8:	4333      	orrs	r3, r6
 8003dca:	6926      	ldr	r6, [r4, #16]
 8003dcc:	62d5      	str	r5, [r2, #44]	@ 0x2c
 8003dce:	f423 7340 	bic.w	r3, r3, #768	@ 0x300
 8003dd2:	4333      	orrs	r3, r6
 8003dd4:	f023 0380 	bic.w	r3, r3, #128	@ 0x80
 8003dd8:	4318      	orrs	r0, r3
 8003dda:	6291      	str	r1, [r2, #40]	@ 0x28
 8003ddc:	e7ce      	b.n	8003d7c <HAL_TIM_OC_Init+0xa4>
 8003dde:	f880 203c 	strb.w	r2, [r0, #60]	@ 0x3c
 8003de2:	f7ff ff77 	bl	8003cd4 <HAL_TIM_OC_MspInit>
 8003de6:	e782      	b.n	8003cee <HAL_TIM_OC_Init+0x16>
 8003de8:	2001      	movs	r0, #1
 8003dea:	4770      	bx	lr
 8003dec:	6926      	ldr	r6, [r4, #16]
 8003dee:	f423 7340 	bic.w	r3, r3, #768	@ 0x300
 8003df2:	4333      	orrs	r3, r6
 8003df4:	f023 0380 	bic.w	r3, r3, #128	@ 0x80
 8003df8:	4318      	orrs	r0, r3
 8003dfa:	4b05      	ldr	r3, [pc, #20]	@ (8003e10 <HAL_TIM_OC_Init+0x138>)
 8003dfc:	62dd      	str	r5, [r3, #44]	@ 0x2c
 8003dfe:	6299      	str	r1, [r3, #40]	@ 0x28
 8003e00:	e7b5      	b.n	8003d6e <HAL_TIM_OC_Init+0x96>
 8003e02:	bf00      	nop
 8003e04:	40012c00 	.word	0x40012c00
 8003e08:	40014000 	.word	0x40014000
 8003e0c:	40014400 	.word	0x40014400
 8003e10:	40014800 	.word	0x40014800

08003e14 <HAL_TIM_ConfigClockSource>:
 8003e14:	f890 203c 	ldrb.w	r2, [r0, #60]	@ 0x3c
 8003e18:	2a01      	cmp	r2, #1
 8003e1a:	f000 80a8 	beq.w	8003f6e <HAL_TIM_ConfigClockSource+0x15a>
 8003e1e:	4603      	mov	r3, r0
 8003e20:	b430      	push	{r4, r5}
 8003e22:	6802      	ldr	r2, [r0, #0]
 8003e24:	2402      	movs	r4, #2
 8003e26:	2001      	movs	r0, #1
 8003e28:	f883 403d 	strb.w	r4, [r3, #61]	@ 0x3d
 8003e2c:	f883 003c 	strb.w	r0, [r3, #60]	@ 0x3c
 8003e30:	6895      	ldr	r5, [r2, #8]
 8003e32:	4c86      	ldr	r4, [pc, #536]	@ (800404c <HAL_TIM_ConfigClockSource+0x238>)
 8003e34:	402c      	ands	r4, r5
 8003e36:	6094      	str	r4, [r2, #8]
 8003e38:	680c      	ldr	r4, [r1, #0]
 8003e3a:	2c70      	cmp	r4, #112	@ 0x70
 8003e3c:	f000 8099 	beq.w	8003f72 <HAL_TIM_ConfigClockSource+0x15e>
 8003e40:	d83b      	bhi.n	8003eba <HAL_TIM_ConfigClockSource+0xa6>
 8003e42:	2c50      	cmp	r4, #80	@ 0x50
 8003e44:	f000 80b5 	beq.w	8003fb2 <HAL_TIM_ConfigClockSource+0x19e>
 8003e48:	d847      	bhi.n	8003eda <HAL_TIM_ConfigClockSource+0xc6>
 8003e4a:	2c40      	cmp	r4, #64	@ 0x40
 8003e4c:	f040 80e6 	bne.w	800401c <HAL_TIM_ConfigClockSource+0x208>
 8003e50:	6848      	ldr	r0, [r1, #4]
 8003e52:	68cd      	ldr	r5, [r1, #12]
 8003e54:	6a11      	ldr	r1, [r2, #32]
 8003e56:	6a14      	ldr	r4, [r2, #32]
 8003e58:	f024 0401 	bic.w	r4, r4, #1
 8003e5c:	6214      	str	r4, [r2, #32]
 8003e5e:	4c7c      	ldr	r4, [pc, #496]	@ (8004050 <HAL_TIM_ConfigClockSource+0x23c>)
 8003e60:	42a2      	cmp	r2, r4
 8003e62:	d013      	beq.n	8003e8c <HAL_TIM_ConfigClockSource+0x78>
 8003e64:	f504 6400 	add.w	r4, r4, #2048	@ 0x800
 8003e68:	42a2      	cmp	r2, r4
 8003e6a:	d00f      	beq.n	8003e8c <HAL_TIM_ConfigClockSource+0x78>
 8003e6c:	f504 6440 	add.w	r4, r4, #3072	@ 0xc00
 8003e70:	42a2      	cmp	r2, r4
 8003e72:	d00b      	beq.n	8003e8c <HAL_TIM_ConfigClockSource+0x78>
 8003e74:	f504 6480 	add.w	r4, r4, #1024	@ 0x400
 8003e78:	42a2      	cmp	r2, r4
 8003e7a:	d007      	beq.n	8003e8c <HAL_TIM_ConfigClockSource+0x78>
 8003e7c:	f504 6480 	add.w	r4, r4, #1024	@ 0x400
 8003e80:	42a2      	cmp	r2, r4
 8003e82:	d003      	beq.n	8003e8c <HAL_TIM_ConfigClockSource+0x78>
 8003e84:	f504 6400 	add.w	r4, r4, #2048	@ 0x800
 8003e88:	42a2      	cmp	r2, r4
 8003e8a:	d103      	bne.n	8003e94 <HAL_TIM_ConfigClockSource+0x80>
 8003e8c:	6a14      	ldr	r4, [r2, #32]
 8003e8e:	f024 0404 	bic.w	r4, r4, #4
 8003e92:	6214      	str	r4, [r2, #32]
 8003e94:	f021 010a 	bic.w	r1, r1, #10
 8003e98:	4308      	orrs	r0, r1
 8003e9a:	6991      	ldr	r1, [r2, #24]
 8003e9c:	f021 01f0 	bic.w	r1, r1, #240	@ 0xf0
 8003ea0:	ea41 1105 	orr.w	r1, r1, r5, lsl #4
 8003ea4:	6191      	str	r1, [r2, #24]
 8003ea6:	6210      	str	r0, [r2, #32]
 8003ea8:	6891      	ldr	r1, [r2, #8]
 8003eaa:	f421 1140 	bic.w	r1, r1, #3145728	@ 0x300000
 8003eae:	f021 0170 	bic.w	r1, r1, #112	@ 0x70
 8003eb2:	f041 0147 	orr.w	r1, r1, #71	@ 0x47
 8003eb6:	6091      	str	r1, [r2, #8]
 8003eb8:	e036      	b.n	8003f28 <HAL_TIM_ConfigClockSource+0x114>
 8003eba:	f5b4 5f00 	cmp.w	r4, #8192	@ 0x2000
 8003ebe:	d068      	beq.n	8003f92 <HAL_TIM_ConfigClockSource+0x17e>
 8003ec0:	d834      	bhi.n	8003f2c <HAL_TIM_ConfigClockSource+0x118>
 8003ec2:	f5b4 5080 	subs.w	r0, r4, #4096	@ 0x1000
 8003ec6:	bf18      	it	ne
 8003ec8:	2001      	movne	r0, #1
 8003eca:	2101      	movs	r1, #1
 8003ecc:	2200      	movs	r2, #0
 8003ece:	f883 103d 	strb.w	r1, [r3, #61]	@ 0x3d
 8003ed2:	f883 203c 	strb.w	r2, [r3, #60]	@ 0x3c
 8003ed6:	bc30      	pop	{r4, r5}
 8003ed8:	4770      	bx	lr
 8003eda:	2c60      	cmp	r4, #96	@ 0x60
 8003edc:	d1f5      	bne.n	8003eca <HAL_TIM_ConfigClockSource+0xb6>
 8003ede:	684d      	ldr	r5, [r1, #4]
 8003ee0:	68cc      	ldr	r4, [r1, #12]
 8003ee2:	6a11      	ldr	r1, [r2, #32]
 8003ee4:	6a10      	ldr	r0, [r2, #32]
 8003ee6:	f020 0010 	bic.w	r0, r0, #16
 8003eea:	6210      	str	r0, [r2, #32]
 8003eec:	4858      	ldr	r0, [pc, #352]	@ (8004050 <HAL_TIM_ConfigClockSource+0x23c>)
 8003eee:	4282      	cmp	r2, r0
 8003ef0:	d02b      	beq.n	8003f4a <HAL_TIM_ConfigClockSource+0x136>
 8003ef2:	f500 6000 	add.w	r0, r0, #2048	@ 0x800
 8003ef6:	4282      	cmp	r2, r0
 8003ef8:	d027      	beq.n	8003f4a <HAL_TIM_ConfigClockSource+0x136>
 8003efa:	f500 50e0 	add.w	r0, r0, #7168	@ 0x1c00
 8003efe:	4282      	cmp	r2, r0
 8003f00:	d023      	beq.n	8003f4a <HAL_TIM_ConfigClockSource+0x136>
 8003f02:	6990      	ldr	r0, [r2, #24]
 8003f04:	f021 01a0 	bic.w	r1, r1, #160	@ 0xa0
 8003f08:	f420 4070 	bic.w	r0, r0, #61440	@ 0xf000
 8003f0c:	ea41 1105 	orr.w	r1, r1, r5, lsl #4
 8003f10:	ea40 3004 	orr.w	r0, r0, r4, lsl #12
 8003f14:	6190      	str	r0, [r2, #24]
 8003f16:	6211      	str	r1, [r2, #32]
 8003f18:	6891      	ldr	r1, [r2, #8]
 8003f1a:	f421 1140 	bic.w	r1, r1, #3145728	@ 0x300000
 8003f1e:	f021 0170 	bic.w	r1, r1, #112	@ 0x70
 8003f22:	f041 0167 	orr.w	r1, r1, #103	@ 0x67
 8003f26:	6091      	str	r1, [r2, #8]
 8003f28:	2000      	movs	r0, #0
 8003f2a:	e7ce      	b.n	8003eca <HAL_TIM_ConfigClockSource+0xb6>
 8003f2c:	4949      	ldr	r1, [pc, #292]	@ (8004054 <HAL_TIM_ConfigClockSource+0x240>)
 8003f2e:	428c      	cmp	r4, r1
 8003f30:	d013      	beq.n	8003f5a <HAL_TIM_ConfigClockSource+0x146>
 8003f32:	d87d      	bhi.n	8004030 <HAL_TIM_ConfigClockSource+0x21c>
 8003f34:	3920      	subs	r1, #32
 8003f36:	428c      	cmp	r4, r1
 8003f38:	d00f      	beq.n	8003f5a <HAL_TIM_ConfigClockSource+0x146>
 8003f3a:	d80b      	bhi.n	8003f54 <HAL_TIM_ConfigClockSource+0x140>
 8003f3c:	f024 0110 	bic.w	r1, r4, #16
 8003f40:	f5b1 1f80 	cmp.w	r1, #1048576	@ 0x100000
 8003f44:	d009      	beq.n	8003f5a <HAL_TIM_ConfigClockSource+0x146>
 8003f46:	2001      	movs	r0, #1
 8003f48:	e7bf      	b.n	8003eca <HAL_TIM_ConfigClockSource+0xb6>
 8003f4a:	6a10      	ldr	r0, [r2, #32]
 8003f4c:	f020 0040 	bic.w	r0, r0, #64	@ 0x40
 8003f50:	6210      	str	r0, [r2, #32]
 8003f52:	e7d6      	b.n	8003f02 <HAL_TIM_ConfigClockSource+0xee>
 8003f54:	4940      	ldr	r1, [pc, #256]	@ (8004058 <HAL_TIM_ConfigClockSource+0x244>)
 8003f56:	428c      	cmp	r4, r1
 8003f58:	d1f5      	bne.n	8003f46 <HAL_TIM_ConfigClockSource+0x132>
 8003f5a:	6891      	ldr	r1, [r2, #8]
 8003f5c:	f421 1140 	bic.w	r1, r1, #3145728	@ 0x300000
 8003f60:	f021 0170 	bic.w	r1, r1, #112	@ 0x70
 8003f64:	4321      	orrs	r1, r4
 8003f66:	f041 0107 	orr.w	r1, r1, #7
 8003f6a:	6091      	str	r1, [r2, #8]
 8003f6c:	e7dc      	b.n	8003f28 <HAL_TIM_ConfigClockSource+0x114>
 8003f6e:	2002      	movs	r0, #2
 8003f70:	4770      	bx	lr
 8003f72:	e9d1 5001 	ldrd	r5, r0, [r1, #4]
 8003f76:	6894      	ldr	r4, [r2, #8]
 8003f78:	4328      	orrs	r0, r5
 8003f7a:	68cd      	ldr	r5, [r1, #12]
 8003f7c:	f424 417f 	bic.w	r1, r4, #65280	@ 0xff00
 8003f80:	ea40 2005 	orr.w	r0, r0, r5, lsl #8
 8003f84:	4308      	orrs	r0, r1
 8003f86:	6090      	str	r0, [r2, #8]
 8003f88:	6891      	ldr	r1, [r2, #8]
 8003f8a:	f041 0177 	orr.w	r1, r1, #119	@ 0x77
 8003f8e:	6091      	str	r1, [r2, #8]
 8003f90:	e7ca      	b.n	8003f28 <HAL_TIM_ConfigClockSource+0x114>
 8003f92:	e9d1 5001 	ldrd	r5, r0, [r1, #4]
 8003f96:	6894      	ldr	r4, [r2, #8]
 8003f98:	4328      	orrs	r0, r5
 8003f9a:	68cd      	ldr	r5, [r1, #12]
 8003f9c:	f424 417f 	bic.w	r1, r4, #65280	@ 0xff00
 8003fa0:	ea40 2005 	orr.w	r0, r0, r5, lsl #8
 8003fa4:	4308      	orrs	r0, r1
 8003fa6:	6090      	str	r0, [r2, #8]
 8003fa8:	6891      	ldr	r1, [r2, #8]
 8003faa:	f441 4180 	orr.w	r1, r1, #16384	@ 0x4000
 8003fae:	6091      	str	r1, [r2, #8]
 8003fb0:	e7ba      	b.n	8003f28 <HAL_TIM_ConfigClockSource+0x114>
 8003fb2:	6848      	ldr	r0, [r1, #4]
 8003fb4:	68cd      	ldr	r5, [r1, #12]
 8003fb6:	6a11      	ldr	r1, [r2, #32]
 8003fb8:	6a14      	ldr	r4, [r2, #32]
 8003fba:	f024 0401 	bic.w	r4, r4, #1
 8003fbe:	6214      	str	r4, [r2, #32]
 8003fc0:	4c23      	ldr	r4, [pc, #140]	@ (8004050 <HAL_TIM_ConfigClockSource+0x23c>)
 8003fc2:	42a2      	cmp	r2, r4
 8003fc4:	d013      	beq.n	8003fee <HAL_TIM_ConfigClockSource+0x1da>
 8003fc6:	f504 6400 	add.w	r4, r4, #2048	@ 0x800
 8003fca:	42a2      	cmp	r2, r4
 8003fcc:	d00f      	beq.n	8003fee <HAL_TIM_ConfigClockSource+0x1da>
 8003fce:	f504 6440 	add.w	r4, r4, #3072	@ 0xc00
 8003fd2:	42a2      	cmp	r2, r4
 8003fd4:	d00b      	beq.n	8003fee <HAL_TIM_ConfigClockSource+0x1da>
 8003fd6:	f504 6480 	add.w	r4, r4, #1024	@ 0x400
 8003fda:	42a2      	cmp	r2, r4
 8003fdc:	d007      	beq.n	8003fee <HAL_TIM_ConfigClockSource+0x1da>
 8003fde:	f504 6480 	add.w	r4, r4, #1024	@ 0x400
 8003fe2:	42a2      	cmp	r2, r4
 8003fe4:	d003      	beq.n	8003fee <HAL_TIM_ConfigClockSource+0x1da>
 8003fe6:	f504 6400 	add.w	r4, r4, #2048	@ 0x800
 8003fea:	42a2      	cmp	r2, r4
 8003fec:	d103      	bne.n	8003ff6 <HAL_TIM_ConfigClockSource+0x1e2>
 8003fee:	6a14      	ldr	r4, [r2, #32]
 8003ff0:	f024 0404 	bic.w	r4, r4, #4
 8003ff4:	6214      	str	r4, [r2, #32]
 8003ff6:	f021 010a 	bic.w	r1, r1, #10
 8003ffa:	4308      	orrs	r0, r1
 8003ffc:	6991      	ldr	r1, [r2, #24]
 8003ffe:	f021 01f0 	bic.w	r1, r1, #240	@ 0xf0
 8004002:	ea41 1105 	orr.w	r1, r1, r5, lsl #4
 8004006:	6191      	str	r1, [r2, #24]
 8004008:	6210      	str	r0, [r2, #32]
 800400a:	6891      	ldr	r1, [r2, #8]
 800400c:	f421 1140 	bic.w	r1, r1, #3145728	@ 0x300000
 8004010:	f021 0170 	bic.w	r1, r1, #112	@ 0x70
 8004014:	f041 0157 	orr.w	r1, r1, #87	@ 0x57
 8004018:	6091      	str	r1, [r2, #8]
 800401a:	e785      	b.n	8003f28 <HAL_TIM_ConfigClockSource+0x114>
 800401c:	f63f af55 	bhi.w	8003eca <HAL_TIM_ConfigClockSource+0xb6>
 8004020:	2c20      	cmp	r4, #32
 8004022:	d09a      	beq.n	8003f5a <HAL_TIM_ConfigClockSource+0x146>
 8004024:	d80e      	bhi.n	8004044 <HAL_TIM_ConfigClockSource+0x230>
 8004026:	f034 0110 	bics.w	r1, r4, #16
 800402a:	f47f af4e 	bne.w	8003eca <HAL_TIM_ConfigClockSource+0xb6>
 800402e:	e794      	b.n	8003f5a <HAL_TIM_ConfigClockSource+0x146>
 8004030:	490a      	ldr	r1, [pc, #40]	@ (800405c <HAL_TIM_ConfigClockSource+0x248>)
 8004032:	428c      	cmp	r4, r1
 8004034:	d091      	beq.n	8003f5a <HAL_TIM_ConfigClockSource+0x146>
 8004036:	f024 0520 	bic.w	r5, r4, #32
 800403a:	3910      	subs	r1, #16
 800403c:	428d      	cmp	r5, r1
 800403e:	f47f af44 	bne.w	8003eca <HAL_TIM_ConfigClockSource+0xb6>
 8004042:	e78a      	b.n	8003f5a <HAL_TIM_ConfigClockSource+0x146>
 8004044:	2c30      	cmp	r4, #48	@ 0x30
 8004046:	d088      	beq.n	8003f5a <HAL_TIM_ConfigClockSource+0x146>
 8004048:	e77d      	b.n	8003f46 <HAL_TIM_ConfigClockSource+0x132>
 800404a:	bf00      	nop
 800404c:	ffce0088 	.word	0xffce0088
 8004050:	40012c00 	.word	0x40012c00
 8004054:	00100040 	.word	0x00100040
 8004058:	00100030 	.word	0x00100030
 800405c:	00100060 	.word	0x00100060

08004060 <HAL_TIM_OC_DelayElapsedCallback>:
 8004060:	4770      	bx	lr
 8004062:	bf00      	nop

08004064 <HAL_TIM_IC_CaptureCallback>:
 8004064:	4770      	bx	lr
 8004066:	bf00      	nop

08004068 <HAL_TIM_PWM_PulseFinishedCallback>:
 8004068:	4770      	bx	lr
 800406a:	bf00      	nop

0800406c <HAL_TIM_TriggerCallback>:
 800406c:	4770      	bx	lr
 800406e:	bf00      	nop

08004070 <HAL_TIM_IRQHandler>:
 8004070:	6803      	ldr	r3, [r0, #0]
 8004072:	b570      	push	{r4, r5, r6, lr}
 8004074:	68de      	ldr	r6, [r3, #12]
 8004076:	691c      	ldr	r4, [r3, #16]
 8004078:	07a2      	lsls	r2, r4, #30
 800407a:	4605      	mov	r5, r0
 800407c:	d501      	bpl.n	8004082 <HAL_TIM_IRQHandler+0x12>
 800407e:	07b1      	lsls	r1, r6, #30
 8004080:	d470      	bmi.n	8004164 <HAL_TIM_IRQHandler+0xf4>
 8004082:	0763      	lsls	r3, r4, #29
 8004084:	d501      	bpl.n	800408a <HAL_TIM_IRQHandler+0x1a>
 8004086:	0770      	lsls	r0, r6, #29
 8004088:	d459      	bmi.n	800413e <HAL_TIM_IRQHandler+0xce>
 800408a:	0721      	lsls	r1, r4, #28
 800408c:	d501      	bpl.n	8004092 <HAL_TIM_IRQHandler+0x22>
 800408e:	0732      	lsls	r2, r6, #28
 8004090:	d443      	bmi.n	800411a <HAL_TIM_IRQHandler+0xaa>
 8004092:	06e0      	lsls	r0, r4, #27
 8004094:	d501      	bpl.n	800409a <HAL_TIM_IRQHandler+0x2a>
 8004096:	06f1      	lsls	r1, r6, #27
 8004098:	d42b      	bmi.n	80040f2 <HAL_TIM_IRQHandler+0x82>
 800409a:	07e2      	lsls	r2, r4, #31
 800409c:	d501      	bpl.n	80040a2 <HAL_TIM_IRQHandler+0x32>
 800409e:	07f3      	lsls	r3, r6, #31
 80040a0:	d479      	bmi.n	8004196 <HAL_TIM_IRQHandler+0x126>
 80040a2:	f414 5f02 	tst.w	r4, #8320	@ 0x2080
 80040a6:	d01f      	beq.n	80040e8 <HAL_TIM_IRQHandler+0x78>
 80040a8:	0630      	lsls	r0, r6, #24
 80040aa:	d47c      	bmi.n	80041a6 <HAL_TIM_IRQHandler+0x136>
 80040ac:	0660      	lsls	r0, r4, #25
 80040ae:	d502      	bpl.n	80040b6 <HAL_TIM_IRQHandler+0x46>
 80040b0:	0671      	lsls	r1, r6, #25
 80040b2:	f100 808a 	bmi.w	80041ca <HAL_TIM_IRQHandler+0x15a>
 80040b6:	06a2      	lsls	r2, r4, #26
 80040b8:	d502      	bpl.n	80040c0 <HAL_TIM_IRQHandler+0x50>
 80040ba:	06b3      	lsls	r3, r6, #26
 80040bc:	f100 808d 	bmi.w	80041da <HAL_TIM_IRQHandler+0x16a>
 80040c0:	02e0      	lsls	r0, r4, #11
 80040c2:	d502      	bpl.n	80040ca <HAL_TIM_IRQHandler+0x5a>
 80040c4:	02f1      	lsls	r1, r6, #11
 80040c6:	f100 8090 	bmi.w	80041ea <HAL_TIM_IRQHandler+0x17a>
 80040ca:	02a2      	lsls	r2, r4, #10
 80040cc:	d502      	bpl.n	80040d4 <HAL_TIM_IRQHandler+0x64>
 80040ce:	02b3      	lsls	r3, r6, #10
 80040d0:	f100 8093 	bmi.w	80041fa <HAL_TIM_IRQHandler+0x18a>
 80040d4:	0260      	lsls	r0, r4, #9
 80040d6:	d502      	bpl.n	80040de <HAL_TIM_IRQHandler+0x6e>
 80040d8:	0271      	lsls	r1, r6, #9
 80040da:	f100 8096 	bmi.w	800420a <HAL_TIM_IRQHandler+0x19a>
 80040de:	0222      	lsls	r2, r4, #8
 80040e0:	d501      	bpl.n	80040e6 <HAL_TIM_IRQHandler+0x76>
 80040e2:	0233      	lsls	r3, r6, #8
 80040e4:	d44e      	bmi.n	8004184 <HAL_TIM_IRQHandler+0x114>
 80040e6:	bd70      	pop	{r4, r5, r6, pc}
 80040e8:	05e2      	lsls	r2, r4, #23
 80040ea:	d5df      	bpl.n	80040ac <HAL_TIM_IRQHandler+0x3c>
 80040ec:	0633      	lsls	r3, r6, #24
 80040ee:	d464      	bmi.n	80041ba <HAL_TIM_IRQHandler+0x14a>
 80040f0:	e7dc      	b.n	80040ac <HAL_TIM_IRQHandler+0x3c>
 80040f2:	682b      	ldr	r3, [r5, #0]
 80040f4:	f06f 0210 	mvn.w	r2, #16
 80040f8:	611a      	str	r2, [r3, #16]
 80040fa:	2208      	movs	r2, #8
 80040fc:	772a      	strb	r2, [r5, #28]
 80040fe:	69db      	ldr	r3, [r3, #28]
 8004100:	f413 7f40 	tst.w	r3, #768	@ 0x300
 8004104:	4628      	mov	r0, r5
 8004106:	f040 8091 	bne.w	800422c <HAL_TIM_IRQHandler+0x1bc>
 800410a:	f7ff ffa9 	bl	8004060 <HAL_TIM_OC_DelayElapsedCallback>
 800410e:	4628      	mov	r0, r5
 8004110:	f7ff ffaa 	bl	8004068 <HAL_TIM_PWM_PulseFinishedCallback>
 8004114:	2300      	movs	r3, #0
 8004116:	772b      	strb	r3, [r5, #28]
 8004118:	e7bf      	b.n	800409a <HAL_TIM_IRQHandler+0x2a>
 800411a:	682b      	ldr	r3, [r5, #0]
 800411c:	f06f 0208 	mvn.w	r2, #8
 8004120:	611a      	str	r2, [r3, #16]
 8004122:	2204      	movs	r2, #4
 8004124:	772a      	strb	r2, [r5, #28]
 8004126:	69db      	ldr	r3, [r3, #28]
 8004128:	079b      	lsls	r3, r3, #30
 800412a:	4628      	mov	r0, r5
 800412c:	d17b      	bne.n	8004226 <HAL_TIM_IRQHandler+0x1b6>
 800412e:	f7ff ff97 	bl	8004060 <HAL_TIM_OC_DelayElapsedCallback>
 8004132:	4628      	mov	r0, r5
 8004134:	f7ff ff98 	bl	8004068 <HAL_TIM_PWM_PulseFinishedCallback>
 8004138:	2300      	movs	r3, #0
 800413a:	772b      	strb	r3, [r5, #28]
 800413c:	e7a9      	b.n	8004092 <HAL_TIM_IRQHandler+0x22>
 800413e:	682b      	ldr	r3, [r5, #0]
 8004140:	f06f 0204 	mvn.w	r2, #4
 8004144:	611a      	str	r2, [r3, #16]
 8004146:	2202      	movs	r2, #2
 8004148:	772a      	strb	r2, [r5, #28]
 800414a:	699b      	ldr	r3, [r3, #24]
 800414c:	f413 7f40 	tst.w	r3, #768	@ 0x300
 8004150:	4628      	mov	r0, r5
 8004152:	d165      	bne.n	8004220 <HAL_TIM_IRQHandler+0x1b0>
 8004154:	f7ff ff84 	bl	8004060 <HAL_TIM_OC_DelayElapsedCallback>
 8004158:	4628      	mov	r0, r5
 800415a:	f7ff ff85 	bl	8004068 <HAL_TIM_PWM_PulseFinishedCallback>
 800415e:	2300      	movs	r3, #0
 8004160:	772b      	strb	r3, [r5, #28]
 8004162:	e792      	b.n	800408a <HAL_TIM_IRQHandler+0x1a>
 8004164:	f06f 0202 	mvn.w	r2, #2
 8004168:	611a      	str	r2, [r3, #16]
 800416a:	2201      	movs	r2, #1
 800416c:	7702      	strb	r2, [r0, #28]
 800416e:	699b      	ldr	r3, [r3, #24]
 8004170:	079a      	lsls	r2, r3, #30
 8004172:	d152      	bne.n	800421a <HAL_TIM_IRQHandler+0x1aa>
 8004174:	f7ff ff74 	bl	8004060 <HAL_TIM_OC_DelayElapsedCallback>
 8004178:	4628      	mov	r0, r5
 800417a:	f7ff ff75 	bl	8004068 <HAL_TIM_PWM_PulseFinishedCallback>
 800417e:	2300      	movs	r3, #0
 8004180:	772b      	strb	r3, [r5, #28]
 8004182:	e77e      	b.n	8004082 <HAL_TIM_IRQHandler+0x12>
 8004184:	682b      	ldr	r3, [r5, #0]
 8004186:	f46f 0200 	mvn.w	r2, #8388608	@ 0x800000
 800418a:	4628      	mov	r0, r5
 800418c:	611a      	str	r2, [r3, #16]
 800418e:	e8bd 4070 	ldmia.w	sp!, {r4, r5, r6, lr}
 8004192:	f000 b9ed 	b.w	8004570 <HAL_TIMEx_TransitionErrorCallback>
 8004196:	682b      	ldr	r3, [r5, #0]
 8004198:	f06f 0201 	mvn.w	r2, #1
 800419c:	611a      	str	r2, [r3, #16]
 800419e:	4628      	mov	r0, r5
 80041a0:	f7fd f8dc 	bl	800135c <HAL_TIM_PeriodElapsedCallback>
 80041a4:	e77d      	b.n	80040a2 <HAL_TIM_IRQHandler+0x32>
 80041a6:	682b      	ldr	r3, [r5, #0]
 80041a8:	f46f 5202 	mvn.w	r2, #8320	@ 0x2080
 80041ac:	611a      	str	r2, [r3, #16]
 80041ae:	4628      	mov	r0, r5
 80041b0:	f000 f9d4 	bl	800455c <HAL_TIMEx_BreakCallback>
 80041b4:	05e1      	lsls	r1, r4, #23
 80041b6:	f57f af79 	bpl.w	80040ac <HAL_TIM_IRQHandler+0x3c>
 80041ba:	682b      	ldr	r3, [r5, #0]
 80041bc:	f46f 7280 	mvn.w	r2, #256	@ 0x100
 80041c0:	611a      	str	r2, [r3, #16]
 80041c2:	4628      	mov	r0, r5
 80041c4:	f000 f9cc 	bl	8004560 <HAL_TIMEx_Break2Callback>
 80041c8:	e770      	b.n	80040ac <HAL_TIM_IRQHandler+0x3c>
 80041ca:	682b      	ldr	r3, [r5, #0]
 80041cc:	f06f 0240 	mvn.w	r2, #64	@ 0x40
 80041d0:	611a      	str	r2, [r3, #16]
 80041d2:	4628      	mov	r0, r5
 80041d4:	f7ff ff4a 	bl	800406c <HAL_TIM_TriggerCallback>
 80041d8:	e76d      	b.n	80040b6 <HAL_TIM_IRQHandler+0x46>
 80041da:	682b      	ldr	r3, [r5, #0]
 80041dc:	f06f 0220 	mvn.w	r2, #32
 80041e0:	611a      	str	r2, [r3, #16]
 80041e2:	4628      	mov	r0, r5
 80041e4:	f000 f9b8 	bl	8004558 <HAL_TIMEx_CommutCallback>
 80041e8:	e76a      	b.n	80040c0 <HAL_TIM_IRQHandler+0x50>
 80041ea:	682b      	ldr	r3, [r5, #0]
 80041ec:	f46f 1280 	mvn.w	r2, #1048576	@ 0x100000
 80041f0:	611a      	str	r2, [r3, #16]
 80041f2:	4628      	mov	r0, r5
 80041f4:	f000 f9b6 	bl	8004564 <HAL_TIMEx_EncoderIndexCallback>
 80041f8:	e767      	b.n	80040ca <HAL_TIM_IRQHandler+0x5a>
 80041fa:	682b      	ldr	r3, [r5, #0]
 80041fc:	f46f 1200 	mvn.w	r2, #2097152	@ 0x200000
 8004200:	611a      	str	r2, [r3, #16]
 8004202:	4628      	mov	r0, r5
 8004204:	f000 f9b0 	bl	8004568 <HAL_TIMEx_DirectionChangeCallback>
 8004208:	e764      	b.n	80040d4 <HAL_TIM_IRQHandler+0x64>
 800420a:	682b      	ldr	r3, [r5, #0]
 800420c:	f46f 0280 	mvn.w	r2, #4194304	@ 0x400000
 8004210:	611a      	str	r2, [r3, #16]
 8004212:	4628      	mov	r0, r5
 8004214:	f000 f9aa 	bl	800456c <HAL_TIMEx_IndexErrorCallback>
 8004218:	e761      	b.n	80040de <HAL_TIM_IRQHandler+0x6e>
 800421a:	f7ff ff23 	bl	8004064 <HAL_TIM_IC_CaptureCallback>
 800421e:	e7ae      	b.n	800417e <HAL_TIM_IRQHandler+0x10e>
 8004220:	f7ff ff20 	bl	8004064 <HAL_TIM_IC_CaptureCallback>
 8004224:	e79b      	b.n	800415e <HAL_TIM_IRQHandler+0xee>
 8004226:	f7ff ff1d 	bl	8004064 <HAL_TIM_IC_CaptureCallback>
 800422a:	e785      	b.n	8004138 <HAL_TIM_IRQHandler+0xc8>
 800422c:	f7ff ff1a 	bl	8004064 <HAL_TIM_IC_CaptureCallback>
 8004230:	e770      	b.n	8004114 <HAL_TIM_IRQHandler+0xa4>
 8004232:	bf00      	nop

08004234 <TIM_OC2_SetConfig>:
 8004234:	6a03      	ldr	r3, [r0, #32]
 8004236:	6a02      	ldr	r2, [r0, #32]
 8004238:	f022 0210 	bic.w	r2, r2, #16
 800423c:	b470      	push	{r4, r5, r6}
 800423e:	6202      	str	r2, [r0, #32]
 8004240:	6844      	ldr	r4, [r0, #4]
 8004242:	6982      	ldr	r2, [r0, #24]
 8004244:	680d      	ldr	r5, [r1, #0]
 8004246:	f022 7280 	bic.w	r2, r2, #16777216	@ 0x1000000
 800424a:	f422 42e6 	bic.w	r2, r2, #29440	@ 0x7300
 800424e:	ea42 2205 	orr.w	r2, r2, r5, lsl #8
 8004252:	688d      	ldr	r5, [r1, #8]
 8004254:	f023 0320 	bic.w	r3, r3, #32
 8004258:	ea43 1305 	orr.w	r3, r3, r5, lsl #4
 800425c:	4d17      	ldr	r5, [pc, #92]	@ (80042bc <TIM_OC2_SetConfig+0x88>)
 800425e:	42a8      	cmp	r0, r5
 8004260:	d013      	beq.n	800428a <TIM_OC2_SetConfig+0x56>
 8004262:	f505 6500 	add.w	r5, r5, #2048	@ 0x800
 8004266:	42a8      	cmp	r0, r5
 8004268:	d00f      	beq.n	800428a <TIM_OC2_SetConfig+0x56>
 800426a:	f505 55e0 	add.w	r5, r5, #7168	@ 0x1c00
 800426e:	42a8      	cmp	r0, r5
 8004270:	d00b      	beq.n	800428a <TIM_OC2_SetConfig+0x56>
 8004272:	f5a5 5580 	sub.w	r5, r5, #4096	@ 0x1000
 8004276:	42a8      	cmp	r0, r5
 8004278:	d010      	beq.n	800429c <TIM_OC2_SetConfig+0x68>
 800427a:	4d11      	ldr	r5, [pc, #68]	@ (80042c0 <TIM_OC2_SetConfig+0x8c>)
 800427c:	42a8      	cmp	r0, r5
 800427e:	d00d      	beq.n	800429c <TIM_OC2_SetConfig+0x68>
 8004280:	f505 6580 	add.w	r5, r5, #1024	@ 0x400
 8004284:	42a8      	cmp	r0, r5
 8004286:	d111      	bne.n	80042ac <TIM_OC2_SetConfig+0x78>
 8004288:	e008      	b.n	800429c <TIM_OC2_SetConfig+0x68>
 800428a:	6a05      	ldr	r5, [r0, #32]
 800428c:	f025 0540 	bic.w	r5, r5, #64	@ 0x40
 8004290:	6205      	str	r5, [r0, #32]
 8004292:	68cd      	ldr	r5, [r1, #12]
 8004294:	f023 0380 	bic.w	r3, r3, #128	@ 0x80
 8004298:	ea43 1305 	orr.w	r3, r3, r5, lsl #4
 800429c:	e9d1 6505 	ldrd	r6, r5, [r1, #20]
 80042a0:	f424 6440 	bic.w	r4, r4, #3072	@ 0xc00
 80042a4:	ea46 0c05 	orr.w	ip, r6, r5
 80042a8:	ea44 048c 	orr.w	r4, r4, ip, lsl #2
 80042ac:	6849      	ldr	r1, [r1, #4]
 80042ae:	6044      	str	r4, [r0, #4]
 80042b0:	6182      	str	r2, [r0, #24]
 80042b2:	bc70      	pop	{r4, r5, r6}
 80042b4:	6381      	str	r1, [r0, #56]	@ 0x38
 80042b6:	6203      	str	r3, [r0, #32]
 80042b8:	4770      	bx	lr
 80042ba:	bf00      	nop
 80042bc:	40012c00 	.word	0x40012c00
 80042c0:	40014400 	.word	0x40014400

080042c4 <HAL_TIM_OC_ConfigChannel>:
 80042c4:	f890 303c 	ldrb.w	r3, [r0, #60]	@ 0x3c
 80042c8:	2b01      	cmp	r3, #1
 80042ca:	f000 8095 	beq.w	80043f8 <HAL_TIM_OC_ConfigChannel+0x134>
 80042ce:	b570      	push	{r4, r5, r6, lr}
 80042d0:	4604      	mov	r4, r0
 80042d2:	2a14      	cmp	r2, #20
 80042d4:	d80c      	bhi.n	80042f0 <HAL_TIM_OC_ConfigChannel+0x2c>
 80042d6:	e8df f002 	tbb	[pc, r2]
 80042da:	0b46      	.short	0x0b46
 80042dc:	0b4e0b0b 	.word	0x0b4e0b0b
 80042e0:	0b520b0b 	.word	0x0b520b0b
 80042e4:	0b560b0b 	.word	0x0b560b0b
 80042e8:	0b5a0b0b 	.word	0x0b5a0b0b
 80042ec:	0b0b      	.short	0x0b0b
 80042ee:	10          	.byte	0x10
 80042ef:	00          	.byte	0x00
 80042f0:	2300      	movs	r3, #0
 80042f2:	f884 303c 	strb.w	r3, [r4, #60]	@ 0x3c
 80042f6:	2001      	movs	r0, #1
 80042f8:	bd70      	pop	{r4, r5, r6, pc}
 80042fa:	6803      	ldr	r3, [r0, #0]
 80042fc:	680e      	ldr	r6, [r1, #0]
 80042fe:	6a1a      	ldr	r2, [r3, #32]
 8004300:	6a18      	ldr	r0, [r3, #32]
 8004302:	f420 1080 	bic.w	r0, r0, #1048576	@ 0x100000
 8004306:	6218      	str	r0, [r3, #32]
 8004308:	685d      	ldr	r5, [r3, #4]
 800430a:	6d18      	ldr	r0, [r3, #80]	@ 0x50
 800430c:	f020 7080 	bic.w	r0, r0, #16777216	@ 0x1000000
 8004310:	f420 40e0 	bic.w	r0, r0, #28672	@ 0x7000
 8004314:	ea40 2006 	orr.w	r0, r0, r6, lsl #8
 8004318:	688e      	ldr	r6, [r1, #8]
 800431a:	f422 1200 	bic.w	r2, r2, #2097152	@ 0x200000
 800431e:	ea42 5206 	orr.w	r2, r2, r6, lsl #20
 8004322:	4e36      	ldr	r6, [pc, #216]	@ (80043fc <HAL_TIM_OC_ConfigChannel+0x138>)
 8004324:	42b3      	cmp	r3, r6
 8004326:	d013      	beq.n	8004350 <HAL_TIM_OC_ConfigChannel+0x8c>
 8004328:	f506 6600 	add.w	r6, r6, #2048	@ 0x800
 800432c:	42b3      	cmp	r3, r6
 800432e:	d00f      	beq.n	8004350 <HAL_TIM_OC_ConfigChannel+0x8c>
 8004330:	f506 6640 	add.w	r6, r6, #3072	@ 0xc00
 8004334:	42b3      	cmp	r3, r6
 8004336:	d00b      	beq.n	8004350 <HAL_TIM_OC_ConfigChannel+0x8c>
 8004338:	f506 6680 	add.w	r6, r6, #1024	@ 0x400
 800433c:	42b3      	cmp	r3, r6
 800433e:	d007      	beq.n	8004350 <HAL_TIM_OC_ConfigChannel+0x8c>
 8004340:	f506 6680 	add.w	r6, r6, #1024	@ 0x400
 8004344:	42b3      	cmp	r3, r6
 8004346:	d003      	beq.n	8004350 <HAL_TIM_OC_ConfigChannel+0x8c>
 8004348:	f506 6600 	add.w	r6, r6, #2048	@ 0x800
 800434c:	42b3      	cmp	r3, r6
 800434e:	d104      	bne.n	800435a <HAL_TIM_OC_ConfigChannel+0x96>
 8004350:	694e      	ldr	r6, [r1, #20]
 8004352:	f425 2580 	bic.w	r5, r5, #262144	@ 0x40000
 8004356:	ea45 2586 	orr.w	r5, r5, r6, lsl #10
 800435a:	6849      	ldr	r1, [r1, #4]
 800435c:	605d      	str	r5, [r3, #4]
 800435e:	6518      	str	r0, [r3, #80]	@ 0x50
 8004360:	64d9      	str	r1, [r3, #76]	@ 0x4c
 8004362:	621a      	str	r2, [r3, #32]
 8004364:	e002      	b.n	800436c <HAL_TIM_OC_ConfigChannel+0xa8>
 8004366:	6800      	ldr	r0, [r0, #0]
 8004368:	f7ff fb06 	bl	8003978 <TIM_OC1_SetConfig>
 800436c:	2300      	movs	r3, #0
 800436e:	f884 303c 	strb.w	r3, [r4, #60]	@ 0x3c
 8004372:	2000      	movs	r0, #0
 8004374:	bd70      	pop	{r4, r5, r6, pc}
 8004376:	6800      	ldr	r0, [r0, #0]
 8004378:	f7ff ff5c 	bl	8004234 <TIM_OC2_SetConfig>
 800437c:	e7f6      	b.n	800436c <HAL_TIM_OC_ConfigChannel+0xa8>
 800437e:	6800      	ldr	r0, [r0, #0]
 8004380:	f7ff fb3c 	bl	80039fc <TIM_OC3_SetConfig>
 8004384:	e7f2      	b.n	800436c <HAL_TIM_OC_ConfigChannel+0xa8>
 8004386:	6800      	ldr	r0, [r0, #0]
 8004388:	f7ff fb7e 	bl	8003a88 <TIM_OC4_SetConfig>
 800438c:	e7ee      	b.n	800436c <HAL_TIM_OC_ConfigChannel+0xa8>
 800438e:	6803      	ldr	r3, [r0, #0]
 8004390:	680e      	ldr	r6, [r1, #0]
 8004392:	6a1a      	ldr	r2, [r3, #32]
 8004394:	6a18      	ldr	r0, [r3, #32]
 8004396:	f420 3080 	bic.w	r0, r0, #65536	@ 0x10000
 800439a:	6218      	str	r0, [r3, #32]
 800439c:	685d      	ldr	r5, [r3, #4]
 800439e:	6d18      	ldr	r0, [r3, #80]	@ 0x50
 80043a0:	f420 3080 	bic.w	r0, r0, #65536	@ 0x10000
 80043a4:	f020 0070 	bic.w	r0, r0, #112	@ 0x70
 80043a8:	4330      	orrs	r0, r6
 80043aa:	688e      	ldr	r6, [r1, #8]
 80043ac:	f422 3200 	bic.w	r2, r2, #131072	@ 0x20000
 80043b0:	ea42 4206 	orr.w	r2, r2, r6, lsl #16
 80043b4:	4e11      	ldr	r6, [pc, #68]	@ (80043fc <HAL_TIM_OC_ConfigChannel+0x138>)
 80043b6:	42b3      	cmp	r3, r6
 80043b8:	d013      	beq.n	80043e2 <HAL_TIM_OC_ConfigChannel+0x11e>
 80043ba:	f506 6600 	add.w	r6, r6, #2048	@ 0x800
 80043be:	42b3      	cmp	r3, r6
 80043c0:	d00f      	beq.n	80043e2 <HAL_TIM_OC_ConfigChannel+0x11e>
 80043c2:	f506 6640 	add.w	r6, r6, #3072	@ 0xc00
 80043c6:	42b3      	cmp	r3, r6
 80043c8:	d00b      	beq.n	80043e2 <HAL_TIM_OC_ConfigChannel+0x11e>
 80043ca:	f506 6680 	add.w	r6, r6, #1024	@ 0x400
 80043ce:	42b3      	cmp	r3, r6
 80043d0:	d007      	beq.n	80043e2 <HAL_TIM_OC_ConfigChannel+0x11e>
 80043d2:	f506 6680 	add.w	r6, r6, #1024	@ 0x400
 80043d6:	42b3      	cmp	r3, r6
 80043d8:	d003      	beq.n	80043e2 <HAL_TIM_OC_ConfigChannel+0x11e>
 80043da:	f506 6600 	add.w	r6, r6, #2048	@ 0x800
 80043de:	42b3      	cmp	r3, r6
 80043e0:	d104      	bne.n	80043ec <HAL_TIM_OC_ConfigChannel+0x128>
 80043e2:	694e      	ldr	r6, [r1, #20]
 80043e4:	f425 3580 	bic.w	r5, r5, #65536	@ 0x10000
 80043e8:	ea45 2506 	orr.w	r5, r5, r6, lsl #8
 80043ec:	6849      	ldr	r1, [r1, #4]
 80043ee:	605d      	str	r5, [r3, #4]
 80043f0:	6518      	str	r0, [r3, #80]	@ 0x50
 80043f2:	6499      	str	r1, [r3, #72]	@ 0x48
 80043f4:	621a      	str	r2, [r3, #32]
 80043f6:	e7b9      	b.n	800436c <HAL_TIM_OC_ConfigChannel+0xa8>
 80043f8:	2002      	movs	r0, #2
 80043fa:	4770      	bx	lr
 80043fc:	40012c00 	.word	0x40012c00

08004400 <HAL_TIMEx_MasterConfigSynchronization>:
 8004400:	f890 303c 	ldrb.w	r3, [r0, #60]	@ 0x3c
 8004404:	2b01      	cmp	r3, #1
 8004406:	d04f      	beq.n	80044a8 <HAL_TIMEx_MasterConfigSynchronization+0xa8>
 8004408:	4684      	mov	ip, r0
 800440a:	4a28      	ldr	r2, [pc, #160]	@ (80044ac <HAL_TIMEx_MasterConfigSynchronization+0xac>)
 800440c:	6800      	ldr	r0, [r0, #0]
 800440e:	2302      	movs	r3, #2
 8004410:	b430      	push	{r4, r5}
 8004412:	4290      	cmp	r0, r2
 8004414:	f88c 303d 	strb.w	r3, [ip, #61]	@ 0x3d
 8004418:	6843      	ldr	r3, [r0, #4]
 800441a:	680d      	ldr	r5, [r1, #0]
 800441c:	6884      	ldr	r4, [r0, #8]
 800441e:	d02d      	beq.n	800447c <HAL_TIMEx_MasterConfigSynchronization+0x7c>
 8004420:	f502 6200 	add.w	r2, r2, #2048	@ 0x800
 8004424:	4290      	cmp	r0, r2
 8004426:	d034      	beq.n	8004492 <HAL_TIMEx_MasterConfigSynchronization+0x92>
 8004428:	f502 52e0 	add.w	r2, r2, #7168	@ 0x1c00
 800442c:	4290      	cmp	r0, r2
 800442e:	d025      	beq.n	800447c <HAL_TIMEx_MasterConfigSynchronization+0x7c>
 8004430:	f023 7300 	bic.w	r3, r3, #33554432	@ 0x2000000
 8004434:	f023 0370 	bic.w	r3, r3, #112	@ 0x70
 8004438:	432b      	orrs	r3, r5
 800443a:	f1b0 4f80 	cmp.w	r0, #1073741824	@ 0x40000000
 800443e:	6043      	str	r3, [r0, #4]
 8004440:	d10c      	bne.n	800445c <HAL_TIMEx_MasterConfigSynchronization+0x5c>
 8004442:	688b      	ldr	r3, [r1, #8]
 8004444:	f024 0480 	bic.w	r4, r4, #128	@ 0x80
 8004448:	431c      	orrs	r4, r3
 800444a:	6084      	str	r4, [r0, #8]
 800444c:	2000      	movs	r0, #0
 800444e:	2301      	movs	r3, #1
 8004450:	f88c 303d 	strb.w	r3, [ip, #61]	@ 0x3d
 8004454:	f88c 003c 	strb.w	r0, [ip, #60]	@ 0x3c
 8004458:	bc30      	pop	{r4, r5}
 800445a:	4770      	bx	lr
 800445c:	4b14      	ldr	r3, [pc, #80]	@ (80044b0 <HAL_TIMEx_MasterConfigSynchronization+0xb0>)
 800445e:	4298      	cmp	r0, r3
 8004460:	d0ef      	beq.n	8004442 <HAL_TIMEx_MasterConfigSynchronization+0x42>
 8004462:	f503 6380 	add.w	r3, r3, #1024	@ 0x400
 8004466:	4298      	cmp	r0, r3
 8004468:	d0eb      	beq.n	8004442 <HAL_TIMEx_MasterConfigSynchronization+0x42>
 800446a:	f503 6380 	add.w	r3, r3, #1024	@ 0x400
 800446e:	4298      	cmp	r0, r3
 8004470:	d0e7      	beq.n	8004442 <HAL_TIMEx_MasterConfigSynchronization+0x42>
 8004472:	f503 339a 	add.w	r3, r3, #78848	@ 0x13400
 8004476:	4298      	cmp	r0, r3
 8004478:	d1e8      	bne.n	800444c <HAL_TIMEx_MasterConfigSynchronization+0x4c>
 800447a:	e7e2      	b.n	8004442 <HAL_TIMEx_MasterConfigSynchronization+0x42>
 800447c:	684a      	ldr	r2, [r1, #4]
 800447e:	f423 0370 	bic.w	r3, r3, #15728640	@ 0xf00000
 8004482:	4313      	orrs	r3, r2
 8004484:	f023 7300 	bic.w	r3, r3, #33554432	@ 0x2000000
 8004488:	f023 0370 	bic.w	r3, r3, #112	@ 0x70
 800448c:	432b      	orrs	r3, r5
 800448e:	6043      	str	r3, [r0, #4]
 8004490:	e7d7      	b.n	8004442 <HAL_TIMEx_MasterConfigSynchronization+0x42>
 8004492:	f423 0270 	bic.w	r2, r3, #15728640	@ 0xf00000
 8004496:	684b      	ldr	r3, [r1, #4]
 8004498:	431a      	orrs	r2, r3
 800449a:	f022 7200 	bic.w	r2, r2, #33554432	@ 0x2000000
 800449e:	f022 0270 	bic.w	r2, r2, #112	@ 0x70
 80044a2:	4315      	orrs	r5, r2
 80044a4:	6045      	str	r5, [r0, #4]
 80044a6:	e7cc      	b.n	8004442 <HAL_TIMEx_MasterConfigSynchronization+0x42>
 80044a8:	2002      	movs	r0, #2
 80044aa:	4770      	bx	lr
 80044ac:	40012c00 	.word	0x40012c00
 80044b0:	40000400 	.word	0x40000400

080044b4 <HAL_TIMEx_ConfigBreakDeadTime>:
 80044b4:	f890 303c 	ldrb.w	r3, [r0, #60]	@ 0x3c
 80044b8:	2b01      	cmp	r3, #1
 80044ba:	d048      	beq.n	800454e <HAL_TIMEx_ConfigBreakDeadTime+0x9a>
 80044bc:	b410      	push	{r4}
 80044be:	e9d1 4302 	ldrd	r4, r3, [r1, #8]
 80044c2:	f423 7340 	bic.w	r3, r3, #768	@ 0x300
 80044c6:	4602      	mov	r2, r0
 80044c8:	4323      	orrs	r3, r4
 80044ca:	6848      	ldr	r0, [r1, #4]
 80044cc:	680c      	ldr	r4, [r1, #0]
 80044ce:	f423 6380 	bic.w	r3, r3, #1024	@ 0x400
 80044d2:	4303      	orrs	r3, r0
 80044d4:	f423 6300 	bic.w	r3, r3, #2048	@ 0x800
 80044d8:	6908      	ldr	r0, [r1, #16]
 80044da:	4323      	orrs	r3, r4
 80044dc:	f423 5380 	bic.w	r3, r3, #4096	@ 0x1000
 80044e0:	694c      	ldr	r4, [r1, #20]
 80044e2:	4303      	orrs	r3, r0
 80044e4:	f423 5300 	bic.w	r3, r3, #8192	@ 0x2000
 80044e8:	6b08      	ldr	r0, [r1, #48]	@ 0x30
 80044ea:	4323      	orrs	r3, r4
 80044ec:	f423 4380 	bic.w	r3, r3, #16384	@ 0x4000
 80044f0:	698c      	ldr	r4, [r1, #24]
 80044f2:	4303      	orrs	r3, r0
 80044f4:	f423 2370 	bic.w	r3, r3, #983040	@ 0xf0000
 80044f8:	69c8      	ldr	r0, [r1, #28]
 80044fa:	ea43 4304 	orr.w	r3, r3, r4, lsl #16
 80044fe:	f023 5380 	bic.w	r3, r3, #268435456	@ 0x10000000
 8004502:	4c14      	ldr	r4, [pc, #80]	@ (8004554 <HAL_TIMEx_ConfigBreakDeadTime+0xa0>)
 8004504:	4303      	orrs	r3, r0
 8004506:	6810      	ldr	r0, [r2, #0]
 8004508:	42a0      	cmp	r0, r4
 800450a:	d007      	beq.n	800451c <HAL_TIMEx_ConfigBreakDeadTime+0x68>
 800450c:	f504 6400 	add.w	r4, r4, #2048	@ 0x800
 8004510:	42a0      	cmp	r0, r4
 8004512:	d003      	beq.n	800451c <HAL_TIMEx_ConfigBreakDeadTime+0x68>
 8004514:	f504 54e0 	add.w	r4, r4, #7168	@ 0x1c00
 8004518:	42a0      	cmp	r0, r4
 800451a:	d110      	bne.n	800453e <HAL_TIMEx_ConfigBreakDeadTime+0x8a>
 800451c:	6a8c      	ldr	r4, [r1, #40]	@ 0x28
 800451e:	f423 0370 	bic.w	r3, r3, #15728640	@ 0xf00000
 8004522:	ea43 5304 	orr.w	r3, r3, r4, lsl #20
 8004526:	6a0c      	ldr	r4, [r1, #32]
 8004528:	f023 7380 	bic.w	r3, r3, #16777216	@ 0x1000000
 800452c:	4323      	orrs	r3, r4
 800452e:	6a4c      	ldr	r4, [r1, #36]	@ 0x24
 8004530:	6ac9      	ldr	r1, [r1, #44]	@ 0x2c
 8004532:	f023 7300 	bic.w	r3, r3, #33554432	@ 0x2000000
 8004536:	4323      	orrs	r3, r4
 8004538:	f023 5300 	bic.w	r3, r3, #536870912	@ 0x20000000
 800453c:	430b      	orrs	r3, r1
 800453e:	2100      	movs	r1, #0
 8004540:	6443      	str	r3, [r0, #68]	@ 0x44
 8004542:	f882 103c 	strb.w	r1, [r2, #60]	@ 0x3c
 8004546:	4608      	mov	r0, r1
 8004548:	f85d 4b04 	ldr.w	r4, [sp], #4
 800454c:	4770      	bx	lr
 800454e:	2002      	movs	r0, #2
 8004550:	4770      	bx	lr
 8004552:	bf00      	nop
 8004554:	40012c00 	.word	0x40012c00

08004558 <HAL_TIMEx_CommutCallback>:
 8004558:	4770      	bx	lr
 800455a:	bf00      	nop

0800455c <HAL_TIMEx_BreakCallback>:
 800455c:	4770      	bx	lr
 800455e:	bf00      	nop

08004560 <HAL_TIMEx_Break2Callback>:
 8004560:	4770      	bx	lr
 8004562:	bf00      	nop

08004564 <HAL_TIMEx_EncoderIndexCallback>:
 8004564:	4770      	bx	lr
 8004566:	bf00      	nop

08004568 <HAL_TIMEx_DirectionChangeCallback>:
 8004568:	4770      	bx	lr
 800456a:	bf00      	nop

0800456c <HAL_TIMEx_IndexErrorCallback>:
 800456c:	4770      	bx	lr
 800456e:	bf00      	nop

08004570 <HAL_TIMEx_TransitionErrorCallback>:
 8004570:	4770      	bx	lr
 8004572:	bf00      	nop

08004574 <UART_SetConfig>:
 8004574:	b570      	push	{r4, r5, r6, lr}
 8004576:	4604      	mov	r4, r0
 8004578:	6803      	ldr	r3, [r0, #0]
 800457a:	6882      	ldr	r2, [r0, #8]
 800457c:	6900      	ldr	r0, [r0, #16]
 800457e:	6961      	ldr	r1, [r4, #20]
 8004580:	681d      	ldr	r5, [r3, #0]
 8004582:	4302      	orrs	r2, r0
 8004584:	430a      	orrs	r2, r1
 8004586:	69e0      	ldr	r0, [r4, #28]
 8004588:	4998      	ldr	r1, [pc, #608]	@ (80047ec <UART_SetConfig+0x278>)
 800458a:	4302      	orrs	r2, r0
 800458c:	4029      	ands	r1, r5
 800458e:	430a      	orrs	r2, r1
 8004590:	601a      	str	r2, [r3, #0]
 8004592:	685a      	ldr	r2, [r3, #4]
 8004594:	68e1      	ldr	r1, [r4, #12]
 8004596:	6a65      	ldr	r5, [r4, #36]	@ 0x24
 8004598:	f422 5240 	bic.w	r2, r2, #12288	@ 0x3000
 800459c:	430a      	orrs	r2, r1
 800459e:	4994      	ldr	r1, [pc, #592]	@ (80047f0 <UART_SetConfig+0x27c>)
 80045a0:	605a      	str	r2, [r3, #4]
 80045a2:	428b      	cmp	r3, r1
 80045a4:	6899      	ldr	r1, [r3, #8]
 80045a6:	69a2      	ldr	r2, [r4, #24]
 80045a8:	f021 416e 	bic.w	r1, r1, #3992977408	@ 0xee000000
 80045ac:	f421 6130 	bic.w	r1, r1, #2816	@ 0xb00
 80045b0:	d058      	beq.n	8004664 <UART_SetConfig+0xf0>
 80045b2:	6a26      	ldr	r6, [r4, #32]
 80045b4:	4332      	orrs	r2, r6
 80045b6:	430a      	orrs	r2, r1
 80045b8:	609a      	str	r2, [r3, #8]
 80045ba:	6ada      	ldr	r2, [r3, #44]	@ 0x2c
 80045bc:	f022 020f 	bic.w	r2, r2, #15
 80045c0:	432a      	orrs	r2, r5
 80045c2:	62da      	str	r2, [r3, #44]	@ 0x2c
 80045c4:	4a8b      	ldr	r2, [pc, #556]	@ (80047f4 <UART_SetConfig+0x280>)
 80045c6:	4293      	cmp	r3, r2
 80045c8:	f000 808f 	beq.w	80046ea <UART_SetConfig+0x176>
 80045cc:	4a8a      	ldr	r2, [pc, #552]	@ (80047f8 <UART_SetConfig+0x284>)
 80045ce:	4293      	cmp	r3, r2
 80045d0:	d023      	beq.n	800461a <UART_SetConfig+0xa6>
 80045d2:	4a8a      	ldr	r2, [pc, #552]	@ (80047fc <UART_SetConfig+0x288>)
 80045d4:	4293      	cmp	r3, r2
 80045d6:	f000 80e1 	beq.w	800479c <UART_SetConfig+0x228>
 80045da:	4a89      	ldr	r2, [pc, #548]	@ (8004800 <UART_SetConfig+0x28c>)
 80045dc:	4293      	cmp	r3, r2
 80045de:	f000 8095 	beq.w	800470c <UART_SetConfig+0x198>
 80045e2:	4a88      	ldr	r2, [pc, #544]	@ (8004804 <UART_SetConfig+0x290>)
 80045e4:	4293      	cmp	r3, r2
 80045e6:	d178      	bne.n	80046da <UART_SetConfig+0x166>
 80045e8:	4b87      	ldr	r3, [pc, #540]	@ (8004808 <UART_SetConfig+0x294>)
 80045ea:	f8d3 3088 	ldr.w	r3, [r3, #136]	@ 0x88
 80045ee:	f403 7340 	and.w	r3, r3, #768	@ 0x300
 80045f2:	f5b3 7f00 	cmp.w	r3, #512	@ 0x200
 80045f6:	f000 80ad 	beq.w	8004754 <UART_SetConfig+0x1e0>
 80045fa:	f200 80e1 	bhi.w	80047c0 <UART_SetConfig+0x24c>
 80045fe:	2b00      	cmp	r3, #0
 8004600:	f000 80c6 	beq.w	8004790 <UART_SetConfig+0x21c>
 8004604:	f5b0 4f00 	cmp.w	r0, #32768	@ 0x8000
 8004608:	f000 80e6 	beq.w	80047d8 <UART_SetConfig+0x264>
 800460c:	f7fe fec0 	bl	8003390 <HAL_RCC_GetSysClockFreq>
 8004610:	2800      	cmp	r0, #0
 8004612:	f000 809d 	beq.w	8004750 <UART_SetConfig+0x1dc>
 8004616:	6a65      	ldr	r5, [r4, #36]	@ 0x24
 8004618:	e088      	b.n	800472c <UART_SetConfig+0x1b8>
 800461a:	4b7b      	ldr	r3, [pc, #492]	@ (8004808 <UART_SetConfig+0x294>)
 800461c:	f8d3 3088 	ldr.w	r3, [r3, #136]	@ 0x88
 8004620:	f003 030c 	and.w	r3, r3, #12
 8004624:	2b0c      	cmp	r3, #12
 8004626:	d858      	bhi.n	80046da <UART_SetConfig+0x166>
 8004628:	a201      	add	r2, pc, #4	@ (adr r2, 8004630 <UART_SetConfig+0xbc>)
 800462a:	f852 f023 	ldr.w	pc, [r2, r3, lsl #2]
 800462e:	bf00      	nop
 8004630:	08004791 	.word	0x08004791
 8004634:	080046db 	.word	0x080046db
 8004638:	080046db 	.word	0x080046db
 800463c:	080046db 	.word	0x080046db
 8004640:	08004605 	.word	0x08004605
 8004644:	080046db 	.word	0x080046db
 8004648:	080046db 	.word	0x080046db
 800464c:	080046db 	.word	0x080046db
 8004650:	08004755 	.word	0x08004755
 8004654:	080046db 	.word	0x080046db
 8004658:	080046db 	.word	0x080046db
 800465c:	080046db 	.word	0x080046db
 8004660:	08004723 	.word	0x08004723
 8004664:	4311      	orrs	r1, r2
 8004666:	6099      	str	r1, [r3, #8]
 8004668:	6ada      	ldr	r2, [r3, #44]	@ 0x2c
 800466a:	4967      	ldr	r1, [pc, #412]	@ (8004808 <UART_SetConfig+0x294>)
 800466c:	f022 020f 	bic.w	r2, r2, #15
 8004670:	432a      	orrs	r2, r5
 8004672:	62da      	str	r2, [r3, #44]	@ 0x2c
 8004674:	f8d1 3088 	ldr.w	r3, [r1, #136]	@ 0x88
 8004678:	f403 6340 	and.w	r3, r3, #3072	@ 0xc00
 800467c:	f5b3 6f00 	cmp.w	r3, #2048	@ 0x800
 8004680:	f000 80a5 	beq.w	80047ce <UART_SetConfig+0x25a>
 8004684:	f200 80ab 	bhi.w	80047de <UART_SetConfig+0x26a>
 8004688:	2b00      	cmp	r3, #0
 800468a:	f000 80a2 	beq.w	80047d2 <UART_SetConfig+0x25e>
 800468e:	f7fe fe7f 	bl	8003390 <HAL_RCC_GetSysClockFreq>
 8004692:	2800      	cmp	r0, #0
 8004694:	d05c      	beq.n	8004750 <UART_SetConfig+0x1dc>
 8004696:	6a65      	ldr	r5, [r4, #36]	@ 0x24
 8004698:	6866      	ldr	r6, [r4, #4]
 800469a:	4b5c      	ldr	r3, [pc, #368]	@ (800480c <UART_SetConfig+0x298>)
 800469c:	eb06 0146 	add.w	r1, r6, r6, lsl #1
 80046a0:	f833 2015 	ldrh.w	r2, [r3, r5, lsl #1]
 80046a4:	fbb0 f3f2 	udiv	r3, r0, r2
 80046a8:	4299      	cmp	r1, r3
 80046aa:	d816      	bhi.n	80046da <UART_SetConfig+0x166>
 80046ac:	ebb3 3f06 	cmp.w	r3, r6, lsl #12
 80046b0:	d813      	bhi.n	80046da <UART_SetConfig+0x166>
 80046b2:	2300      	movs	r3, #0
 80046b4:	4619      	mov	r1, r3
 80046b6:	f7fc f9cd 	bl	8000a54 <__aeabi_uldivmod>
 80046ba:	f44f 7580 	mov.w	r5, #256	@ 0x100
 80046be:	4603      	mov	r3, r0
 80046c0:	2100      	movs	r1, #0
 80046c2:	0870      	lsrs	r0, r6, #1
 80046c4:	4632      	mov	r2, r6
 80046c6:	fbe3 0105 	umlal	r0, r1, r3, r5
 80046ca:	2300      	movs	r3, #0
 80046cc:	f7fc f9c2 	bl	8000a54 <__aeabi_uldivmod>
 80046d0:	4b4f      	ldr	r3, [pc, #316]	@ (8004810 <UART_SetConfig+0x29c>)
 80046d2:	f5a0 7240 	sub.w	r2, r0, #768	@ 0x300
 80046d6:	429a      	cmp	r2, r3
 80046d8:	d938      	bls.n	800474c <UART_SetConfig+0x1d8>
 80046da:	2001      	movs	r0, #1
 80046dc:	2300      	movs	r3, #0
 80046de:	f04f 1201 	mov.w	r2, #65537	@ 0x10001
 80046e2:	e9c4 331d 	strd	r3, r3, [r4, #116]	@ 0x74
 80046e6:	66a2      	str	r2, [r4, #104]	@ 0x68
 80046e8:	bd70      	pop	{r4, r5, r6, pc}
 80046ea:	4b47      	ldr	r3, [pc, #284]	@ (8004808 <UART_SetConfig+0x294>)
 80046ec:	f8d3 3088 	ldr.w	r3, [r3, #136]	@ 0x88
 80046f0:	f003 0303 	and.w	r3, r3, #3
 80046f4:	2b02      	cmp	r3, #2
 80046f6:	d02d      	beq.n	8004754 <UART_SetConfig+0x1e0>
 80046f8:	2b03      	cmp	r3, #3
 80046fa:	d012      	beq.n	8004722 <UART_SetConfig+0x1ae>
 80046fc:	2b01      	cmp	r3, #1
 80046fe:	d081      	beq.n	8004604 <UART_SetConfig+0x90>
 8004700:	f5b0 4f00 	cmp.w	r0, #32768	@ 0x8000
 8004704:	d060      	beq.n	80047c8 <UART_SetConfig+0x254>
 8004706:	f7fe ff97 	bl	8003638 <HAL_RCC_GetPCLK2Freq>
 800470a:	e781      	b.n	8004610 <UART_SetConfig+0x9c>
 800470c:	4b3e      	ldr	r3, [pc, #248]	@ (8004808 <UART_SetConfig+0x294>)
 800470e:	f8d3 3088 	ldr.w	r3, [r3, #136]	@ 0x88
 8004712:	f003 03c0 	and.w	r3, r3, #192	@ 0xc0
 8004716:	2b80      	cmp	r3, #128	@ 0x80
 8004718:	d01c      	beq.n	8004754 <UART_SetConfig+0x1e0>
 800471a:	f67f af70 	bls.w	80045fe <UART_SetConfig+0x8a>
 800471e:	2bc0      	cmp	r3, #192	@ 0xc0
 8004720:	d1db      	bne.n	80046da <UART_SetConfig+0x166>
 8004722:	f5b0 4f00 	cmp.w	r0, #32768	@ 0x8000
 8004726:	d019      	beq.n	800475c <UART_SetConfig+0x1e8>
 8004728:	f44f 4000 	mov.w	r0, #32768	@ 0x8000
 800472c:	6863      	ldr	r3, [r4, #4]
 800472e:	4a37      	ldr	r2, [pc, #220]	@ (800480c <UART_SetConfig+0x298>)
 8004730:	f832 1015 	ldrh.w	r1, [r2, r5, lsl #1]
 8004734:	fbb0 f0f1 	udiv	r0, r0, r1
 8004738:	f64f 72ef 	movw	r2, #65519	@ 0xffef
 800473c:	eb00 0053 	add.w	r0, r0, r3, lsr #1
 8004740:	fbb0 f0f3 	udiv	r0, r0, r3
 8004744:	f1a0 0310 	sub.w	r3, r0, #16
 8004748:	4293      	cmp	r3, r2
 800474a:	d8c6      	bhi.n	80046da <UART_SetConfig+0x166>
 800474c:	6823      	ldr	r3, [r4, #0]
 800474e:	60d8      	str	r0, [r3, #12]
 8004750:	2000      	movs	r0, #0
 8004752:	e7c3      	b.n	80046dc <UART_SetConfig+0x168>
 8004754:	f5b0 4f00 	cmp.w	r0, #32768	@ 0x8000
 8004758:	482e      	ldr	r0, [pc, #184]	@ (8004814 <UART_SetConfig+0x2a0>)
 800475a:	d1e7      	bne.n	800472c <UART_SetConfig+0x1b8>
 800475c:	6862      	ldr	r2, [r4, #4]
 800475e:	4b2b      	ldr	r3, [pc, #172]	@ (800480c <UART_SetConfig+0x298>)
 8004760:	f833 1015 	ldrh.w	r1, [r3, r5, lsl #1]
 8004764:	fbb0 f0f1 	udiv	r0, r0, r1
 8004768:	0853      	lsrs	r3, r2, #1
 800476a:	eb03 0340 	add.w	r3, r3, r0, lsl #1
 800476e:	f64f 71ef 	movw	r1, #65519	@ 0xffef
 8004772:	fbb3 f3f2 	udiv	r3, r3, r2
 8004776:	f1a3 0210 	sub.w	r2, r3, #16
 800477a:	428a      	cmp	r2, r1
 800477c:	d8ad      	bhi.n	80046da <UART_SetConfig+0x166>
 800477e:	f023 020f 	bic.w	r2, r3, #15
 8004782:	6821      	ldr	r1, [r4, #0]
 8004784:	b292      	uxth	r2, r2
 8004786:	f3c3 0342 	ubfx	r3, r3, #1, #3
 800478a:	4313      	orrs	r3, r2
 800478c:	60cb      	str	r3, [r1, #12]
 800478e:	e7df      	b.n	8004750 <UART_SetConfig+0x1dc>
 8004790:	f5b0 4f00 	cmp.w	r0, #32768	@ 0x8000
 8004794:	d00e      	beq.n	80047b4 <UART_SetConfig+0x240>
 8004796:	f7fe ff3d 	bl	8003614 <HAL_RCC_GetPCLK1Freq>
 800479a:	e739      	b.n	8004610 <UART_SetConfig+0x9c>
 800479c:	4b1a      	ldr	r3, [pc, #104]	@ (8004808 <UART_SetConfig+0x294>)
 800479e:	f8d3 3088 	ldr.w	r3, [r3, #136]	@ 0x88
 80047a2:	f003 0330 	and.w	r3, r3, #48	@ 0x30
 80047a6:	2b20      	cmp	r3, #32
 80047a8:	d0d4      	beq.n	8004754 <UART_SetConfig+0x1e0>
 80047aa:	f67f af28 	bls.w	80045fe <UART_SetConfig+0x8a>
 80047ae:	2b30      	cmp	r3, #48	@ 0x30
 80047b0:	d0b7      	beq.n	8004722 <UART_SetConfig+0x1ae>
 80047b2:	e792      	b.n	80046da <UART_SetConfig+0x166>
 80047b4:	f7fe ff2e 	bl	8003614 <HAL_RCC_GetPCLK1Freq>
 80047b8:	2800      	cmp	r0, #0
 80047ba:	d0c9      	beq.n	8004750 <UART_SetConfig+0x1dc>
 80047bc:	6a65      	ldr	r5, [r4, #36]	@ 0x24
 80047be:	e7cd      	b.n	800475c <UART_SetConfig+0x1e8>
 80047c0:	f5b3 7f40 	cmp.w	r3, #768	@ 0x300
 80047c4:	d0ad      	beq.n	8004722 <UART_SetConfig+0x1ae>
 80047c6:	e788      	b.n	80046da <UART_SetConfig+0x166>
 80047c8:	f7fe ff36 	bl	8003638 <HAL_RCC_GetPCLK2Freq>
 80047cc:	e7f4      	b.n	80047b8 <UART_SetConfig+0x244>
 80047ce:	4811      	ldr	r0, [pc, #68]	@ (8004814 <UART_SetConfig+0x2a0>)
 80047d0:	e762      	b.n	8004698 <UART_SetConfig+0x124>
 80047d2:	f7fe ff1f 	bl	8003614 <HAL_RCC_GetPCLK1Freq>
 80047d6:	e75c      	b.n	8004692 <UART_SetConfig+0x11e>
 80047d8:	f7fe fdda 	bl	8003390 <HAL_RCC_GetSysClockFreq>
 80047dc:	e7ec      	b.n	80047b8 <UART_SetConfig+0x244>
 80047de:	f5b3 6f40 	cmp.w	r3, #3072	@ 0xc00
 80047e2:	f47f af7a 	bne.w	80046da <UART_SetConfig+0x166>
 80047e6:	f44f 4000 	mov.w	r0, #32768	@ 0x8000
 80047ea:	e755      	b.n	8004698 <UART_SetConfig+0x124>
 80047ec:	cfff69f3 	.word	0xcfff69f3
 80047f0:	40008000 	.word	0x40008000
 80047f4:	40013800 	.word	0x40013800
 80047f8:	40004400 	.word	0x40004400
 80047fc:	40004800 	.word	0x40004800
 8004800:	40004c00 	.word	0x40004c00
 8004804:	40005000 	.word	0x40005000
 8004808:	40021000 	.word	0x40021000
 800480c:	0800f88c 	.word	0x0800f88c
 8004810:	000ffcff 	.word	0x000ffcff
 8004814:	00f42400 	.word	0x00f42400

08004818 <UART_AdvFeatureConfig>:
 8004818:	6a83      	ldr	r3, [r0, #40]	@ 0x28
 800481a:	071a      	lsls	r2, r3, #28
 800481c:	b410      	push	{r4}
 800481e:	d506      	bpl.n	800482e <UART_AdvFeatureConfig+0x16>
 8004820:	6801      	ldr	r1, [r0, #0]
 8004822:	6b84      	ldr	r4, [r0, #56]	@ 0x38
 8004824:	684a      	ldr	r2, [r1, #4]
 8004826:	f422 4200 	bic.w	r2, r2, #32768	@ 0x8000
 800482a:	4322      	orrs	r2, r4
 800482c:	604a      	str	r2, [r1, #4]
 800482e:	07dc      	lsls	r4, r3, #31
 8004830:	d506      	bpl.n	8004840 <UART_AdvFeatureConfig+0x28>
 8004832:	6801      	ldr	r1, [r0, #0]
 8004834:	6ac4      	ldr	r4, [r0, #44]	@ 0x2c
 8004836:	684a      	ldr	r2, [r1, #4]
 8004838:	f422 3200 	bic.w	r2, r2, #131072	@ 0x20000
 800483c:	4322      	orrs	r2, r4
 800483e:	604a      	str	r2, [r1, #4]
 8004840:	0799      	lsls	r1, r3, #30
 8004842:	d506      	bpl.n	8004852 <UART_AdvFeatureConfig+0x3a>
 8004844:	6801      	ldr	r1, [r0, #0]
 8004846:	6b04      	ldr	r4, [r0, #48]	@ 0x30
 8004848:	684a      	ldr	r2, [r1, #4]
 800484a:	f422 3280 	bic.w	r2, r2, #65536	@ 0x10000
 800484e:	4322      	orrs	r2, r4
 8004850:	604a      	str	r2, [r1, #4]
 8004852:	075a      	lsls	r2, r3, #29
 8004854:	d506      	bpl.n	8004864 <UART_AdvFeatureConfig+0x4c>
 8004856:	6801      	ldr	r1, [r0, #0]
 8004858:	6b44      	ldr	r4, [r0, #52]	@ 0x34
 800485a:	684a      	ldr	r2, [r1, #4]
 800485c:	f422 2280 	bic.w	r2, r2, #262144	@ 0x40000
 8004860:	4322      	orrs	r2, r4
 8004862:	604a      	str	r2, [r1, #4]
 8004864:	06dc      	lsls	r4, r3, #27
 8004866:	d506      	bpl.n	8004876 <UART_AdvFeatureConfig+0x5e>
 8004868:	6801      	ldr	r1, [r0, #0]
 800486a:	6bc4      	ldr	r4, [r0, #60]	@ 0x3c
 800486c:	688a      	ldr	r2, [r1, #8]
 800486e:	f422 5280 	bic.w	r2, r2, #4096	@ 0x1000
 8004872:	4322      	orrs	r2, r4
 8004874:	608a      	str	r2, [r1, #8]
 8004876:	0699      	lsls	r1, r3, #26
 8004878:	d506      	bpl.n	8004888 <UART_AdvFeatureConfig+0x70>
 800487a:	6801      	ldr	r1, [r0, #0]
 800487c:	6c04      	ldr	r4, [r0, #64]	@ 0x40
 800487e:	688a      	ldr	r2, [r1, #8]
 8004880:	f422 5200 	bic.w	r2, r2, #8192	@ 0x2000
 8004884:	4322      	orrs	r2, r4
 8004886:	608a      	str	r2, [r1, #8]
 8004888:	065a      	lsls	r2, r3, #25
 800488a:	d509      	bpl.n	80048a0 <UART_AdvFeatureConfig+0x88>
 800488c:	6801      	ldr	r1, [r0, #0]
 800488e:	6c44      	ldr	r4, [r0, #68]	@ 0x44
 8004890:	684a      	ldr	r2, [r1, #4]
 8004892:	f422 1280 	bic.w	r2, r2, #1048576	@ 0x100000
 8004896:	4322      	orrs	r2, r4
 8004898:	f5b4 1f80 	cmp.w	r4, #1048576	@ 0x100000
 800489c:	604a      	str	r2, [r1, #4]
 800489e:	d00b      	beq.n	80048b8 <UART_AdvFeatureConfig+0xa0>
 80048a0:	061b      	lsls	r3, r3, #24
 80048a2:	d506      	bpl.n	80048b2 <UART_AdvFeatureConfig+0x9a>
 80048a4:	6802      	ldr	r2, [r0, #0]
 80048a6:	6cc1      	ldr	r1, [r0, #76]	@ 0x4c
 80048a8:	6853      	ldr	r3, [r2, #4]
 80048aa:	f423 2300 	bic.w	r3, r3, #524288	@ 0x80000
 80048ae:	430b      	orrs	r3, r1
 80048b0:	6053      	str	r3, [r2, #4]
 80048b2:	f85d 4b04 	ldr.w	r4, [sp], #4
 80048b6:	4770      	bx	lr
 80048b8:	684a      	ldr	r2, [r1, #4]
 80048ba:	6c84      	ldr	r4, [r0, #72]	@ 0x48
 80048bc:	f422 02c0 	bic.w	r2, r2, #6291456	@ 0x600000
 80048c0:	4322      	orrs	r2, r4
 80048c2:	604a      	str	r2, [r1, #4]
 80048c4:	e7ec      	b.n	80048a0 <UART_AdvFeatureConfig+0x88>
 80048c6:	bf00      	nop

080048c8 <UART_CheckIdleState>:
 80048c8:	b538      	push	{r3, r4, r5, lr}
 80048ca:	2300      	movs	r3, #0
 80048cc:	4604      	mov	r4, r0
 80048ce:	f8c0 3090 	str.w	r3, [r0, #144]	@ 0x90
 80048d2:	f7fd f821 	bl	8001918 <HAL_GetTick>
 80048d6:	6821      	ldr	r1, [r4, #0]
 80048d8:	680b      	ldr	r3, [r1, #0]
 80048da:	071b      	lsls	r3, r3, #28
 80048dc:	4605      	mov	r5, r0
 80048de:	d40f      	bmi.n	8004900 <UART_CheckIdleState+0x38>
 80048e0:	680b      	ldr	r3, [r1, #0]
 80048e2:	075a      	lsls	r2, r3, #29
 80048e4:	d431      	bmi.n	800494a <UART_CheckIdleState+0x82>
 80048e6:	2300      	movs	r3, #0
 80048e8:	2220      	movs	r2, #32
 80048ea:	f8c4 2088 	str.w	r2, [r4, #136]	@ 0x88
 80048ee:	4618      	mov	r0, r3
 80048f0:	f8c4 208c 	str.w	r2, [r4, #140]	@ 0x8c
 80048f4:	66e3      	str	r3, [r4, #108]	@ 0x6c
 80048f6:	6723      	str	r3, [r4, #112]	@ 0x70
 80048f8:	2300      	movs	r3, #0
 80048fa:	f884 3084 	strb.w	r3, [r4, #132]	@ 0x84
 80048fe:	bd38      	pop	{r3, r4, r5, pc}
 8004900:	69cb      	ldr	r3, [r1, #28]
 8004902:	0298      	lsls	r0, r3, #10
 8004904:	d4ec      	bmi.n	80048e0 <UART_CheckIdleState+0x18>
 8004906:	e00b      	b.n	8004920 <UART_CheckIdleState+0x58>
 8004908:	681a      	ldr	r2, [r3, #0]
 800490a:	0752      	lsls	r2, r2, #29
 800490c:	d505      	bpl.n	800491a <UART_CheckIdleState+0x52>
 800490e:	69da      	ldr	r2, [r3, #28]
 8004910:	0710      	lsls	r0, r2, #28
 8004912:	d44b      	bmi.n	80049ac <UART_CheckIdleState+0xe4>
 8004914:	69da      	ldr	r2, [r3, #28]
 8004916:	0512      	lsls	r2, r2, #20
 8004918:	d476      	bmi.n	8004a08 <UART_CheckIdleState+0x140>
 800491a:	69db      	ldr	r3, [r3, #28]
 800491c:	0298      	lsls	r0, r3, #10
 800491e:	d4df      	bmi.n	80048e0 <UART_CheckIdleState+0x18>
 8004920:	f7fc fffa 	bl	8001918 <HAL_GetTick>
 8004924:	6823      	ldr	r3, [r4, #0]
 8004926:	1b42      	subs	r2, r0, r5
 8004928:	f1b2 7f00 	cmp.w	r2, #33554432	@ 0x2000000
 800492c:	4619      	mov	r1, r3
 800492e:	d3eb      	bcc.n	8004908 <UART_CheckIdleState+0x40>
 8004930:	e853 2f00 	ldrex	r2, [r3]
 8004934:	f022 0280 	bic.w	r2, r2, #128	@ 0x80
 8004938:	e843 2100 	strex	r1, r2, [r3]
 800493c:	2900      	cmp	r1, #0
 800493e:	d1f7      	bne.n	8004930 <UART_CheckIdleState+0x68>
 8004940:	2320      	movs	r3, #32
 8004942:	f8c4 3088 	str.w	r3, [r4, #136]	@ 0x88
 8004946:	2003      	movs	r0, #3
 8004948:	e7d6      	b.n	80048f8 <UART_CheckIdleState+0x30>
 800494a:	69cb      	ldr	r3, [r1, #28]
 800494c:	025b      	lsls	r3, r3, #9
 800494e:	d4ca      	bmi.n	80048e6 <UART_CheckIdleState+0x1e>
 8004950:	e00d      	b.n	800496e <UART_CheckIdleState+0xa6>
 8004952:	681a      	ldr	r2, [r3, #0]
 8004954:	0750      	lsls	r0, r2, #29
 8004956:	d507      	bpl.n	8004968 <UART_CheckIdleState+0xa0>
 8004958:	69da      	ldr	r2, [r3, #28]
 800495a:	0711      	lsls	r1, r2, #28
 800495c:	f100 8082 	bmi.w	8004a64 <UART_CheckIdleState+0x19c>
 8004960:	69da      	ldr	r2, [r3, #28]
 8004962:	0512      	lsls	r2, r2, #20
 8004964:	f100 80ac 	bmi.w	8004ac0 <UART_CheckIdleState+0x1f8>
 8004968:	69db      	ldr	r3, [r3, #28]
 800496a:	025b      	lsls	r3, r3, #9
 800496c:	d4bb      	bmi.n	80048e6 <UART_CheckIdleState+0x1e>
 800496e:	f7fc ffd3 	bl	8001918 <HAL_GetTick>
 8004972:	1b43      	subs	r3, r0, r5
 8004974:	f1b3 7f00 	cmp.w	r3, #33554432	@ 0x2000000
 8004978:	6823      	ldr	r3, [r4, #0]
 800497a:	d3ea      	bcc.n	8004952 <UART_CheckIdleState+0x8a>
 800497c:	e853 2f00 	ldrex	r2, [r3]
 8004980:	f422 7290 	bic.w	r2, r2, #288	@ 0x120
 8004984:	e843 2100 	strex	r1, r2, [r3]
 8004988:	2900      	cmp	r1, #0
 800498a:	d1f7      	bne.n	800497c <UART_CheckIdleState+0xb4>
 800498c:	f103 0208 	add.w	r2, r3, #8
 8004990:	e852 2f00 	ldrex	r2, [r2]
 8004994:	f022 0201 	bic.w	r2, r2, #1
 8004998:	f103 0008 	add.w	r0, r3, #8
 800499c:	e840 2100 	strex	r1, r2, [r0]
 80049a0:	2900      	cmp	r1, #0
 80049a2:	d1f3      	bne.n	800498c <UART_CheckIdleState+0xc4>
 80049a4:	2320      	movs	r3, #32
 80049a6:	f8c4 308c 	str.w	r3, [r4, #140]	@ 0x8c
 80049aa:	e7cc      	b.n	8004946 <UART_CheckIdleState+0x7e>
 80049ac:	2208      	movs	r2, #8
 80049ae:	621a      	str	r2, [r3, #32]
 80049b0:	e853 2f00 	ldrex	r2, [r3]
 80049b4:	f422 7290 	bic.w	r2, r2, #288	@ 0x120
 80049b8:	e843 2100 	strex	r1, r2, [r3]
 80049bc:	2900      	cmp	r1, #0
 80049be:	d1f7      	bne.n	80049b0 <UART_CheckIdleState+0xe8>
 80049c0:	4856      	ldr	r0, [pc, #344]	@ (8004b1c <UART_CheckIdleState+0x254>)
 80049c2:	f103 0208 	add.w	r2, r3, #8
 80049c6:	e852 2f00 	ldrex	r2, [r2]
 80049ca:	4002      	ands	r2, r0
 80049cc:	f103 0508 	add.w	r5, r3, #8
 80049d0:	e845 2100 	strex	r1, r2, [r5]
 80049d4:	2900      	cmp	r1, #0
 80049d6:	d1f4      	bne.n	80049c2 <UART_CheckIdleState+0xfa>
 80049d8:	6ee2      	ldr	r2, [r4, #108]	@ 0x6c
 80049da:	2a01      	cmp	r2, #1
 80049dc:	d00b      	beq.n	80049f6 <UART_CheckIdleState+0x12e>
 80049de:	2200      	movs	r2, #0
 80049e0:	2020      	movs	r0, #32
 80049e2:	2108      	movs	r1, #8
 80049e4:	f8c4 008c 	str.w	r0, [r4, #140]	@ 0x8c
 80049e8:	6762      	str	r2, [r4, #116]	@ 0x74
 80049ea:	66e2      	str	r2, [r4, #108]	@ 0x6c
 80049ec:	f884 2084 	strb.w	r2, [r4, #132]	@ 0x84
 80049f0:	f8c4 1090 	str.w	r1, [r4, #144]	@ 0x90
 80049f4:	e79c      	b.n	8004930 <UART_CheckIdleState+0x68>
 80049f6:	e853 2f00 	ldrex	r2, [r3]
 80049fa:	f022 0210 	bic.w	r2, r2, #16
 80049fe:	e843 2100 	strex	r1, r2, [r3]
 8004a02:	2900      	cmp	r1, #0
 8004a04:	d1f7      	bne.n	80049f6 <UART_CheckIdleState+0x12e>
 8004a06:	e7ea      	b.n	80049de <UART_CheckIdleState+0x116>
 8004a08:	f44f 6200 	mov.w	r2, #2048	@ 0x800
 8004a0c:	621a      	str	r2, [r3, #32]
 8004a0e:	e853 2f00 	ldrex	r2, [r3]
 8004a12:	f422 7290 	bic.w	r2, r2, #288	@ 0x120
 8004a16:	e843 2100 	strex	r1, r2, [r3]
 8004a1a:	2900      	cmp	r1, #0
 8004a1c:	d1f7      	bne.n	8004a0e <UART_CheckIdleState+0x146>
 8004a1e:	483f      	ldr	r0, [pc, #252]	@ (8004b1c <UART_CheckIdleState+0x254>)
 8004a20:	f103 0208 	add.w	r2, r3, #8
 8004a24:	e852 2f00 	ldrex	r2, [r2]
 8004a28:	4002      	ands	r2, r0
 8004a2a:	f103 0508 	add.w	r5, r3, #8
 8004a2e:	e845 2100 	strex	r1, r2, [r5]
 8004a32:	2900      	cmp	r1, #0
 8004a34:	d1f4      	bne.n	8004a20 <UART_CheckIdleState+0x158>
 8004a36:	6ee2      	ldr	r2, [r4, #108]	@ 0x6c
 8004a38:	2a01      	cmp	r2, #1
 8004a3a:	d00a      	beq.n	8004a52 <UART_CheckIdleState+0x18a>
 8004a3c:	2200      	movs	r2, #0
 8004a3e:	2120      	movs	r1, #32
 8004a40:	f8c4 108c 	str.w	r1, [r4, #140]	@ 0x8c
 8004a44:	6762      	str	r2, [r4, #116]	@ 0x74
 8004a46:	66e2      	str	r2, [r4, #108]	@ 0x6c
 8004a48:	f884 2084 	strb.w	r2, [r4, #132]	@ 0x84
 8004a4c:	f8c4 1090 	str.w	r1, [r4, #144]	@ 0x90
 8004a50:	e76e      	b.n	8004930 <UART_CheckIdleState+0x68>
 8004a52:	e853 2f00 	ldrex	r2, [r3]
 8004a56:	f022 0210 	bic.w	r2, r2, #16
 8004a5a:	e843 2100 	strex	r1, r2, [r3]
 8004a5e:	2900      	cmp	r1, #0
 8004a60:	d1f7      	bne.n	8004a52 <UART_CheckIdleState+0x18a>
 8004a62:	e7eb      	b.n	8004a3c <UART_CheckIdleState+0x174>
 8004a64:	2208      	movs	r2, #8
 8004a66:	621a      	str	r2, [r3, #32]
 8004a68:	e853 2f00 	ldrex	r2, [r3]
 8004a6c:	f422 7290 	bic.w	r2, r2, #288	@ 0x120
 8004a70:	e843 2100 	strex	r1, r2, [r3]
 8004a74:	2900      	cmp	r1, #0
 8004a76:	d1f7      	bne.n	8004a68 <UART_CheckIdleState+0x1a0>
 8004a78:	4828      	ldr	r0, [pc, #160]	@ (8004b1c <UART_CheckIdleState+0x254>)
 8004a7a:	f103 0208 	add.w	r2, r3, #8
 8004a7e:	e852 2f00 	ldrex	r2, [r2]
 8004a82:	4002      	ands	r2, r0
 8004a84:	f103 0508 	add.w	r5, r3, #8
 8004a88:	e845 2100 	strex	r1, r2, [r5]
 8004a8c:	2900      	cmp	r1, #0
 8004a8e:	d1f4      	bne.n	8004a7a <UART_CheckIdleState+0x1b2>
 8004a90:	6ee2      	ldr	r2, [r4, #108]	@ 0x6c
 8004a92:	2a01      	cmp	r2, #1
 8004a94:	d00b      	beq.n	8004aae <UART_CheckIdleState+0x1e6>
 8004a96:	2200      	movs	r2, #0
 8004a98:	2020      	movs	r0, #32
 8004a9a:	2108      	movs	r1, #8
 8004a9c:	f8c4 008c 	str.w	r0, [r4, #140]	@ 0x8c
 8004aa0:	6762      	str	r2, [r4, #116]	@ 0x74
 8004aa2:	66e2      	str	r2, [r4, #108]	@ 0x6c
 8004aa4:	f884 2084 	strb.w	r2, [r4, #132]	@ 0x84
 8004aa8:	f8c4 1090 	str.w	r1, [r4, #144]	@ 0x90
 8004aac:	e766      	b.n	800497c <UART_CheckIdleState+0xb4>
 8004aae:	e853 2f00 	ldrex	r2, [r3]
 8004ab2:	f022 0210 	bic.w	r2, r2, #16
 8004ab6:	e843 2100 	strex	r1, r2, [r3]
 8004aba:	2900      	cmp	r1, #0
 8004abc:	d1f7      	bne.n	8004aae <UART_CheckIdleState+0x1e6>
 8004abe:	e7ea      	b.n	8004a96 <UART_CheckIdleState+0x1ce>
 8004ac0:	f44f 6200 	mov.w	r2, #2048	@ 0x800
 8004ac4:	621a      	str	r2, [r3, #32]
 8004ac6:	e853 2f00 	ldrex	r2, [r3]
 8004aca:	f422 7290 	bic.w	r2, r2, #288	@ 0x120
 8004ace:	e843 2100 	strex	r1, r2, [r3]
 8004ad2:	2900      	cmp	r1, #0
 8004ad4:	d1f7      	bne.n	8004ac6 <UART_CheckIdleState+0x1fe>
 8004ad6:	4811      	ldr	r0, [pc, #68]	@ (8004b1c <UART_CheckIdleState+0x254>)
 8004ad8:	f103 0208 	add.w	r2, r3, #8
 8004adc:	e852 2f00 	ldrex	r2, [r2]
 8004ae0:	4002      	ands	r2, r0
 8004ae2:	f103 0508 	add.w	r5, r3, #8
 8004ae6:	e845 2100 	strex	r1, r2, [r5]
 8004aea:	2900      	cmp	r1, #0
 8004aec:	d1f4      	bne.n	8004ad8 <UART_CheckIdleState+0x210>
 8004aee:	6ee2      	ldr	r2, [r4, #108]	@ 0x6c
 8004af0:	2a01      	cmp	r2, #1
 8004af2:	d00a      	beq.n	8004b0a <UART_CheckIdleState+0x242>
 8004af4:	2200      	movs	r2, #0
 8004af6:	2120      	movs	r1, #32
 8004af8:	f8c4 108c 	str.w	r1, [r4, #140]	@ 0x8c
 8004afc:	6762      	str	r2, [r4, #116]	@ 0x74
 8004afe:	66e2      	str	r2, [r4, #108]	@ 0x6c
 8004b00:	f884 2084 	strb.w	r2, [r4, #132]	@ 0x84
 8004b04:	f8c4 1090 	str.w	r1, [r4, #144]	@ 0x90
 8004b08:	e738      	b.n	800497c <UART_CheckIdleState+0xb4>
 8004b0a:	e853 2f00 	ldrex	r2, [r3]
 8004b0e:	f022 0210 	bic.w	r2, r2, #16
 8004b12:	e843 2100 	strex	r1, r2, [r3]
 8004b16:	2900      	cmp	r1, #0
 8004b18:	d1f7      	bne.n	8004b0a <UART_CheckIdleState+0x242>
 8004b1a:	e7eb      	b.n	8004af4 <UART_CheckIdleState+0x22c>
 8004b1c:	effffffe 	.word	0xeffffffe

08004b20 <HAL_UART_Init>:
 8004b20:	b380      	cbz	r0, 8004b84 <HAL_UART_Init+0x64>
 8004b22:	f8d0 3088 	ldr.w	r3, [r0, #136]	@ 0x88
 8004b26:	b510      	push	{r4, lr}
 8004b28:	4604      	mov	r4, r0
 8004b2a:	b333      	cbz	r3, 8004b7a <HAL_UART_Init+0x5a>
 8004b2c:	6822      	ldr	r2, [r4, #0]
 8004b2e:	6aa1      	ldr	r1, [r4, #40]	@ 0x28
 8004b30:	2324      	movs	r3, #36	@ 0x24
 8004b32:	f8c4 3088 	str.w	r3, [r4, #136]	@ 0x88
 8004b36:	6813      	ldr	r3, [r2, #0]
 8004b38:	f023 0301 	bic.w	r3, r3, #1
 8004b3c:	6013      	str	r3, [r2, #0]
 8004b3e:	b9c1      	cbnz	r1, 8004b72 <HAL_UART_Init+0x52>
 8004b40:	4620      	mov	r0, r4
 8004b42:	f7ff fd17 	bl	8004574 <UART_SetConfig>
 8004b46:	2801      	cmp	r0, #1
 8004b48:	d011      	beq.n	8004b6e <HAL_UART_Init+0x4e>
 8004b4a:	6823      	ldr	r3, [r4, #0]
 8004b4c:	685a      	ldr	r2, [r3, #4]
 8004b4e:	f422 4290 	bic.w	r2, r2, #18432	@ 0x4800
 8004b52:	605a      	str	r2, [r3, #4]
 8004b54:	689a      	ldr	r2, [r3, #8]
 8004b56:	f022 022a 	bic.w	r2, r2, #42	@ 0x2a
 8004b5a:	609a      	str	r2, [r3, #8]
 8004b5c:	681a      	ldr	r2, [r3, #0]
 8004b5e:	f042 0201 	orr.w	r2, r2, #1
 8004b62:	4620      	mov	r0, r4
 8004b64:	601a      	str	r2, [r3, #0]
 8004b66:	e8bd 4010 	ldmia.w	sp!, {r4, lr}
 8004b6a:	f7ff bead 	b.w	80048c8 <UART_CheckIdleState>
 8004b6e:	2001      	movs	r0, #1
 8004b70:	bd10      	pop	{r4, pc}
 8004b72:	4620      	mov	r0, r4
 8004b74:	f7ff fe50 	bl	8004818 <UART_AdvFeatureConfig>
 8004b78:	e7e2      	b.n	8004b40 <HAL_UART_Init+0x20>
 8004b7a:	f880 3084 	strb.w	r3, [r0, #132]	@ 0x84
 8004b7e:	f7fc fe13 	bl	80017a8 <HAL_UART_MspInit>
 8004b82:	e7d3      	b.n	8004b2c <HAL_UART_Init+0xc>
 8004b84:	2001      	movs	r0, #1
 8004b86:	4770      	bx	lr

08004b88 <HAL_UARTEx_DisableFifoMode>:
 8004b88:	f890 3084 	ldrb.w	r3, [r0, #132]	@ 0x84
 8004b8c:	2b01      	cmp	r3, #1
 8004b8e:	d017      	beq.n	8004bc0 <HAL_UARTEx_DisableFifoMode+0x38>
 8004b90:	6802      	ldr	r2, [r0, #0]
 8004b92:	2324      	movs	r3, #36	@ 0x24
 8004b94:	b410      	push	{r4}
 8004b96:	f8c0 3088 	str.w	r3, [r0, #136]	@ 0x88
 8004b9a:	6811      	ldr	r1, [r2, #0]
 8004b9c:	6814      	ldr	r4, [r2, #0]
 8004b9e:	2300      	movs	r3, #0
 8004ba0:	f024 0401 	bic.w	r4, r4, #1
 8004ba4:	f021 5100 	bic.w	r1, r1, #536870912	@ 0x20000000
 8004ba8:	6014      	str	r4, [r2, #0]
 8004baa:	6643      	str	r3, [r0, #100]	@ 0x64
 8004bac:	6011      	str	r1, [r2, #0]
 8004bae:	f880 3084 	strb.w	r3, [r0, #132]	@ 0x84
 8004bb2:	2220      	movs	r2, #32
 8004bb4:	f8c0 2088 	str.w	r2, [r0, #136]	@ 0x88
 8004bb8:	f85d 4b04 	ldr.w	r4, [sp], #4
 8004bbc:	4618      	mov	r0, r3
 8004bbe:	4770      	bx	lr
 8004bc0:	2002      	movs	r0, #2
 8004bc2:	4770      	bx	lr

08004bc4 <HAL_UARTEx_SetTxFifoThreshold>:
 8004bc4:	f890 2084 	ldrb.w	r2, [r0, #132]	@ 0x84
 8004bc8:	2a01      	cmp	r2, #1
 8004bca:	d037      	beq.n	8004c3c <HAL_UARTEx_SetTxFifoThreshold+0x78>
 8004bcc:	4603      	mov	r3, r0
 8004bce:	6802      	ldr	r2, [r0, #0]
 8004bd0:	2024      	movs	r0, #36	@ 0x24
 8004bd2:	b530      	push	{r4, r5, lr}
 8004bd4:	f8c3 0088 	str.w	r0, [r3, #136]	@ 0x88
 8004bd8:	6814      	ldr	r4, [r2, #0]
 8004bda:	6810      	ldr	r0, [r2, #0]
 8004bdc:	f020 0001 	bic.w	r0, r0, #1
 8004be0:	6010      	str	r0, [r2, #0]
 8004be2:	6890      	ldr	r0, [r2, #8]
 8004be4:	f020 4060 	bic.w	r0, r0, #3758096384	@ 0xe0000000
 8004be8:	4301      	orrs	r1, r0
 8004bea:	6e58      	ldr	r0, [r3, #100]	@ 0x64
 8004bec:	6091      	str	r1, [r2, #8]
 8004bee:	b310      	cbz	r0, 8004c36 <HAL_UARTEx_SetTxFifoThreshold+0x72>
 8004bf0:	6891      	ldr	r1, [r2, #8]
 8004bf2:	6890      	ldr	r0, [r2, #8]
 8004bf4:	4d12      	ldr	r5, [pc, #72]	@ (8004c40 <HAL_UARTEx_SetTxFifoThreshold+0x7c>)
 8004bf6:	f3c1 6c42 	ubfx	ip, r1, #25, #3
 8004bfa:	ea4f 7e50 	mov.w	lr, r0, lsr #29
 8004bfe:	4911      	ldr	r1, [pc, #68]	@ (8004c44 <HAL_UARTEx_SetTxFifoThreshold+0x80>)
 8004c00:	f811 000e 	ldrb.w	r0, [r1, lr]
 8004c04:	f811 100c 	ldrb.w	r1, [r1, ip]
 8004c08:	f815 e00e 	ldrb.w	lr, [r5, lr]
 8004c0c:	f815 500c 	ldrb.w	r5, [r5, ip]
 8004c10:	00c0      	lsls	r0, r0, #3
 8004c12:	00c9      	lsls	r1, r1, #3
 8004c14:	fbb0 f0fe 	udiv	r0, r0, lr
 8004c18:	fbb1 f1f5 	udiv	r1, r1, r5
 8004c1c:	f8a3 1068 	strh.w	r1, [r3, #104]	@ 0x68
 8004c20:	2100      	movs	r1, #0
 8004c22:	f8a3 006a 	strh.w	r0, [r3, #106]	@ 0x6a
 8004c26:	2520      	movs	r5, #32
 8004c28:	6014      	str	r4, [r2, #0]
 8004c2a:	f883 1084 	strb.w	r1, [r3, #132]	@ 0x84
 8004c2e:	4608      	mov	r0, r1
 8004c30:	f8c3 5088 	str.w	r5, [r3, #136]	@ 0x88
 8004c34:	bd30      	pop	{r4, r5, pc}
 8004c36:	2101      	movs	r1, #1
 8004c38:	4608      	mov	r0, r1
 8004c3a:	e7ef      	b.n	8004c1c <HAL_UARTEx_SetTxFifoThreshold+0x58>
 8004c3c:	2002      	movs	r0, #2
 8004c3e:	4770      	bx	lr
 8004c40:	0800f8a4 	.word	0x0800f8a4
 8004c44:	0800f8ac 	.word	0x0800f8ac

08004c48 <HAL_UARTEx_SetRxFifoThreshold>:
 8004c48:	f890 2084 	ldrb.w	r2, [r0, #132]	@ 0x84
 8004c4c:	2a01      	cmp	r2, #1
 8004c4e:	d037      	beq.n	8004cc0 <HAL_UARTEx_SetRxFifoThreshold+0x78>
 8004c50:	4603      	mov	r3, r0
 8004c52:	6802      	ldr	r2, [r0, #0]
 8004c54:	2024      	movs	r0, #36	@ 0x24
 8004c56:	b530      	push	{r4, r5, lr}
 8004c58:	f8c3 0088 	str.w	r0, [r3, #136]	@ 0x88
 8004c5c:	6814      	ldr	r4, [r2, #0]
 8004c5e:	6810      	ldr	r0, [r2, #0]
 8004c60:	f020 0001 	bic.w	r0, r0, #1
 8004c64:	6010      	str	r0, [r2, #0]
 8004c66:	6890      	ldr	r0, [r2, #8]
 8004c68:	f020 6060 	bic.w	r0, r0, #234881024	@ 0xe000000
 8004c6c:	4301      	orrs	r1, r0
 8004c6e:	6e58      	ldr	r0, [r3, #100]	@ 0x64
 8004c70:	6091      	str	r1, [r2, #8]
 8004c72:	b310      	cbz	r0, 8004cba <HAL_UARTEx_SetRxFifoThreshold+0x72>
 8004c74:	6891      	ldr	r1, [r2, #8]
 8004c76:	6890      	ldr	r0, [r2, #8]
 8004c78:	4d12      	ldr	r5, [pc, #72]	@ (8004cc4 <HAL_UARTEx_SetRxFifoThreshold+0x7c>)
 8004c7a:	f3c1 6c42 	ubfx	ip, r1, #25, #3
 8004c7e:	ea4f 7e50 	mov.w	lr, r0, lsr #29
 8004c82:	4911      	ldr	r1, [pc, #68]	@ (8004cc8 <HAL_UARTEx_SetRxFifoThreshold+0x80>)
 8004c84:	f811 000e 	ldrb.w	r0, [r1, lr]
 8004c88:	f811 100c 	ldrb.w	r1, [r1, ip]
 8004c8c:	f815 e00e 	ldrb.w	lr, [r5, lr]
 8004c90:	f815 500c 	ldrb.w	r5, [r5, ip]
 8004c94:	00c0      	lsls	r0, r0, #3
 8004c96:	00c9      	lsls	r1, r1, #3
 8004c98:	fbb0 f0fe 	udiv	r0, r0, lr
 8004c9c:	fbb1 f1f5 	udiv	r1, r1, r5
 8004ca0:	f8a3 1068 	strh.w	r1, [r3, #104]	@ 0x68
 8004ca4:	2100      	movs	r1, #0
 8004ca6:	f8a3 006a 	strh.w	r0, [r3, #106]	@ 0x6a
 8004caa:	2520      	movs	r5, #32
 8004cac:	6014      	str	r4, [r2, #0]
 8004cae:	f883 1084 	strb.w	r1, [r3, #132]	@ 0x84
 8004cb2:	4608      	mov	r0, r1
 8004cb4:	f8c3 5088 	str.w	r5, [r3, #136]	@ 0x88
 8004cb8:	bd30      	pop	{r4, r5, pc}
 8004cba:	2101      	movs	r1, #1
 8004cbc:	4608      	mov	r0, r1
 8004cbe:	e7ef      	b.n	8004ca0 <HAL_UARTEx_SetRxFifoThreshold+0x58>
 8004cc0:	2002      	movs	r0, #2
 8004cc2:	4770      	bx	lr
 8004cc4:	0800f8a4 	.word	0x0800f8a4
 8004cc8:	0800f8ac 	.word	0x0800f8ac
 8004ccc:	00000000 	.word	0x00000000

08004cd0 <Recalibrate>:
 8004cd0:	b5d0      	push	{r4, r6, r7, lr}
 8004cd2:	f8d0 31a0 	ldr.w	r3, [r0, #416]	@ 0x1a0
 8004cd6:	ed90 0a6f 	vldr	s0, [r0, #444]	@ 0x1bc
 8004cda:	ed2d 8b04 	vpush	{d8-d9}
 8004cde:	f8c0 3100 	str.w	r3, [r0, #256]	@ 0x100
 8004ce2:	4604      	mov	r4, r0
 8004ce4:	f009 fb56 	bl	800e394 <SPE_ipowSquare_H96e4298bd9675fbbcb46b0c1f68b039a5627ebc5_cb4a8a449b4ada864625ee5a4355578a3aaf08ed>
 8004ce8:	ed94 7a6d 	vldr	s14, [r4, #436]	@ 0x1b4
 8004cec:	eef0 6a40 	vmov.f32	s13, s0
 8004cf0:	eec6 7a87 	vdiv.f32	s15, s13, s14
 8004cf4:	ed94 0a6e 	vldr	s0, [r4, #440]	@ 0x1b8
 8004cf8:	edc4 7a42 	vstr	s15, [r4, #264]	@ 0x108
 8004cfc:	f009 fb4a 	bl	800e394 <SPE_ipowSquare_H96e4298bd9675fbbcb46b0c1f68b039a5627ebc5_cb4a8a449b4ada864625ee5a4355578a3aaf08ed>
 8004d00:	edd4 6a40 	vldr	s13, [r4, #256]	@ 0x100
 8004d04:	edd4 7a42 	vldr	s15, [r4, #264]	@ 0x108
 8004d08:	ed94 6a72 	vldr	s12, [r4, #456]	@ 0x1c8
 8004d0c:	f8d4 1184 	ldr.w	r1, [r4, #388]	@ 0x184
 8004d10:	f8d4 2180 	ldr.w	r2, [r4, #384]	@ 0x180
 8004d14:	f8d4 3188 	ldr.w	r3, [r4, #392]	@ 0x188
 8004d18:	ed94 8a68 	vldr	s16, [r4, #416]	@ 0x1a0
 8004d1c:	edd4 8a48 	vldr	s17, [r4, #288]	@ 0x120
 8004d20:	f8c4 10e4 	str.w	r1, [r4, #228]	@ 0xe4
 8004d24:	ee80 7a26 	vdiv.f32	s14, s0, s13
 8004d28:	f8d4 118c 	ldr.w	r1, [r4, #396]	@ 0x18c
 8004d2c:	f8c4 20e0 	str.w	r2, [r4, #224]	@ 0xe0
 8004d30:	f8c4 30ec 	str.w	r3, [r4, #236]	@ 0xec
 8004d34:	f8d4 2194 	ldr.w	r2, [r4, #404]	@ 0x194
 8004d38:	f8d4 3190 	ldr.w	r3, [r4, #400]	@ 0x190
 8004d3c:	f8d4 01a4 	ldr.w	r0, [r4, #420]	@ 0x1a4
 8004d40:	f8c4 10e8 	str.w	r1, [r4, #232]	@ 0xe8
 8004d44:	f8c4 20f4 	str.w	r2, [r4, #244]	@ 0xf4
 8004d48:	f8d4 1198 	ldr.w	r1, [r4, #408]	@ 0x198
 8004d4c:	f8d4 219c 	ldr.w	r2, [r4, #412]	@ 0x19c
 8004d50:	f8c4 30f0 	str.w	r3, [r4, #240]	@ 0xf0
 8004d54:	f8d4 3118 	ldr.w	r3, [r4, #280]	@ 0x118
 8004d58:	f8c4 20f8 	str.w	r2, [r4, #248]	@ 0xf8
 8004d5c:	edd4 6a71 	vldr	s13, [r4, #452]	@ 0x1c4
 8004d60:	ed84 7a41 	vstr	s14, [r4, #260]	@ 0x104
 8004d64:	ee67 6aa6 	vmul.f32	s13, s15, s13
 8004d68:	ee67 7a86 	vmul.f32	s15, s15, s12
 8004d6c:	ee86 6a87 	vdiv.f32	s12, s13, s14
 8004d70:	f8c4 0080 	str.w	r0, [r4, #128]	@ 0x80
 8004d74:	6563      	str	r3, [r4, #84]	@ 0x54
 8004d76:	f8c4 10fc 	str.w	r1, [r4, #252]	@ 0xfc
 8004d7a:	eec7 6a87 	vdiv.f32	s13, s15, s14
 8004d7e:	ed84 6a43 	vstr	s12, [r4, #268]	@ 0x10c
 8004d82:	edc4 6a44 	vstr	s13, [r4, #272]	@ 0x110
 8004d86:	ed84 8a0c 	vstr	s16, [r4, #48]	@ 0x30
 8004d8a:	ed84 8a18 	vstr	s16, [r4, #96]	@ 0x60
 8004d8e:	edc4 8a1a 	vstr	s17, [r4, #104]	@ 0x68
 8004d92:	f8d4 111c 	ldr.w	r1, [r4, #284]	@ 0x11c
 8004d96:	f8d4 2128 	ldr.w	r2, [r4, #296]	@ 0x128
 8004d9a:	f8d4 3124 	ldr.w	r3, [r4, #292]	@ 0x124
 8004d9e:	f8c4 2098 	str.w	r2, [r4, #152]	@ 0x98
 8004da2:	6723      	str	r3, [r4, #112]	@ 0x70
 8004da4:	65a1      	str	r1, [r4, #88]	@ 0x58
 8004da6:	f7fb fb9b 	bl	80004e0 <__aeabi_f2d>
 8004daa:	f20f 4308 	addw	r3, pc, #1032	@ 0x408
 8004dae:	e9d3 2300 	ldrd	r2, r3, [r3]
 8004db2:	f7fb fbed 	bl	8000590 <__aeabi_dmul>
 8004db6:	f7fb fdfd 	bl	80009b4 <__aeabi_d2f>
 8004dba:	edd4 7a52 	vldr	s15, [r4, #328]	@ 0x148
 8004dbe:	ed94 0a58 	vldr	s0, [r4, #352]	@ 0x160
 8004dc2:	f8c4 00a8 	str.w	r0, [r4, #168]	@ 0xa8
 8004dc6:	ee68 5aa7 	vmul.f32	s11, s17, s15
 8004dca:	ee28 6a00 	vmul.f32	s12, s16, s0
 8004dce:	eec8 6a27 	vdiv.f32	s13, s16, s15
 8004dd2:	ee85 7a86 	vdiv.f32	s14, s11, s12
 8004dd6:	eec0 7a28 	vdiv.f32	s15, s0, s17
 8004dda:	edc4 6a17 	vstr	s13, [r4, #92]	@ 0x5c
 8004dde:	ed84 7a12 	vstr	s14, [r4, #72]	@ 0x48
 8004de2:	edc4 7a19 	vstr	s15, [r4, #100]	@ 0x64
 8004de6:	f009 fad5 	bl	800e394 <SPE_ipowSquare_H96e4298bd9675fbbcb46b0c1f68b039a5627ebc5_cb4a8a449b4ada864625ee5a4355578a3aaf08ed>
 8004dea:	eef0 7a40 	vmov.f32	s15, s0
 8004dee:	ed94 0a1a 	vldr	s0, [r4, #104]	@ 0x68
 8004df2:	edd4 8a52 	vldr	s17, [r4, #328]	@ 0x148
 8004df6:	ee28 8a27 	vmul.f32	s16, s16, s15
 8004dfa:	f009 facb 	bl	800e394 <SPE_ipowSquare_H96e4298bd9675fbbcb46b0c1f68b039a5627ebc5_cb4a8a449b4ada864625ee5a4355578a3aaf08ed>
 8004dfe:	edd4 7a18 	vldr	s15, [r4, #96]	@ 0x60
 8004e02:	edd4 5a16 	vldr	s11, [r4, #88]	@ 0x58
 8004e06:	ed94 7a15 	vldr	s14, [r4, #84]	@ 0x54
 8004e0a:	ee68 8a80 	vmul.f32	s17, s17, s0
 8004e0e:	eec7 6a27 	vdiv.f32	s13, s14, s15
 8004e12:	ee88 6a28 	vdiv.f32	s12, s16, s17
 8004e16:	ee85 7aa7 	vdiv.f32	s14, s11, s15
 8004e1a:	ed84 6a1b 	vstr	s12, [r4, #108]	@ 0x6c
 8004e1e:	edc4 6a23 	vstr	s13, [r4, #140]	@ 0x8c
 8004e22:	ed84 7a25 	vstr	s14, [r4, #148]	@ 0x94
 8004e26:	ed94 0a1c 	vldr	s0, [r4, #112]	@ 0x70
 8004e2a:	ed94 8a26 	vldr	s16, [r4, #152]	@ 0x98
 8004e2e:	f009 fad1 	bl	800e3d4 <SPE_cos_H96e4298bd9675fbbcb46b0c1f68b039a5627ebc5_cb4a8a449b4ada864625ee5a4355578a3aaf08ed>
 8004e32:	ee28 8a00 	vmul.f32	s16, s16, s0
 8004e36:	ed94 0a1c 	vldr	s0, [r4, #112]	@ 0x70
 8004e3a:	ed84 8a35 	vstr	s16, [r4, #212]	@ 0xd4
 8004e3e:	ed94 8a26 	vldr	s16, [r4, #152]	@ 0x98
 8004e42:	f009 fac5 	bl	800e3d0 <SPE_sin_H96e4298bd9675fbbcb46b0c1f68b039a5627ebc5_cb4a8a449b4ada864625ee5a4355578a3aaf08ed>
 8004e46:	ed94 6a25 	vldr	s12, [r4, #148]	@ 0x94
 8004e4a:	edd4 6a35 	vldr	s13, [r4, #212]	@ 0xd4
 8004e4e:	ed94 4a23 	vldr	s8, [r4, #140]	@ 0x8c
 8004e52:	ee28 7a00 	vmul.f32	s14, s16, s0
 8004e56:	eeb1 6a46 	vneg.f32	s12, s12
 8004e5a:	ee66 4a26 	vmul.f32	s9, s12, s13
 8004e5e:	ee67 5a04 	vmul.f32	s11, s14, s8
 8004e62:	ee66 7aa6 	vmul.f32	s15, s13, s13
 8004e66:	ee24 5a26 	vmul.f32	s10, s8, s13
 8004e6a:	ee67 3a06 	vmul.f32	s7, s14, s12
 8004e6e:	ee27 3a07 	vmul.f32	s6, s14, s14
 8004e72:	ee35 5a63 	vsub.f32	s10, s10, s7
 8004e76:	ee77 7a83 	vadd.f32	s15, s15, s6
 8004e7a:	ee75 5aa4 	vadd.f32	s11, s11, s9
 8004e7e:	eec5 4a27 	vdiv.f32	s9, s10, s15
 8004e82:	ee85 5aa7 	vdiv.f32	s10, s11, s15
 8004e86:	edd4 3a5f 	vldr	s7, [r4, #380]	@ 0x17c
 8004e8a:	ed94 3a59 	vldr	s6, [r4, #356]	@ 0x164
 8004e8e:	edd4 7a1b 	vldr	s15, [r4, #108]	@ 0x6c
 8004e92:	ed84 6a30 	vstr	s12, [r4, #192]	@ 0xc0
 8004e96:	ee63 5aa7 	vmul.f32	s11, s7, s15
 8004e9a:	ee67 7a83 	vmul.f32	s15, s15, s6
 8004e9e:	ee25 6a25 	vmul.f32	s12, s10, s11
 8004ea2:	ee64 0aa7 	vmul.f32	s1, s9, s15
 8004ea6:	ee25 0a27 	vmul.f32	s0, s10, s15
 8004eaa:	ee64 5aa5 	vmul.f32	s11, s9, s11
 8004eae:	ee70 0ac6 	vsub.f32	s1, s1, s12
 8004eb2:	ee30 0a25 	vadd.f32	s0, s0, s11
 8004eb6:	ee70 0aa6 	vadd.f32	s1, s1, s13
 8004eba:	ee30 0a07 	vadd.f32	s0, s0, s14
 8004ebe:	ed84 4a31 	vstr	s8, [r4, #196]	@ 0xc4
 8004ec2:	edc4 3a2b 	vstr	s7, [r4, #172]	@ 0xac
 8004ec6:	edc4 4a2d 	vstr	s9, [r4, #180]	@ 0xb4
 8004eca:	ed84 5a2c 	vstr	s10, [r4, #176]	@ 0xb0
 8004ece:	edc4 0a37 	vstr	s1, [r4, #220]	@ 0xdc
 8004ed2:	ed84 7a34 	vstr	s14, [r4, #208]	@ 0xd0
 8004ed6:	ed84 0a36 	vstr	s0, [r4, #216]	@ 0xd8
 8004eda:	f009 fa7d 	bl	800e3d8 <SPE_atan2_H96e4298bd9675fbbcb46b0c1f68b039a5627ebc5_cb4a8a449b4ada864625ee5a4355578a3aaf08ed>
 8004ede:	ee10 0a10 	vmov	r0, s0
 8004ee2:	ed84 0a1d 	vstr	s0, [r4, #116]	@ 0x74
 8004ee6:	f7fb fafb 	bl	80004e0 <__aeabi_f2d>
 8004eea:	4602      	mov	r2, r0
 8004eec:	460b      	mov	r3, r1
 8004eee:	a1b3      	add	r1, pc, #716	@ (adr r1, 80051bc <Recalibrate+0x4ec>)
 8004ef0:	e9d1 0100 	ldrd	r0, r1, [r1]
 8004ef4:	f7fb f994 	bl	8000220 <__aeabi_dsub>
 8004ef8:	f7fb fd5c 	bl	80009b4 <__aeabi_d2f>
 8004efc:	ee00 0a10 	vmov	s0, r0
 8004f00:	ed94 8a35 	vldr	s16, [r4, #212]	@ 0xd4
 8004f04:	f009 fa66 	bl	800e3d4 <SPE_cos_H96e4298bd9675fbbcb46b0c1f68b039a5627ebc5_cb4a8a449b4ada864625ee5a4355578a3aaf08ed>
 8004f08:	6f60      	ldr	r0, [r4, #116]	@ 0x74
 8004f0a:	edd4 8a34 	vldr	s17, [r4, #208]	@ 0xd0
 8004f0e:	ee28 8a00 	vmul.f32	s16, s16, s0
 8004f12:	f7fb fae5 	bl	80004e0 <__aeabi_f2d>
 8004f16:	4602      	mov	r2, r0
 8004f18:	460b      	mov	r3, r1
 8004f1a:	a1a8      	add	r1, pc, #672	@ (adr r1, 80051bc <Recalibrate+0x4ec>)
 8004f1c:	e9d1 0100 	ldrd	r0, r1, [r1]
 8004f20:	f7fb f97e 	bl	8000220 <__aeabi_dsub>
 8004f24:	f7fb fd46 	bl	80009b4 <__aeabi_d2f>
 8004f28:	ee00 0a10 	vmov	s0, r0
 8004f2c:	f009 fa50 	bl	800e3d0 <SPE_sin_H96e4298bd9675fbbcb46b0c1f68b039a5627ebc5_cb4a8a449b4ada864625ee5a4355578a3aaf08ed>
 8004f30:	ee68 8a80 	vmul.f32	s17, s17, s0
 8004f34:	ed94 7a19 	vldr	s14, [r4, #100]	@ 0x64
 8004f38:	6f60      	ldr	r0, [r4, #116]	@ 0x74
 8004f3a:	ee38 8a68 	vsub.f32	s16, s16, s17
 8004f3e:	edd4 8a35 	vldr	s17, [r4, #212]	@ 0xd4
 8004f42:	eec8 7a07 	vdiv.f32	s15, s16, s14
 8004f46:	edc4 7a33 	vstr	s15, [r4, #204]	@ 0xcc
 8004f4a:	f7fb fac9 	bl	80004e0 <__aeabi_f2d>
 8004f4e:	4602      	mov	r2, r0
 8004f50:	460b      	mov	r3, r1
 8004f52:	a19a      	add	r1, pc, #616	@ (adr r1, 80051bc <Recalibrate+0x4ec>)
 8004f54:	e9d1 0100 	ldrd	r0, r1, [r1]
 8004f58:	f7fb f962 	bl	8000220 <__aeabi_dsub>
 8004f5c:	f7fb fd2a 	bl	80009b4 <__aeabi_d2f>
 8004f60:	ee00 0a10 	vmov	s0, r0
 8004f64:	f009 fa34 	bl	800e3d0 <SPE_sin_H96e4298bd9675fbbcb46b0c1f68b039a5627ebc5_cb4a8a449b4ada864625ee5a4355578a3aaf08ed>
 8004f68:	6f60      	ldr	r0, [r4, #116]	@ 0x74
 8004f6a:	ed94 8a34 	vldr	s16, [r4, #208]	@ 0xd0
 8004f6e:	ee68 8a80 	vmul.f32	s17, s17, s0
 8004f72:	f7fb fab5 	bl	80004e0 <__aeabi_f2d>
 8004f76:	4602      	mov	r2, r0
 8004f78:	460b      	mov	r3, r1
 8004f7a:	a190      	add	r1, pc, #576	@ (adr r1, 80051bc <Recalibrate+0x4ec>)
 8004f7c:	e9d1 0100 	ldrd	r0, r1, [r1]
 8004f80:	f7fb f94e 	bl	8000220 <__aeabi_dsub>
 8004f84:	f7fb fd16 	bl	80009b4 <__aeabi_d2f>
 8004f88:	ee00 0a10 	vmov	s0, r0
 8004f8c:	f009 fa22 	bl	800e3d4 <SPE_cos_H96e4298bd9675fbbcb46b0c1f68b039a5627ebc5_cb4a8a449b4ada864625ee5a4355578a3aaf08ed>
 8004f90:	ee28 8a00 	vmul.f32	s16, s16, s0
 8004f94:	ed94 7a19 	vldr	s14, [r4, #100]	@ 0x64
 8004f98:	6f60      	ldr	r0, [r4, #116]	@ 0x74
 8004f9a:	ee38 8a28 	vadd.f32	s16, s16, s17
 8004f9e:	eec8 7a07 	vdiv.f32	s15, s16, s14
 8004fa2:	ed94 8a2d 	vldr	s16, [r4, #180]	@ 0xb4
 8004fa6:	edc4 7a32 	vstr	s15, [r4, #200]	@ 0xc8
 8004faa:	f7fb fa99 	bl	80004e0 <__aeabi_f2d>
 8004fae:	4602      	mov	r2, r0
 8004fb0:	460b      	mov	r3, r1
 8004fb2:	a182      	add	r1, pc, #520	@ (adr r1, 80051bc <Recalibrate+0x4ec>)
 8004fb4:	e9d1 0100 	ldrd	r0, r1, [r1]
 8004fb8:	f7fb f932 	bl	8000220 <__aeabi_dsub>
 8004fbc:	f7fb fcfa 	bl	80009b4 <__aeabi_d2f>
 8004fc0:	ee00 0a10 	vmov	s0, r0
 8004fc4:	f009 fa06 	bl	800e3d4 <SPE_cos_H96e4298bd9675fbbcb46b0c1f68b039a5627ebc5_cb4a8a449b4ada864625ee5a4355578a3aaf08ed>
 8004fc8:	6f60      	ldr	r0, [r4, #116]	@ 0x74
 8004fca:	edd4 8a2c 	vldr	s17, [r4, #176]	@ 0xb0
 8004fce:	ee28 8a00 	vmul.f32	s16, s16, s0
 8004fd2:	f7fb fa85 	bl	80004e0 <__aeabi_f2d>
 8004fd6:	4602      	mov	r2, r0
 8004fd8:	460b      	mov	r3, r1
 8004fda:	a178      	add	r1, pc, #480	@ (adr r1, 80051bc <Recalibrate+0x4ec>)
 8004fdc:	e9d1 0100 	ldrd	r0, r1, [r1]
 8004fe0:	f7fb f91e 	bl	8000220 <__aeabi_dsub>
 8004fe4:	f7fb fce6 	bl	80009b4 <__aeabi_d2f>
 8004fe8:	ee00 0a10 	vmov	s0, r0
 8004fec:	f009 f9f0 	bl	800e3d0 <SPE_sin_H96e4298bd9675fbbcb46b0c1f68b039a5627ebc5_cb4a8a449b4ada864625ee5a4355578a3aaf08ed>
 8004ff0:	ee68 8a80 	vmul.f32	s17, s17, s0
 8004ff4:	ed94 7a12 	vldr	s14, [r4, #72]	@ 0x48
 8004ff8:	6f60      	ldr	r0, [r4, #116]	@ 0x74
 8004ffa:	ed94 9a2d 	vldr	s18, [r4, #180]	@ 0xb4
 8004ffe:	ee38 8a68 	vsub.f32	s16, s16, s17
 8005002:	eec8 7a07 	vdiv.f32	s15, s16, s14
 8005006:	edc4 7a2f 	vstr	s15, [r4, #188]	@ 0xbc
 800500a:	f7fb fa69 	bl	80004e0 <__aeabi_f2d>
 800500e:	4602      	mov	r2, r0
 8005010:	460b      	mov	r3, r1
 8005012:	a16a      	add	r1, pc, #424	@ (adr r1, 80051bc <Recalibrate+0x4ec>)
 8005014:	e9d1 0100 	ldrd	r0, r1, [r1]
 8005018:	f7fb f902 	bl	8000220 <__aeabi_dsub>
 800501c:	f7fb fcca 	bl	80009b4 <__aeabi_d2f>
 8005020:	ee00 0a10 	vmov	s0, r0
 8005024:	f009 f9d4 	bl	800e3d0 <SPE_sin_H96e4298bd9675fbbcb46b0c1f68b039a5627ebc5_cb4a8a449b4ada864625ee5a4355578a3aaf08ed>
 8005028:	6f60      	ldr	r0, [r4, #116]	@ 0x74
 800502a:	ed94 8a2c 	vldr	s16, [r4, #176]	@ 0xb0
 800502e:	ee29 9a00 	vmul.f32	s18, s18, s0
 8005032:	f7fb fa55 	bl	80004e0 <__aeabi_f2d>
 8005036:	4602      	mov	r2, r0
 8005038:	460b      	mov	r3, r1
 800503a:	a160      	add	r1, pc, #384	@ (adr r1, 80051bc <Recalibrate+0x4ec>)
 800503c:	e9d1 0100 	ldrd	r0, r1, [r1]
 8005040:	f7fb f8ee 	bl	8000220 <__aeabi_dsub>
 8005044:	f7fb fcb6 	bl	80009b4 <__aeabi_d2f>
 8005048:	ee00 0a10 	vmov	s0, r0
 800504c:	f009 f9c2 	bl	800e3d4 <SPE_cos_H96e4298bd9675fbbcb46b0c1f68b039a5627ebc5_cb4a8a449b4ada864625ee5a4355578a3aaf08ed>
 8005050:	ed94 7a5c 	vldr	s14, [r4, #368]	@ 0x170
 8005054:	edd4 7a5a 	vldr	s15, [r4, #360]	@ 0x168
 8005058:	ed94 6a5e 	vldr	s12, [r4, #376]	@ 0x178
 800505c:	edd4 6a55 	vldr	s13, [r4, #340]	@ 0x154
 8005060:	edd4 8a53 	vldr	s17, [r4, #332]	@ 0x14c
 8005064:	ed94 5a12 	vldr	s10, [r4, #72]	@ 0x48
 8005068:	edd4 3a32 	vldr	s7, [r4, #200]	@ 0xc8
 800506c:	ed94 3a33 	vldr	s6, [r4, #204]	@ 0xcc
 8005070:	ed94 2a17 	vldr	s4, [r4, #92]	@ 0x5c
 8005074:	ed84 3a27 	vstr	s6, [r4, #156]	@ 0x9c
 8005078:	ee28 8a00 	vmul.f32	s16, s16, s0
 800507c:	ee36 6a67 	vsub.f32	s12, s12, s15
 8005080:	ee67 6a26 	vmul.f32	s13, s14, s13
 8005084:	ee67 5aa8 	vmul.f32	s11, s15, s17
 8005088:	ee38 8a09 	vadd.f32	s16, s16, s18
 800508c:	ee66 6a86 	vmul.f32	s13, s13, s12
 8005090:	ee88 4a05 	vdiv.f32	s8, s16, s10
 8005094:	ee86 5aa5 	vdiv.f32	s10, s13, s11
 8005098:	ee77 7ac7 	vsub.f32	s15, s15, s14
 800509c:	edd4 5a2f 	vldr	s11, [r4, #188]	@ 0xbc
 80050a0:	edd4 6a59 	vldr	s13, [r4, #356]	@ 0x164
 80050a4:	ed94 8a57 	vldr	s16, [r4, #348]	@ 0x15c
 80050a8:	edd4 2a19 	vldr	s5, [r4, #100]	@ 0x64
 80050ac:	ed84 4a2e 	vstr	s8, [r4, #184]	@ 0xb8
 80050b0:	ee36 6a45 	vsub.f32	s12, s12, s10
 80050b4:	ee65 4aa6 	vmul.f32	s9, s11, s13
 80050b8:	ee77 7a85 	vadd.f32	s15, s15, s10
 80050bc:	ee64 6a26 	vmul.f32	s13, s8, s13
 80050c0:	ee36 5a27 	vadd.f32	s10, s12, s15
 80050c4:	ee76 6aa3 	vadd.f32	s13, s13, s7
 80050c8:	ee25 7a87 	vmul.f32	s14, s11, s14
 80050cc:	ee25 5a25 	vmul.f32	s10, s10, s11
 80050d0:	ee37 7a26 	vadd.f32	s14, s14, s13
 80050d4:	ee74 4a83 	vadd.f32	s9, s9, s6
 80050d8:	ee64 6a26 	vmul.f32	s13, s8, s13
 80050dc:	ee64 4aa5 	vmul.f32	s9, s9, s11
 80050e0:	ee35 5a07 	vadd.f32	s10, s10, s14
 80050e4:	ee74 4aa6 	vadd.f32	s9, s9, s13
 80050e8:	ee65 6a08 	vmul.f32	s13, s10, s16
 80050ec:	ee84 3a82 	vdiv.f32	s6, s9, s4
 80050f0:	eec6 4aa8 	vdiv.f32	s9, s13, s17
 80050f4:	ee65 6aa7 	vmul.f32	s13, s11, s15
 80050f8:	ee25 5a86 	vmul.f32	s10, s11, s12
 80050fc:	ee76 6a87 	vadd.f32	s13, s13, s14
 8005100:	edc4 7a14 	vstr	s15, [r4, #80]	@ 0x50
 8005104:	ee76 7ae4 	vsub.f32	s15, s13, s9
 8005108:	ed84 7a1f 	vstr	s14, [r4, #124]	@ 0x7c
 800510c:	ee35 7a27 	vadd.f32	s14, s10, s15
 8005110:	edc4 7a1e 	vstr	s15, [r4, #120]	@ 0x78
 8005114:	ee67 7a22 	vmul.f32	s15, s14, s5
 8005118:	edc4 3a29 	vstr	s7, [r4, #164]	@ 0xa4
 800511c:	edc4 5a21 	vstr	s11, [r4, #132]	@ 0x84
 8005120:	ed84 4a22 	vstr	s8, [r4, #136]	@ 0x88
 8005124:	ed84 6a13 	vstr	s12, [r4, #76]	@ 0x4c
 8005128:	ed84 3a24 	vstr	s6, [r4, #144]	@ 0x90
 800512c:	ee17 0a90 	vmov	r0, s15
 8005130:	f7fb f9d6 	bl	80004e0 <__aeabi_f2d>
 8005134:	eec8 7a28 	vdiv.f32	s15, s16, s17
 8005138:	4606      	mov	r6, r0
 800513a:	460f      	mov	r7, r1
 800513c:	ee17 0a90 	vmov	r0, s15
 8005140:	f7fb f9ce 	bl	80004e0 <__aeabi_f2d>
 8005144:	4602      	mov	r2, r0
 8005146:	460b      	mov	r3, r1
 8005148:	2000      	movs	r0, #0
 800514a:	4919      	ldr	r1, [pc, #100]	@ (80051b0 <Recalibrate+0x4e0>)
 800514c:	f7fb f868 	bl	8000220 <__aeabi_dsub>
 8005150:	4602      	mov	r2, r0
 8005152:	460b      	mov	r3, r1
 8005154:	4630      	mov	r0, r6
 8005156:	4639      	mov	r1, r7
 8005158:	f7fb fb44 	bl	80007e4 <__aeabi_ddiv>
 800515c:	f7fb fc2a 	bl	80009b4 <__aeabi_d2f>
 8005160:	6a23      	ldr	r3, [r4, #32]
 8005162:	f8d4 1140 	ldr.w	r1, [r4, #320]	@ 0x140
 8005166:	6aa2      	ldr	r2, [r4, #40]	@ 0x28
 8005168:	f8d4 613c 	ldr.w	r6, [r4, #316]	@ 0x13c
 800516c:	62e3      	str	r3, [r4, #44]	@ 0x2c
 800516e:	6363      	str	r3, [r4, #52]	@ 0x34
 8005170:	f8c4 00a0 	str.w	r0, [r4, #160]	@ 0xa0
 8005174:	6461      	str	r1, [r4, #68]	@ 0x44
 8005176:	f8c4 2114 	str.w	r2, [r4, #276]	@ 0x114
 800517a:	ed94 0a6b 	vldr	s0, [r4, #428]	@ 0x1ac
 800517e:	6426      	str	r6, [r4, #64]	@ 0x40
 8005180:	ed94 8a6c 	vldr	s16, [r4, #432]	@ 0x1b0
 8005184:	f009 f926 	bl	800e3d4 <SPE_cos_H96e4298bd9675fbbcb46b0c1f68b039a5627ebc5_cb4a8a449b4ada864625ee5a4355578a3aaf08ed>
 8005188:	ee28 8a00 	vmul.f32	s16, s16, s0
 800518c:	ed94 0a6b 	vldr	s0, [r4, #428]	@ 0x1ac
 8005190:	ed84 8a77 	vstr	s16, [r4, #476]	@ 0x1dc
 8005194:	ed94 8a6c 	vldr	s16, [r4, #432]	@ 0x1b0
 8005198:	f009 f91a 	bl	800e3d0 <SPE_sin_H96e4298bd9675fbbcb46b0c1f68b039a5627ebc5_cb4a8a449b4ada864625ee5a4355578a3aaf08ed>
 800519c:	ee28 8a00 	vmul.f32	s16, s16, s0
 80051a0:	f8d4 30a0 	ldr.w	r3, [r4, #160]	@ 0xa0
 80051a4:	ed84 8a76 	vstr	s16, [r4, #472]	@ 0x1d8
 80051a8:	ecbd 8b04 	vpop	{d8-d9}
 80051ac:	61a3      	str	r3, [r4, #24]
 80051ae:	bdd0      	pop	{r4, r6, r7, pc}
 80051b0:	3ff00000 	.word	0x3ff00000
 80051b4:	54442d18 	.word	0x54442d18
 80051b8:	401921fb 	.word	0x401921fb
 80051bc:	54442d18 	.word	0x54442d18
 80051c0:	3ff921fb 	.word	0x3ff921fb
 80051c4:	00000000 	.word	0x00000000

080051c8 <Reinitialize>:
 80051c8:	e92d 4ff0 	stmdb	sp!, {r4, r5, r6, r7, r8, r9, sl, fp, lr}
 80051cc:	4682      	mov	sl, r0
 80051ce:	ed2d 8b08 	vpush	{d8-d11}
 80051d2:	7840      	ldrb	r0, [r0, #1]
 80051d4:	f8da 307c 	ldr.w	r3, [sl, #124]	@ 0x7c
 80051d8:	49f0      	ldr	r1, [pc, #960]	@ (800559c <Reinitialize+0x3d4>)
 80051da:	eddf 7af1 	vldr	s15, [pc, #964]	@ 80055a0 <Reinitialize+0x3d8>
 80051de:	6809      	ldr	r1, [r1, #0]
 80051e0:	f8da 2078 	ldr.w	r2, [sl, #120]	@ 0x78
 80051e4:	f8da 4244 	ldr.w	r4, [sl, #580]	@ 0x244
 80051e8:	b0c9      	sub	sp, #292	@ 0x124
 80051ea:	f8ca 3220 	str.w	r3, [sl, #544]	@ 0x220
 80051ee:	f04f 537e 	mov.w	r3, #1065353216	@ 0x3f800000
 80051f2:	2800      	cmp	r0, #0
 80051f4:	f8ca 322c 	str.w	r3, [sl, #556]	@ 0x22c
 80051f8:	eeb0 0a00 	vmov.f32	s0, #0	@ 0x40000000  2.0
 80051fc:	f8da 3074 	ldr.w	r3, [sl, #116]	@ 0x74
 8005200:	f8ca 3210 	str.w	r3, [sl, #528]	@ 0x210
 8005204:	f50a 7011 	add.w	r0, sl, #580	@ 0x244
 8005208:	bf08      	it	eq
 800520a:	eeb0 0a67 	vmoveq.f32	s0, s15
 800520e:	f8ca 2218 	str.w	r2, [sl, #536]	@ 0x218
 8005212:	f8ca 1244 	str.w	r1, [sl, #580]	@ 0x244
 8005216:	edca 7a79 	vstr	s15, [sl, #484]	@ 0x1e4
 800521a:	edca 7a7a 	vstr	s15, [sl, #488]	@ 0x1e8
 800521e:	edca 7a78 	vstr	s15, [sl, #480]	@ 0x1e0
 8005222:	edca 7a80 	vstr	s15, [sl, #512]	@ 0x200
 8005226:	edca 7a82 	vstr	s15, [sl, #520]	@ 0x208
 800522a:	edca 7a83 	vstr	s15, [sl, #524]	@ 0x20c
 800522e:	edca 7a7e 	vstr	s15, [sl, #504]	@ 0x1f8
 8005232:	edca 7a07 	vstr	s15, [sl, #28]
 8005236:	edca 7a03 	vstr	s15, [sl, #12]
 800523a:	edca 7a04 	vstr	s15, [sl, #16]
 800523e:	edca 7a7f 	vstr	s15, [sl, #508]	@ 0x1fc
 8005242:	edca 7a81 	vstr	s15, [sl, #516]	@ 0x204
 8005246:	eef7 0a00 	vmov.f32	s1, #112	@ 0x3f800000  1.0
 800524a:	910a      	str	r1, [sp, #40]	@ 0x28
 800524c:	9007      	str	r0, [sp, #28]
 800524e:	940b      	str	r4, [sp, #44]	@ 0x2c
 8005250:	f009 f88e 	bl	800e370 <SPE_greater_H96e4298bd9675fbbcb46b0c1f68b039a5627ebc5_cb4a8a449b4ada864625ee5a4355578a3aaf08ed>
 8005254:	f89a 3002 	ldrb.w	r3, [sl, #2]
 8005258:	4683      	mov	fp, r0
 800525a:	2b00      	cmp	r3, #0
 800525c:	f000 860b 	beq.w	8005e76 <Reinitialize+0xcae>
 8005260:	eeb0 0a00 	vmov.f32	s0, #0	@ 0x40000000  2.0
 8005264:	eef7 0a00 	vmov.f32	s1, #112	@ 0x3f800000  1.0
 8005268:	9807      	ldr	r0, [sp, #28]
 800526a:	f009 f881 	bl	800e370 <SPE_greater_H96e4298bd9675fbbcb46b0c1f68b039a5627ebc5_cb4a8a449b4ada864625ee5a4355578a3aaf08ed>
 800526e:	ed9a 0a6a 	vldr	s0, [sl, #424]	@ 0x1a8
 8005272:	ed9a 8a01 	vldr	s16, [sl, #4]
 8005276:	9006      	str	r0, [sp, #24]
 8005278:	f009 f8aa 	bl	800e3d0 <SPE_sin_H96e4298bd9675fbbcb46b0c1f68b039a5627ebc5_cb4a8a449b4ada864625ee5a4355578a3aaf08ed>
 800527c:	f89a 3000 	ldrb.w	r3, [sl]
 8005280:	ee28 8a00 	vmul.f32	s16, s16, s0
 8005284:	2b00      	cmp	r3, #0
 8005286:	f003 81db 	beq.w	8008640 <Reinitialize+0x3478>
 800528a:	eeb0 0a00 	vmov.f32	s0, #0	@ 0x40000000  2.0
 800528e:	eef7 0a00 	vmov.f32	s1, #112	@ 0x3f800000  1.0
 8005292:	9807      	ldr	r0, [sp, #28]
 8005294:	ed9f 9ac2 	vldr	s18, [pc, #776]	@ 80055a0 <Reinitialize+0x3d8>
 8005298:	f009 f86a 	bl	800e370 <SPE_greater_H96e4298bd9675fbbcb46b0c1f68b039a5627ebc5_cb4a8a449b4ada864625ee5a4355578a3aaf08ed>
 800529c:	ed9a 0a6a 	vldr	s0, [sl, #424]	@ 0x1a8
 80052a0:	9004      	str	r0, [sp, #16]
 80052a2:	edda 8a01 	vldr	s17, [sl, #4]
 80052a6:	f009 f895 	bl	800e3d4 <SPE_cos_H96e4298bd9675fbbcb46b0c1f68b039a5627ebc5_cb4a8a449b4ada864625ee5a4355578a3aaf08ed>
 80052aa:	ed9a 7a70 	vldr	s14, [sl, #448]	@ 0x1c0
 80052ae:	edda 6a44 	vldr	s13, [sl, #272]	@ 0x110
 80052b2:	ed9a aa43 	vldr	s20, [sl, #268]	@ 0x10c
 80052b6:	edda 9a12 	vldr	s19, [sl, #72]	@ 0x48
 80052ba:	ed8d 9a24 	vstr	s18, [sp, #144]	@ 0x90
 80052be:	eec6 7a87 	vdiv.f32	s15, s13, s14
 80052c2:	eeca 6a07 	vdiv.f32	s13, s20, s14
 80052c6:	eeb0 6a40 	vmov.f32	s12, s0
 80052ca:	eef1 7a67 	vneg.f32	s15, s15
 80052ce:	ed9a 0a84 	vldr	s0, [sl, #528]	@ 0x210
 80052d2:	edcd 6a27 	vstr	s13, [sp, #156]	@ 0x9c
 80052d6:	ee68 8a86 	vmul.f32	s17, s17, s12
 80052da:	edcd 7a26 	vstr	s15, [sp, #152]	@ 0x98
 80052de:	ed8d 9a25 	vstr	s18, [sp, #148]	@ 0x94
 80052e2:	f009 f875 	bl	800e3d0 <SPE_sin_H96e4298bd9675fbbcb46b0c1f68b039a5627ebc5_cb4a8a449b4ada864625ee5a4355578a3aaf08ed>
 80052e6:	ee69 9a80 	vmul.f32	s19, s19, s0
 80052ea:	ee69 7a8a 	vmul.f32	s15, s19, s20
 80052ee:	ee17 0a90 	vmov	r0, s15
 80052f2:	f7fb f8f5 	bl	80004e0 <__aeabi_f2d>
 80052f6:	ed9a 0a84 	vldr	s0, [sl, #528]	@ 0x210
 80052fa:	edda 9a19 	vldr	s19, [sl, #100]	@ 0x64
 80052fe:	e9cd 0102 	strd	r0, r1, [sp, #8]
 8005302:	f009 f867 	bl	800e3d4 <SPE_cos_H96e4298bd9675fbbcb46b0c1f68b039a5627ebc5_cb4a8a449b4ada864625ee5a4355578a3aaf08ed>
 8005306:	ee69 7a80 	vmul.f32	s15, s19, s0
 800530a:	ee17 0a90 	vmov	r0, s15
 800530e:	f7fb f8e7 	bl	80004e0 <__aeabi_f2d>
 8005312:	ed9a 0a70 	vldr	s0, [sl, #448]	@ 0x1c0
 8005316:	4606      	mov	r6, r0
 8005318:	ee10 0a10 	vmov	r0, s0
 800531c:	ed8d 0a08 	vstr	s0, [sp, #32]
 8005320:	460f      	mov	r7, r1
 8005322:	f7fb f8dd 	bl	80004e0 <__aeabi_f2d>
 8005326:	4604      	mov	r4, r0
 8005328:	460d      	mov	r5, r1
 800532a:	4622      	mov	r2, r4
 800532c:	462b      	mov	r3, r5
 800532e:	499d      	ldr	r1, [pc, #628]	@ (80055a4 <Reinitialize+0x3dc>)
 8005330:	2000      	movs	r0, #0
 8005332:	f7fb fa57 	bl	80007e4 <__aeabi_ddiv>
 8005336:	4622      	mov	r2, r4
 8005338:	462b      	mov	r3, r5
 800533a:	f7fb fa53 	bl	80007e4 <__aeabi_ddiv>
 800533e:	ed9d 0a08 	vldr	s0, [sp, #32]
 8005342:	4604      	mov	r4, r0
 8005344:	460d      	mov	r5, r1
 8005346:	f009 f825 	bl	800e394 <SPE_ipowSquare_H96e4298bd9675fbbcb46b0c1f68b039a5627ebc5_cb4a8a449b4ada864625ee5a4355578a3aaf08ed>
 800534a:	ee10 0a10 	vmov	r0, s0
 800534e:	f7fb f8c7 	bl	80004e0 <__aeabi_f2d>
 8005352:	4602      	mov	r2, r0
 8005354:	460b      	mov	r3, r1
 8005356:	2000      	movs	r0, #0
 8005358:	4992      	ldr	r1, [pc, #584]	@ (80055a4 <Reinitialize+0x3dc>)
 800535a:	f7fb fa43 	bl	80007e4 <__aeabi_ddiv>
 800535e:	4602      	mov	r2, r0
 8005360:	460b      	mov	r3, r1
 8005362:	4620      	mov	r0, r4
 8005364:	4629      	mov	r1, r5
 8005366:	f7fa ff5b 	bl	8000220 <__aeabi_dsub>
 800536a:	4632      	mov	r2, r6
 800536c:	463b      	mov	r3, r7
 800536e:	f7fb f90f 	bl	8000590 <__aeabi_dmul>
 8005372:	4604      	mov	r4, r0
 8005374:	f8da 0170 	ldr.w	r0, [sl, #368]	@ 0x170
 8005378:	460d      	mov	r5, r1
 800537a:	f7fb f8b1 	bl	80004e0 <__aeabi_f2d>
 800537e:	4602      	mov	r2, r0
 8005380:	460b      	mov	r3, r1
 8005382:	4620      	mov	r0, r4
 8005384:	4629      	mov	r1, r5
 8005386:	f7fb f903 	bl	8000590 <__aeabi_dmul>
 800538a:	ed9a 0a84 	vldr	s0, [sl, #528]	@ 0x210
 800538e:	edda 9a19 	vldr	s19, [sl, #100]	@ 0x64
 8005392:	4680      	mov	r8, r0
 8005394:	4689      	mov	r9, r1
 8005396:	f009 f81b 	bl	800e3d0 <SPE_sin_H96e4298bd9675fbbcb46b0c1f68b039a5627ebc5_cb4a8a449b4ada864625ee5a4355578a3aaf08ed>
 800539a:	ee69 7a80 	vmul.f32	s15, s19, s0
 800539e:	ee17 0a90 	vmov	r0, s15
 80053a2:	f7fb f89d 	bl	80004e0 <__aeabi_f2d>
 80053a6:	ed9a 0a70 	vldr	s0, [sl, #448]	@ 0x1c0
 80053aa:	4606      	mov	r6, r0
 80053ac:	ee10 0a10 	vmov	r0, s0
 80053b0:	ed8d 0a08 	vstr	s0, [sp, #32]
 80053b4:	460f      	mov	r7, r1
 80053b6:	f7fb f893 	bl	80004e0 <__aeabi_f2d>
 80053ba:	4604      	mov	r4, r0
 80053bc:	460d      	mov	r5, r1
 80053be:	4622      	mov	r2, r4
 80053c0:	462b      	mov	r3, r5
 80053c2:	4978      	ldr	r1, [pc, #480]	@ (80055a4 <Reinitialize+0x3dc>)
 80053c4:	2000      	movs	r0, #0
 80053c6:	f7fb fa0d 	bl	80007e4 <__aeabi_ddiv>
 80053ca:	4622      	mov	r2, r4
 80053cc:	462b      	mov	r3, r5
 80053ce:	f7fb fa09 	bl	80007e4 <__aeabi_ddiv>
 80053d2:	ed9d 0a08 	vldr	s0, [sp, #32]
 80053d6:	4604      	mov	r4, r0
 80053d8:	460d      	mov	r5, r1
 80053da:	f008 ffdb 	bl	800e394 <SPE_ipowSquare_H96e4298bd9675fbbcb46b0c1f68b039a5627ebc5_cb4a8a449b4ada864625ee5a4355578a3aaf08ed>
 80053de:	ee10 0a10 	vmov	r0, s0
 80053e2:	f7fb f87d 	bl	80004e0 <__aeabi_f2d>
 80053e6:	4602      	mov	r2, r0
 80053e8:	460b      	mov	r3, r1
 80053ea:	2000      	movs	r0, #0
 80053ec:	496d      	ldr	r1, [pc, #436]	@ (80055a4 <Reinitialize+0x3dc>)
 80053ee:	f7fb f9f9 	bl	80007e4 <__aeabi_ddiv>
 80053f2:	4602      	mov	r2, r0
 80053f4:	460b      	mov	r3, r1
 80053f6:	4620      	mov	r0, r4
 80053f8:	4629      	mov	r1, r5
 80053fa:	f7fa ff11 	bl	8000220 <__aeabi_dsub>
 80053fe:	4632      	mov	r2, r6
 8005400:	463b      	mov	r3, r7
 8005402:	f7fb f8c5 	bl	8000590 <__aeabi_dmul>
 8005406:	4604      	mov	r4, r0
 8005408:	f8da 0164 	ldr.w	r0, [sl, #356]	@ 0x164
 800540c:	460d      	mov	r5, r1
 800540e:	f7fb f867 	bl	80004e0 <__aeabi_f2d>
 8005412:	4602      	mov	r2, r0
 8005414:	460b      	mov	r3, r1
 8005416:	4620      	mov	r0, r4
 8005418:	4629      	mov	r1, r5
 800541a:	f7fb f8b9 	bl	8000590 <__aeabi_dmul>
 800541e:	4642      	mov	r2, r8
 8005420:	464b      	mov	r3, r9
 8005422:	f7fa feff 	bl	8000224 <__adddf3>
 8005426:	4602      	mov	r2, r0
 8005428:	460b      	mov	r3, r1
 800542a:	e9dd 0102 	ldrd	r0, r1, [sp, #8]
 800542e:	f7fa fef7 	bl	8000220 <__aeabi_dsub>
 8005432:	ed9a 0a84 	vldr	s0, [sl, #528]	@ 0x210
 8005436:	ed9a aa44 	vldr	s20, [sl, #272]	@ 0x110
 800543a:	edda 9a12 	vldr	s19, [sl, #72]	@ 0x48
 800543e:	4604      	mov	r4, r0
 8005440:	460d      	mov	r5, r1
 8005442:	f008 ffc7 	bl	800e3d4 <SPE_cos_H96e4298bd9675fbbcb46b0c1f68b039a5627ebc5_cb4a8a449b4ada864625ee5a4355578a3aaf08ed>
 8005446:	ee69 9a80 	vmul.f32	s19, s19, s0
 800544a:	ee69 7a8a 	vmul.f32	s15, s19, s20
 800544e:	ee17 0a90 	vmov	r0, s15
 8005452:	f7fb f845 	bl	80004e0 <__aeabi_f2d>
 8005456:	4622      	mov	r2, r4
 8005458:	462b      	mov	r3, r5
 800545a:	f7fa fee3 	bl	8000224 <__adddf3>
 800545e:	f7fb faa9 	bl	80009b4 <__aeabi_d2f>
 8005462:	ed9a 0a84 	vldr	s0, [sl, #528]	@ 0x210
 8005466:	edda 9a19 	vldr	s19, [sl, #100]	@ 0x64
 800546a:	9028      	str	r0, [sp, #160]	@ 0xa0
 800546c:	f008 ffb0 	bl	800e3d0 <SPE_sin_H96e4298bd9675fbbcb46b0c1f68b039a5627ebc5_cb4a8a449b4ada864625ee5a4355578a3aaf08ed>
 8005470:	ee69 7a80 	vmul.f32	s15, s19, s0
 8005474:	ee17 0a90 	vmov	r0, s15
 8005478:	f7fb f832 	bl	80004e0 <__aeabi_f2d>
 800547c:	ed9a 0a70 	vldr	s0, [sl, #448]	@ 0x1c0
 8005480:	4680      	mov	r8, r0
 8005482:	ee10 0a10 	vmov	r0, s0
 8005486:	ed8d 0a02 	vstr	s0, [sp, #8]
 800548a:	4689      	mov	r9, r1
 800548c:	f7fb f828 	bl	80004e0 <__aeabi_f2d>
 8005490:	4604      	mov	r4, r0
 8005492:	460d      	mov	r5, r1
 8005494:	4622      	mov	r2, r4
 8005496:	462b      	mov	r3, r5
 8005498:	4942      	ldr	r1, [pc, #264]	@ (80055a4 <Reinitialize+0x3dc>)
 800549a:	2000      	movs	r0, #0
 800549c:	f7fb f9a2 	bl	80007e4 <__aeabi_ddiv>
 80054a0:	462b      	mov	r3, r5
 80054a2:	4622      	mov	r2, r4
 80054a4:	f7fb f99e 	bl	80007e4 <__aeabi_ddiv>
 80054a8:	ed9d 0a02 	vldr	s0, [sp, #8]
 80054ac:	4606      	mov	r6, r0
 80054ae:	460f      	mov	r7, r1
 80054b0:	f008 ff70 	bl	800e394 <SPE_ipowSquare_H96e4298bd9675fbbcb46b0c1f68b039a5627ebc5_cb4a8a449b4ada864625ee5a4355578a3aaf08ed>
 80054b4:	edda 6a5b 	vldr	s13, [sl, #364]	@ 0x16c
 80054b8:	ed9a 6a5d 	vldr	s12, [sl, #372]	@ 0x174
 80054bc:	edda 7a5f 	vldr	s15, [sl, #380]	@ 0x17c
 80054c0:	ed9a 7a56 	vldr	s14, [sl, #344]	@ 0x158
 80054c4:	edda 9a54 	vldr	s19, [sl, #336]	@ 0x150
 80054c8:	ee77 7ae6 	vsub.f32	s15, s15, s13
 80054cc:	ee27 7a06 	vmul.f32	s14, s14, s12
 80054d0:	ee10 5a10 	vmov	r5, s0
 80054d4:	ee27 7a27 	vmul.f32	s14, s14, s15
 80054d8:	ee87 6a29 	vdiv.f32	s12, s14, s19
 80054dc:	ee86 7a26 	vdiv.f32	s14, s12, s13
 80054e0:	ee77 7ac7 	vsub.f32	s15, s15, s14
 80054e4:	ee67 7aa9 	vmul.f32	s15, s15, s19
 80054e8:	ee17 0a90 	vmov	r0, s15
 80054ec:	f7fa fff8 	bl	80004e0 <__aeabi_f2d>
 80054f0:	4602      	mov	r2, r0
 80054f2:	4628      	mov	r0, r5
 80054f4:	4614      	mov	r4, r2
 80054f6:	460d      	mov	r5, r1
 80054f8:	f7fa fff2 	bl	80004e0 <__aeabi_f2d>
 80054fc:	4602      	mov	r2, r0
 80054fe:	460b      	mov	r3, r1
 8005500:	2000      	movs	r0, #0
 8005502:	4928      	ldr	r1, [pc, #160]	@ (80055a4 <Reinitialize+0x3dc>)
 8005504:	f7fb f96e 	bl	80007e4 <__aeabi_ddiv>
 8005508:	4602      	mov	r2, r0
 800550a:	460b      	mov	r3, r1
 800550c:	4630      	mov	r0, r6
 800550e:	4639      	mov	r1, r7
 8005510:	f7fa fe86 	bl	8000220 <__aeabi_dsub>
 8005514:	4642      	mov	r2, r8
 8005516:	464b      	mov	r3, r9
 8005518:	f7fb f83a 	bl	8000590 <__aeabi_dmul>
 800551c:	4602      	mov	r2, r0
 800551e:	460b      	mov	r3, r1
 8005520:	4620      	mov	r0, r4
 8005522:	4629      	mov	r1, r5
 8005524:	f7fb f834 	bl	8000590 <__aeabi_dmul>
 8005528:	4604      	mov	r4, r0
 800552a:	ee19 0a90 	vmov	r0, s19
 800552e:	460d      	mov	r5, r1
 8005530:	f7fa ffd6 	bl	80004e0 <__aeabi_f2d>
 8005534:	4602      	mov	r2, r0
 8005536:	460b      	mov	r3, r1
 8005538:	4620      	mov	r0, r4
 800553a:	4629      	mov	r1, r5
 800553c:	f7fb f952 	bl	80007e4 <__aeabi_ddiv>
 8005540:	ed9a 0a84 	vldr	s0, [sl, #528]	@ 0x210
 8005544:	edda 9a19 	vldr	s19, [sl, #100]	@ 0x64
 8005548:	4680      	mov	r8, r0
 800554a:	4689      	mov	r9, r1
 800554c:	f008 ff42 	bl	800e3d4 <SPE_cos_H96e4298bd9675fbbcb46b0c1f68b039a5627ebc5_cb4a8a449b4ada864625ee5a4355578a3aaf08ed>
 8005550:	ee69 7a80 	vmul.f32	s15, s19, s0
 8005554:	ee17 0a90 	vmov	r0, s15
 8005558:	f7fa ffc2 	bl	80004e0 <__aeabi_f2d>
 800555c:	ed9a 0a70 	vldr	s0, [sl, #448]	@ 0x1c0
 8005560:	4606      	mov	r6, r0
 8005562:	ee10 0a10 	vmov	r0, s0
 8005566:	ed8d 0a02 	vstr	s0, [sp, #8]
 800556a:	460f      	mov	r7, r1
 800556c:	f7fa ffb8 	bl	80004e0 <__aeabi_f2d>
 8005570:	4604      	mov	r4, r0
 8005572:	460d      	mov	r5, r1
 8005574:	4622      	mov	r2, r4
 8005576:	462b      	mov	r3, r5
 8005578:	490a      	ldr	r1, [pc, #40]	@ (80055a4 <Reinitialize+0x3dc>)
 800557a:	2000      	movs	r0, #0
 800557c:	f7fb f932 	bl	80007e4 <__aeabi_ddiv>
 8005580:	4622      	mov	r2, r4
 8005582:	462b      	mov	r3, r5
 8005584:	f7fb f92e 	bl	80007e4 <__aeabi_ddiv>
 8005588:	ed9d 0a02 	vldr	s0, [sp, #8]
 800558c:	4604      	mov	r4, r0
 800558e:	460d      	mov	r5, r1
 8005590:	f008 ff00 	bl	800e394 <SPE_ipowSquare_H96e4298bd9675fbbcb46b0c1f68b039a5627ebc5_cb4a8a449b4ada864625ee5a4355578a3aaf08ed>
 8005594:	ee10 0a10 	vmov	r0, s0
 8005598:	e006      	b.n	80055a8 <Reinitialize+0x3e0>
 800559a:	bf00      	nop
 800559c:	0800f8b8 	.word	0x0800f8b8
 80055a0:	00000000 	.word	0x00000000
 80055a4:	3ff00000 	.word	0x3ff00000
 80055a8:	f7fa ff9a 	bl	80004e0 <__aeabi_f2d>
 80055ac:	4602      	mov	r2, r0
 80055ae:	460b      	mov	r3, r1
 80055b0:	2000      	movs	r0, #0
 80055b2:	49f5      	ldr	r1, [pc, #980]	@ (8005988 <Reinitialize+0x7c0>)
 80055b4:	f7fb f916 	bl	80007e4 <__aeabi_ddiv>
 80055b8:	4602      	mov	r2, r0
 80055ba:	460b      	mov	r3, r1
 80055bc:	4620      	mov	r0, r4
 80055be:	4629      	mov	r1, r5
 80055c0:	f7fa fe2e 	bl	8000220 <__aeabi_dsub>
 80055c4:	4632      	mov	r2, r6
 80055c6:	463b      	mov	r3, r7
 80055c8:	f7fa ffe2 	bl	8000590 <__aeabi_dmul>
 80055cc:	4604      	mov	r4, r0
 80055ce:	f8da 0164 	ldr.w	r0, [sl, #356]	@ 0x164
 80055d2:	460d      	mov	r5, r1
 80055d4:	f7fa ff84 	bl	80004e0 <__aeabi_f2d>
 80055d8:	4602      	mov	r2, r0
 80055da:	460b      	mov	r3, r1
 80055dc:	4620      	mov	r0, r4
 80055de:	4629      	mov	r1, r5
 80055e0:	f7fa ffd6 	bl	8000590 <__aeabi_dmul>
 80055e4:	4602      	mov	r2, r0
 80055e6:	460b      	mov	r3, r1
 80055e8:	4640      	mov	r0, r8
 80055ea:	4649      	mov	r1, r9
 80055ec:	f7fa fe18 	bl	8000220 <__aeabi_dsub>
 80055f0:	ed9a 0a84 	vldr	s0, [sl, #528]	@ 0x210
 80055f4:	edda 9a19 	vldr	s19, [sl, #100]	@ 0x64
 80055f8:	e9cd 0102 	strd	r0, r1, [sp, #8]
 80055fc:	f008 fee8 	bl	800e3d0 <SPE_sin_H96e4298bd9675fbbcb46b0c1f68b039a5627ebc5_cb4a8a449b4ada864625ee5a4355578a3aaf08ed>
 8005600:	ee69 7a80 	vmul.f32	s15, s19, s0
 8005604:	ee17 0a90 	vmov	r0, s15
 8005608:	f7fa ff6a 	bl	80004e0 <__aeabi_f2d>
 800560c:	ed9a 0a70 	vldr	s0, [sl, #448]	@ 0x1c0
 8005610:	4680      	mov	r8, r0
 8005612:	ee10 0a10 	vmov	r0, s0
 8005616:	ed8d 0a08 	vstr	s0, [sp, #32]
 800561a:	4689      	mov	r9, r1
 800561c:	f7fa ff60 	bl	80004e0 <__aeabi_f2d>
 8005620:	4604      	mov	r4, r0
 8005622:	460d      	mov	r5, r1
 8005624:	4622      	mov	r2, r4
 8005626:	462b      	mov	r3, r5
 8005628:	49d7      	ldr	r1, [pc, #860]	@ (8005988 <Reinitialize+0x7c0>)
 800562a:	2000      	movs	r0, #0
 800562c:	f7fb f8da 	bl	80007e4 <__aeabi_ddiv>
 8005630:	462b      	mov	r3, r5
 8005632:	4622      	mov	r2, r4
 8005634:	f7fb f8d6 	bl	80007e4 <__aeabi_ddiv>
 8005638:	ed9d 0a08 	vldr	s0, [sp, #32]
 800563c:	4606      	mov	r6, r0
 800563e:	460f      	mov	r7, r1
 8005640:	f008 fea8 	bl	800e394 <SPE_ipowSquare_H96e4298bd9675fbbcb46b0c1f68b039a5627ebc5_cb4a8a449b4ada864625ee5a4355578a3aaf08ed>
 8005644:	edda 6a5b 	vldr	s13, [sl, #364]	@ 0x16c
 8005648:	edda 9a56 	vldr	s19, [sl, #344]	@ 0x158
 800564c:	ed9a 7a5d 	vldr	s14, [sl, #372]	@ 0x174
 8005650:	edda 7a5f 	vldr	s15, [sl, #380]	@ 0x17c
 8005654:	edda 5a54 	vldr	s11, [sl, #336]	@ 0x150
 8005658:	ee77 7ae6 	vsub.f32	s15, s15, s13
 800565c:	ee29 6a87 	vmul.f32	s12, s19, s14
 8005660:	ee36 7ac7 	vsub.f32	s14, s13, s14
 8005664:	ee67 7a86 	vmul.f32	s15, s15, s12
 8005668:	ee10 5a10 	vmov	r5, s0
 800566c:	ee87 6aa5 	vdiv.f32	s12, s15, s11
 8005670:	eec6 7a26 	vdiv.f32	s15, s12, s13
 8005674:	ee77 7a87 	vadd.f32	s15, s15, s14
 8005678:	ee67 7aa9 	vmul.f32	s15, s15, s19
 800567c:	ee17 0a90 	vmov	r0, s15
 8005680:	f7fa ff2e 	bl	80004e0 <__aeabi_f2d>
 8005684:	4602      	mov	r2, r0
 8005686:	4628      	mov	r0, r5
 8005688:	4614      	mov	r4, r2
 800568a:	460d      	mov	r5, r1
 800568c:	f7fa ff28 	bl	80004e0 <__aeabi_f2d>
 8005690:	4602      	mov	r2, r0
 8005692:	460b      	mov	r3, r1
 8005694:	2000      	movs	r0, #0
 8005696:	49bc      	ldr	r1, [pc, #752]	@ (8005988 <Reinitialize+0x7c0>)
 8005698:	f7fb f8a4 	bl	80007e4 <__aeabi_ddiv>
 800569c:	4602      	mov	r2, r0
 800569e:	460b      	mov	r3, r1
 80056a0:	4630      	mov	r0, r6
 80056a2:	4639      	mov	r1, r7
 80056a4:	f7fa fdbc 	bl	8000220 <__aeabi_dsub>
 80056a8:	4642      	mov	r2, r8
 80056aa:	464b      	mov	r3, r9
 80056ac:	f7fa ff70 	bl	8000590 <__aeabi_dmul>
 80056b0:	4602      	mov	r2, r0
 80056b2:	460b      	mov	r3, r1
 80056b4:	4620      	mov	r0, r4
 80056b6:	4629      	mov	r1, r5
 80056b8:	f7fa ff6a 	bl	8000590 <__aeabi_dmul>
 80056bc:	4604      	mov	r4, r0
 80056be:	ee19 0a90 	vmov	r0, s19
 80056c2:	460d      	mov	r5, r1
 80056c4:	f7fa ff0c 	bl	80004e0 <__aeabi_f2d>
 80056c8:	4602      	mov	r2, r0
 80056ca:	460b      	mov	r3, r1
 80056cc:	4620      	mov	r0, r4
 80056ce:	4629      	mov	r1, r5
 80056d0:	f7fb f888 	bl	80007e4 <__aeabi_ddiv>
 80056d4:	e9dd 2302 	ldrd	r2, r3, [sp, #8]
 80056d8:	f7fa fda4 	bl	8000224 <__adddf3>
 80056dc:	ed9a 0a84 	vldr	s0, [sl, #528]	@ 0x210
 80056e0:	edda 9a19 	vldr	s19, [sl, #100]	@ 0x64
 80056e4:	4680      	mov	r8, r0
 80056e6:	4689      	mov	r9, r1
 80056e8:	f008 fe72 	bl	800e3d0 <SPE_sin_H96e4298bd9675fbbcb46b0c1f68b039a5627ebc5_cb4a8a449b4ada864625ee5a4355578a3aaf08ed>
 80056ec:	ee69 7a80 	vmul.f32	s15, s19, s0
 80056f0:	ee17 0a90 	vmov	r0, s15
 80056f4:	f7fa fef4 	bl	80004e0 <__aeabi_f2d>
 80056f8:	ed9a 0a70 	vldr	s0, [sl, #448]	@ 0x1c0
 80056fc:	4606      	mov	r6, r0
 80056fe:	ee10 0a10 	vmov	r0, s0
 8005702:	ed8d 0a02 	vstr	s0, [sp, #8]
 8005706:	460f      	mov	r7, r1
 8005708:	f7fa feea 	bl	80004e0 <__aeabi_f2d>
 800570c:	4604      	mov	r4, r0
 800570e:	460d      	mov	r5, r1
 8005710:	4622      	mov	r2, r4
 8005712:	462b      	mov	r3, r5
 8005714:	499c      	ldr	r1, [pc, #624]	@ (8005988 <Reinitialize+0x7c0>)
 8005716:	2000      	movs	r0, #0
 8005718:	f7fb f864 	bl	80007e4 <__aeabi_ddiv>
 800571c:	4622      	mov	r2, r4
 800571e:	462b      	mov	r3, r5
 8005720:	f7fb f860 	bl	80007e4 <__aeabi_ddiv>
 8005724:	ed9d 0a02 	vldr	s0, [sp, #8]
 8005728:	4604      	mov	r4, r0
 800572a:	460d      	mov	r5, r1
 800572c:	f008 fe32 	bl	800e394 <SPE_ipowSquare_H96e4298bd9675fbbcb46b0c1f68b039a5627ebc5_cb4a8a449b4ada864625ee5a4355578a3aaf08ed>
 8005730:	ee10 0a10 	vmov	r0, s0
 8005734:	f7fa fed4 	bl	80004e0 <__aeabi_f2d>
 8005738:	4602      	mov	r2, r0
 800573a:	460b      	mov	r3, r1
 800573c:	2000      	movs	r0, #0
 800573e:	4992      	ldr	r1, [pc, #584]	@ (8005988 <Reinitialize+0x7c0>)
 8005740:	f7fb f850 	bl	80007e4 <__aeabi_ddiv>
 8005744:	4602      	mov	r2, r0
 8005746:	460b      	mov	r3, r1
 8005748:	4620      	mov	r0, r4
 800574a:	4629      	mov	r1, r5
 800574c:	f7fa fd68 	bl	8000220 <__aeabi_dsub>
 8005750:	4632      	mov	r2, r6
 8005752:	463b      	mov	r3, r7
 8005754:	f7fa ff1c 	bl	8000590 <__aeabi_dmul>
 8005758:	4604      	mov	r4, r0
 800575a:	f8da 0174 	ldr.w	r0, [sl, #372]	@ 0x174
 800575e:	460d      	mov	r5, r1
 8005760:	f7fa febe 	bl	80004e0 <__aeabi_f2d>
 8005764:	4602      	mov	r2, r0
 8005766:	460b      	mov	r3, r1
 8005768:	4620      	mov	r0, r4
 800576a:	4629      	mov	r1, r5
 800576c:	f7fa ff10 	bl	8000590 <__aeabi_dmul>
 8005770:	4642      	mov	r2, r8
 8005772:	464b      	mov	r3, r9
 8005774:	f7fa fd56 	bl	8000224 <__adddf3>
 8005778:	ed9a 0a84 	vldr	s0, [sl, #528]	@ 0x210
 800577c:	ed9a aa43 	vldr	s20, [sl, #268]	@ 0x10c
 8005780:	edda 9a12 	vldr	s19, [sl, #72]	@ 0x48
 8005784:	4604      	mov	r4, r0
 8005786:	460d      	mov	r5, r1
 8005788:	f008 fe24 	bl	800e3d4 <SPE_cos_H96e4298bd9675fbbcb46b0c1f68b039a5627ebc5_cb4a8a449b4ada864625ee5a4355578a3aaf08ed>
 800578c:	ee69 9a80 	vmul.f32	s19, s19, s0
 8005790:	ee69 7a8a 	vmul.f32	s15, s19, s20
 8005794:	ee17 0a90 	vmov	r0, s15
 8005798:	f7fa fea2 	bl	80004e0 <__aeabi_f2d>
 800579c:	4622      	mov	r2, r4
 800579e:	462b      	mov	r3, r5
 80057a0:	f7fa fd40 	bl	8000224 <__adddf3>
 80057a4:	ed9a 0a84 	vldr	s0, [sl, #528]	@ 0x210
 80057a8:	ed9a aa44 	vldr	s20, [sl, #272]	@ 0x110
 80057ac:	edda 9a12 	vldr	s19, [sl, #72]	@ 0x48
 80057b0:	4604      	mov	r4, r0
 80057b2:	460d      	mov	r5, r1
 80057b4:	f008 fe0c 	bl	800e3d0 <SPE_sin_H96e4298bd9675fbbcb46b0c1f68b039a5627ebc5_cb4a8a449b4ada864625ee5a4355578a3aaf08ed>
 80057b8:	ee69 9a80 	vmul.f32	s19, s19, s0
 80057bc:	ee69 7a8a 	vmul.f32	s15, s19, s20
 80057c0:	ee17 0a90 	vmov	r0, s15
 80057c4:	f7fa fe8c 	bl	80004e0 <__aeabi_f2d>
 80057c8:	4602      	mov	r2, r0
 80057ca:	460b      	mov	r3, r1
 80057cc:	4620      	mov	r0, r4
 80057ce:	4629      	mov	r1, r5
 80057d0:	f7fa fd26 	bl	8000220 <__aeabi_dsub>
 80057d4:	f7fb f8ee 	bl	80009b4 <__aeabi_d2f>
 80057d8:	ed9a 6a44 	vldr	s12, [sl, #272]	@ 0x110
 80057dc:	edda 7a70 	vldr	s15, [sl, #448]	@ 0x1c0
 80057e0:	ed9a 7a43 	vldr	s14, [sl, #268]	@ 0x10c
 80057e4:	ed9a 0a84 	vldr	s0, [sl, #528]	@ 0x210
 80057e8:	edda 9a19 	vldr	s19, [sl, #100]	@ 0x64
 80057ec:	9029      	str	r0, [sp, #164]	@ 0xa4
 80057ee:	eec7 6a27 	vdiv.f32	s13, s14, s15
 80057f2:	ee86 7a27 	vdiv.f32	s14, s12, s15
 80057f6:	edcd 6a2c 	vstr	s13, [sp, #176]	@ 0xb0
 80057fa:	ed8d 7a2d 	vstr	s14, [sp, #180]	@ 0xb4
 80057fe:	ed8d 9a2a 	vstr	s18, [sp, #168]	@ 0xa8
 8005802:	ed8d 9a2b 	vstr	s18, [sp, #172]	@ 0xac
 8005806:	f008 fde5 	bl	800e3d4 <SPE_cos_H96e4298bd9675fbbcb46b0c1f68b039a5627ebc5_cb4a8a449b4ada864625ee5a4355578a3aaf08ed>
 800580a:	ee69 7a80 	vmul.f32	s15, s19, s0
 800580e:	ee17 0a90 	vmov	r0, s15
 8005812:	f7fa fe65 	bl	80004e0 <__aeabi_f2d>
 8005816:	ed9a 0a70 	vldr	s0, [sl, #448]	@ 0x1c0
 800581a:	4606      	mov	r6, r0
 800581c:	ee10 0a10 	vmov	r0, s0
 8005820:	ed8d 0a02 	vstr	s0, [sp, #8]
 8005824:	460f      	mov	r7, r1
 8005826:	f7fa fe5b 	bl	80004e0 <__aeabi_f2d>
 800582a:	4604      	mov	r4, r0
 800582c:	460d      	mov	r5, r1
 800582e:	4622      	mov	r2, r4
 8005830:	462b      	mov	r3, r5
 8005832:	4955      	ldr	r1, [pc, #340]	@ (8005988 <Reinitialize+0x7c0>)
 8005834:	2000      	movs	r0, #0
 8005836:	f7fa ffd5 	bl	80007e4 <__aeabi_ddiv>
 800583a:	4622      	mov	r2, r4
 800583c:	462b      	mov	r3, r5
 800583e:	f7fa ffd1 	bl	80007e4 <__aeabi_ddiv>
 8005842:	ed9d 0a02 	vldr	s0, [sp, #8]
 8005846:	4604      	mov	r4, r0
 8005848:	460d      	mov	r5, r1
 800584a:	f008 fda3 	bl	800e394 <SPE_ipowSquare_H96e4298bd9675fbbcb46b0c1f68b039a5627ebc5_cb4a8a449b4ada864625ee5a4355578a3aaf08ed>
 800584e:	ee10 0a10 	vmov	r0, s0
 8005852:	f7fa fe45 	bl	80004e0 <__aeabi_f2d>
 8005856:	4602      	mov	r2, r0
 8005858:	460b      	mov	r3, r1
 800585a:	2000      	movs	r0, #0
 800585c:	494a      	ldr	r1, [pc, #296]	@ (8005988 <Reinitialize+0x7c0>)
 800585e:	f7fa ffc1 	bl	80007e4 <__aeabi_ddiv>
 8005862:	4602      	mov	r2, r0
 8005864:	460b      	mov	r3, r1
 8005866:	4620      	mov	r0, r4
 8005868:	4629      	mov	r1, r5
 800586a:	f7fa fcd9 	bl	8000220 <__aeabi_dsub>
 800586e:	4632      	mov	r2, r6
 8005870:	463b      	mov	r3, r7
 8005872:	f7fa fe8d 	bl	8000590 <__aeabi_dmul>
 8005876:	4604      	mov	r4, r0
 8005878:	f8da 0164 	ldr.w	r0, [sl, #356]	@ 0x164
 800587c:	460d      	mov	r5, r1
 800587e:	f7fa fe2f 	bl	80004e0 <__aeabi_f2d>
 8005882:	4602      	mov	r2, r0
 8005884:	460b      	mov	r3, r1
 8005886:	4620      	mov	r0, r4
 8005888:	4629      	mov	r1, r5
 800588a:	f7fa fe81 	bl	8000590 <__aeabi_dmul>
 800588e:	ed9a 0a84 	vldr	s0, [sl, #528]	@ 0x210
 8005892:	ed9a 9a19 	vldr	s18, [sl, #100]	@ 0x64
 8005896:	4680      	mov	r8, r0
 8005898:	4689      	mov	r9, r1
 800589a:	f008 fd99 	bl	800e3d0 <SPE_sin_H96e4298bd9675fbbcb46b0c1f68b039a5627ebc5_cb4a8a449b4ada864625ee5a4355578a3aaf08ed>
 800589e:	ee69 7a00 	vmul.f32	s15, s18, s0
 80058a2:	ee17 0a90 	vmov	r0, s15
 80058a6:	f7fa fe1b 	bl	80004e0 <__aeabi_f2d>
 80058aa:	ed9a 0a70 	vldr	s0, [sl, #448]	@ 0x1c0
 80058ae:	4606      	mov	r6, r0
 80058b0:	ee10 0a10 	vmov	r0, s0
 80058b4:	ed8d 0a02 	vstr	s0, [sp, #8]
 80058b8:	460f      	mov	r7, r1
 80058ba:	f7fa fe11 	bl	80004e0 <__aeabi_f2d>
 80058be:	4604      	mov	r4, r0
 80058c0:	460d      	mov	r5, r1
 80058c2:	4622      	mov	r2, r4
 80058c4:	462b      	mov	r3, r5
 80058c6:	4930      	ldr	r1, [pc, #192]	@ (8005988 <Reinitialize+0x7c0>)
 80058c8:	2000      	movs	r0, #0
 80058ca:	f7fa ff8b 	bl	80007e4 <__aeabi_ddiv>
 80058ce:	4622      	mov	r2, r4
 80058d0:	462b      	mov	r3, r5
 80058d2:	f7fa ff87 	bl	80007e4 <__aeabi_ddiv>
 80058d6:	ed9d 0a02 	vldr	s0, [sp, #8]
 80058da:	4604      	mov	r4, r0
 80058dc:	460d      	mov	r5, r1
 80058de:	f008 fd59 	bl	800e394 <SPE_ipowSquare_H96e4298bd9675fbbcb46b0c1f68b039a5627ebc5_cb4a8a449b4ada864625ee5a4355578a3aaf08ed>
 80058e2:	ee10 0a10 	vmov	r0, s0
 80058e6:	f7fa fdfb 	bl	80004e0 <__aeabi_f2d>
 80058ea:	4602      	mov	r2, r0
 80058ec:	460b      	mov	r3, r1
 80058ee:	2000      	movs	r0, #0
 80058f0:	4925      	ldr	r1, [pc, #148]	@ (8005988 <Reinitialize+0x7c0>)
 80058f2:	f7fa ff77 	bl	80007e4 <__aeabi_ddiv>
 80058f6:	4602      	mov	r2, r0
 80058f8:	460b      	mov	r3, r1
 80058fa:	4620      	mov	r0, r4
 80058fc:	4629      	mov	r1, r5
 80058fe:	f7fa fc8f 	bl	8000220 <__aeabi_dsub>
 8005902:	4632      	mov	r2, r6
 8005904:	463b      	mov	r3, r7
 8005906:	f7fa fe43 	bl	8000590 <__aeabi_dmul>
 800590a:	4604      	mov	r4, r0
 800590c:	f8da 0170 	ldr.w	r0, [sl, #368]	@ 0x170
 8005910:	460d      	mov	r5, r1
 8005912:	f7fa fde5 	bl	80004e0 <__aeabi_f2d>
 8005916:	4602      	mov	r2, r0
 8005918:	460b      	mov	r3, r1
 800591a:	4620      	mov	r0, r4
 800591c:	4629      	mov	r1, r5
 800591e:	f7fa fe37 	bl	8000590 <__aeabi_dmul>
 8005922:	4602      	mov	r2, r0
 8005924:	460b      	mov	r3, r1
 8005926:	4640      	mov	r0, r8
 8005928:	4649      	mov	r1, r9
 800592a:	f7fa fc79 	bl	8000220 <__aeabi_dsub>
 800592e:	ed9a 0a84 	vldr	s0, [sl, #528]	@ 0x210
 8005932:	edda 9a44 	vldr	s19, [sl, #272]	@ 0x110
 8005936:	ed9a 9a12 	vldr	s18, [sl, #72]	@ 0x48
 800593a:	4604      	mov	r4, r0
 800593c:	460d      	mov	r5, r1
 800593e:	f008 fd47 	bl	800e3d0 <SPE_sin_H96e4298bd9675fbbcb46b0c1f68b039a5627ebc5_cb4a8a449b4ada864625ee5a4355578a3aaf08ed>
 8005942:	ee29 9a00 	vmul.f32	s18, s18, s0
 8005946:	ee69 7a29 	vmul.f32	s15, s18, s19
 800594a:	ee17 0a90 	vmov	r0, s15
 800594e:	f7fa fdc7 	bl	80004e0 <__aeabi_f2d>
 8005952:	4622      	mov	r2, r4
 8005954:	462b      	mov	r3, r5
 8005956:	f7fa fc65 	bl	8000224 <__adddf3>
 800595a:	ed9a 0a84 	vldr	s0, [sl, #528]	@ 0x210
 800595e:	edda 9a43 	vldr	s19, [sl, #268]	@ 0x10c
 8005962:	ed9a 9a12 	vldr	s18, [sl, #72]	@ 0x48
 8005966:	4604      	mov	r4, r0
 8005968:	460d      	mov	r5, r1
 800596a:	f008 fd33 	bl	800e3d4 <SPE_cos_H96e4298bd9675fbbcb46b0c1f68b039a5627ebc5_cb4a8a449b4ada864625ee5a4355578a3aaf08ed>
 800596e:	ee29 9a00 	vmul.f32	s18, s18, s0
 8005972:	ee69 7a29 	vmul.f32	s15, s18, s19
 8005976:	ee17 0a90 	vmov	r0, s15
 800597a:	f7fa fdb1 	bl	80004e0 <__aeabi_f2d>
 800597e:	4602      	mov	r2, r0
 8005980:	460b      	mov	r3, r1
 8005982:	4620      	mov	r0, r4
 8005984:	4629      	mov	r1, r5
 8005986:	e001      	b.n	800598c <Reinitialize+0x7c4>
 8005988:	3ff00000 	.word	0x3ff00000
 800598c:	f7fa fc48 	bl	8000220 <__aeabi_dsub>
 8005990:	f7fb f810 	bl	80009b4 <__aeabi_d2f>
 8005994:	ed9a 0a84 	vldr	s0, [sl, #528]	@ 0x210
 8005998:	edda 9a44 	vldr	s19, [sl, #272]	@ 0x110
 800599c:	ed9a 9a12 	vldr	s18, [sl, #72]	@ 0x48
 80059a0:	902e      	str	r0, [sp, #184]	@ 0xb8
 80059a2:	f008 fd17 	bl	800e3d4 <SPE_cos_H96e4298bd9675fbbcb46b0c1f68b039a5627ebc5_cb4a8a449b4ada864625ee5a4355578a3aaf08ed>
 80059a6:	ee29 9a00 	vmul.f32	s18, s18, s0
 80059aa:	ee69 7a29 	vmul.f32	s15, s18, s19
 80059ae:	ee17 0a90 	vmov	r0, s15
 80059b2:	f7fa fd95 	bl	80004e0 <__aeabi_f2d>
 80059b6:	ed9a 0a84 	vldr	s0, [sl, #528]	@ 0x210
 80059ba:	ed9a 9a19 	vldr	s18, [sl, #100]	@ 0x64
 80059be:	e9cd 0102 	strd	r0, r1, [sp, #8]
 80059c2:	f008 fd05 	bl	800e3d0 <SPE_sin_H96e4298bd9675fbbcb46b0c1f68b039a5627ebc5_cb4a8a449b4ada864625ee5a4355578a3aaf08ed>
 80059c6:	ee69 7a00 	vmul.f32	s15, s18, s0
 80059ca:	ee17 0a90 	vmov	r0, s15
 80059ce:	f7fa fd87 	bl	80004e0 <__aeabi_f2d>
 80059d2:	ed9a 0a70 	vldr	s0, [sl, #448]	@ 0x1c0
 80059d6:	4606      	mov	r6, r0
 80059d8:	ee10 0a10 	vmov	r0, s0
 80059dc:	ed8d 0a08 	vstr	s0, [sp, #32]
 80059e0:	460f      	mov	r7, r1
 80059e2:	f7fa fd7d 	bl	80004e0 <__aeabi_f2d>
 80059e6:	4604      	mov	r4, r0
 80059e8:	460d      	mov	r5, r1
 80059ea:	4622      	mov	r2, r4
 80059ec:	462b      	mov	r3, r5
 80059ee:	49de      	ldr	r1, [pc, #888]	@ (8005d68 <Reinitialize+0xba0>)
 80059f0:	2000      	movs	r0, #0
 80059f2:	f7fa fef7 	bl	80007e4 <__aeabi_ddiv>
 80059f6:	4622      	mov	r2, r4
 80059f8:	462b      	mov	r3, r5
 80059fa:	f7fa fef3 	bl	80007e4 <__aeabi_ddiv>
 80059fe:	ed9d 0a08 	vldr	s0, [sp, #32]
 8005a02:	4604      	mov	r4, r0
 8005a04:	460d      	mov	r5, r1
 8005a06:	f008 fcc5 	bl	800e394 <SPE_ipowSquare_H96e4298bd9675fbbcb46b0c1f68b039a5627ebc5_cb4a8a449b4ada864625ee5a4355578a3aaf08ed>
 8005a0a:	ee10 0a10 	vmov	r0, s0
 8005a0e:	f7fa fd67 	bl	80004e0 <__aeabi_f2d>
 8005a12:	4602      	mov	r2, r0
 8005a14:	460b      	mov	r3, r1
 8005a16:	2000      	movs	r0, #0
 8005a18:	49d3      	ldr	r1, [pc, #844]	@ (8005d68 <Reinitialize+0xba0>)
 8005a1a:	f7fa fee3 	bl	80007e4 <__aeabi_ddiv>
 8005a1e:	4602      	mov	r2, r0
 8005a20:	460b      	mov	r3, r1
 8005a22:	4620      	mov	r0, r4
 8005a24:	4629      	mov	r1, r5
 8005a26:	f7fa fbfb 	bl	8000220 <__aeabi_dsub>
 8005a2a:	4632      	mov	r2, r6
 8005a2c:	463b      	mov	r3, r7
 8005a2e:	f7fa fdaf 	bl	8000590 <__aeabi_dmul>
 8005a32:	4604      	mov	r4, r0
 8005a34:	f8da 0164 	ldr.w	r0, [sl, #356]	@ 0x164
 8005a38:	460d      	mov	r5, r1
 8005a3a:	f7fa fd51 	bl	80004e0 <__aeabi_f2d>
 8005a3e:	4602      	mov	r2, r0
 8005a40:	460b      	mov	r3, r1
 8005a42:	4620      	mov	r0, r4
 8005a44:	4629      	mov	r1, r5
 8005a46:	f7fa fda3 	bl	8000590 <__aeabi_dmul>
 8005a4a:	ed9a 0a84 	vldr	s0, [sl, #528]	@ 0x210
 8005a4e:	ed9a 9a19 	vldr	s18, [sl, #100]	@ 0x64
 8005a52:	e9cd 0108 	strd	r0, r1, [sp, #32]
 8005a56:	f008 fcbd 	bl	800e3d4 <SPE_cos_H96e4298bd9675fbbcb46b0c1f68b039a5627ebc5_cb4a8a449b4ada864625ee5a4355578a3aaf08ed>
 8005a5a:	ee69 7a00 	vmul.f32	s15, s18, s0
 8005a5e:	ee17 0a90 	vmov	r0, s15
 8005a62:	f7fa fd3d 	bl	80004e0 <__aeabi_f2d>
 8005a66:	ed9a 0a70 	vldr	s0, [sl, #448]	@ 0x1c0
 8005a6a:	4680      	mov	r8, r0
 8005a6c:	ee10 0a10 	vmov	r0, s0
 8005a70:	ed8d 0a0c 	vstr	s0, [sp, #48]	@ 0x30
 8005a74:	4689      	mov	r9, r1
 8005a76:	f7fa fd33 	bl	80004e0 <__aeabi_f2d>
 8005a7a:	4604      	mov	r4, r0
 8005a7c:	460d      	mov	r5, r1
 8005a7e:	4622      	mov	r2, r4
 8005a80:	462b      	mov	r3, r5
 8005a82:	49b9      	ldr	r1, [pc, #740]	@ (8005d68 <Reinitialize+0xba0>)
 8005a84:	2000      	movs	r0, #0
 8005a86:	f7fa fead 	bl	80007e4 <__aeabi_ddiv>
 8005a8a:	462b      	mov	r3, r5
 8005a8c:	4622      	mov	r2, r4
 8005a8e:	f7fa fea9 	bl	80007e4 <__aeabi_ddiv>
 8005a92:	ed9d 0a0c 	vldr	s0, [sp, #48]	@ 0x30
 8005a96:	4606      	mov	r6, r0
 8005a98:	460f      	mov	r7, r1
 8005a9a:	f008 fc7b 	bl	800e394 <SPE_ipowSquare_H96e4298bd9675fbbcb46b0c1f68b039a5627ebc5_cb4a8a449b4ada864625ee5a4355578a3aaf08ed>
 8005a9e:	edda 6a5b 	vldr	s13, [sl, #364]	@ 0x16c
 8005aa2:	ed9a 6a5d 	vldr	s12, [sl, #372]	@ 0x174
 8005aa6:	edda 7a5f 	vldr	s15, [sl, #380]	@ 0x17c
 8005aaa:	ed9a 7a56 	vldr	s14, [sl, #344]	@ 0x158
 8005aae:	ed9a 9a54 	vldr	s18, [sl, #336]	@ 0x150
 8005ab2:	ee77 7ae6 	vsub.f32	s15, s15, s13
 8005ab6:	ee27 7a06 	vmul.f32	s14, s14, s12
 8005aba:	ee10 5a10 	vmov	r5, s0
 8005abe:	ee27 7a27 	vmul.f32	s14, s14, s15
 8005ac2:	ee87 6a09 	vdiv.f32	s12, s14, s18
 8005ac6:	ee86 7a26 	vdiv.f32	s14, s12, s13
 8005aca:	ee77 7ac7 	vsub.f32	s15, s15, s14
 8005ace:	ee67 7a89 	vmul.f32	s15, s15, s18
 8005ad2:	ee17 0a90 	vmov	r0, s15
 8005ad6:	f7fa fd03 	bl	80004e0 <__aeabi_f2d>
 8005ada:	4602      	mov	r2, r0
 8005adc:	4628      	mov	r0, r5
 8005ade:	4614      	mov	r4, r2
 8005ae0:	460d      	mov	r5, r1
 8005ae2:	f7fa fcfd 	bl	80004e0 <__aeabi_f2d>
 8005ae6:	4602      	mov	r2, r0
 8005ae8:	460b      	mov	r3, r1
 8005aea:	2000      	movs	r0, #0
 8005aec:	499e      	ldr	r1, [pc, #632]	@ (8005d68 <Reinitialize+0xba0>)
 8005aee:	f7fa fe79 	bl	80007e4 <__aeabi_ddiv>
 8005af2:	4602      	mov	r2, r0
 8005af4:	460b      	mov	r3, r1
 8005af6:	4630      	mov	r0, r6
 8005af8:	4639      	mov	r1, r7
 8005afa:	f7fa fb91 	bl	8000220 <__aeabi_dsub>
 8005afe:	4642      	mov	r2, r8
 8005b00:	464b      	mov	r3, r9
 8005b02:	f7fa fd45 	bl	8000590 <__aeabi_dmul>
 8005b06:	4602      	mov	r2, r0
 8005b08:	460b      	mov	r3, r1
 8005b0a:	4620      	mov	r0, r4
 8005b0c:	4629      	mov	r1, r5
 8005b0e:	f7fa fd3f 	bl	8000590 <__aeabi_dmul>
 8005b12:	4604      	mov	r4, r0
 8005b14:	ee19 0a10 	vmov	r0, s18
 8005b18:	460d      	mov	r5, r1
 8005b1a:	f7fa fce1 	bl	80004e0 <__aeabi_f2d>
 8005b1e:	4602      	mov	r2, r0
 8005b20:	460b      	mov	r3, r1
 8005b22:	4620      	mov	r0, r4
 8005b24:	4629      	mov	r1, r5
 8005b26:	f7fa fe5d 	bl	80007e4 <__aeabi_ddiv>
 8005b2a:	e9dd 2308 	ldrd	r2, r3, [sp, #32]
 8005b2e:	f7fa fb79 	bl	8000224 <__adddf3>
 8005b32:	ed9a 0a84 	vldr	s0, [sl, #528]	@ 0x210
 8005b36:	ed9a 9a19 	vldr	s18, [sl, #100]	@ 0x64
 8005b3a:	e9cd 0108 	strd	r0, r1, [sp, #32]
 8005b3e:	f008 fc49 	bl	800e3d4 <SPE_cos_H96e4298bd9675fbbcb46b0c1f68b039a5627ebc5_cb4a8a449b4ada864625ee5a4355578a3aaf08ed>
 8005b42:	ee69 7a00 	vmul.f32	s15, s18, s0
 8005b46:	ee17 0a90 	vmov	r0, s15
 8005b4a:	f7fa fcc9 	bl	80004e0 <__aeabi_f2d>
 8005b4e:	ed9a 0a70 	vldr	s0, [sl, #448]	@ 0x1c0
 8005b52:	4680      	mov	r8, r0
 8005b54:	ee10 0a10 	vmov	r0, s0
 8005b58:	ed8d 0a0c 	vstr	s0, [sp, #48]	@ 0x30
 8005b5c:	4689      	mov	r9, r1
 8005b5e:	f7fa fcbf 	bl	80004e0 <__aeabi_f2d>
 8005b62:	4604      	mov	r4, r0
 8005b64:	460d      	mov	r5, r1
 8005b66:	4622      	mov	r2, r4
 8005b68:	462b      	mov	r3, r5
 8005b6a:	497f      	ldr	r1, [pc, #508]	@ (8005d68 <Reinitialize+0xba0>)
 8005b6c:	2000      	movs	r0, #0
 8005b6e:	f7fa fe39 	bl	80007e4 <__aeabi_ddiv>
 8005b72:	462b      	mov	r3, r5
 8005b74:	4622      	mov	r2, r4
 8005b76:	f7fa fe35 	bl	80007e4 <__aeabi_ddiv>
 8005b7a:	ed9d 0a0c 	vldr	s0, [sp, #48]	@ 0x30
 8005b7e:	4606      	mov	r6, r0
 8005b80:	460f      	mov	r7, r1
 8005b82:	f008 fc07 	bl	800e394 <SPE_ipowSquare_H96e4298bd9675fbbcb46b0c1f68b039a5627ebc5_cb4a8a449b4ada864625ee5a4355578a3aaf08ed>
 8005b86:	edda 6a5b 	vldr	s13, [sl, #364]	@ 0x16c
 8005b8a:	ed9a 9a56 	vldr	s18, [sl, #344]	@ 0x158
 8005b8e:	ed9a 7a5d 	vldr	s14, [sl, #372]	@ 0x174
 8005b92:	edda 7a5f 	vldr	s15, [sl, #380]	@ 0x17c
 8005b96:	edda 5a54 	vldr	s11, [sl, #336]	@ 0x150
 8005b9a:	ee77 7ae6 	vsub.f32	s15, s15, s13
 8005b9e:	ee29 6a07 	vmul.f32	s12, s18, s14
 8005ba2:	ee36 7ac7 	vsub.f32	s14, s13, s14
 8005ba6:	ee67 7a86 	vmul.f32	s15, s15, s12
 8005baa:	ee10 5a10 	vmov	r5, s0
 8005bae:	ee87 6aa5 	vdiv.f32	s12, s15, s11
 8005bb2:	eec6 7a26 	vdiv.f32	s15, s12, s13
 8005bb6:	ee77 7a87 	vadd.f32	s15, s15, s14
 8005bba:	ee67 7a89 	vmul.f32	s15, s15, s18
 8005bbe:	ee17 0a90 	vmov	r0, s15
 8005bc2:	f7fa fc8d 	bl	80004e0 <__aeabi_f2d>
 8005bc6:	4602      	mov	r2, r0
 8005bc8:	4628      	mov	r0, r5
 8005bca:	4614      	mov	r4, r2
 8005bcc:	460d      	mov	r5, r1
 8005bce:	f7fa fc87 	bl	80004e0 <__aeabi_f2d>
 8005bd2:	4602      	mov	r2, r0
 8005bd4:	460b      	mov	r3, r1
 8005bd6:	2000      	movs	r0, #0
 8005bd8:	4963      	ldr	r1, [pc, #396]	@ (8005d68 <Reinitialize+0xba0>)
 8005bda:	f7fa fe03 	bl	80007e4 <__aeabi_ddiv>
 8005bde:	4602      	mov	r2, r0
 8005be0:	460b      	mov	r3, r1
 8005be2:	4630      	mov	r0, r6
 8005be4:	4639      	mov	r1, r7
 8005be6:	f7fa fb1b 	bl	8000220 <__aeabi_dsub>
 8005bea:	4642      	mov	r2, r8
 8005bec:	464b      	mov	r3, r9
 8005bee:	f7fa fccf 	bl	8000590 <__aeabi_dmul>
 8005bf2:	4602      	mov	r2, r0
 8005bf4:	460b      	mov	r3, r1
 8005bf6:	4620      	mov	r0, r4
 8005bf8:	4629      	mov	r1, r5
 8005bfa:	f7fa fcc9 	bl	8000590 <__aeabi_dmul>
 8005bfe:	4604      	mov	r4, r0
 8005c00:	ee19 0a10 	vmov	r0, s18
 8005c04:	460d      	mov	r5, r1
 8005c06:	f7fa fc6b 	bl	80004e0 <__aeabi_f2d>
 8005c0a:	4602      	mov	r2, r0
 8005c0c:	460b      	mov	r3, r1
 8005c0e:	4620      	mov	r0, r4
 8005c10:	4629      	mov	r1, r5
 8005c12:	f7fa fde7 	bl	80007e4 <__aeabi_ddiv>
 8005c16:	e9dd 2308 	ldrd	r2, r3, [sp, #32]
 8005c1a:	f7fa fb03 	bl	8000224 <__adddf3>
 8005c1e:	ed9a 0a84 	vldr	s0, [sl, #528]	@ 0x210
 8005c22:	ed9a 9a19 	vldr	s18, [sl, #100]	@ 0x64
 8005c26:	4680      	mov	r8, r0
 8005c28:	4689      	mov	r9, r1
 8005c2a:	f008 fbd3 	bl	800e3d4 <SPE_cos_H96e4298bd9675fbbcb46b0c1f68b039a5627ebc5_cb4a8a449b4ada864625ee5a4355578a3aaf08ed>
 8005c2e:	ee69 7a00 	vmul.f32	s15, s18, s0
 8005c32:	ee17 0a90 	vmov	r0, s15
 8005c36:	f7fa fc53 	bl	80004e0 <__aeabi_f2d>
 8005c3a:	ed9a 0a70 	vldr	s0, [sl, #448]	@ 0x1c0
 8005c3e:	4606      	mov	r6, r0
 8005c40:	ee10 0a10 	vmov	r0, s0
 8005c44:	ed8d 0a08 	vstr	s0, [sp, #32]
 8005c48:	460f      	mov	r7, r1
 8005c4a:	f7fa fc49 	bl	80004e0 <__aeabi_f2d>
 8005c4e:	4604      	mov	r4, r0
 8005c50:	460d      	mov	r5, r1
 8005c52:	4622      	mov	r2, r4
 8005c54:	462b      	mov	r3, r5
 8005c56:	4944      	ldr	r1, [pc, #272]	@ (8005d68 <Reinitialize+0xba0>)
 8005c58:	2000      	movs	r0, #0
 8005c5a:	f7fa fdc3 	bl	80007e4 <__aeabi_ddiv>
 8005c5e:	4622      	mov	r2, r4
 8005c60:	462b      	mov	r3, r5
 8005c62:	f7fa fdbf 	bl	80007e4 <__aeabi_ddiv>
 8005c66:	ed9d 0a08 	vldr	s0, [sp, #32]
 8005c6a:	4604      	mov	r4, r0
 8005c6c:	460d      	mov	r5, r1
 8005c6e:	f008 fb91 	bl	800e394 <SPE_ipowSquare_H96e4298bd9675fbbcb46b0c1f68b039a5627ebc5_cb4a8a449b4ada864625ee5a4355578a3aaf08ed>
 8005c72:	ee10 0a10 	vmov	r0, s0
 8005c76:	f7fa fc33 	bl	80004e0 <__aeabi_f2d>
 8005c7a:	4602      	mov	r2, r0
 8005c7c:	460b      	mov	r3, r1
 8005c7e:	2000      	movs	r0, #0
 8005c80:	4939      	ldr	r1, [pc, #228]	@ (8005d68 <Reinitialize+0xba0>)
 8005c82:	f7fa fdaf 	bl	80007e4 <__aeabi_ddiv>
 8005c86:	4602      	mov	r2, r0
 8005c88:	460b      	mov	r3, r1
 8005c8a:	4620      	mov	r0, r4
 8005c8c:	4629      	mov	r1, r5
 8005c8e:	f7fa fac7 	bl	8000220 <__aeabi_dsub>
 8005c92:	4632      	mov	r2, r6
 8005c94:	463b      	mov	r3, r7
 8005c96:	f7fa fc7b 	bl	8000590 <__aeabi_dmul>
 8005c9a:	4604      	mov	r4, r0
 8005c9c:	f8da 0174 	ldr.w	r0, [sl, #372]	@ 0x174
 8005ca0:	460d      	mov	r5, r1
 8005ca2:	f7fa fc1d 	bl	80004e0 <__aeabi_f2d>
 8005ca6:	4602      	mov	r2, r0
 8005ca8:	460b      	mov	r3, r1
 8005caa:	4620      	mov	r0, r4
 8005cac:	4629      	mov	r1, r5
 8005cae:	f7fa fc6f 	bl	8000590 <__aeabi_dmul>
 8005cb2:	4642      	mov	r2, r8
 8005cb4:	464b      	mov	r3, r9
 8005cb6:	f7fa fab5 	bl	8000224 <__adddf3>
 8005cba:	4602      	mov	r2, r0
 8005cbc:	460b      	mov	r3, r1
 8005cbe:	e9dd 0102 	ldrd	r0, r1, [sp, #8]
 8005cc2:	f7fa faad 	bl	8000220 <__aeabi_dsub>
 8005cc6:	ed9a 0a84 	vldr	s0, [sl, #528]	@ 0x210
 8005cca:	edda 9a43 	vldr	s19, [sl, #268]	@ 0x10c
 8005cce:	ed9a 9a12 	vldr	s18, [sl, #72]	@ 0x48
 8005cd2:	4604      	mov	r4, r0
 8005cd4:	460d      	mov	r5, r1
 8005cd6:	f008 fb7b 	bl	800e3d0 <SPE_sin_H96e4298bd9675fbbcb46b0c1f68b039a5627ebc5_cb4a8a449b4ada864625ee5a4355578a3aaf08ed>
 8005cda:	ee29 9a00 	vmul.f32	s18, s18, s0
 8005cde:	ee69 7a29 	vmul.f32	s15, s18, s19
 8005ce2:	ee17 0a90 	vmov	r0, s15
 8005ce6:	f7fa fbfb 	bl	80004e0 <__aeabi_f2d>
 8005cea:	4622      	mov	r2, r4
 8005cec:	462b      	mov	r3, r5
 8005cee:	f7fa fa99 	bl	8000224 <__adddf3>
 8005cf2:	f7fa fe5f 	bl	80009b4 <__aeabi_d2f>
 8005cf6:	902f      	str	r0, [sp, #188]	@ 0xbc
 8005cf8:	f8da 010c 	ldr.w	r0, [sl, #268]	@ 0x10c
 8005cfc:	f7fa fbf0 	bl	80004e0 <__aeabi_f2d>
 8005d00:	4602      	mov	r2, r0
 8005d02:	460b      	mov	r3, r1
 8005d04:	e9cd 2308 	strd	r2, r3, [sp, #32]
 8005d08:	f1bb 0f00 	cmp.w	fp, #0
 8005d0c:	f000 80bc 	beq.w	8005e88 <Reinitialize+0xcc0>
 8005d10:	f04f 4300 	mov.w	r3, #2147483648	@ 0x80000000
 8005d14:	9331      	str	r3, [sp, #196]	@ 0xc4
 8005d16:	4b15      	ldr	r3, [pc, #84]	@ (8005d6c <Reinitialize+0xba4>)
 8005d18:	9330      	str	r3, [sp, #192]	@ 0xc0
 8005d1a:	2200      	movs	r2, #0
 8005d1c:	2300      	movs	r3, #0
 8005d1e:	f7fa fc37 	bl	8000590 <__aeabi_dmul>
 8005d22:	9b04      	ldr	r3, [sp, #16]
 8005d24:	4680      	mov	r8, r0
 8005d26:	4689      	mov	r9, r1
 8005d28:	2b00      	cmp	r3, #0
 8005d2a:	f002 84cb 	beq.w	80086c4 <Reinitialize+0x34fc>
 8005d2e:	e9dd 0108 	ldrd	r0, r1, [sp, #32]
 8005d32:	a309      	add	r3, pc, #36	@ (adr r3, 8005d58 <Reinitialize+0xb90>)
 8005d34:	e9d3 2300 	ldrd	r2, r3, [r3]
 8005d38:	f7fa fc2a 	bl	8000590 <__aeabi_dmul>
 8005d3c:	ed9f 7b08 	vldr	d7, [pc, #32]	@ 8005d60 <Reinitialize+0xb98>
 8005d40:	ed8d 7b02 	vstr	d7, [sp, #8]
 8005d44:	ed9f 7b04 	vldr	d7, [pc, #16]	@ 8005d58 <Reinitialize+0xb90>
 8005d48:	ed8d 7b04 	vstr	d7, [sp, #16]
 8005d4c:	4606      	mov	r6, r0
 8005d4e:	460f      	mov	r7, r1
 8005d50:	e00e      	b.n	8005d70 <Reinitialize+0xba8>
 8005d52:	bf00      	nop
 8005d54:	f3af 8000 	nop.w
 8005d58:	00000000 	.word	0x00000000
 8005d5c:	c0a15800 	.word	0xc0a15800
 8005d60:	00000000 	.word	0x00000000
 8005d64:	40a15800 	.word	0x40a15800
 8005d68:	3ff00000 	.word	0x3ff00000
 8005d6c:	bf800000 	.word	0xbf800000
 8005d70:	f8da 0110 	ldr.w	r0, [sl, #272]	@ 0x110
 8005d74:	f7fa fbb4 	bl	80004e0 <__aeabi_f2d>
 8005d78:	2200      	movs	r2, #0
 8005d7a:	2300      	movs	r3, #0
 8005d7c:	4604      	mov	r4, r0
 8005d7e:	460d      	mov	r5, r1
 8005d80:	f7fa fc06 	bl	8000590 <__aeabi_dmul>
 8005d84:	4602      	mov	r2, r0
 8005d86:	460b      	mov	r3, r1
 8005d88:	4630      	mov	r0, r6
 8005d8a:	4639      	mov	r1, r7
 8005d8c:	f7fa fa48 	bl	8000220 <__aeabi_dsub>
 8005d90:	f7fa fe10 	bl	80009b4 <__aeabi_d2f>
 8005d94:	e9dd 2304 	ldrd	r2, r3, [sp, #16]
 8005d98:	9032      	str	r0, [sp, #200]	@ 0xc8
 8005d9a:	4629      	mov	r1, r5
 8005d9c:	4620      	mov	r0, r4
 8005d9e:	f7fa fbf7 	bl	8000590 <__aeabi_dmul>
 8005da2:	4642      	mov	r2, r8
 8005da4:	464b      	mov	r3, r9
 8005da6:	f7fa fa3d 	bl	8000224 <__adddf3>
 8005daa:	4b35      	ldr	r3, [pc, #212]	@ (8005e80 <Reinitialize+0xcb8>)
 8005dac:	2200      	movs	r2, #0
 8005dae:	f7fa fa37 	bl	8000220 <__aeabi_dsub>
 8005db2:	f7fa fdff 	bl	80009b4 <__aeabi_d2f>
 8005db6:	ed9a 0a84 	vldr	s0, [sl, #528]	@ 0x210
 8005dba:	edda 9a19 	vldr	s19, [sl, #100]	@ 0x64
 8005dbe:	9033      	str	r0, [sp, #204]	@ 0xcc
 8005dc0:	f008 fb06 	bl	800e3d0 <SPE_sin_H96e4298bd9675fbbcb46b0c1f68b039a5627ebc5_cb4a8a449b4ada864625ee5a4355578a3aaf08ed>
 8005dc4:	e9dd 2302 	ldrd	r2, r3, [sp, #8]
 8005dc8:	2000      	movs	r0, #0
 8005dca:	2100      	movs	r1, #0
 8005dcc:	eeb0 9a40 	vmov.f32	s18, s0
 8005dd0:	f7fa fa26 	bl	8000220 <__aeabi_dsub>
 8005dd4:	ee69 7a89 	vmul.f32	s15, s19, s18
 8005dd8:	4604      	mov	r4, r0
 8005dda:	460d      	mov	r5, r1
 8005ddc:	ee17 0a90 	vmov	r0, s15
 8005de0:	f7fa fb7e 	bl	80004e0 <__aeabi_f2d>
 8005de4:	4622      	mov	r2, r4
 8005de6:	462b      	mov	r3, r5
 8005de8:	f7fa fbd2 	bl	8000590 <__aeabi_dmul>
 8005dec:	ed9a 0a84 	vldr	s0, [sl, #528]	@ 0x210
 8005df0:	ed9a 9a19 	vldr	s18, [sl, #100]	@ 0x64
 8005df4:	4606      	mov	r6, r0
 8005df6:	460f      	mov	r7, r1
 8005df8:	f008 faec 	bl	800e3d4 <SPE_cos_H96e4298bd9675fbbcb46b0c1f68b039a5627ebc5_cb4a8a449b4ada864625ee5a4355578a3aaf08ed>
 8005dfc:	ee69 7a00 	vmul.f32	s15, s18, s0
 8005e00:	ee17 0a90 	vmov	r0, s15
 8005e04:	f7fa fb6c 	bl	80004e0 <__aeabi_f2d>
 8005e08:	2200      	movs	r2, #0
 8005e0a:	2300      	movs	r3, #0
 8005e0c:	f7fa fbc0 	bl	8000590 <__aeabi_dmul>
 8005e10:	4632      	mov	r2, r6
 8005e12:	463b      	mov	r3, r7
 8005e14:	f7fa fa06 	bl	8000224 <__adddf3>
 8005e18:	4606      	mov	r6, r0
 8005e1a:	f8da 0170 	ldr.w	r0, [sl, #368]	@ 0x170
 8005e1e:	460f      	mov	r7, r1
 8005e20:	f7fa fb5e 	bl	80004e0 <__aeabi_f2d>
 8005e24:	4602      	mov	r2, r0
 8005e26:	460b      	mov	r3, r1
 8005e28:	4630      	mov	r0, r6
 8005e2a:	4639      	mov	r1, r7
 8005e2c:	f7fa fbb0 	bl	8000590 <__aeabi_dmul>
 8005e30:	ed9a 0a84 	vldr	s0, [sl, #528]	@ 0x210
 8005e34:	ed9a 9a19 	vldr	s18, [sl, #100]	@ 0x64
 8005e38:	e9cd 0108 	strd	r0, r1, [sp, #32]
 8005e3c:	f008 fac8 	bl	800e3d0 <SPE_sin_H96e4298bd9675fbbcb46b0c1f68b039a5627ebc5_cb4a8a449b4ada864625ee5a4355578a3aaf08ed>
 8005e40:	ee69 7a00 	vmul.f32	s15, s18, s0
 8005e44:	ee17 0a90 	vmov	r0, s15
 8005e48:	f7fa fb4a 	bl	80004e0 <__aeabi_f2d>
 8005e4c:	2200      	movs	r2, #0
 8005e4e:	2300      	movs	r3, #0
 8005e50:	f7fa fb9e 	bl	8000590 <__aeabi_dmul>
 8005e54:	ed9a 0a84 	vldr	s0, [sl, #528]	@ 0x210
 8005e58:	ed9a 9a19 	vldr	s18, [sl, #100]	@ 0x64
 8005e5c:	4680      	mov	r8, r0
 8005e5e:	4689      	mov	r9, r1
 8005e60:	f008 fab8 	bl	800e3d4 <SPE_cos_H96e4298bd9675fbbcb46b0c1f68b039a5627ebc5_cb4a8a449b4ada864625ee5a4355578a3aaf08ed>
 8005e64:	ee69 7a00 	vmul.f32	s15, s18, s0
 8005e68:	ee17 0a90 	vmov	r0, s15
 8005e6c:	f7fa fb38 	bl	80004e0 <__aeabi_f2d>
 8005e70:	4606      	mov	r6, r0
 8005e72:	460f      	mov	r7, r1
 8005e74:	e1a9      	b.n	80061ca <Reinitialize+0x1002>
 8005e76:	ed9f 0a03 	vldr	s0, [pc, #12]	@ 8005e84 <Reinitialize+0xcbc>
 8005e7a:	f7ff b9f3 	b.w	8005264 <Reinitialize+0x9c>
 8005e7e:	bf00      	nop
 8005e80:	3ff00000 	.word	0x3ff00000
 8005e84:	00000000 	.word	0x00000000
 8005e88:	ed9a 9a3a 	vldr	s18, [sl, #232]	@ 0xe8
 8005e8c:	ed9a aa3b 	vldr	s20, [sl, #236]	@ 0xec
 8005e90:	ee19 0a10 	vmov	r0, s18
 8005e94:	ed8d aa30 	vstr	s20, [sp, #192]	@ 0xc0
 8005e98:	f7fa fb22 	bl	80004e0 <__aeabi_f2d>
 8005e9c:	4689      	mov	r9, r1
 8005e9e:	f101 4100 	add.w	r1, r1, #2147483648	@ 0x80000000
 8005ea2:	4680      	mov	r8, r0
 8005ea4:	f7fa fd86 	bl	80009b4 <__aeabi_d2f>
 8005ea8:	edda aa38 	vldr	s21, [sl, #224]	@ 0xe0
 8005eac:	edda 9a39 	vldr	s19, [sl, #228]	@ 0xe4
 8005eb0:	9031      	str	r0, [sp, #196]	@ 0xc4
 8005eb2:	ee2a 7a8a 	vmul.f32	s14, s21, s20
 8005eb6:	ee69 7a29 	vmul.f32	s15, s18, s19
 8005eba:	ee77 7a27 	vadd.f32	s15, s14, s15
 8005ebe:	ee17 0a90 	vmov	r0, s15
 8005ec2:	f7fa fb0d 	bl	80004e0 <__aeabi_f2d>
 8005ec6:	9b04      	ldr	r3, [sp, #16]
 8005ec8:	4604      	mov	r4, r0
 8005eca:	f101 4500 	add.w	r5, r1, #2147483648	@ 0x80000000
 8005ece:	2b00      	cmp	r3, #0
 8005ed0:	f002 83c0 	beq.w	8008654 <Reinitialize+0x348c>
 8005ed4:	ee1a 0a10 	vmov	r0, s20
 8005ed8:	f7fa fb02 	bl	80004e0 <__aeabi_f2d>
 8005edc:	4602      	mov	r2, r0
 8005ede:	460b      	mov	r3, r1
 8005ee0:	e9cd 2310 	strd	r2, r3, [sp, #64]	@ 0x40
 8005ee4:	f101 4100 	add.w	r1, r1, #2147483648	@ 0x80000000
 8005ee8:	a3fb      	add	r3, pc, #1004	@ (adr r3, 80062d8 <Reinitialize+0x1110>)
 8005eea:	e9d3 2300 	ldrd	r2, r3, [r3]
 8005eee:	f7fa fb4f 	bl	8000590 <__aeabi_dmul>
 8005ef2:	4602      	mov	r2, r0
 8005ef4:	460b      	mov	r3, r1
 8005ef6:	4620      	mov	r0, r4
 8005ef8:	4629      	mov	r1, r5
 8005efa:	f7fa f991 	bl	8000220 <__aeabi_dsub>
 8005efe:	ee69 9a8a 	vmul.f32	s19, s19, s20
 8005f02:	4602      	mov	r2, r0
 8005f04:	460b      	mov	r3, r1
 8005f06:	ee29 9a2a 	vmul.f32	s18, s18, s21
 8005f0a:	e9dd 0108 	ldrd	r0, r1, [sp, #32]
 8005f0e:	e9cd 230e 	strd	r2, r3, [sp, #56]	@ 0x38
 8005f12:	f7fa fb3d 	bl	8000590 <__aeabi_dmul>
 8005f16:	ee79 7ac9 	vsub.f32	s15, s19, s18
 8005f1a:	e9cd 010c 	strd	r0, r1, [sp, #48]	@ 0x30
 8005f1e:	ee17 0a90 	vmov	r0, s15
 8005f22:	f7fa fadd 	bl	80004e0 <__aeabi_f2d>
 8005f26:	4bf0      	ldr	r3, [pc, #960]	@ (80062e8 <Reinitialize+0x1120>)
 8005f28:	2200      	movs	r2, #0
 8005f2a:	f7fa f97b 	bl	8000224 <__adddf3>
 8005f2e:	ed9f 7bea 	vldr	d7, [pc, #936]	@ 80062d8 <Reinitialize+0x1110>
 8005f32:	ed8d 7b02 	vstr	d7, [sp, #8]
 8005f36:	ed9f 7bea 	vldr	d7, [pc, #936]	@ 80062e0 <Reinitialize+0x1118>
 8005f3a:	ed8d 7b04 	vstr	d7, [sp, #16]
 8005f3e:	ec53 2b17 	vmov	r2, r3, d7
 8005f42:	4604      	mov	r4, r0
 8005f44:	460d      	mov	r5, r1
 8005f46:	4640      	mov	r0, r8
 8005f48:	4649      	mov	r1, r9
 8005f4a:	f7fa fb21 	bl	8000590 <__aeabi_dmul>
 8005f4e:	4602      	mov	r2, r0
 8005f50:	460b      	mov	r3, r1
 8005f52:	4620      	mov	r0, r4
 8005f54:	4629      	mov	r1, r5
 8005f56:	f7fa f963 	bl	8000220 <__aeabi_dsub>
 8005f5a:	4604      	mov	r4, r0
 8005f5c:	f8da 0110 	ldr.w	r0, [sl, #272]	@ 0x110
 8005f60:	460d      	mov	r5, r1
 8005f62:	f7fa fabd 	bl	80004e0 <__aeabi_f2d>
 8005f66:	4606      	mov	r6, r0
 8005f68:	460f      	mov	r7, r1
 8005f6a:	4632      	mov	r2, r6
 8005f6c:	463b      	mov	r3, r7
 8005f6e:	4620      	mov	r0, r4
 8005f70:	4629      	mov	r1, r5
 8005f72:	f7fa fb0d 	bl	8000590 <__aeabi_dmul>
 8005f76:	4602      	mov	r2, r0
 8005f78:	460b      	mov	r3, r1
 8005f7a:	e9dd 010c 	ldrd	r0, r1, [sp, #48]	@ 0x30
 8005f7e:	f7fa f94f 	bl	8000220 <__aeabi_dsub>
 8005f82:	4642      	mov	r2, r8
 8005f84:	464b      	mov	r3, r9
 8005f86:	f7fa f94b 	bl	8000220 <__aeabi_dsub>
 8005f8a:	f7fa fd13 	bl	80009b4 <__aeabi_d2f>
 8005f8e:	e9dd 230e 	ldrd	r2, r3, [sp, #56]	@ 0x38
 8005f92:	9032      	str	r0, [sp, #200]	@ 0xc8
 8005f94:	4639      	mov	r1, r7
 8005f96:	4630      	mov	r0, r6
 8005f98:	f7fa fafa 	bl	8000590 <__aeabi_dmul>
 8005f9c:	4622      	mov	r2, r4
 8005f9e:	4606      	mov	r6, r0
 8005fa0:	460f      	mov	r7, r1
 8005fa2:	462b      	mov	r3, r5
 8005fa4:	e9dd 0108 	ldrd	r0, r1, [sp, #32]
 8005fa8:	f7fa faf2 	bl	8000590 <__aeabi_dmul>
 8005fac:	4602      	mov	r2, r0
 8005fae:	460b      	mov	r3, r1
 8005fb0:	4630      	mov	r0, r6
 8005fb2:	4639      	mov	r1, r7
 8005fb4:	f7fa f936 	bl	8000224 <__adddf3>
 8005fb8:	e9dd 2310 	ldrd	r2, r3, [sp, #64]	@ 0x40
 8005fbc:	f7fa f932 	bl	8000224 <__adddf3>
 8005fc0:	f7fa fcf8 	bl	80009b4 <__aeabi_d2f>
 8005fc4:	ed9a 0a84 	vldr	s0, [sl, #528]	@ 0x210
 8005fc8:	ed9a aa19 	vldr	s20, [sl, #100]	@ 0x64
 8005fcc:	9033      	str	r0, [sp, #204]	@ 0xcc
 8005fce:	f008 f9ff 	bl	800e3d0 <SPE_sin_H96e4298bd9675fbbcb46b0c1f68b039a5627ebc5_cb4a8a449b4ada864625ee5a4355578a3aaf08ed>
 8005fd2:	edda 6a39 	vldr	s13, [sl, #228]	@ 0xe4
 8005fd6:	edda 9a3b 	vldr	s19, [sl, #236]	@ 0xec
 8005fda:	ed9a 7a3a 	vldr	s14, [sl, #232]	@ 0xe8
 8005fde:	edda 7a38 	vldr	s15, [sl, #224]	@ 0xe0
 8005fe2:	ee27 7a26 	vmul.f32	s14, s14, s13
 8005fe6:	ee69 7aa7 	vmul.f32	s15, s19, s15
 8005fea:	eeb0 9a40 	vmov.f32	s18, s0
 8005fee:	ee77 7a27 	vadd.f32	s15, s14, s15
 8005ff2:	ee17 0a90 	vmov	r0, s15
 8005ff6:	f7fa fa73 	bl	80004e0 <__aeabi_f2d>
 8005ffa:	4602      	mov	r2, r0
 8005ffc:	ee19 0a90 	vmov	r0, s19
 8006000:	4614      	mov	r4, r2
 8006002:	f101 4500 	add.w	r5, r1, #2147483648	@ 0x80000000
 8006006:	f7fa fa6b 	bl	80004e0 <__aeabi_f2d>
 800600a:	e9dd 2302 	ldrd	r2, r3, [sp, #8]
 800600e:	f101 4100 	add.w	r1, r1, #2147483648	@ 0x80000000
 8006012:	f7fa fabd 	bl	8000590 <__aeabi_dmul>
 8006016:	4602      	mov	r2, r0
 8006018:	460b      	mov	r3, r1
 800601a:	4620      	mov	r0, r4
 800601c:	4629      	mov	r1, r5
 800601e:	f7fa f8ff 	bl	8000220 <__aeabi_dsub>
 8006022:	ee6a 7a09 	vmul.f32	s15, s20, s18
 8006026:	4604      	mov	r4, r0
 8006028:	ee17 0a90 	vmov	r0, s15
 800602c:	460d      	mov	r5, r1
 800602e:	f7fa fa57 	bl	80004e0 <__aeabi_f2d>
 8006032:	4602      	mov	r2, r0
 8006034:	460b      	mov	r3, r1
 8006036:	4620      	mov	r0, r4
 8006038:	4629      	mov	r1, r5
 800603a:	f7fa faa9 	bl	8000590 <__aeabi_dmul>
 800603e:	ed9a 0a84 	vldr	s0, [sl, #528]	@ 0x210
 8006042:	ed9a aa19 	vldr	s20, [sl, #100]	@ 0x64
 8006046:	4604      	mov	r4, r0
 8006048:	460d      	mov	r5, r1
 800604a:	f008 f9c3 	bl	800e3d4 <SPE_cos_H96e4298bd9675fbbcb46b0c1f68b039a5627ebc5_cb4a8a449b4ada864625ee5a4355578a3aaf08ed>
 800604e:	edda 6a39 	vldr	s13, [sl, #228]	@ 0xe4
 8006052:	edda 9a3a 	vldr	s19, [sl, #232]	@ 0xe8
 8006056:	ed9a 7a3b 	vldr	s14, [sl, #236]	@ 0xec
 800605a:	edda 7a38 	vldr	s15, [sl, #224]	@ 0xe0
 800605e:	ee27 7a26 	vmul.f32	s14, s14, s13
 8006062:	ee69 7aa7 	vmul.f32	s15, s19, s15
 8006066:	eeb0 9a40 	vmov.f32	s18, s0
 800606a:	ee77 7a67 	vsub.f32	s15, s14, s15
 800606e:	ee17 0a90 	vmov	r0, s15
 8006072:	f7fa fa35 	bl	80004e0 <__aeabi_f2d>
 8006076:	4b9c      	ldr	r3, [pc, #624]	@ (80062e8 <Reinitialize+0x1120>)
 8006078:	2200      	movs	r2, #0
 800607a:	f7fa f8d3 	bl	8000224 <__adddf3>
 800607e:	4606      	mov	r6, r0
 8006080:	ee19 0a90 	vmov	r0, s19
 8006084:	460f      	mov	r7, r1
 8006086:	f7fa fa2b 	bl	80004e0 <__aeabi_f2d>
 800608a:	e9dd 8904 	ldrd	r8, r9, [sp, #16]
 800608e:	4642      	mov	r2, r8
 8006090:	464b      	mov	r3, r9
 8006092:	f7fa fa7d 	bl	8000590 <__aeabi_dmul>
 8006096:	4602      	mov	r2, r0
 8006098:	460b      	mov	r3, r1
 800609a:	4630      	mov	r0, r6
 800609c:	4639      	mov	r1, r7
 800609e:	f7fa f8bf 	bl	8000220 <__aeabi_dsub>
 80060a2:	ee6a 7a09 	vmul.f32	s15, s20, s18
 80060a6:	4606      	mov	r6, r0
 80060a8:	ee17 0a90 	vmov	r0, s15
 80060ac:	460f      	mov	r7, r1
 80060ae:	f7fa fa17 	bl	80004e0 <__aeabi_f2d>
 80060b2:	4602      	mov	r2, r0
 80060b4:	460b      	mov	r3, r1
 80060b6:	4630      	mov	r0, r6
 80060b8:	4639      	mov	r1, r7
 80060ba:	f7fa fa69 	bl	8000590 <__aeabi_dmul>
 80060be:	4622      	mov	r2, r4
 80060c0:	462b      	mov	r3, r5
 80060c2:	f7fa f8af 	bl	8000224 <__adddf3>
 80060c6:	4604      	mov	r4, r0
 80060c8:	f8da 0170 	ldr.w	r0, [sl, #368]	@ 0x170
 80060cc:	460d      	mov	r5, r1
 80060ce:	f7fa fa07 	bl	80004e0 <__aeabi_f2d>
 80060d2:	4602      	mov	r2, r0
 80060d4:	460b      	mov	r3, r1
 80060d6:	4620      	mov	r0, r4
 80060d8:	4629      	mov	r1, r5
 80060da:	f7fa fa59 	bl	8000590 <__aeabi_dmul>
 80060de:	ed9a 0a84 	vldr	s0, [sl, #528]	@ 0x210
 80060e2:	ed9a aa19 	vldr	s20, [sl, #100]	@ 0x64
 80060e6:	e9cd 0108 	strd	r0, r1, [sp, #32]
 80060ea:	f008 f971 	bl	800e3d0 <SPE_sin_H96e4298bd9675fbbcb46b0c1f68b039a5627ebc5_cb4a8a449b4ada864625ee5a4355578a3aaf08ed>
 80060ee:	edda 6a39 	vldr	s13, [sl, #228]	@ 0xe4
 80060f2:	edda 9a3a 	vldr	s19, [sl, #232]	@ 0xe8
 80060f6:	ed9a 7a3b 	vldr	s14, [sl, #236]	@ 0xec
 80060fa:	edda 7a38 	vldr	s15, [sl, #224]	@ 0xe0
 80060fe:	ee27 7a26 	vmul.f32	s14, s14, s13
 8006102:	ee69 7aa7 	vmul.f32	s15, s19, s15
 8006106:	eeb0 9a40 	vmov.f32	s18, s0
 800610a:	ee77 7a67 	vsub.f32	s15, s14, s15
 800610e:	ee17 0a90 	vmov	r0, s15
 8006112:	f7fa f9e5 	bl	80004e0 <__aeabi_f2d>
 8006116:	4b74      	ldr	r3, [pc, #464]	@ (80062e8 <Reinitialize+0x1120>)
 8006118:	2200      	movs	r2, #0
 800611a:	f7fa f883 	bl	8000224 <__adddf3>
 800611e:	4604      	mov	r4, r0
 8006120:	ee19 0a90 	vmov	r0, s19
 8006124:	460d      	mov	r5, r1
 8006126:	f7fa f9db 	bl	80004e0 <__aeabi_f2d>
 800612a:	4642      	mov	r2, r8
 800612c:	464b      	mov	r3, r9
 800612e:	f7fa fa2f 	bl	8000590 <__aeabi_dmul>
 8006132:	4602      	mov	r2, r0
 8006134:	460b      	mov	r3, r1
 8006136:	4620      	mov	r0, r4
 8006138:	4629      	mov	r1, r5
 800613a:	f7fa f871 	bl	8000220 <__aeabi_dsub>
 800613e:	ee6a 7a09 	vmul.f32	s15, s20, s18
 8006142:	4604      	mov	r4, r0
 8006144:	ee17 0a90 	vmov	r0, s15
 8006148:	460d      	mov	r5, r1
 800614a:	f7fa f9c9 	bl	80004e0 <__aeabi_f2d>
 800614e:	460b      	mov	r3, r1
 8006150:	4602      	mov	r2, r0
 8006152:	4629      	mov	r1, r5
 8006154:	4620      	mov	r0, r4
 8006156:	f7fa fa1b 	bl	8000590 <__aeabi_dmul>
 800615a:	ed9a 0a84 	vldr	s0, [sl, #528]	@ 0x210
 800615e:	ed9a 9a19 	vldr	s18, [sl, #100]	@ 0x64
 8006162:	4680      	mov	r8, r0
 8006164:	4689      	mov	r9, r1
 8006166:	f008 f935 	bl	800e3d4 <SPE_cos_H96e4298bd9675fbbcb46b0c1f68b039a5627ebc5_cb4a8a449b4ada864625ee5a4355578a3aaf08ed>
 800616a:	ee69 7a00 	vmul.f32	s15, s18, s0
 800616e:	ee17 0a90 	vmov	r0, s15
 8006172:	f7fa f9b5 	bl	80004e0 <__aeabi_f2d>
 8006176:	edda 6a39 	vldr	s13, [sl, #228]	@ 0xe4
 800617a:	ed9a 9a3b 	vldr	s18, [sl, #236]	@ 0xec
 800617e:	ed9a 7a3a 	vldr	s14, [sl, #232]	@ 0xe8
 8006182:	edda 7a38 	vldr	s15, [sl, #224]	@ 0xe0
 8006186:	ee27 7a26 	vmul.f32	s14, s14, s13
 800618a:	ee69 7a27 	vmul.f32	s15, s18, s15
 800618e:	4606      	mov	r6, r0
 8006190:	ee77 7a27 	vadd.f32	s15, s14, s15
 8006194:	460f      	mov	r7, r1
 8006196:	ee17 0a90 	vmov	r0, s15
 800619a:	f7fa f9a1 	bl	80004e0 <__aeabi_f2d>
 800619e:	4602      	mov	r2, r0
 80061a0:	ee19 0a10 	vmov	r0, s18
 80061a4:	4614      	mov	r4, r2
 80061a6:	f101 4500 	add.w	r5, r1, #2147483648	@ 0x80000000
 80061aa:	f7fa f999 	bl	80004e0 <__aeabi_f2d>
 80061ae:	e9dd 2302 	ldrd	r2, r3, [sp, #8]
 80061b2:	f101 4100 	add.w	r1, r1, #2147483648	@ 0x80000000
 80061b6:	f7fa f9eb 	bl	8000590 <__aeabi_dmul>
 80061ba:	4602      	mov	r2, r0
 80061bc:	460b      	mov	r3, r1
 80061be:	4620      	mov	r0, r4
 80061c0:	4629      	mov	r1, r5
 80061c2:	f7fa f82d 	bl	8000220 <__aeabi_dsub>
 80061c6:	4604      	mov	r4, r0
 80061c8:	460d      	mov	r5, r1
 80061ca:	4632      	mov	r2, r6
 80061cc:	463b      	mov	r3, r7
 80061ce:	4620      	mov	r0, r4
 80061d0:	4629      	mov	r1, r5
 80061d2:	f7fa f9dd 	bl	8000590 <__aeabi_dmul>
 80061d6:	4602      	mov	r2, r0
 80061d8:	460b      	mov	r3, r1
 80061da:	4640      	mov	r0, r8
 80061dc:	4649      	mov	r1, r9
 80061de:	f7fa f81f 	bl	8000220 <__aeabi_dsub>
 80061e2:	4604      	mov	r4, r0
 80061e4:	f8da 0164 	ldr.w	r0, [sl, #356]	@ 0x164
 80061e8:	460d      	mov	r5, r1
 80061ea:	f7fa f979 	bl	80004e0 <__aeabi_f2d>
 80061ee:	4602      	mov	r2, r0
 80061f0:	460b      	mov	r3, r1
 80061f2:	4620      	mov	r0, r4
 80061f4:	4629      	mov	r1, r5
 80061f6:	f7fa f9cb 	bl	8000590 <__aeabi_dmul>
 80061fa:	e9dd 2308 	ldrd	r2, r3, [sp, #32]
 80061fe:	f7fa f811 	bl	8000224 <__adddf3>
 8006202:	4604      	mov	r4, r0
 8006204:	f8da 01c0 	ldr.w	r0, [sl, #448]	@ 0x1c0
 8006208:	460d      	mov	r5, r1
 800620a:	f7fa f969 	bl	80004e0 <__aeabi_f2d>
 800620e:	4602      	mov	r2, r0
 8006210:	460b      	mov	r3, r1
 8006212:	4620      	mov	r0, r4
 8006214:	4629      	mov	r1, r5
 8006216:	f7fa fae5 	bl	80007e4 <__aeabi_ddiv>
 800621a:	f7fa fbcb 	bl	80009b4 <__aeabi_d2f>
 800621e:	ee07 0a90 	vmov	s15, r0
 8006222:	ed9a 0a84 	vldr	s0, [sl, #528]	@ 0x210
 8006226:	ed9a 9a19 	vldr	s18, [sl, #100]	@ 0x64
 800622a:	eef1 7a67 	vneg.f32	s15, s15
 800622e:	edcd 7a34 	vstr	s15, [sp, #208]	@ 0xd0
 8006232:	f008 f8cd 	bl	800e3d0 <SPE_sin_H96e4298bd9675fbbcb46b0c1f68b039a5627ebc5_cb4a8a449b4ada864625ee5a4355578a3aaf08ed>
 8006236:	ee69 7a00 	vmul.f32	s15, s18, s0
 800623a:	ee17 0a90 	vmov	r0, s15
 800623e:	f7fa f94f 	bl	80004e0 <__aeabi_f2d>
 8006242:	ed9a 9a19 	vldr	s18, [sl, #100]	@ 0x64
 8006246:	edda 9a84 	vldr	s19, [sl, #528]	@ 0x210
 800624a:	4604      	mov	r4, r0
 800624c:	460d      	mov	r5, r1
 800624e:	f1bb 0f00 	cmp.w	fp, #0
 8006252:	f042 825f 	bne.w	8008714 <Reinitialize+0x354c>
 8006256:	edda 6a39 	vldr	s13, [sl, #228]	@ 0xe4
 800625a:	ed9a aa3a 	vldr	s20, [sl, #232]	@ 0xe8
 800625e:	ed9a 7a3b 	vldr	s14, [sl, #236]	@ 0xec
 8006262:	edda 7a38 	vldr	s15, [sl, #224]	@ 0xe0
 8006266:	ee27 7a26 	vmul.f32	s14, s14, s13
 800626a:	ee6a 7a27 	vmul.f32	s15, s20, s15
 800626e:	ee77 7a67 	vsub.f32	s15, s14, s15
 8006272:	ee17 0a90 	vmov	r0, s15
 8006276:	f7fa f933 	bl	80004e0 <__aeabi_f2d>
 800627a:	4b1b      	ldr	r3, [pc, #108]	@ (80062e8 <Reinitialize+0x1120>)
 800627c:	2200      	movs	r2, #0
 800627e:	f7f9 ffd1 	bl	8000224 <__adddf3>
 8006282:	4606      	mov	r6, r0
 8006284:	ee1a 0a10 	vmov	r0, s20
 8006288:	460f      	mov	r7, r1
 800628a:	f7fa f929 	bl	80004e0 <__aeabi_f2d>
 800628e:	e9dd 2304 	ldrd	r2, r3, [sp, #16]
 8006292:	f7fa f97d 	bl	8000590 <__aeabi_dmul>
 8006296:	4602      	mov	r2, r0
 8006298:	460b      	mov	r3, r1
 800629a:	4630      	mov	r0, r6
 800629c:	4639      	mov	r1, r7
 800629e:	f7f9 ffbf 	bl	8000220 <__aeabi_dsub>
 80062a2:	462b      	mov	r3, r5
 80062a4:	4622      	mov	r2, r4
 80062a6:	f7fa f973 	bl	8000590 <__aeabi_dmul>
 80062aa:	eeb0 0a69 	vmov.f32	s0, s19
 80062ae:	e9cd 0108 	strd	r0, r1, [sp, #32]
 80062b2:	f008 f88f 	bl	800e3d4 <SPE_cos_H96e4298bd9675fbbcb46b0c1f68b039a5627ebc5_cb4a8a449b4ada864625ee5a4355578a3aaf08ed>
 80062b6:	ee69 7a00 	vmul.f32	s15, s18, s0
 80062ba:	ee17 0a90 	vmov	r0, s15
 80062be:	f7fa f90f 	bl	80004e0 <__aeabi_f2d>
 80062c2:	edda 6a39 	vldr	s13, [sl, #228]	@ 0xe4
 80062c6:	ed9a 9a3b 	vldr	s18, [sl, #236]	@ 0xec
 80062ca:	ed9a 7a3a 	vldr	s14, [sl, #232]	@ 0xe8
 80062ce:	edda 7a38 	vldr	s15, [sl, #224]	@ 0xe0
 80062d2:	e00b      	b.n	80062ec <Reinitialize+0x1124>
 80062d4:	f3af 8000 	nop.w
 80062d8:	00000000 	.word	0x00000000
 80062dc:	40a15800 	.word	0x40a15800
 80062e0:	00000000 	.word	0x00000000
 80062e4:	c0a15800 	.word	0xc0a15800
 80062e8:	3ff00000 	.word	0x3ff00000
 80062ec:	ee27 7a26 	vmul.f32	s14, s14, s13
 80062f0:	ee69 7a27 	vmul.f32	s15, s18, s15
 80062f4:	e9cd 010c 	strd	r0, r1, [sp, #48]	@ 0x30
 80062f8:	ee77 7a27 	vadd.f32	s15, s14, s15
 80062fc:	ee17 0a90 	vmov	r0, s15
 8006300:	f7fa f8ee 	bl	80004e0 <__aeabi_f2d>
 8006304:	4602      	mov	r2, r0
 8006306:	ee19 0a10 	vmov	r0, s18
 800630a:	4690      	mov	r8, r2
 800630c:	f101 4900 	add.w	r9, r1, #2147483648	@ 0x80000000
 8006310:	f7fa f8e6 	bl	80004e0 <__aeabi_f2d>
 8006314:	e9dd 2302 	ldrd	r2, r3, [sp, #8]
 8006318:	f101 4100 	add.w	r1, r1, #2147483648	@ 0x80000000
 800631c:	f7fa f938 	bl	8000590 <__aeabi_dmul>
 8006320:	4606      	mov	r6, r0
 8006322:	460f      	mov	r7, r1
 8006324:	edda 6a5b 	vldr	s13, [sl, #364]	@ 0x16c
 8006328:	ed9a 6a5d 	vldr	s12, [sl, #372]	@ 0x174
 800632c:	edda 7a5f 	vldr	s15, [sl, #380]	@ 0x17c
 8006330:	ed9a 7a56 	vldr	s14, [sl, #344]	@ 0x158
 8006334:	ed9a 9a54 	vldr	s18, [sl, #336]	@ 0x150
 8006338:	ee77 7ae6 	vsub.f32	s15, s15, s13
 800633c:	ee27 7a06 	vmul.f32	s14, s14, s12
 8006340:	ee27 7a27 	vmul.f32	s14, s14, s15
 8006344:	ee87 6a09 	vdiv.f32	s12, s14, s18
 8006348:	ee86 7a26 	vdiv.f32	s14, s12, s13
 800634c:	ee77 7ac7 	vsub.f32	s15, s15, s14
 8006350:	ee67 7a89 	vmul.f32	s15, s15, s18
 8006354:	ee17 0a90 	vmov	r0, s15
 8006358:	f7fa f8c2 	bl	80004e0 <__aeabi_f2d>
 800635c:	4632      	mov	r2, r6
 800635e:	4604      	mov	r4, r0
 8006360:	460d      	mov	r5, r1
 8006362:	463b      	mov	r3, r7
 8006364:	4640      	mov	r0, r8
 8006366:	4649      	mov	r1, r9
 8006368:	f7f9 ff5a 	bl	8000220 <__aeabi_dsub>
 800636c:	e9dd 230c 	ldrd	r2, r3, [sp, #48]	@ 0x30
 8006370:	f7fa f90e 	bl	8000590 <__aeabi_dmul>
 8006374:	4602      	mov	r2, r0
 8006376:	460b      	mov	r3, r1
 8006378:	e9dd 0108 	ldrd	r0, r1, [sp, #32]
 800637c:	f7f9 ff50 	bl	8000220 <__aeabi_dsub>
 8006380:	4602      	mov	r2, r0
 8006382:	460b      	mov	r3, r1
 8006384:	4620      	mov	r0, r4
 8006386:	4629      	mov	r1, r5
 8006388:	f7fa f902 	bl	8000590 <__aeabi_dmul>
 800638c:	4604      	mov	r4, r0
 800638e:	f8da 01c0 	ldr.w	r0, [sl, #448]	@ 0x1c0
 8006392:	460d      	mov	r5, r1
 8006394:	f7fa f8a4 	bl	80004e0 <__aeabi_f2d>
 8006398:	4602      	mov	r2, r0
 800639a:	460b      	mov	r3, r1
 800639c:	4620      	mov	r0, r4
 800639e:	4629      	mov	r1, r5
 80063a0:	f7fa fa20 	bl	80007e4 <__aeabi_ddiv>
 80063a4:	4604      	mov	r4, r0
 80063a6:	ee19 0a10 	vmov	r0, s18
 80063aa:	460d      	mov	r5, r1
 80063ac:	f7fa f898 	bl	80004e0 <__aeabi_f2d>
 80063b0:	4602      	mov	r2, r0
 80063b2:	460b      	mov	r3, r1
 80063b4:	4620      	mov	r0, r4
 80063b6:	4629      	mov	r1, r5
 80063b8:	f7fa fa14 	bl	80007e4 <__aeabi_ddiv>
 80063bc:	ed9a 0a84 	vldr	s0, [sl, #528]	@ 0x210
 80063c0:	ed9a 9a19 	vldr	s18, [sl, #100]	@ 0x64
 80063c4:	e9cd 0108 	strd	r0, r1, [sp, #32]
 80063c8:	f008 f802 	bl	800e3d0 <SPE_sin_H96e4298bd9675fbbcb46b0c1f68b039a5627ebc5_cb4a8a449b4ada864625ee5a4355578a3aaf08ed>
 80063cc:	ee69 7a00 	vmul.f32	s15, s18, s0
 80063d0:	ee17 0a90 	vmov	r0, s15
 80063d4:	f7fa f884 	bl	80004e0 <__aeabi_f2d>
 80063d8:	ed9a 9a19 	vldr	s18, [sl, #100]	@ 0x64
 80063dc:	edda 9a84 	vldr	s19, [sl, #528]	@ 0x210
 80063e0:	4604      	mov	r4, r0
 80063e2:	460d      	mov	r5, r1
 80063e4:	f1bb 0f00 	cmp.w	fp, #0
 80063e8:	f042 8176 	bne.w	80086d8 <Reinitialize+0x3510>
 80063ec:	edda 6a39 	vldr	s13, [sl, #228]	@ 0xe4
 80063f0:	ed9a aa3b 	vldr	s20, [sl, #236]	@ 0xec
 80063f4:	ed9a 7a3a 	vldr	s14, [sl, #232]	@ 0xe8
 80063f8:	edda 7a38 	vldr	s15, [sl, #224]	@ 0xe0
 80063fc:	ee27 7a26 	vmul.f32	s14, s14, s13
 8006400:	ee6a 7a27 	vmul.f32	s15, s20, s15
 8006404:	ee77 7a27 	vadd.f32	s15, s14, s15
 8006408:	ee17 0a90 	vmov	r0, s15
 800640c:	f7fa f868 	bl	80004e0 <__aeabi_f2d>
 8006410:	4602      	mov	r2, r0
 8006412:	ee1a 0a10 	vmov	r0, s20
 8006416:	4616      	mov	r6, r2
 8006418:	f101 4700 	add.w	r7, r1, #2147483648	@ 0x80000000
 800641c:	f7fa f860 	bl	80004e0 <__aeabi_f2d>
 8006420:	e9dd 2302 	ldrd	r2, r3, [sp, #8]
 8006424:	f101 4100 	add.w	r1, r1, #2147483648	@ 0x80000000
 8006428:	f7fa f8b2 	bl	8000590 <__aeabi_dmul>
 800642c:	4602      	mov	r2, r0
 800642e:	460b      	mov	r3, r1
 8006430:	4630      	mov	r0, r6
 8006432:	4639      	mov	r1, r7
 8006434:	f7f9 fef4 	bl	8000220 <__aeabi_dsub>
 8006438:	4622      	mov	r2, r4
 800643a:	462b      	mov	r3, r5
 800643c:	f7fa f8a8 	bl	8000590 <__aeabi_dmul>
 8006440:	eeb0 0a69 	vmov.f32	s0, s19
 8006444:	4680      	mov	r8, r0
 8006446:	4689      	mov	r9, r1
 8006448:	f007 ffc4 	bl	800e3d4 <SPE_cos_H96e4298bd9675fbbcb46b0c1f68b039a5627ebc5_cb4a8a449b4ada864625ee5a4355578a3aaf08ed>
 800644c:	ee69 7a00 	vmul.f32	s15, s18, s0
 8006450:	ee17 0a90 	vmov	r0, s15
 8006454:	f7fa f844 	bl	80004e0 <__aeabi_f2d>
 8006458:	edda 6a39 	vldr	s13, [sl, #228]	@ 0xe4
 800645c:	ed9a 9a3a 	vldr	s18, [sl, #232]	@ 0xe8
 8006460:	ed9a 7a3b 	vldr	s14, [sl, #236]	@ 0xec
 8006464:	edda 7a38 	vldr	s15, [sl, #224]	@ 0xe0
 8006468:	ee27 7a26 	vmul.f32	s14, s14, s13
 800646c:	ee69 7a27 	vmul.f32	s15, s18, s15
 8006470:	4604      	mov	r4, r0
 8006472:	ee77 7a67 	vsub.f32	s15, s14, s15
 8006476:	460d      	mov	r5, r1
 8006478:	ee17 0a90 	vmov	r0, s15
 800647c:	f7fa f830 	bl	80004e0 <__aeabi_f2d>
 8006480:	4be7      	ldr	r3, [pc, #924]	@ (8006820 <Reinitialize+0x1658>)
 8006482:	2200      	movs	r2, #0
 8006484:	f7f9 fece 	bl	8000224 <__adddf3>
 8006488:	4606      	mov	r6, r0
 800648a:	ee19 0a10 	vmov	r0, s18
 800648e:	460f      	mov	r7, r1
 8006490:	f7fa f826 	bl	80004e0 <__aeabi_f2d>
 8006494:	e9dd 2304 	ldrd	r2, r3, [sp, #16]
 8006498:	f7fa f87a 	bl	8000590 <__aeabi_dmul>
 800649c:	4602      	mov	r2, r0
 800649e:	460b      	mov	r3, r1
 80064a0:	4630      	mov	r0, r6
 80064a2:	4639      	mov	r1, r7
 80064a4:	f7f9 febc 	bl	8000220 <__aeabi_dsub>
 80064a8:	4622      	mov	r2, r4
 80064aa:	462b      	mov	r3, r5
 80064ac:	f7fa f870 	bl	8000590 <__aeabi_dmul>
 80064b0:	4642      	mov	r2, r8
 80064b2:	464b      	mov	r3, r9
 80064b4:	f7f9 feb6 	bl	8000224 <__adddf3>
 80064b8:	4604      	mov	r4, r0
 80064ba:	f8da 0164 	ldr.w	r0, [sl, #356]	@ 0x164
 80064be:	460d      	mov	r5, r1
 80064c0:	f7fa f80e 	bl	80004e0 <__aeabi_f2d>
 80064c4:	4602      	mov	r2, r0
 80064c6:	460b      	mov	r3, r1
 80064c8:	4620      	mov	r0, r4
 80064ca:	4629      	mov	r1, r5
 80064cc:	f7fa f860 	bl	8000590 <__aeabi_dmul>
 80064d0:	4604      	mov	r4, r0
 80064d2:	f8da 01c0 	ldr.w	r0, [sl, #448]	@ 0x1c0
 80064d6:	460d      	mov	r5, r1
 80064d8:	f7fa f802 	bl	80004e0 <__aeabi_f2d>
 80064dc:	4602      	mov	r2, r0
 80064de:	460b      	mov	r3, r1
 80064e0:	4620      	mov	r0, r4
 80064e2:	4629      	mov	r1, r5
 80064e4:	f7fa f97e 	bl	80007e4 <__aeabi_ddiv>
 80064e8:	4602      	mov	r2, r0
 80064ea:	460b      	mov	r3, r1
 80064ec:	e9dd 0108 	ldrd	r0, r1, [sp, #32]
 80064f0:	f7f9 fe96 	bl	8000220 <__aeabi_dsub>
 80064f4:	ed9a 0a84 	vldr	s0, [sl, #528]	@ 0x210
 80064f8:	ed9a 9a19 	vldr	s18, [sl, #100]	@ 0x64
 80064fc:	e9cd 0108 	strd	r0, r1, [sp, #32]
 8006500:	f007 ff66 	bl	800e3d0 <SPE_sin_H96e4298bd9675fbbcb46b0c1f68b039a5627ebc5_cb4a8a449b4ada864625ee5a4355578a3aaf08ed>
 8006504:	ee69 7a00 	vmul.f32	s15, s18, s0
 8006508:	ee17 0a90 	vmov	r0, s15
 800650c:	f7f9 ffe8 	bl	80004e0 <__aeabi_f2d>
 8006510:	ed9a 9a19 	vldr	s18, [sl, #100]	@ 0x64
 8006514:	edda 9a84 	vldr	s19, [sl, #528]	@ 0x210
 8006518:	4604      	mov	r4, r0
 800651a:	460d      	mov	r5, r1
 800651c:	f1bb 0f00 	cmp.w	fp, #0
 8006520:	f042 8384 	bne.w	8008c2c <Reinitialize+0x3a64>
 8006524:	edda 6a39 	vldr	s13, [sl, #228]	@ 0xe4
 8006528:	ed9a aa3a 	vldr	s20, [sl, #232]	@ 0xe8
 800652c:	ed9a 7a3b 	vldr	s14, [sl, #236]	@ 0xec
 8006530:	edda 7a38 	vldr	s15, [sl, #224]	@ 0xe0
 8006534:	ee27 7a26 	vmul.f32	s14, s14, s13
 8006538:	ee6a 7a27 	vmul.f32	s15, s20, s15
 800653c:	ee77 7a67 	vsub.f32	s15, s14, s15
 8006540:	ee17 0a90 	vmov	r0, s15
 8006544:	f7f9 ffcc 	bl	80004e0 <__aeabi_f2d>
 8006548:	4bb5      	ldr	r3, [pc, #724]	@ (8006820 <Reinitialize+0x1658>)
 800654a:	2200      	movs	r2, #0
 800654c:	f7f9 fe6a 	bl	8000224 <__adddf3>
 8006550:	4606      	mov	r6, r0
 8006552:	ee1a 0a10 	vmov	r0, s20
 8006556:	460f      	mov	r7, r1
 8006558:	f7f9 ffc2 	bl	80004e0 <__aeabi_f2d>
 800655c:	e9dd 2304 	ldrd	r2, r3, [sp, #16]
 8006560:	f7fa f816 	bl	8000590 <__aeabi_dmul>
 8006564:	4602      	mov	r2, r0
 8006566:	460b      	mov	r3, r1
 8006568:	4630      	mov	r0, r6
 800656a:	4639      	mov	r1, r7
 800656c:	f7f9 fe58 	bl	8000220 <__aeabi_dsub>
 8006570:	462b      	mov	r3, r5
 8006572:	4622      	mov	r2, r4
 8006574:	f7fa f80c 	bl	8000590 <__aeabi_dmul>
 8006578:	eeb0 0a69 	vmov.f32	s0, s19
 800657c:	e9cd 010c 	strd	r0, r1, [sp, #48]	@ 0x30
 8006580:	f007 ff28 	bl	800e3d4 <SPE_cos_H96e4298bd9675fbbcb46b0c1f68b039a5627ebc5_cb4a8a449b4ada864625ee5a4355578a3aaf08ed>
 8006584:	ee69 7a00 	vmul.f32	s15, s18, s0
 8006588:	ee17 0a90 	vmov	r0, s15
 800658c:	f7f9 ffa8 	bl	80004e0 <__aeabi_f2d>
 8006590:	edda 6a39 	vldr	s13, [sl, #228]	@ 0xe4
 8006594:	ed9a 9a3b 	vldr	s18, [sl, #236]	@ 0xec
 8006598:	ed9a 7a3a 	vldr	s14, [sl, #232]	@ 0xe8
 800659c:	edda 7a38 	vldr	s15, [sl, #224]	@ 0xe0
 80065a0:	ee27 7a26 	vmul.f32	s14, s14, s13
 80065a4:	ee69 7a27 	vmul.f32	s15, s18, s15
 80065a8:	e9cd 010e 	strd	r0, r1, [sp, #56]	@ 0x38
 80065ac:	ee77 7a27 	vadd.f32	s15, s14, s15
 80065b0:	ee17 0a90 	vmov	r0, s15
 80065b4:	f7f9 ff94 	bl	80004e0 <__aeabi_f2d>
 80065b8:	4602      	mov	r2, r0
 80065ba:	ee19 0a10 	vmov	r0, s18
 80065be:	4690      	mov	r8, r2
 80065c0:	f101 4900 	add.w	r9, r1, #2147483648	@ 0x80000000
 80065c4:	f7f9 ff8c 	bl	80004e0 <__aeabi_f2d>
 80065c8:	e9dd 2302 	ldrd	r2, r3, [sp, #8]
 80065cc:	f101 4100 	add.w	r1, r1, #2147483648	@ 0x80000000
 80065d0:	f7f9 ffde 	bl	8000590 <__aeabi_dmul>
 80065d4:	4606      	mov	r6, r0
 80065d6:	460f      	mov	r7, r1
 80065d8:	edda 6a5b 	vldr	s13, [sl, #364]	@ 0x16c
 80065dc:	ed9a 9a56 	vldr	s18, [sl, #344]	@ 0x158
 80065e0:	ed9a 7a5d 	vldr	s14, [sl, #372]	@ 0x174
 80065e4:	edda 7a5f 	vldr	s15, [sl, #380]	@ 0x17c
 80065e8:	edda 5a54 	vldr	s11, [sl, #336]	@ 0x150
 80065ec:	ee77 7ae6 	vsub.f32	s15, s15, s13
 80065f0:	ee29 6a07 	vmul.f32	s12, s18, s14
 80065f4:	ee36 7ac7 	vsub.f32	s14, s13, s14
 80065f8:	ee67 7a86 	vmul.f32	s15, s15, s12
 80065fc:	ee87 6aa5 	vdiv.f32	s12, s15, s11
 8006600:	eec6 7a26 	vdiv.f32	s15, s12, s13
 8006604:	ee77 7a87 	vadd.f32	s15, s15, s14
 8006608:	ee67 7a89 	vmul.f32	s15, s15, s18
 800660c:	ee17 0a90 	vmov	r0, s15
 8006610:	f7f9 ff66 	bl	80004e0 <__aeabi_f2d>
 8006614:	4632      	mov	r2, r6
 8006616:	4604      	mov	r4, r0
 8006618:	460d      	mov	r5, r1
 800661a:	463b      	mov	r3, r7
 800661c:	4640      	mov	r0, r8
 800661e:	4649      	mov	r1, r9
 8006620:	f7f9 fdfe 	bl	8000220 <__aeabi_dsub>
 8006624:	e9dd 230e 	ldrd	r2, r3, [sp, #56]	@ 0x38
 8006628:	f7f9 ffb2 	bl	8000590 <__aeabi_dmul>
 800662c:	4602      	mov	r2, r0
 800662e:	460b      	mov	r3, r1
 8006630:	e9dd 010c 	ldrd	r0, r1, [sp, #48]	@ 0x30
 8006634:	f7f9 fdf4 	bl	8000220 <__aeabi_dsub>
 8006638:	4602      	mov	r2, r0
 800663a:	460b      	mov	r3, r1
 800663c:	4620      	mov	r0, r4
 800663e:	4629      	mov	r1, r5
 8006640:	f7f9 ffa6 	bl	8000590 <__aeabi_dmul>
 8006644:	4604      	mov	r4, r0
 8006646:	f8da 01c0 	ldr.w	r0, [sl, #448]	@ 0x1c0
 800664a:	460d      	mov	r5, r1
 800664c:	f7f9 ff48 	bl	80004e0 <__aeabi_f2d>
 8006650:	4602      	mov	r2, r0
 8006652:	460b      	mov	r3, r1
 8006654:	4620      	mov	r0, r4
 8006656:	4629      	mov	r1, r5
 8006658:	f7fa f8c4 	bl	80007e4 <__aeabi_ddiv>
 800665c:	4604      	mov	r4, r0
 800665e:	ee19 0a10 	vmov	r0, s18
 8006662:	460d      	mov	r5, r1
 8006664:	f7f9 ff3c 	bl	80004e0 <__aeabi_f2d>
 8006668:	4602      	mov	r2, r0
 800666a:	460b      	mov	r3, r1
 800666c:	4620      	mov	r0, r4
 800666e:	4629      	mov	r1, r5
 8006670:	f7fa f8b8 	bl	80007e4 <__aeabi_ddiv>
 8006674:	e9dd 2308 	ldrd	r2, r3, [sp, #32]
 8006678:	f7f9 fdd4 	bl	8000224 <__adddf3>
 800667c:	ed9a 0a84 	vldr	s0, [sl, #528]	@ 0x210
 8006680:	ed9a 9a19 	vldr	s18, [sl, #100]	@ 0x64
 8006684:	e9cd 010c 	strd	r0, r1, [sp, #48]	@ 0x30
 8006688:	f007 fea2 	bl	800e3d0 <SPE_sin_H96e4298bd9675fbbcb46b0c1f68b039a5627ebc5_cb4a8a449b4ada864625ee5a4355578a3aaf08ed>
 800668c:	ee69 7a00 	vmul.f32	s15, s18, s0
 8006690:	ee17 0a90 	vmov	r0, s15
 8006694:	f7f9 ff24 	bl	80004e0 <__aeabi_f2d>
 8006698:	edda aa19 	vldr	s21, [sl, #100]	@ 0x64
 800669c:	ed9a 9a84 	vldr	s18, [sl, #528]	@ 0x210
 80066a0:	4604      	mov	r4, r0
 80066a2:	460d      	mov	r5, r1
 80066a4:	f1bb 0f00 	cmp.w	fp, #0
 80066a8:	f042 81d8 	bne.w	8008a5c <Reinitialize+0x3894>
 80066ac:	edda 6a39 	vldr	s13, [sl, #228]	@ 0xe4
 80066b0:	edda 9a3a 	vldr	s19, [sl, #232]	@ 0xe8
 80066b4:	ed9a 7a3b 	vldr	s14, [sl, #236]	@ 0xec
 80066b8:	edda 7a38 	vldr	s15, [sl, #224]	@ 0xe0
 80066bc:	ee27 7a26 	vmul.f32	s14, s14, s13
 80066c0:	ee69 7aa7 	vmul.f32	s15, s19, s15
 80066c4:	ee77 7a67 	vsub.f32	s15, s14, s15
 80066c8:	ee17 0a90 	vmov	r0, s15
 80066cc:	f7f9 ff08 	bl	80004e0 <__aeabi_f2d>
 80066d0:	4b53      	ldr	r3, [pc, #332]	@ (8006820 <Reinitialize+0x1658>)
 80066d2:	2200      	movs	r2, #0
 80066d4:	f7f9 fda6 	bl	8000224 <__adddf3>
 80066d8:	4606      	mov	r6, r0
 80066da:	ee19 0a90 	vmov	r0, s19
 80066de:	460f      	mov	r7, r1
 80066e0:	f7f9 fefe 	bl	80004e0 <__aeabi_f2d>
 80066e4:	e9dd 2304 	ldrd	r2, r3, [sp, #16]
 80066e8:	f7f9 ff52 	bl	8000590 <__aeabi_dmul>
 80066ec:	4602      	mov	r2, r0
 80066ee:	460b      	mov	r3, r1
 80066f0:	4630      	mov	r0, r6
 80066f2:	4639      	mov	r1, r7
 80066f4:	f7f9 fd94 	bl	8000220 <__aeabi_dsub>
 80066f8:	4622      	mov	r2, r4
 80066fa:	462b      	mov	r3, r5
 80066fc:	f7f9 ff48 	bl	8000590 <__aeabi_dmul>
 8006700:	eeb0 0a49 	vmov.f32	s0, s18
 8006704:	4604      	mov	r4, r0
 8006706:	460d      	mov	r5, r1
 8006708:	f007 fe64 	bl	800e3d4 <SPE_cos_H96e4298bd9675fbbcb46b0c1f68b039a5627ebc5_cb4a8a449b4ada864625ee5a4355578a3aaf08ed>
 800670c:	ed9a aa3a 	vldr	s20, [sl, #232]	@ 0xe8
 8006710:	ed9a 9a3b 	vldr	s18, [sl, #236]	@ 0xec
 8006714:	edda 9a38 	vldr	s19, [sl, #224]	@ 0xe0
 8006718:	edda ba39 	vldr	s23, [sl, #228]	@ 0xe4
 800671c:	ee29 7a29 	vmul.f32	s14, s18, s19
 8006720:	ee6a 7a2b 	vmul.f32	s15, s20, s23
 8006724:	eeb0 ba40 	vmov.f32	s22, s0
 8006728:	ee77 7a27 	vadd.f32	s15, s14, s15
 800672c:	ee69 9a8a 	vmul.f32	s19, s19, s20
 8006730:	ee17 0a90 	vmov	r0, s15
 8006734:	f7f9 fed4 	bl	80004e0 <__aeabi_f2d>
 8006738:	e9cd 0108 	strd	r0, r1, [sp, #32]
 800673c:	ee19 0a10 	vmov	r0, s18
 8006740:	f7f9 fece 	bl	80004e0 <__aeabi_f2d>
 8006744:	4606      	mov	r6, r0
 8006746:	460f      	mov	r7, r1
 8006748:	e9cd 670e 	strd	r6, r7, [sp, #56]	@ 0x38
 800674c:	9b0f      	ldr	r3, [sp, #60]	@ 0x3c
 800674e:	e9dd 1208 	ldrd	r1, r2, [sp, #32]
 8006752:	f103 4900 	add.w	r9, r3, #2147483648	@ 0x80000000
 8006756:	9b09      	ldr	r3, [sp, #36]	@ 0x24
 8006758:	4680      	mov	r8, r0
 800675a:	460e      	mov	r6, r1
 800675c:	f103 4700 	add.w	r7, r3, #2147483648	@ 0x80000000
 8006760:	4640      	mov	r0, r8
 8006762:	e9dd 2302 	ldrd	r2, r3, [sp, #8]
 8006766:	4649      	mov	r1, r9
 8006768:	f7f9 ff12 	bl	8000590 <__aeabi_dmul>
 800676c:	4602      	mov	r2, r0
 800676e:	460b      	mov	r3, r1
 8006770:	4630      	mov	r0, r6
 8006772:	4639      	mov	r1, r7
 8006774:	f7f9 fd54 	bl	8000220 <__aeabi_dsub>
 8006778:	ee6a 7a8b 	vmul.f32	s15, s21, s22
 800677c:	4606      	mov	r6, r0
 800677e:	ee17 0a90 	vmov	r0, s15
 8006782:	460f      	mov	r7, r1
 8006784:	f7f9 feac 	bl	80004e0 <__aeabi_f2d>
 8006788:	4602      	mov	r2, r0
 800678a:	460b      	mov	r3, r1
 800678c:	4630      	mov	r0, r6
 800678e:	4639      	mov	r1, r7
 8006790:	f7f9 fefe 	bl	8000590 <__aeabi_dmul>
 8006794:	4602      	mov	r2, r0
 8006796:	460b      	mov	r3, r1
 8006798:	4620      	mov	r0, r4
 800679a:	4629      	mov	r1, r5
 800679c:	f7f9 fd40 	bl	8000220 <__aeabi_dsub>
 80067a0:	4604      	mov	r4, r0
 80067a2:	f8da 0174 	ldr.w	r0, [sl, #372]	@ 0x174
 80067a6:	460d      	mov	r5, r1
 80067a8:	f7f9 fe9a 	bl	80004e0 <__aeabi_f2d>
 80067ac:	4602      	mov	r2, r0
 80067ae:	460b      	mov	r3, r1
 80067b0:	4620      	mov	r0, r4
 80067b2:	4629      	mov	r1, r5
 80067b4:	f7f9 feec 	bl	8000590 <__aeabi_dmul>
 80067b8:	4604      	mov	r4, r0
 80067ba:	f8da 01c0 	ldr.w	r0, [sl, #448]	@ 0x1c0
 80067be:	460d      	mov	r5, r1
 80067c0:	f7f9 fe8e 	bl	80004e0 <__aeabi_f2d>
 80067c4:	4602      	mov	r2, r0
 80067c6:	460b      	mov	r3, r1
 80067c8:	4620      	mov	r0, r4
 80067ca:	4629      	mov	r1, r5
 80067cc:	f7fa f80a 	bl	80007e4 <__aeabi_ddiv>
 80067d0:	e9dd 230c 	ldrd	r2, r3, [sp, #48]	@ 0x30
 80067d4:	f7f9 fd26 	bl	8000224 <__adddf3>
 80067d8:	f7fa f8ec 	bl	80009b4 <__aeabi_d2f>
 80067dc:	ed8d 9a37 	vstr	s18, [sp, #220]	@ 0xdc
 80067e0:	9035      	str	r0, [sp, #212]	@ 0xd4
 80067e2:	ee29 9a2b 	vmul.f32	s18, s18, s23
 80067e6:	ee1a 0a10 	vmov	r0, s20
 80067ea:	ed8d aa36 	vstr	s20, [sp, #216]	@ 0xd8
 80067ee:	f7f9 fe77 	bl	80004e0 <__aeabi_f2d>
 80067f2:	ee79 7a69 	vsub.f32	s15, s18, s19
 80067f6:	4606      	mov	r6, r0
 80067f8:	ee17 0a90 	vmov	r0, s15
 80067fc:	460f      	mov	r7, r1
 80067fe:	f7f9 fe6f 	bl	80004e0 <__aeabi_f2d>
 8006802:	4b07      	ldr	r3, [pc, #28]	@ (8006820 <Reinitialize+0x1658>)
 8006804:	2200      	movs	r2, #0
 8006806:	f7f9 fd0d 	bl	8000224 <__adddf3>
 800680a:	e9dd 2302 	ldrd	r2, r3, [sp, #8]
 800680e:	4604      	mov	r4, r0
 8006810:	460d      	mov	r5, r1
 8006812:	4630      	mov	r0, r6
 8006814:	f107 4100 	add.w	r1, r7, #2147483648	@ 0x80000000
 8006818:	f7f9 feba 	bl	8000590 <__aeabi_dmul>
 800681c:	4602      	mov	r2, r0
 800681e:	e001      	b.n	8006824 <Reinitialize+0x165c>
 8006820:	3ff00000 	.word	0x3ff00000
 8006824:	460b      	mov	r3, r1
 8006826:	4620      	mov	r0, r4
 8006828:	4629      	mov	r1, r5
 800682a:	f7f9 fcf9 	bl	8000220 <__aeabi_dsub>
 800682e:	e9cd 0110 	strd	r0, r1, [sp, #64]	@ 0x40
 8006832:	f8da 010c 	ldr.w	r0, [sl, #268]	@ 0x10c
 8006836:	f7f9 fe53 	bl	80004e0 <__aeabi_f2d>
 800683a:	4602      	mov	r2, r0
 800683c:	460b      	mov	r3, r1
 800683e:	e9cd 230c 	strd	r2, r3, [sp, #48]	@ 0x30
 8006842:	4640      	mov	r0, r8
 8006844:	e9dd 2304 	ldrd	r2, r3, [sp, #16]
 8006848:	4649      	mov	r1, r9
 800684a:	f7f9 fea1 	bl	8000590 <__aeabi_dmul>
 800684e:	4602      	mov	r2, r0
 8006850:	460b      	mov	r3, r1
 8006852:	e9dd 0108 	ldrd	r0, r1, [sp, #32]
 8006856:	f7f9 fce3 	bl	8000220 <__aeabi_dsub>
 800685a:	4680      	mov	r8, r0
 800685c:	f8da 0110 	ldr.w	r0, [sl, #272]	@ 0x110
 8006860:	4689      	mov	r9, r1
 8006862:	f7f9 fe3d 	bl	80004e0 <__aeabi_f2d>
 8006866:	e9dd 230c 	ldrd	r2, r3, [sp, #48]	@ 0x30
 800686a:	4604      	mov	r4, r0
 800686c:	460d      	mov	r5, r1
 800686e:	e9dd 0110 	ldrd	r0, r1, [sp, #64]	@ 0x40
 8006872:	f7f9 fe8d 	bl	8000590 <__aeabi_dmul>
 8006876:	4622      	mov	r2, r4
 8006878:	e9cd 0108 	strd	r0, r1, [sp, #32]
 800687c:	462b      	mov	r3, r5
 800687e:	4640      	mov	r0, r8
 8006880:	4649      	mov	r1, r9
 8006882:	f7f9 fe85 	bl	8000590 <__aeabi_dmul>
 8006886:	4602      	mov	r2, r0
 8006888:	460b      	mov	r3, r1
 800688a:	e9dd 0108 	ldrd	r0, r1, [sp, #32]
 800688e:	f7f9 fcc7 	bl	8000220 <__aeabi_dsub>
 8006892:	e9dd 230e 	ldrd	r2, r3, [sp, #56]	@ 0x38
 8006896:	f7f9 fcc5 	bl	8000224 <__adddf3>
 800689a:	f7fa f88b 	bl	80009b4 <__aeabi_d2f>
 800689e:	e9dd 2310 	ldrd	r2, r3, [sp, #64]	@ 0x40
 80068a2:	9038      	str	r0, [sp, #224]	@ 0xe0
 80068a4:	4629      	mov	r1, r5
 80068a6:	4620      	mov	r0, r4
 80068a8:	f7f9 fe72 	bl	8000590 <__aeabi_dmul>
 80068ac:	e9dd 230c 	ldrd	r2, r3, [sp, #48]	@ 0x30
 80068b0:	4604      	mov	r4, r0
 80068b2:	460d      	mov	r5, r1
 80068b4:	4640      	mov	r0, r8
 80068b6:	4649      	mov	r1, r9
 80068b8:	f7f9 fe6a 	bl	8000590 <__aeabi_dmul>
 80068bc:	4602      	mov	r2, r0
 80068be:	460b      	mov	r3, r1
 80068c0:	4620      	mov	r0, r4
 80068c2:	4629      	mov	r1, r5
 80068c4:	f7f9 fcae 	bl	8000224 <__adddf3>
 80068c8:	4632      	mov	r2, r6
 80068ca:	463b      	mov	r3, r7
 80068cc:	f7f9 fcaa 	bl	8000224 <__adddf3>
 80068d0:	f7fa f870 	bl	80009b4 <__aeabi_d2f>
 80068d4:	ed9a 0a84 	vldr	s0, [sl, #528]	@ 0x210
 80068d8:	ed9a aa19 	vldr	s20, [sl, #100]	@ 0x64
 80068dc:	9039      	str	r0, [sp, #228]	@ 0xe4
 80068de:	f007 fd77 	bl	800e3d0 <SPE_sin_H96e4298bd9675fbbcb46b0c1f68b039a5627ebc5_cb4a8a449b4ada864625ee5a4355578a3aaf08ed>
 80068e2:	edda 6a39 	vldr	s13, [sl, #228]	@ 0xe4
 80068e6:	edda 9a3a 	vldr	s19, [sl, #232]	@ 0xe8
 80068ea:	ed9a 7a3b 	vldr	s14, [sl, #236]	@ 0xec
 80068ee:	edda 7a38 	vldr	s15, [sl, #224]	@ 0xe0
 80068f2:	ee27 7a26 	vmul.f32	s14, s14, s13
 80068f6:	ee69 7aa7 	vmul.f32	s15, s19, s15
 80068fa:	eeb0 9a40 	vmov.f32	s18, s0
 80068fe:	ee77 7a67 	vsub.f32	s15, s14, s15
 8006902:	ee17 0a90 	vmov	r0, s15
 8006906:	f7f9 fdeb 	bl	80004e0 <__aeabi_f2d>
 800690a:	4bc0      	ldr	r3, [pc, #768]	@ (8006c0c <Reinitialize+0x1a44>)
 800690c:	2200      	movs	r2, #0
 800690e:	f7f9 fc89 	bl	8000224 <__adddf3>
 8006912:	4604      	mov	r4, r0
 8006914:	ee19 0a90 	vmov	r0, s19
 8006918:	460d      	mov	r5, r1
 800691a:	f7f9 fde1 	bl	80004e0 <__aeabi_f2d>
 800691e:	e9dd 2302 	ldrd	r2, r3, [sp, #8]
 8006922:	f101 4100 	add.w	r1, r1, #2147483648	@ 0x80000000
 8006926:	f7f9 fe33 	bl	8000590 <__aeabi_dmul>
 800692a:	4602      	mov	r2, r0
 800692c:	460b      	mov	r3, r1
 800692e:	4620      	mov	r0, r4
 8006930:	4629      	mov	r1, r5
 8006932:	f7f9 fc75 	bl	8000220 <__aeabi_dsub>
 8006936:	ee6a 7a09 	vmul.f32	s15, s20, s18
 800693a:	4604      	mov	r4, r0
 800693c:	ee17 0a90 	vmov	r0, s15
 8006940:	460d      	mov	r5, r1
 8006942:	f7f9 fdcd 	bl	80004e0 <__aeabi_f2d>
 8006946:	4602      	mov	r2, r0
 8006948:	460b      	mov	r3, r1
 800694a:	4620      	mov	r0, r4
 800694c:	4629      	mov	r1, r5
 800694e:	f7f9 fe1f 	bl	8000590 <__aeabi_dmul>
 8006952:	ed9a 0a84 	vldr	s0, [sl, #528]	@ 0x210
 8006956:	ed9a aa19 	vldr	s20, [sl, #100]	@ 0x64
 800695a:	4604      	mov	r4, r0
 800695c:	460d      	mov	r5, r1
 800695e:	f007 fd39 	bl	800e3d4 <SPE_cos_H96e4298bd9675fbbcb46b0c1f68b039a5627ebc5_cb4a8a449b4ada864625ee5a4355578a3aaf08ed>
 8006962:	edda 6a39 	vldr	s13, [sl, #228]	@ 0xe4
 8006966:	edda 9a3b 	vldr	s19, [sl, #236]	@ 0xec
 800696a:	ed9a 7a3a 	vldr	s14, [sl, #232]	@ 0xe8
 800696e:	edda 7a38 	vldr	s15, [sl, #224]	@ 0xe0
 8006972:	ee27 7a26 	vmul.f32	s14, s14, s13
 8006976:	ee69 7aa7 	vmul.f32	s15, s19, s15
 800697a:	eeb0 9a40 	vmov.f32	s18, s0
 800697e:	ee77 7a27 	vadd.f32	s15, s14, s15
 8006982:	ee17 0a90 	vmov	r0, s15
 8006986:	f7f9 fdab 	bl	80004e0 <__aeabi_f2d>
 800698a:	4606      	mov	r6, r0
 800698c:	ee19 0a90 	vmov	r0, s19
 8006990:	460f      	mov	r7, r1
 8006992:	f7f9 fda5 	bl	80004e0 <__aeabi_f2d>
 8006996:	e9dd 8904 	ldrd	r8, r9, [sp, #16]
 800699a:	f101 4100 	add.w	r1, r1, #2147483648	@ 0x80000000
 800699e:	4642      	mov	r2, r8
 80069a0:	464b      	mov	r3, r9
 80069a2:	f7f9 fdf5 	bl	8000590 <__aeabi_dmul>
 80069a6:	4602      	mov	r2, r0
 80069a8:	460b      	mov	r3, r1
 80069aa:	4630      	mov	r0, r6
 80069ac:	4639      	mov	r1, r7
 80069ae:	f7f9 fc37 	bl	8000220 <__aeabi_dsub>
 80069b2:	ee6a 7a09 	vmul.f32	s15, s20, s18
 80069b6:	4606      	mov	r6, r0
 80069b8:	ee17 0a90 	vmov	r0, s15
 80069bc:	460f      	mov	r7, r1
 80069be:	f7f9 fd8f 	bl	80004e0 <__aeabi_f2d>
 80069c2:	4602      	mov	r2, r0
 80069c4:	460b      	mov	r3, r1
 80069c6:	4630      	mov	r0, r6
 80069c8:	4639      	mov	r1, r7
 80069ca:	f7f9 fde1 	bl	8000590 <__aeabi_dmul>
 80069ce:	4622      	mov	r2, r4
 80069d0:	462b      	mov	r3, r5
 80069d2:	f7f9 fc27 	bl	8000224 <__adddf3>
 80069d6:	4604      	mov	r4, r0
 80069d8:	f8da 0170 	ldr.w	r0, [sl, #368]	@ 0x170
 80069dc:	460d      	mov	r5, r1
 80069de:	f7f9 fd7f 	bl	80004e0 <__aeabi_f2d>
 80069e2:	4602      	mov	r2, r0
 80069e4:	460b      	mov	r3, r1
 80069e6:	4620      	mov	r0, r4
 80069e8:	4629      	mov	r1, r5
 80069ea:	f7f9 fdd1 	bl	8000590 <__aeabi_dmul>
 80069ee:	ed9a 0a84 	vldr	s0, [sl, #528]	@ 0x210
 80069f2:	ed9a aa19 	vldr	s20, [sl, #100]	@ 0x64
 80069f6:	e9cd 0108 	strd	r0, r1, [sp, #32]
 80069fa:	f007 fce9 	bl	800e3d0 <SPE_sin_H96e4298bd9675fbbcb46b0c1f68b039a5627ebc5_cb4a8a449b4ada864625ee5a4355578a3aaf08ed>
 80069fe:	edda 6a39 	vldr	s13, [sl, #228]	@ 0xe4
 8006a02:	edda 9a3b 	vldr	s19, [sl, #236]	@ 0xec
 8006a06:	ed9a 7a3a 	vldr	s14, [sl, #232]	@ 0xe8
 8006a0a:	edda 7a38 	vldr	s15, [sl, #224]	@ 0xe0
 8006a0e:	ee27 7a26 	vmul.f32	s14, s14, s13
 8006a12:	ee69 7aa7 	vmul.f32	s15, s19, s15
 8006a16:	eeb0 9a40 	vmov.f32	s18, s0
 8006a1a:	ee77 7a27 	vadd.f32	s15, s14, s15
 8006a1e:	ee17 0a90 	vmov	r0, s15
 8006a22:	f7f9 fd5d 	bl	80004e0 <__aeabi_f2d>
 8006a26:	4604      	mov	r4, r0
 8006a28:	ee19 0a90 	vmov	r0, s19
 8006a2c:	460d      	mov	r5, r1
 8006a2e:	f7f9 fd57 	bl	80004e0 <__aeabi_f2d>
 8006a32:	4642      	mov	r2, r8
 8006a34:	464b      	mov	r3, r9
 8006a36:	f101 4100 	add.w	r1, r1, #2147483648	@ 0x80000000
 8006a3a:	f7f9 fda9 	bl	8000590 <__aeabi_dmul>
 8006a3e:	4602      	mov	r2, r0
 8006a40:	460b      	mov	r3, r1
 8006a42:	4620      	mov	r0, r4
 8006a44:	4629      	mov	r1, r5
 8006a46:	f7f9 fbeb 	bl	8000220 <__aeabi_dsub>
 8006a4a:	ee6a 7a09 	vmul.f32	s15, s20, s18
 8006a4e:	4604      	mov	r4, r0
 8006a50:	ee17 0a90 	vmov	r0, s15
 8006a54:	460d      	mov	r5, r1
 8006a56:	f7f9 fd43 	bl	80004e0 <__aeabi_f2d>
 8006a5a:	4602      	mov	r2, r0
 8006a5c:	460b      	mov	r3, r1
 8006a5e:	4620      	mov	r0, r4
 8006a60:	4629      	mov	r1, r5
 8006a62:	f7f9 fd95 	bl	8000590 <__aeabi_dmul>
 8006a66:	ed9a 0a84 	vldr	s0, [sl, #528]	@ 0x210
 8006a6a:	ed9a 9a19 	vldr	s18, [sl, #100]	@ 0x64
 8006a6e:	4680      	mov	r8, r0
 8006a70:	4689      	mov	r9, r1
 8006a72:	f007 fcaf 	bl	800e3d4 <SPE_cos_H96e4298bd9675fbbcb46b0c1f68b039a5627ebc5_cb4a8a449b4ada864625ee5a4355578a3aaf08ed>
 8006a76:	ee69 7a00 	vmul.f32	s15, s18, s0
 8006a7a:	ee17 0a90 	vmov	r0, s15
 8006a7e:	f7f9 fd2f 	bl	80004e0 <__aeabi_f2d>
 8006a82:	edda 6a39 	vldr	s13, [sl, #228]	@ 0xe4
 8006a86:	ed9a 9a3a 	vldr	s18, [sl, #232]	@ 0xe8
 8006a8a:	ed9a 7a3b 	vldr	s14, [sl, #236]	@ 0xec
 8006a8e:	edda 7a38 	vldr	s15, [sl, #224]	@ 0xe0
 8006a92:	ee27 7a26 	vmul.f32	s14, s14, s13
 8006a96:	ee69 7a27 	vmul.f32	s15, s18, s15
 8006a9a:	4604      	mov	r4, r0
 8006a9c:	ee77 7a67 	vsub.f32	s15, s14, s15
 8006aa0:	460d      	mov	r5, r1
 8006aa2:	ee17 0a90 	vmov	r0, s15
 8006aa6:	f7f9 fd1b 	bl	80004e0 <__aeabi_f2d>
 8006aaa:	4b58      	ldr	r3, [pc, #352]	@ (8006c0c <Reinitialize+0x1a44>)
 8006aac:	2200      	movs	r2, #0
 8006aae:	f7f9 fbb9 	bl	8000224 <__adddf3>
 8006ab2:	4606      	mov	r6, r0
 8006ab4:	ee19 0a10 	vmov	r0, s18
 8006ab8:	460f      	mov	r7, r1
 8006aba:	f7f9 fd11 	bl	80004e0 <__aeabi_f2d>
 8006abe:	e9dd 2302 	ldrd	r2, r3, [sp, #8]
 8006ac2:	f101 4100 	add.w	r1, r1, #2147483648	@ 0x80000000
 8006ac6:	f7f9 fd63 	bl	8000590 <__aeabi_dmul>
 8006aca:	4602      	mov	r2, r0
 8006acc:	460b      	mov	r3, r1
 8006ace:	4630      	mov	r0, r6
 8006ad0:	4639      	mov	r1, r7
 8006ad2:	f7f9 fba5 	bl	8000220 <__aeabi_dsub>
 8006ad6:	4622      	mov	r2, r4
 8006ad8:	462b      	mov	r3, r5
 8006ada:	f7f9 fd59 	bl	8000590 <__aeabi_dmul>
 8006ade:	4602      	mov	r2, r0
 8006ae0:	460b      	mov	r3, r1
 8006ae2:	4640      	mov	r0, r8
 8006ae4:	4649      	mov	r1, r9
 8006ae6:	f7f9 fb9b 	bl	8000220 <__aeabi_dsub>
 8006aea:	4604      	mov	r4, r0
 8006aec:	f8da 0164 	ldr.w	r0, [sl, #356]	@ 0x164
 8006af0:	460d      	mov	r5, r1
 8006af2:	f7f9 fcf5 	bl	80004e0 <__aeabi_f2d>
 8006af6:	4602      	mov	r2, r0
 8006af8:	460b      	mov	r3, r1
 8006afa:	4620      	mov	r0, r4
 8006afc:	4629      	mov	r1, r5
 8006afe:	f7f9 fd47 	bl	8000590 <__aeabi_dmul>
 8006b02:	e9dd 2308 	ldrd	r2, r3, [sp, #32]
 8006b06:	f7f9 fb8d 	bl	8000224 <__adddf3>
 8006b0a:	4604      	mov	r4, r0
 8006b0c:	f8da 01c0 	ldr.w	r0, [sl, #448]	@ 0x1c0
 8006b10:	460d      	mov	r5, r1
 8006b12:	f7f9 fce5 	bl	80004e0 <__aeabi_f2d>
 8006b16:	4602      	mov	r2, r0
 8006b18:	460b      	mov	r3, r1
 8006b1a:	4620      	mov	r0, r4
 8006b1c:	4629      	mov	r1, r5
 8006b1e:	f7f9 fe61 	bl	80007e4 <__aeabi_ddiv>
 8006b22:	f7f9 ff47 	bl	80009b4 <__aeabi_d2f>
 8006b26:	ee07 0a90 	vmov	s15, r0
 8006b2a:	ed9a 0a84 	vldr	s0, [sl, #528]	@ 0x210
 8006b2e:	ed9a 9a19 	vldr	s18, [sl, #100]	@ 0x64
 8006b32:	eef1 7a67 	vneg.f32	s15, s15
 8006b36:	edcd 7a3a 	vstr	s15, [sp, #232]	@ 0xe8
 8006b3a:	f007 fc49 	bl	800e3d0 <SPE_sin_H96e4298bd9675fbbcb46b0c1f68b039a5627ebc5_cb4a8a449b4ada864625ee5a4355578a3aaf08ed>
 8006b3e:	ee69 7a00 	vmul.f32	s15, s18, s0
 8006b42:	ee17 0a90 	vmov	r0, s15
 8006b46:	f7f9 fccb 	bl	80004e0 <__aeabi_f2d>
 8006b4a:	ed9a 9a19 	vldr	s18, [sl, #100]	@ 0x64
 8006b4e:	edda 9a84 	vldr	s19, [sl, #528]	@ 0x210
 8006b52:	4604      	mov	r4, r0
 8006b54:	460d      	mov	r5, r1
 8006b56:	f1bb 0f00 	cmp.w	fp, #0
 8006b5a:	f041 8759 	bne.w	8008a10 <Reinitialize+0x3848>
 8006b5e:	edda 6a39 	vldr	s13, [sl, #228]	@ 0xe4
 8006b62:	ed9a aa3b 	vldr	s20, [sl, #236]	@ 0xec
 8006b66:	ed9a 7a3a 	vldr	s14, [sl, #232]	@ 0xe8
 8006b6a:	edda 7a38 	vldr	s15, [sl, #224]	@ 0xe0
 8006b6e:	ee27 7a26 	vmul.f32	s14, s14, s13
 8006b72:	ee6a 7a27 	vmul.f32	s15, s20, s15
 8006b76:	ee77 7a27 	vadd.f32	s15, s14, s15
 8006b7a:	ee17 0a90 	vmov	r0, s15
 8006b7e:	f7f9 fcaf 	bl	80004e0 <__aeabi_f2d>
 8006b82:	4606      	mov	r6, r0
 8006b84:	ee1a 0a10 	vmov	r0, s20
 8006b88:	460f      	mov	r7, r1
 8006b8a:	f7f9 fca9 	bl	80004e0 <__aeabi_f2d>
 8006b8e:	e9dd 2304 	ldrd	r2, r3, [sp, #16]
 8006b92:	f101 4100 	add.w	r1, r1, #2147483648	@ 0x80000000
 8006b96:	f7f9 fcfb 	bl	8000590 <__aeabi_dmul>
 8006b9a:	4602      	mov	r2, r0
 8006b9c:	460b      	mov	r3, r1
 8006b9e:	4630      	mov	r0, r6
 8006ba0:	4639      	mov	r1, r7
 8006ba2:	f7f9 fb3d 	bl	8000220 <__aeabi_dsub>
 8006ba6:	4622      	mov	r2, r4
 8006ba8:	462b      	mov	r3, r5
 8006baa:	f7f9 fcf1 	bl	8000590 <__aeabi_dmul>
 8006bae:	eeb0 0a69 	vmov.f32	s0, s19
 8006bb2:	e9cd 0108 	strd	r0, r1, [sp, #32]
 8006bb6:	f007 fc0d 	bl	800e3d4 <SPE_cos_H96e4298bd9675fbbcb46b0c1f68b039a5627ebc5_cb4a8a449b4ada864625ee5a4355578a3aaf08ed>
 8006bba:	ee69 7a00 	vmul.f32	s15, s18, s0
 8006bbe:	ee17 0a90 	vmov	r0, s15
 8006bc2:	f7f9 fc8d 	bl	80004e0 <__aeabi_f2d>
 8006bc6:	edda 6a39 	vldr	s13, [sl, #228]	@ 0xe4
 8006bca:	ed9a 9a3a 	vldr	s18, [sl, #232]	@ 0xe8
 8006bce:	ed9a 7a3b 	vldr	s14, [sl, #236]	@ 0xec
 8006bd2:	edda 7a38 	vldr	s15, [sl, #224]	@ 0xe0
 8006bd6:	ee27 7a26 	vmul.f32	s14, s14, s13
 8006bda:	ee69 7a27 	vmul.f32	s15, s18, s15
 8006bde:	e9cd 010c 	strd	r0, r1, [sp, #48]	@ 0x30
 8006be2:	ee77 7a67 	vsub.f32	s15, s14, s15
 8006be6:	ee17 0a90 	vmov	r0, s15
 8006bea:	f7f9 fc79 	bl	80004e0 <__aeabi_f2d>
 8006bee:	4b07      	ldr	r3, [pc, #28]	@ (8006c0c <Reinitialize+0x1a44>)
 8006bf0:	2200      	movs	r2, #0
 8006bf2:	f7f9 fb17 	bl	8000224 <__adddf3>
 8006bf6:	4606      	mov	r6, r0
 8006bf8:	ee19 0a10 	vmov	r0, s18
 8006bfc:	460f      	mov	r7, r1
 8006bfe:	f7f9 fc6f 	bl	80004e0 <__aeabi_f2d>
 8006c02:	4680      	mov	r8, r0
 8006c04:	f101 4900 	add.w	r9, r1, #2147483648	@ 0x80000000
 8006c08:	e002      	b.n	8006c10 <Reinitialize+0x1a48>
 8006c0a:	bf00      	nop
 8006c0c:	3ff00000 	.word	0x3ff00000
 8006c10:	edda 6a5b 	vldr	s13, [sl, #364]	@ 0x16c
 8006c14:	ed9a 6a5d 	vldr	s12, [sl, #372]	@ 0x174
 8006c18:	edda 7a5f 	vldr	s15, [sl, #380]	@ 0x17c
 8006c1c:	ed9a 7a56 	vldr	s14, [sl, #344]	@ 0x158
 8006c20:	ed9a 9a54 	vldr	s18, [sl, #336]	@ 0x150
 8006c24:	ee77 7ae6 	vsub.f32	s15, s15, s13
 8006c28:	ee27 7a06 	vmul.f32	s14, s14, s12
 8006c2c:	ee27 7a27 	vmul.f32	s14, s14, s15
 8006c30:	ee87 6a09 	vdiv.f32	s12, s14, s18
 8006c34:	ee86 7a26 	vdiv.f32	s14, s12, s13
 8006c38:	ee77 7ac7 	vsub.f32	s15, s15, s14
 8006c3c:	ee67 7a89 	vmul.f32	s15, s15, s18
 8006c40:	ee17 0a90 	vmov	r0, s15
 8006c44:	f7f9 fc4c 	bl	80004e0 <__aeabi_f2d>
 8006c48:	4604      	mov	r4, r0
 8006c4a:	460d      	mov	r5, r1
 8006c4c:	4640      	mov	r0, r8
 8006c4e:	4649      	mov	r1, r9
 8006c50:	e9dd 8902 	ldrd	r8, r9, [sp, #8]
 8006c54:	4642      	mov	r2, r8
 8006c56:	464b      	mov	r3, r9
 8006c58:	f7f9 fc9a 	bl	8000590 <__aeabi_dmul>
 8006c5c:	4602      	mov	r2, r0
 8006c5e:	460b      	mov	r3, r1
 8006c60:	4630      	mov	r0, r6
 8006c62:	4639      	mov	r1, r7
 8006c64:	f7f9 fadc 	bl	8000220 <__aeabi_dsub>
 8006c68:	e9dd 230c 	ldrd	r2, r3, [sp, #48]	@ 0x30
 8006c6c:	f7f9 fc90 	bl	8000590 <__aeabi_dmul>
 8006c70:	4602      	mov	r2, r0
 8006c72:	460b      	mov	r3, r1
 8006c74:	e9dd 0108 	ldrd	r0, r1, [sp, #32]
 8006c78:	f7f9 fad2 	bl	8000220 <__aeabi_dsub>
 8006c7c:	4602      	mov	r2, r0
 8006c7e:	460b      	mov	r3, r1
 8006c80:	4620      	mov	r0, r4
 8006c82:	4629      	mov	r1, r5
 8006c84:	f7f9 fc84 	bl	8000590 <__aeabi_dmul>
 8006c88:	4604      	mov	r4, r0
 8006c8a:	f8da 01c0 	ldr.w	r0, [sl, #448]	@ 0x1c0
 8006c8e:	460d      	mov	r5, r1
 8006c90:	f7f9 fc26 	bl	80004e0 <__aeabi_f2d>
 8006c94:	4602      	mov	r2, r0
 8006c96:	460b      	mov	r3, r1
 8006c98:	4620      	mov	r0, r4
 8006c9a:	4629      	mov	r1, r5
 8006c9c:	f7f9 fda2 	bl	80007e4 <__aeabi_ddiv>
 8006ca0:	4604      	mov	r4, r0
 8006ca2:	ee19 0a10 	vmov	r0, s18
 8006ca6:	460d      	mov	r5, r1
 8006ca8:	f7f9 fc1a 	bl	80004e0 <__aeabi_f2d>
 8006cac:	4602      	mov	r2, r0
 8006cae:	460b      	mov	r3, r1
 8006cb0:	4620      	mov	r0, r4
 8006cb2:	4629      	mov	r1, r5
 8006cb4:	f7f9 fd96 	bl	80007e4 <__aeabi_ddiv>
 8006cb8:	ed9a 0a84 	vldr	s0, [sl, #528]	@ 0x210
 8006cbc:	ed9a 9a19 	vldr	s18, [sl, #100]	@ 0x64
 8006cc0:	e9cd 0108 	strd	r0, r1, [sp, #32]
 8006cc4:	f007 fb84 	bl	800e3d0 <SPE_sin_H96e4298bd9675fbbcb46b0c1f68b039a5627ebc5_cb4a8a449b4ada864625ee5a4355578a3aaf08ed>
 8006cc8:	ee69 7a00 	vmul.f32	s15, s18, s0
 8006ccc:	ee17 0a90 	vmov	r0, s15
 8006cd0:	f7f9 fc06 	bl	80004e0 <__aeabi_f2d>
 8006cd4:	ed9a 9a19 	vldr	s18, [sl, #100]	@ 0x64
 8006cd8:	edda 9a84 	vldr	s19, [sl, #528]	@ 0x210
 8006cdc:	4604      	mov	r4, r0
 8006cde:	460d      	mov	r5, r1
 8006ce0:	f1bb 0f00 	cmp.w	fp, #0
 8006ce4:	f041 867c 	bne.w	80089e0 <Reinitialize+0x3818>
 8006ce8:	edda 6a39 	vldr	s13, [sl, #228]	@ 0xe4
 8006cec:	ed9a aa3a 	vldr	s20, [sl, #232]	@ 0xe8
 8006cf0:	ed9a 7a3b 	vldr	s14, [sl, #236]	@ 0xec
 8006cf4:	edda 7a38 	vldr	s15, [sl, #224]	@ 0xe0
 8006cf8:	ee27 7a26 	vmul.f32	s14, s14, s13
 8006cfc:	ee6a 7a27 	vmul.f32	s15, s20, s15
 8006d00:	ee77 7a67 	vsub.f32	s15, s14, s15
 8006d04:	ee17 0a90 	vmov	r0, s15
 8006d08:	f7f9 fbea 	bl	80004e0 <__aeabi_f2d>
 8006d0c:	4bd1      	ldr	r3, [pc, #836]	@ (8007054 <Reinitialize+0x1e8c>)
 8006d0e:	2200      	movs	r2, #0
 8006d10:	f7f9 fa88 	bl	8000224 <__adddf3>
 8006d14:	4606      	mov	r6, r0
 8006d16:	ee1a 0a10 	vmov	r0, s20
 8006d1a:	460f      	mov	r7, r1
 8006d1c:	f7f9 fbe0 	bl	80004e0 <__aeabi_f2d>
 8006d20:	4642      	mov	r2, r8
 8006d22:	464b      	mov	r3, r9
 8006d24:	f101 4100 	add.w	r1, r1, #2147483648	@ 0x80000000
 8006d28:	f7f9 fc32 	bl	8000590 <__aeabi_dmul>
 8006d2c:	4602      	mov	r2, r0
 8006d2e:	460b      	mov	r3, r1
 8006d30:	4630      	mov	r0, r6
 8006d32:	4639      	mov	r1, r7
 8006d34:	f7f9 fa74 	bl	8000220 <__aeabi_dsub>
 8006d38:	4622      	mov	r2, r4
 8006d3a:	462b      	mov	r3, r5
 8006d3c:	f7f9 fc28 	bl	8000590 <__aeabi_dmul>
 8006d40:	eeb0 0a69 	vmov.f32	s0, s19
 8006d44:	4680      	mov	r8, r0
 8006d46:	4689      	mov	r9, r1
 8006d48:	f007 fb44 	bl	800e3d4 <SPE_cos_H96e4298bd9675fbbcb46b0c1f68b039a5627ebc5_cb4a8a449b4ada864625ee5a4355578a3aaf08ed>
 8006d4c:	ee69 7a00 	vmul.f32	s15, s18, s0
 8006d50:	ee17 0a90 	vmov	r0, s15
 8006d54:	f7f9 fbc4 	bl	80004e0 <__aeabi_f2d>
 8006d58:	edda 6a39 	vldr	s13, [sl, #228]	@ 0xe4
 8006d5c:	ed9a 9a3b 	vldr	s18, [sl, #236]	@ 0xec
 8006d60:	ed9a 7a3a 	vldr	s14, [sl, #232]	@ 0xe8
 8006d64:	edda 7a38 	vldr	s15, [sl, #224]	@ 0xe0
 8006d68:	ee27 7a26 	vmul.f32	s14, s14, s13
 8006d6c:	ee69 7a27 	vmul.f32	s15, s18, s15
 8006d70:	4604      	mov	r4, r0
 8006d72:	ee77 7a27 	vadd.f32	s15, s14, s15
 8006d76:	460d      	mov	r5, r1
 8006d78:	ee17 0a90 	vmov	r0, s15
 8006d7c:	f7f9 fbb0 	bl	80004e0 <__aeabi_f2d>
 8006d80:	4606      	mov	r6, r0
 8006d82:	ee19 0a10 	vmov	r0, s18
 8006d86:	460f      	mov	r7, r1
 8006d88:	f7f9 fbaa 	bl	80004e0 <__aeabi_f2d>
 8006d8c:	e9dd 2304 	ldrd	r2, r3, [sp, #16]
 8006d90:	f101 4100 	add.w	r1, r1, #2147483648	@ 0x80000000
 8006d94:	f7f9 fbfc 	bl	8000590 <__aeabi_dmul>
 8006d98:	4602      	mov	r2, r0
 8006d9a:	460b      	mov	r3, r1
 8006d9c:	4630      	mov	r0, r6
 8006d9e:	4639      	mov	r1, r7
 8006da0:	f7f9 fa3e 	bl	8000220 <__aeabi_dsub>
 8006da4:	4622      	mov	r2, r4
 8006da6:	462b      	mov	r3, r5
 8006da8:	f7f9 fbf2 	bl	8000590 <__aeabi_dmul>
 8006dac:	4642      	mov	r2, r8
 8006dae:	464b      	mov	r3, r9
 8006db0:	f7f9 fa38 	bl	8000224 <__adddf3>
 8006db4:	4604      	mov	r4, r0
 8006db6:	f8da 0164 	ldr.w	r0, [sl, #356]	@ 0x164
 8006dba:	460d      	mov	r5, r1
 8006dbc:	f7f9 fb90 	bl	80004e0 <__aeabi_f2d>
 8006dc0:	4602      	mov	r2, r0
 8006dc2:	460b      	mov	r3, r1
 8006dc4:	4620      	mov	r0, r4
 8006dc6:	4629      	mov	r1, r5
 8006dc8:	f7f9 fbe2 	bl	8000590 <__aeabi_dmul>
 8006dcc:	4604      	mov	r4, r0
 8006dce:	f8da 01c0 	ldr.w	r0, [sl, #448]	@ 0x1c0
 8006dd2:	460d      	mov	r5, r1
 8006dd4:	f7f9 fb84 	bl	80004e0 <__aeabi_f2d>
 8006dd8:	4602      	mov	r2, r0
 8006dda:	460b      	mov	r3, r1
 8006ddc:	4620      	mov	r0, r4
 8006dde:	4629      	mov	r1, r5
 8006de0:	f7f9 fd00 	bl	80007e4 <__aeabi_ddiv>
 8006de4:	4602      	mov	r2, r0
 8006de6:	460b      	mov	r3, r1
 8006de8:	e9dd 0108 	ldrd	r0, r1, [sp, #32]
 8006dec:	f7f9 fa18 	bl	8000220 <__aeabi_dsub>
 8006df0:	ed9a 0a84 	vldr	s0, [sl, #528]	@ 0x210
 8006df4:	ed9a 9a19 	vldr	s18, [sl, #100]	@ 0x64
 8006df8:	e9cd 0108 	strd	r0, r1, [sp, #32]
 8006dfc:	f007 fae8 	bl	800e3d0 <SPE_sin_H96e4298bd9675fbbcb46b0c1f68b039a5627ebc5_cb4a8a449b4ada864625ee5a4355578a3aaf08ed>
 8006e00:	ee69 7a00 	vmul.f32	s15, s18, s0
 8006e04:	ee17 0a90 	vmov	r0, s15
 8006e08:	f7f9 fb6a 	bl	80004e0 <__aeabi_f2d>
 8006e0c:	edda 9a84 	vldr	s19, [sl, #528]	@ 0x210
 8006e10:	ed9a 9a19 	vldr	s18, [sl, #100]	@ 0x64
 8006e14:	4604      	mov	r4, r0
 8006e16:	460d      	mov	r5, r1
 8006e18:	f1bb 0f00 	cmp.w	fp, #0
 8006e1c:	f042 81fb 	bne.w	8009216 <Reinitialize+0x404e>
 8006e20:	edda 6a39 	vldr	s13, [sl, #228]	@ 0xe4
 8006e24:	ed9a aa3b 	vldr	s20, [sl, #236]	@ 0xec
 8006e28:	ed9a 7a3a 	vldr	s14, [sl, #232]	@ 0xe8
 8006e2c:	edda 7a38 	vldr	s15, [sl, #224]	@ 0xe0
 8006e30:	ee27 7a26 	vmul.f32	s14, s14, s13
 8006e34:	ee6a 7a27 	vmul.f32	s15, s20, s15
 8006e38:	ee77 7a27 	vadd.f32	s15, s14, s15
 8006e3c:	ee17 0a90 	vmov	r0, s15
 8006e40:	f7f9 fb4e 	bl	80004e0 <__aeabi_f2d>
 8006e44:	4606      	mov	r6, r0
 8006e46:	ee1a 0a10 	vmov	r0, s20
 8006e4a:	460f      	mov	r7, r1
 8006e4c:	f7f9 fb48 	bl	80004e0 <__aeabi_f2d>
 8006e50:	e9dd 2304 	ldrd	r2, r3, [sp, #16]
 8006e54:	f101 4100 	add.w	r1, r1, #2147483648	@ 0x80000000
 8006e58:	f7f9 fb9a 	bl	8000590 <__aeabi_dmul>
 8006e5c:	4602      	mov	r2, r0
 8006e5e:	460b      	mov	r3, r1
 8006e60:	4630      	mov	r0, r6
 8006e62:	4639      	mov	r1, r7
 8006e64:	f7f9 f9dc 	bl	8000220 <__aeabi_dsub>
 8006e68:	4622      	mov	r2, r4
 8006e6a:	462b      	mov	r3, r5
 8006e6c:	f7f9 fb90 	bl	8000590 <__aeabi_dmul>
 8006e70:	eeb0 0a69 	vmov.f32	s0, s19
 8006e74:	e9cd 010c 	strd	r0, r1, [sp, #48]	@ 0x30
 8006e78:	f007 faac 	bl	800e3d4 <SPE_cos_H96e4298bd9675fbbcb46b0c1f68b039a5627ebc5_cb4a8a449b4ada864625ee5a4355578a3aaf08ed>
 8006e7c:	ee69 7a00 	vmul.f32	s15, s18, s0
 8006e80:	ee17 0a90 	vmov	r0, s15
 8006e84:	f7f9 fb2c 	bl	80004e0 <__aeabi_f2d>
 8006e88:	edda 6a39 	vldr	s13, [sl, #228]	@ 0xe4
 8006e8c:	ed9a 9a3a 	vldr	s18, [sl, #232]	@ 0xe8
 8006e90:	ed9a 7a3b 	vldr	s14, [sl, #236]	@ 0xec
 8006e94:	edda 7a38 	vldr	s15, [sl, #224]	@ 0xe0
 8006e98:	ee27 7a26 	vmul.f32	s14, s14, s13
 8006e9c:	ee69 7a27 	vmul.f32	s15, s18, s15
 8006ea0:	e9cd 010e 	strd	r0, r1, [sp, #56]	@ 0x38
 8006ea4:	ee77 7a67 	vsub.f32	s15, s14, s15
 8006ea8:	ee17 0a90 	vmov	r0, s15
 8006eac:	f7f9 fb18 	bl	80004e0 <__aeabi_f2d>
 8006eb0:	4b68      	ldr	r3, [pc, #416]	@ (8007054 <Reinitialize+0x1e8c>)
 8006eb2:	2200      	movs	r2, #0
 8006eb4:	f7f9 f9b6 	bl	8000224 <__adddf3>
 8006eb8:	4606      	mov	r6, r0
 8006eba:	ee19 0a10 	vmov	r0, s18
 8006ebe:	460f      	mov	r7, r1
 8006ec0:	f7f9 fb0e 	bl	80004e0 <__aeabi_f2d>
 8006ec4:	4680      	mov	r8, r0
 8006ec6:	f101 4900 	add.w	r9, r1, #2147483648	@ 0x80000000
 8006eca:	edda 6a5b 	vldr	s13, [sl, #364]	@ 0x16c
 8006ece:	ed9a 9a56 	vldr	s18, [sl, #344]	@ 0x158
 8006ed2:	ed9a 7a5d 	vldr	s14, [sl, #372]	@ 0x174
 8006ed6:	edda 7a5f 	vldr	s15, [sl, #380]	@ 0x17c
 8006eda:	edda 5a54 	vldr	s11, [sl, #336]	@ 0x150
 8006ede:	ee77 7ae6 	vsub.f32	s15, s15, s13
 8006ee2:	ee29 6a07 	vmul.f32	s12, s18, s14
 8006ee6:	ee36 7ac7 	vsub.f32	s14, s13, s14
 8006eea:	ee67 7a86 	vmul.f32	s15, s15, s12
 8006eee:	ee87 6aa5 	vdiv.f32	s12, s15, s11
 8006ef2:	eec6 7a26 	vdiv.f32	s15, s12, s13
 8006ef6:	ee77 7a87 	vadd.f32	s15, s15, s14
 8006efa:	ee67 7a89 	vmul.f32	s15, s15, s18
 8006efe:	ee17 0a90 	vmov	r0, s15
 8006f02:	f7f9 faed 	bl	80004e0 <__aeabi_f2d>
 8006f06:	e9dd 2302 	ldrd	r2, r3, [sp, #8]
 8006f0a:	4604      	mov	r4, r0
 8006f0c:	460d      	mov	r5, r1
 8006f0e:	4640      	mov	r0, r8
 8006f10:	4649      	mov	r1, r9
 8006f12:	f7f9 fb3d 	bl	8000590 <__aeabi_dmul>
 8006f16:	4602      	mov	r2, r0
 8006f18:	460b      	mov	r3, r1
 8006f1a:	4630      	mov	r0, r6
 8006f1c:	4639      	mov	r1, r7
 8006f1e:	f7f9 f97f 	bl	8000220 <__aeabi_dsub>
 8006f22:	e9dd 230e 	ldrd	r2, r3, [sp, #56]	@ 0x38
 8006f26:	f7f9 fb33 	bl	8000590 <__aeabi_dmul>
 8006f2a:	4602      	mov	r2, r0
 8006f2c:	460b      	mov	r3, r1
 8006f2e:	e9dd 010c 	ldrd	r0, r1, [sp, #48]	@ 0x30
 8006f32:	f7f9 f975 	bl	8000220 <__aeabi_dsub>
 8006f36:	4602      	mov	r2, r0
 8006f38:	460b      	mov	r3, r1
 8006f3a:	4620      	mov	r0, r4
 8006f3c:	4629      	mov	r1, r5
 8006f3e:	f7f9 fb27 	bl	8000590 <__aeabi_dmul>
 8006f42:	4604      	mov	r4, r0
 8006f44:	f8da 01c0 	ldr.w	r0, [sl, #448]	@ 0x1c0
 8006f48:	460d      	mov	r5, r1
 8006f4a:	f7f9 fac9 	bl	80004e0 <__aeabi_f2d>
 8006f4e:	4602      	mov	r2, r0
 8006f50:	460b      	mov	r3, r1
 8006f52:	4620      	mov	r0, r4
 8006f54:	4629      	mov	r1, r5
 8006f56:	f7f9 fc45 	bl	80007e4 <__aeabi_ddiv>
 8006f5a:	4604      	mov	r4, r0
 8006f5c:	ee19 0a10 	vmov	r0, s18
 8006f60:	460d      	mov	r5, r1
 8006f62:	f7f9 fabd 	bl	80004e0 <__aeabi_f2d>
 8006f66:	4602      	mov	r2, r0
 8006f68:	460b      	mov	r3, r1
 8006f6a:	4620      	mov	r0, r4
 8006f6c:	4629      	mov	r1, r5
 8006f6e:	f7f9 fc39 	bl	80007e4 <__aeabi_ddiv>
 8006f72:	e9dd 2308 	ldrd	r2, r3, [sp, #32]
 8006f76:	f7f9 f955 	bl	8000224 <__adddf3>
 8006f7a:	ed9a 0a84 	vldr	s0, [sl, #528]	@ 0x210
 8006f7e:	ed9a 9a19 	vldr	s18, [sl, #100]	@ 0x64
 8006f82:	e9cd 0108 	strd	r0, r1, [sp, #32]
 8006f86:	f007 fa23 	bl	800e3d0 <SPE_sin_H96e4298bd9675fbbcb46b0c1f68b039a5627ebc5_cb4a8a449b4ada864625ee5a4355578a3aaf08ed>
 8006f8a:	ee69 7a00 	vmul.f32	s15, s18, s0
 8006f8e:	ee17 0a90 	vmov	r0, s15
 8006f92:	f7f9 faa5 	bl	80004e0 <__aeabi_f2d>
 8006f96:	edda 9a84 	vldr	s19, [sl, #528]	@ 0x210
 8006f9a:	ed9a 9a19 	vldr	s18, [sl, #100]	@ 0x64
 8006f9e:	4604      	mov	r4, r0
 8006fa0:	460d      	mov	r5, r1
 8006fa2:	f1bb 0f00 	cmp.w	fp, #0
 8006fa6:	f042 8118 	bne.w	80091da <Reinitialize+0x4012>
 8006faa:	edda 6a39 	vldr	s13, [sl, #228]	@ 0xe4
 8006fae:	ed9a aa3b 	vldr	s20, [sl, #236]	@ 0xec
 8006fb2:	ed9a 7a3a 	vldr	s14, [sl, #232]	@ 0xe8
 8006fb6:	edda 7a38 	vldr	s15, [sl, #224]	@ 0xe0
 8006fba:	ee27 7a26 	vmul.f32	s14, s14, s13
 8006fbe:	ee6a 7a27 	vmul.f32	s15, s20, s15
 8006fc2:	ee77 7a27 	vadd.f32	s15, s14, s15
 8006fc6:	ee17 0a90 	vmov	r0, s15
 8006fca:	f7f9 fa89 	bl	80004e0 <__aeabi_f2d>
 8006fce:	4606      	mov	r6, r0
 8006fd0:	ee1a 0a10 	vmov	r0, s20
 8006fd4:	460f      	mov	r7, r1
 8006fd6:	f7f9 fa83 	bl	80004e0 <__aeabi_f2d>
 8006fda:	e9dd 2304 	ldrd	r2, r3, [sp, #16]
 8006fde:	f101 4100 	add.w	r1, r1, #2147483648	@ 0x80000000
 8006fe2:	f7f9 fad5 	bl	8000590 <__aeabi_dmul>
 8006fe6:	4602      	mov	r2, r0
 8006fe8:	460b      	mov	r3, r1
 8006fea:	4630      	mov	r0, r6
 8006fec:	4639      	mov	r1, r7
 8006fee:	f7f9 f917 	bl	8000220 <__aeabi_dsub>
 8006ff2:	4622      	mov	r2, r4
 8006ff4:	462b      	mov	r3, r5
 8006ff6:	f7f9 facb 	bl	8000590 <__aeabi_dmul>
 8006ffa:	eeb0 0a69 	vmov.f32	s0, s19
 8006ffe:	4680      	mov	r8, r0
 8007000:	4689      	mov	r9, r1
 8007002:	f007 f9e7 	bl	800e3d4 <SPE_cos_H96e4298bd9675fbbcb46b0c1f68b039a5627ebc5_cb4a8a449b4ada864625ee5a4355578a3aaf08ed>
 8007006:	ee60 7a09 	vmul.f32	s15, s0, s18
 800700a:	ee17 0a90 	vmov	r0, s15
 800700e:	f7f9 fa67 	bl	80004e0 <__aeabi_f2d>
 8007012:	edda 6a39 	vldr	s13, [sl, #228]	@ 0xe4
 8007016:	ed9a 9a3a 	vldr	s18, [sl, #232]	@ 0xe8
 800701a:	ed9a 7a3b 	vldr	s14, [sl, #236]	@ 0xec
 800701e:	edda 7a38 	vldr	s15, [sl, #224]	@ 0xe0
 8007022:	ee27 7a26 	vmul.f32	s14, s14, s13
 8007026:	ee69 7a27 	vmul.f32	s15, s18, s15
 800702a:	4604      	mov	r4, r0
 800702c:	ee77 7a67 	vsub.f32	s15, s14, s15
 8007030:	460d      	mov	r5, r1
 8007032:	ee17 0a90 	vmov	r0, s15
 8007036:	f7f9 fa53 	bl	80004e0 <__aeabi_f2d>
 800703a:	4b06      	ldr	r3, [pc, #24]	@ (8007054 <Reinitialize+0x1e8c>)
 800703c:	2200      	movs	r2, #0
 800703e:	f7f9 f8f1 	bl	8000224 <__adddf3>
 8007042:	4606      	mov	r6, r0
 8007044:	ee19 0a10 	vmov	r0, s18
 8007048:	460f      	mov	r7, r1
 800704a:	f7f9 fa49 	bl	80004e0 <__aeabi_f2d>
 800704e:	f101 4100 	add.w	r1, r1, #2147483648	@ 0x80000000
 8007052:	e001      	b.n	8007058 <Reinitialize+0x1e90>
 8007054:	3ff00000 	.word	0x3ff00000
 8007058:	e9dd 2302 	ldrd	r2, r3, [sp, #8]
 800705c:	f7f9 fa98 	bl	8000590 <__aeabi_dmul>
 8007060:	4602      	mov	r2, r0
 8007062:	460b      	mov	r3, r1
 8007064:	4630      	mov	r0, r6
 8007066:	4639      	mov	r1, r7
 8007068:	f7f9 f8da 	bl	8000220 <__aeabi_dsub>
 800706c:	4622      	mov	r2, r4
 800706e:	462b      	mov	r3, r5
 8007070:	f7f9 fa8e 	bl	8000590 <__aeabi_dmul>
 8007074:	4602      	mov	r2, r0
 8007076:	460b      	mov	r3, r1
 8007078:	4640      	mov	r0, r8
 800707a:	4649      	mov	r1, r9
 800707c:	f7f9 f8d0 	bl	8000220 <__aeabi_dsub>
 8007080:	4604      	mov	r4, r0
 8007082:	f8da 0174 	ldr.w	r0, [sl, #372]	@ 0x174
 8007086:	460d      	mov	r5, r1
 8007088:	f7f9 fa2a 	bl	80004e0 <__aeabi_f2d>
 800708c:	4602      	mov	r2, r0
 800708e:	460b      	mov	r3, r1
 8007090:	4620      	mov	r0, r4
 8007092:	4629      	mov	r1, r5
 8007094:	f7f9 fa7c 	bl	8000590 <__aeabi_dmul>
 8007098:	4604      	mov	r4, r0
 800709a:	f8da 01c0 	ldr.w	r0, [sl, #448]	@ 0x1c0
 800709e:	460d      	mov	r5, r1
 80070a0:	f7f9 fa1e 	bl	80004e0 <__aeabi_f2d>
 80070a4:	4602      	mov	r2, r0
 80070a6:	460b      	mov	r3, r1
 80070a8:	4620      	mov	r0, r4
 80070aa:	4629      	mov	r1, r5
 80070ac:	f7f9 fb9a 	bl	80007e4 <__aeabi_ddiv>
 80070b0:	e9dd 2308 	ldrd	r2, r3, [sp, #32]
 80070b4:	f7f9 f8b6 	bl	8000224 <__adddf3>
 80070b8:	f7f9 fc7c 	bl	80009b4 <__aeabi_d2f>
 80070bc:	903b      	str	r0, [sp, #236]	@ 0xec
 80070be:	f8da 0110 	ldr.w	r0, [sl, #272]	@ 0x110
 80070c2:	edda aa84 	vldr	s21, [sl, #528]	@ 0x210
 80070c6:	ed9a aa19 	vldr	s20, [sl, #100]	@ 0x64
 80070ca:	f7f9 fa09 	bl	80004e0 <__aeabi_f2d>
 80070ce:	4680      	mov	r8, r0
 80070d0:	f8da 010c 	ldr.w	r0, [sl, #268]	@ 0x10c
 80070d4:	4689      	mov	r9, r1
 80070d6:	f7f9 fa03 	bl	80004e0 <__aeabi_f2d>
 80070da:	9b06      	ldr	r3, [sp, #24]
 80070dc:	4604      	mov	r4, r0
 80070de:	460d      	mov	r5, r1
 80070e0:	2b00      	cmp	r3, #0
 80070e2:	f001 8761 	beq.w	8008fa8 <Reinitialize+0x3de0>
 80070e6:	2300      	movs	r3, #0
 80070e8:	933d      	str	r3, [sp, #244]	@ 0xf4
 80070ea:	f04f 537e 	mov.w	r3, #1065353216	@ 0x3f800000
 80070ee:	933c      	str	r3, [sp, #240]	@ 0xf0
 80070f0:	2200      	movs	r2, #0
 80070f2:	2300      	movs	r3, #0
 80070f4:	f7f9 fa4c 	bl	8000590 <__aeabi_dmul>
 80070f8:	2200      	movs	r2, #0
 80070fa:	4606      	mov	r6, r0
 80070fc:	460f      	mov	r7, r1
 80070fe:	4640      	mov	r0, r8
 8007100:	4649      	mov	r1, r9
 8007102:	2300      	movs	r3, #0
 8007104:	f7f9 fa44 	bl	8000590 <__aeabi_dmul>
 8007108:	4604      	mov	r4, r0
 800710a:	460d      	mov	r5, r1
 800710c:	4622      	mov	r2, r4
 800710e:	462b      	mov	r3, r5
 8007110:	4630      	mov	r0, r6
 8007112:	4639      	mov	r1, r7
 8007114:	f7f9 f884 	bl	8000220 <__aeabi_dsub>
 8007118:	f7f9 fc4c 	bl	80009b4 <__aeabi_d2f>
 800711c:	4632      	mov	r2, r6
 800711e:	463b      	mov	r3, r7
 8007120:	903e      	str	r0, [sp, #248]	@ 0xf8
 8007122:	4629      	mov	r1, r5
 8007124:	4620      	mov	r0, r4
 8007126:	f7f9 f87d 	bl	8000224 <__adddf3>
 800712a:	f7f9 fc43 	bl	80009b4 <__aeabi_d2f>
 800712e:	eeb0 0a6a 	vmov.f32	s0, s21
 8007132:	903f      	str	r0, [sp, #252]	@ 0xfc
 8007134:	f007 f94c 	bl	800e3d0 <SPE_sin_H96e4298bd9675fbbcb46b0c1f68b039a5627ebc5_cb4a8a449b4ada864625ee5a4355578a3aaf08ed>
 8007138:	ee6a 7a00 	vmul.f32	s15, s20, s0
 800713c:	ee17 0a90 	vmov	r0, s15
 8007140:	f7f9 f9ce 	bl	80004e0 <__aeabi_f2d>
 8007144:	2200      	movs	r2, #0
 8007146:	2300      	movs	r3, #0
 8007148:	f7f9 fa22 	bl	8000590 <__aeabi_dmul>
 800714c:	ed9a 0a84 	vldr	s0, [sl, #528]	@ 0x210
 8007150:	ed9a 9a19 	vldr	s18, [sl, #100]	@ 0x64
 8007154:	4604      	mov	r4, r0
 8007156:	460d      	mov	r5, r1
 8007158:	f007 f93c 	bl	800e3d4 <SPE_cos_H96e4298bd9675fbbcb46b0c1f68b039a5627ebc5_cb4a8a449b4ada864625ee5a4355578a3aaf08ed>
 800715c:	ee69 7a00 	vmul.f32	s15, s18, s0
 8007160:	ee17 0a90 	vmov	r0, s15
 8007164:	f7f9 f9bc 	bl	80004e0 <__aeabi_f2d>
 8007168:	2200      	movs	r2, #0
 800716a:	2300      	movs	r3, #0
 800716c:	f7f9 fa10 	bl	8000590 <__aeabi_dmul>
 8007170:	4622      	mov	r2, r4
 8007172:	462b      	mov	r3, r5
 8007174:	f7f9 f856 	bl	8000224 <__adddf3>
 8007178:	4604      	mov	r4, r0
 800717a:	f8da 0170 	ldr.w	r0, [sl, #368]	@ 0x170
 800717e:	460d      	mov	r5, r1
 8007180:	f7f9 f9ae 	bl	80004e0 <__aeabi_f2d>
 8007184:	4602      	mov	r2, r0
 8007186:	460b      	mov	r3, r1
 8007188:	4620      	mov	r0, r4
 800718a:	4629      	mov	r1, r5
 800718c:	f7f9 fa00 	bl	8000590 <__aeabi_dmul>
 8007190:	ed9a 0a84 	vldr	s0, [sl, #528]	@ 0x210
 8007194:	ed9a 9a19 	vldr	s18, [sl, #100]	@ 0x64
 8007198:	4680      	mov	r8, r0
 800719a:	4689      	mov	r9, r1
 800719c:	f007 f918 	bl	800e3d0 <SPE_sin_H96e4298bd9675fbbcb46b0c1f68b039a5627ebc5_cb4a8a449b4ada864625ee5a4355578a3aaf08ed>
 80071a0:	ee60 7a09 	vmul.f32	s15, s0, s18
 80071a4:	ee17 0a90 	vmov	r0, s15
 80071a8:	f7f9 f99a 	bl	80004e0 <__aeabi_f2d>
 80071ac:	2200      	movs	r2, #0
 80071ae:	2300      	movs	r3, #0
 80071b0:	f7f9 f9ee 	bl	8000590 <__aeabi_dmul>
 80071b4:	ed9a 0a84 	vldr	s0, [sl, #528]	@ 0x210
 80071b8:	ed9a 9a19 	vldr	s18, [sl, #100]	@ 0x64
 80071bc:	4604      	mov	r4, r0
 80071be:	460d      	mov	r5, r1
 80071c0:	f007 f908 	bl	800e3d4 <SPE_cos_H96e4298bd9675fbbcb46b0c1f68b039a5627ebc5_cb4a8a449b4ada864625ee5a4355578a3aaf08ed>
 80071c4:	ee69 7a00 	vmul.f32	s15, s18, s0
 80071c8:	ee17 0a90 	vmov	r0, s15
 80071cc:	f7f9 f988 	bl	80004e0 <__aeabi_f2d>
 80071d0:	4606      	mov	r6, r0
 80071d2:	460f      	mov	r7, r1
 80071d4:	2000      	movs	r0, #0
 80071d6:	2100      	movs	r1, #0
 80071d8:	4632      	mov	r2, r6
 80071da:	463b      	mov	r3, r7
 80071dc:	f7f9 f9d8 	bl	8000590 <__aeabi_dmul>
 80071e0:	4602      	mov	r2, r0
 80071e2:	460b      	mov	r3, r1
 80071e4:	4620      	mov	r0, r4
 80071e6:	4629      	mov	r1, r5
 80071e8:	f7f9 f81a 	bl	8000220 <__aeabi_dsub>
 80071ec:	4604      	mov	r4, r0
 80071ee:	f8da 0164 	ldr.w	r0, [sl, #356]	@ 0x164
 80071f2:	460d      	mov	r5, r1
 80071f4:	f7f9 f974 	bl	80004e0 <__aeabi_f2d>
 80071f8:	4602      	mov	r2, r0
 80071fa:	460b      	mov	r3, r1
 80071fc:	4620      	mov	r0, r4
 80071fe:	4629      	mov	r1, r5
 8007200:	f7f9 f9c6 	bl	8000590 <__aeabi_dmul>
 8007204:	4642      	mov	r2, r8
 8007206:	464b      	mov	r3, r9
 8007208:	f7f9 f80c 	bl	8000224 <__adddf3>
 800720c:	4604      	mov	r4, r0
 800720e:	f8da 01c0 	ldr.w	r0, [sl, #448]	@ 0x1c0
 8007212:	460d      	mov	r5, r1
 8007214:	f7f9 f964 	bl	80004e0 <__aeabi_f2d>
 8007218:	460b      	mov	r3, r1
 800721a:	4602      	mov	r2, r0
 800721c:	4629      	mov	r1, r5
 800721e:	4620      	mov	r0, r4
 8007220:	f7f9 fae0 	bl	80007e4 <__aeabi_ddiv>
 8007224:	f7f9 fbc6 	bl	80009b4 <__aeabi_d2f>
 8007228:	ee07 0a90 	vmov	s15, r0
 800722c:	ed9a 0a84 	vldr	s0, [sl, #528]	@ 0x210
 8007230:	ed9a 9a19 	vldr	s18, [sl, #100]	@ 0x64
 8007234:	eef1 7a67 	vneg.f32	s15, s15
 8007238:	edcd 7a40 	vstr	s15, [sp, #256]	@ 0x100
 800723c:	f007 f8c8 	bl	800e3d0 <SPE_sin_H96e4298bd9675fbbcb46b0c1f68b039a5627ebc5_cb4a8a449b4ada864625ee5a4355578a3aaf08ed>
 8007240:	ee69 7a00 	vmul.f32	s15, s18, s0
 8007244:	ee17 0a90 	vmov	r0, s15
 8007248:	f7f9 f94a 	bl	80004e0 <__aeabi_f2d>
 800724c:	9b06      	ldr	r3, [sp, #24]
 800724e:	ed9a 9a19 	vldr	s18, [sl, #100]	@ 0x64
 8007252:	edda 9a84 	vldr	s19, [sl, #528]	@ 0x210
 8007256:	4604      	mov	r4, r0
 8007258:	460d      	mov	r5, r1
 800725a:	2b00      	cmp	r3, #0
 800725c:	f041 868e 	bne.w	8008f7c <Reinitialize+0x3db4>
 8007260:	ed9a 6a3d 	vldr	s12, [sl, #244]	@ 0xf4
 8007264:	edda 6a3c 	vldr	s13, [sl, #240]	@ 0xf0
 8007268:	ed9a 7a3f 	vldr	s14, [sl, #252]	@ 0xfc
 800726c:	edda 7a3e 	vldr	s15, [sl, #248]	@ 0xf8
 8007270:	ee27 7a06 	vmul.f32	s14, s14, s12
 8007274:	ee67 7aa6 	vmul.f32	s15, s15, s13
 8007278:	ee77 7a67 	vsub.f32	s15, s14, s15
 800727c:	ee17 0a90 	vmov	r0, s15
 8007280:	f7f9 f92e 	bl	80004e0 <__aeabi_f2d>
 8007284:	4bf2      	ldr	r3, [pc, #968]	@ (8007650 <Reinitialize+0x2488>)
 8007286:	2200      	movs	r2, #0
 8007288:	f7f8 ffcc 	bl	8000224 <__adddf3>
 800728c:	4622      	mov	r2, r4
 800728e:	462b      	mov	r3, r5
 8007290:	f7f9 f97e 	bl	8000590 <__aeabi_dmul>
 8007294:	eeb0 0a69 	vmov.f32	s0, s19
 8007298:	e9cd 0108 	strd	r0, r1, [sp, #32]
 800729c:	f007 f89a 	bl	800e3d4 <SPE_cos_H96e4298bd9675fbbcb46b0c1f68b039a5627ebc5_cb4a8a449b4ada864625ee5a4355578a3aaf08ed>
 80072a0:	ee69 7a00 	vmul.f32	s15, s18, s0
 80072a4:	ee17 0a90 	vmov	r0, s15
 80072a8:	f7f9 f91a 	bl	80004e0 <__aeabi_f2d>
 80072ac:	ed9a 6a3c 	vldr	s12, [sl, #240]	@ 0xf0
 80072b0:	edda 6a3d 	vldr	s13, [sl, #244]	@ 0xf4
 80072b4:	ed9a 7a3f 	vldr	s14, [sl, #252]	@ 0xfc
 80072b8:	edda 7a3e 	vldr	s15, [sl, #248]	@ 0xf8
 80072bc:	ee27 7a06 	vmul.f32	s14, s14, s12
 80072c0:	ee67 7aa6 	vmul.f32	s15, s15, s13
 80072c4:	4680      	mov	r8, r0
 80072c6:	ee77 7a27 	vadd.f32	s15, s14, s15
 80072ca:	4689      	mov	r9, r1
 80072cc:	ee17 0a90 	vmov	r0, s15
 80072d0:	f7f9 f906 	bl	80004e0 <__aeabi_f2d>
 80072d4:	4606      	mov	r6, r0
 80072d6:	f101 4700 	add.w	r7, r1, #2147483648	@ 0x80000000
 80072da:	edda 6a5b 	vldr	s13, [sl, #364]	@ 0x16c
 80072de:	ed9a 6a5d 	vldr	s12, [sl, #372]	@ 0x174
 80072e2:	edda 7a5f 	vldr	s15, [sl, #380]	@ 0x17c
 80072e6:	ed9a 7a56 	vldr	s14, [sl, #344]	@ 0x158
 80072ea:	ed9a 9a54 	vldr	s18, [sl, #336]	@ 0x150
 80072ee:	ee77 7ae6 	vsub.f32	s15, s15, s13
 80072f2:	ee27 7a06 	vmul.f32	s14, s14, s12
 80072f6:	ee27 7a27 	vmul.f32	s14, s14, s15
 80072fa:	ee87 6a09 	vdiv.f32	s12, s14, s18
 80072fe:	ee86 7a26 	vdiv.f32	s14, s12, s13
 8007302:	ee77 7ac7 	vsub.f32	s15, s15, s14
 8007306:	ee67 7a89 	vmul.f32	s15, s15, s18
 800730a:	ee17 0a90 	vmov	r0, s15
 800730e:	f7f9 f8e7 	bl	80004e0 <__aeabi_f2d>
 8007312:	4642      	mov	r2, r8
 8007314:	4604      	mov	r4, r0
 8007316:	460d      	mov	r5, r1
 8007318:	464b      	mov	r3, r9
 800731a:	4630      	mov	r0, r6
 800731c:	4639      	mov	r1, r7
 800731e:	f7f9 f937 	bl	8000590 <__aeabi_dmul>
 8007322:	4602      	mov	r2, r0
 8007324:	460b      	mov	r3, r1
 8007326:	e9dd 0108 	ldrd	r0, r1, [sp, #32]
 800732a:	f7f8 ff79 	bl	8000220 <__aeabi_dsub>
 800732e:	4602      	mov	r2, r0
 8007330:	460b      	mov	r3, r1
 8007332:	4620      	mov	r0, r4
 8007334:	4629      	mov	r1, r5
 8007336:	f7f9 f92b 	bl	8000590 <__aeabi_dmul>
 800733a:	4604      	mov	r4, r0
 800733c:	f8da 01c0 	ldr.w	r0, [sl, #448]	@ 0x1c0
 8007340:	460d      	mov	r5, r1
 8007342:	f7f9 f8cd 	bl	80004e0 <__aeabi_f2d>
 8007346:	4602      	mov	r2, r0
 8007348:	460b      	mov	r3, r1
 800734a:	4620      	mov	r0, r4
 800734c:	4629      	mov	r1, r5
 800734e:	f7f9 fa49 	bl	80007e4 <__aeabi_ddiv>
 8007352:	4604      	mov	r4, r0
 8007354:	ee19 0a10 	vmov	r0, s18
 8007358:	460d      	mov	r5, r1
 800735a:	f7f9 f8c1 	bl	80004e0 <__aeabi_f2d>
 800735e:	460b      	mov	r3, r1
 8007360:	4602      	mov	r2, r0
 8007362:	4629      	mov	r1, r5
 8007364:	4620      	mov	r0, r4
 8007366:	f7f9 fa3d 	bl	80007e4 <__aeabi_ddiv>
 800736a:	ed9a 0a84 	vldr	s0, [sl, #528]	@ 0x210
 800736e:	ed9a 9a19 	vldr	s18, [sl, #100]	@ 0x64
 8007372:	4680      	mov	r8, r0
 8007374:	4689      	mov	r9, r1
 8007376:	f007 f82b 	bl	800e3d0 <SPE_sin_H96e4298bd9675fbbcb46b0c1f68b039a5627ebc5_cb4a8a449b4ada864625ee5a4355578a3aaf08ed>
 800737a:	ee69 7a00 	vmul.f32	s15, s18, s0
 800737e:	ee17 0a90 	vmov	r0, s15
 8007382:	f7f9 f8ad 	bl	80004e0 <__aeabi_f2d>
 8007386:	9b06      	ldr	r3, [sp, #24]
 8007388:	ed9a 9a19 	vldr	s18, [sl, #100]	@ 0x64
 800738c:	edda 9a84 	vldr	s19, [sl, #528]	@ 0x210
 8007390:	4604      	mov	r4, r0
 8007392:	460d      	mov	r5, r1
 8007394:	2b00      	cmp	r3, #0
 8007396:	f041 8595 	bne.w	8008ec4 <Reinitialize+0x3cfc>
 800739a:	ed9a 6a3c 	vldr	s12, [sl, #240]	@ 0xf0
 800739e:	edda 6a3d 	vldr	s13, [sl, #244]	@ 0xf4
 80073a2:	ed9a 7a3f 	vldr	s14, [sl, #252]	@ 0xfc
 80073a6:	edda 7a3e 	vldr	s15, [sl, #248]	@ 0xf8
 80073aa:	ee27 7a06 	vmul.f32	s14, s14, s12
 80073ae:	ee67 7aa6 	vmul.f32	s15, s15, s13
 80073b2:	ee77 7a27 	vadd.f32	s15, s14, s15
 80073b6:	ee17 0a90 	vmov	r0, s15
 80073ba:	f7f9 f891 	bl	80004e0 <__aeabi_f2d>
 80073be:	4622      	mov	r2, r4
 80073c0:	462b      	mov	r3, r5
 80073c2:	f101 4100 	add.w	r1, r1, #2147483648	@ 0x80000000
 80073c6:	f7f9 f8e3 	bl	8000590 <__aeabi_dmul>
 80073ca:	eeb0 0a69 	vmov.f32	s0, s19
 80073ce:	4604      	mov	r4, r0
 80073d0:	460d      	mov	r5, r1
 80073d2:	f006 ffff 	bl	800e3d4 <SPE_cos_H96e4298bd9675fbbcb46b0c1f68b039a5627ebc5_cb4a8a449b4ada864625ee5a4355578a3aaf08ed>
 80073d6:	ed9a 6a3d 	vldr	s12, [sl, #244]	@ 0xf4
 80073da:	edda 6a3c 	vldr	s13, [sl, #240]	@ 0xf0
 80073de:	ed9a 7a3f 	vldr	s14, [sl, #252]	@ 0xfc
 80073e2:	edda 7a3e 	vldr	s15, [sl, #248]	@ 0xf8
 80073e6:	ee27 7a06 	vmul.f32	s14, s14, s12
 80073ea:	ee67 7aa6 	vmul.f32	s15, s15, s13
 80073ee:	eef0 9a40 	vmov.f32	s19, s0
 80073f2:	ee77 7a67 	vsub.f32	s15, s14, s15
 80073f6:	ee17 0a90 	vmov	r0, s15
 80073fa:	f7f9 f871 	bl	80004e0 <__aeabi_f2d>
 80073fe:	4b94      	ldr	r3, [pc, #592]	@ (8007650 <Reinitialize+0x2488>)
 8007400:	2200      	movs	r2, #0
 8007402:	f7f8 ff0f 	bl	8000224 <__adddf3>
 8007406:	ee69 7a29 	vmul.f32	s15, s18, s19
 800740a:	4606      	mov	r6, r0
 800740c:	ee17 0a90 	vmov	r0, s15
 8007410:	460f      	mov	r7, r1
 8007412:	f7f9 f865 	bl	80004e0 <__aeabi_f2d>
 8007416:	4602      	mov	r2, r0
 8007418:	460b      	mov	r3, r1
 800741a:	4630      	mov	r0, r6
 800741c:	4639      	mov	r1, r7
 800741e:	f7f9 f8b7 	bl	8000590 <__aeabi_dmul>
 8007422:	4622      	mov	r2, r4
 8007424:	462b      	mov	r3, r5
 8007426:	f7f8 fefd 	bl	8000224 <__adddf3>
 800742a:	4604      	mov	r4, r0
 800742c:	f8da 0164 	ldr.w	r0, [sl, #356]	@ 0x164
 8007430:	460d      	mov	r5, r1
 8007432:	f7f9 f855 	bl	80004e0 <__aeabi_f2d>
 8007436:	4602      	mov	r2, r0
 8007438:	460b      	mov	r3, r1
 800743a:	4620      	mov	r0, r4
 800743c:	4629      	mov	r1, r5
 800743e:	f7f9 f8a7 	bl	8000590 <__aeabi_dmul>
 8007442:	4604      	mov	r4, r0
 8007444:	f8da 01c0 	ldr.w	r0, [sl, #448]	@ 0x1c0
 8007448:	460d      	mov	r5, r1
 800744a:	f7f9 f849 	bl	80004e0 <__aeabi_f2d>
 800744e:	4602      	mov	r2, r0
 8007450:	460b      	mov	r3, r1
 8007452:	4620      	mov	r0, r4
 8007454:	4629      	mov	r1, r5
 8007456:	f7f9 f9c5 	bl	80007e4 <__aeabi_ddiv>
 800745a:	4602      	mov	r2, r0
 800745c:	460b      	mov	r3, r1
 800745e:	4640      	mov	r0, r8
 8007460:	4649      	mov	r1, r9
 8007462:	f7f8 fedd 	bl	8000220 <__aeabi_dsub>
 8007466:	ed9a 0a84 	vldr	s0, [sl, #528]	@ 0x210
 800746a:	edda 9a19 	vldr	s19, [sl, #100]	@ 0x64
 800746e:	e9cd 0108 	strd	r0, r1, [sp, #32]
 8007472:	f006 ffad 	bl	800e3d0 <SPE_sin_H96e4298bd9675fbbcb46b0c1f68b039a5627ebc5_cb4a8a449b4ada864625ee5a4355578a3aaf08ed>
 8007476:	ed9a 6a3d 	vldr	s12, [sl, #244]	@ 0xf4
 800747a:	edda 6a3c 	vldr	s13, [sl, #240]	@ 0xf0
 800747e:	ed9a 7a3f 	vldr	s14, [sl, #252]	@ 0xfc
 8007482:	edda 7a3e 	vldr	s15, [sl, #248]	@ 0xf8
 8007486:	ee27 7a06 	vmul.f32	s14, s14, s12
 800748a:	ee67 7aa6 	vmul.f32	s15, s15, s13
 800748e:	eeb0 9a40 	vmov.f32	s18, s0
 8007492:	ee77 7a67 	vsub.f32	s15, s14, s15
 8007496:	ee17 0a90 	vmov	r0, s15
 800749a:	f7f9 f821 	bl	80004e0 <__aeabi_f2d>
 800749e:	4b6c      	ldr	r3, [pc, #432]	@ (8007650 <Reinitialize+0x2488>)
 80074a0:	2200      	movs	r2, #0
 80074a2:	f7f8 febf 	bl	8000224 <__adddf3>
 80074a6:	ee69 7a29 	vmul.f32	s15, s18, s19
 80074aa:	4604      	mov	r4, r0
 80074ac:	ee17 0a90 	vmov	r0, s15
 80074b0:	460d      	mov	r5, r1
 80074b2:	f7f9 f815 	bl	80004e0 <__aeabi_f2d>
 80074b6:	4602      	mov	r2, r0
 80074b8:	460b      	mov	r3, r1
 80074ba:	4620      	mov	r0, r4
 80074bc:	4629      	mov	r1, r5
 80074be:	f7f9 f867 	bl	8000590 <__aeabi_dmul>
 80074c2:	ed9a 0a84 	vldr	s0, [sl, #528]	@ 0x210
 80074c6:	ed9a 9a19 	vldr	s18, [sl, #100]	@ 0x64
 80074ca:	e9cd 010c 	strd	r0, r1, [sp, #48]	@ 0x30
 80074ce:	f006 ff81 	bl	800e3d4 <SPE_cos_H96e4298bd9675fbbcb46b0c1f68b039a5627ebc5_cb4a8a449b4ada864625ee5a4355578a3aaf08ed>
 80074d2:	ee69 7a00 	vmul.f32	s15, s18, s0
 80074d6:	ee17 0a90 	vmov	r0, s15
 80074da:	f7f9 f801 	bl	80004e0 <__aeabi_f2d>
 80074de:	ed9a 6a3c 	vldr	s12, [sl, #240]	@ 0xf0
 80074e2:	edda 6a3d 	vldr	s13, [sl, #244]	@ 0xf4
 80074e6:	ed9a 7a3f 	vldr	s14, [sl, #252]	@ 0xfc
 80074ea:	edda 7a3e 	vldr	s15, [sl, #248]	@ 0xf8
 80074ee:	ee27 7a06 	vmul.f32	s14, s14, s12
 80074f2:	ee67 7aa6 	vmul.f32	s15, s15, s13
 80074f6:	4680      	mov	r8, r0
 80074f8:	ee77 7a27 	vadd.f32	s15, s14, s15
 80074fc:	4689      	mov	r9, r1
 80074fe:	ee17 0a90 	vmov	r0, s15
 8007502:	f7f8 ffed 	bl	80004e0 <__aeabi_f2d>
 8007506:	4606      	mov	r6, r0
 8007508:	f101 4700 	add.w	r7, r1, #2147483648	@ 0x80000000
 800750c:	edda 6a5b 	vldr	s13, [sl, #364]	@ 0x16c
 8007510:	ed9a 9a56 	vldr	s18, [sl, #344]	@ 0x158
 8007514:	ed9a 7a5d 	vldr	s14, [sl, #372]	@ 0x174
 8007518:	edda 7a5f 	vldr	s15, [sl, #380]	@ 0x17c
 800751c:	edda 5a54 	vldr	s11, [sl, #336]	@ 0x150
 8007520:	ee77 7ae6 	vsub.f32	s15, s15, s13
 8007524:	ee29 6a07 	vmul.f32	s12, s18, s14
 8007528:	ee36 7ac7 	vsub.f32	s14, s13, s14
 800752c:	ee67 7a86 	vmul.f32	s15, s15, s12
 8007530:	ee87 6aa5 	vdiv.f32	s12, s15, s11
 8007534:	eec6 7a26 	vdiv.f32	s15, s12, s13
 8007538:	ee77 7a87 	vadd.f32	s15, s15, s14
 800753c:	ee67 7a89 	vmul.f32	s15, s15, s18
 8007540:	ee17 0a90 	vmov	r0, s15
 8007544:	f7f8 ffcc 	bl	80004e0 <__aeabi_f2d>
 8007548:	4642      	mov	r2, r8
 800754a:	4604      	mov	r4, r0
 800754c:	460d      	mov	r5, r1
 800754e:	464b      	mov	r3, r9
 8007550:	4630      	mov	r0, r6
 8007552:	4639      	mov	r1, r7
 8007554:	f7f9 f81c 	bl	8000590 <__aeabi_dmul>
 8007558:	4602      	mov	r2, r0
 800755a:	460b      	mov	r3, r1
 800755c:	e9dd 010c 	ldrd	r0, r1, [sp, #48]	@ 0x30
 8007560:	f7f8 fe5e 	bl	8000220 <__aeabi_dsub>
 8007564:	4602      	mov	r2, r0
 8007566:	460b      	mov	r3, r1
 8007568:	4620      	mov	r0, r4
 800756a:	4629      	mov	r1, r5
 800756c:	f7f9 f810 	bl	8000590 <__aeabi_dmul>
 8007570:	4604      	mov	r4, r0
 8007572:	f8da 01c0 	ldr.w	r0, [sl, #448]	@ 0x1c0
 8007576:	460d      	mov	r5, r1
 8007578:	f7f8 ffb2 	bl	80004e0 <__aeabi_f2d>
 800757c:	4602      	mov	r2, r0
 800757e:	460b      	mov	r3, r1
 8007580:	4620      	mov	r0, r4
 8007582:	4629      	mov	r1, r5
 8007584:	f7f9 f92e 	bl	80007e4 <__aeabi_ddiv>
 8007588:	4604      	mov	r4, r0
 800758a:	ee19 0a10 	vmov	r0, s18
 800758e:	460d      	mov	r5, r1
 8007590:	f7f8 ffa6 	bl	80004e0 <__aeabi_f2d>
 8007594:	4602      	mov	r2, r0
 8007596:	460b      	mov	r3, r1
 8007598:	4620      	mov	r0, r4
 800759a:	4629      	mov	r1, r5
 800759c:	f7f9 f922 	bl	80007e4 <__aeabi_ddiv>
 80075a0:	e9dd 2308 	ldrd	r2, r3, [sp, #32]
 80075a4:	f7f8 fe3e 	bl	8000224 <__adddf3>
 80075a8:	ed9a 0a84 	vldr	s0, [sl, #528]	@ 0x210
 80075ac:	ed9a 9a19 	vldr	s18, [sl, #100]	@ 0x64
 80075b0:	4680      	mov	r8, r0
 80075b2:	4689      	mov	r9, r1
 80075b4:	f006 ff0c 	bl	800e3d0 <SPE_sin_H96e4298bd9675fbbcb46b0c1f68b039a5627ebc5_cb4a8a449b4ada864625ee5a4355578a3aaf08ed>
 80075b8:	ee69 7a00 	vmul.f32	s15, s18, s0
 80075bc:	ee17 0a90 	vmov	r0, s15
 80075c0:	f7f8 ff8e 	bl	80004e0 <__aeabi_f2d>
 80075c4:	9b06      	ldr	r3, [sp, #24]
 80075c6:	ed9a aa19 	vldr	s20, [sl, #100]	@ 0x64
 80075ca:	ed9a 9a84 	vldr	s18, [sl, #528]	@ 0x210
 80075ce:	4604      	mov	r4, r0
 80075d0:	460d      	mov	r5, r1
 80075d2:	2b00      	cmp	r3, #0
 80075d4:	f041 83ba 	bne.w	8008d4c <Reinitialize+0x3b84>
 80075d8:	ed9a 6a3d 	vldr	s12, [sl, #244]	@ 0xf4
 80075dc:	edda 6a3c 	vldr	s13, [sl, #240]	@ 0xf0
 80075e0:	ed9a 7a3f 	vldr	s14, [sl, #252]	@ 0xfc
 80075e4:	edda 7a3e 	vldr	s15, [sl, #248]	@ 0xf8
 80075e8:	ee27 7a06 	vmul.f32	s14, s14, s12
 80075ec:	ee67 7aa6 	vmul.f32	s15, s15, s13
 80075f0:	ee77 7a67 	vsub.f32	s15, s14, s15
 80075f4:	ee17 0a90 	vmov	r0, s15
 80075f8:	f7f8 ff72 	bl	80004e0 <__aeabi_f2d>
 80075fc:	4b14      	ldr	r3, [pc, #80]	@ (8007650 <Reinitialize+0x2488>)
 80075fe:	2200      	movs	r2, #0
 8007600:	f7f8 fe10 	bl	8000224 <__adddf3>
 8007604:	4622      	mov	r2, r4
 8007606:	462b      	mov	r3, r5
 8007608:	f7f8 ffc2 	bl	8000590 <__aeabi_dmul>
 800760c:	eeb0 0a49 	vmov.f32	s0, s18
 8007610:	4604      	mov	r4, r0
 8007612:	460d      	mov	r5, r1
 8007614:	f006 fede 	bl	800e3d4 <SPE_cos_H96e4298bd9675fbbcb46b0c1f68b039a5627ebc5_cb4a8a449b4ada864625ee5a4355578a3aaf08ed>
 8007618:	ed9a 9a3f 	vldr	s18, [sl, #252]	@ 0xfc
 800761c:	edda aa3e 	vldr	s21, [sl, #248]	@ 0xf8
 8007620:	edda 9a3c 	vldr	s19, [sl, #240]	@ 0xf0
 8007624:	edda ba3d 	vldr	s23, [sl, #244]	@ 0xf4
 8007628:	ee29 7a29 	vmul.f32	s14, s18, s19
 800762c:	ee6a 7aab 	vmul.f32	s15, s21, s23
 8007630:	eeb0 ba40 	vmov.f32	s22, s0
 8007634:	ee77 7a27 	vadd.f32	s15, s14, s15
 8007638:	ee69 9aaa 	vmul.f32	s19, s19, s21
 800763c:	ee17 0a90 	vmov	r0, s15
 8007640:	f7f8 ff4e 	bl	80004e0 <__aeabi_f2d>
 8007644:	4602      	mov	r2, r0
 8007646:	460b      	mov	r3, r1
 8007648:	ee6a 7a0b 	vmul.f32	s15, s20, s22
 800764c:	e002      	b.n	8007654 <Reinitialize+0x248c>
 800764e:	bf00      	nop
 8007650:	3ff00000 	.word	0x3ff00000
 8007654:	e9cd 2308 	strd	r2, r3, [sp, #32]
 8007658:	9b09      	ldr	r3, [sp, #36]	@ 0x24
 800765a:	ee17 0a90 	vmov	r0, s15
 800765e:	4616      	mov	r6, r2
 8007660:	f103 4700 	add.w	r7, r3, #2147483648	@ 0x80000000
 8007664:	f7f8 ff3c 	bl	80004e0 <__aeabi_f2d>
 8007668:	4602      	mov	r2, r0
 800766a:	460b      	mov	r3, r1
 800766c:	4630      	mov	r0, r6
 800766e:	4639      	mov	r1, r7
 8007670:	f7f8 ff8e 	bl	8000590 <__aeabi_dmul>
 8007674:	4602      	mov	r2, r0
 8007676:	460b      	mov	r3, r1
 8007678:	4620      	mov	r0, r4
 800767a:	4629      	mov	r1, r5
 800767c:	f7f8 fdd0 	bl	8000220 <__aeabi_dsub>
 8007680:	4604      	mov	r4, r0
 8007682:	f8da 0174 	ldr.w	r0, [sl, #372]	@ 0x174
 8007686:	460d      	mov	r5, r1
 8007688:	f7f8 ff2a 	bl	80004e0 <__aeabi_f2d>
 800768c:	4602      	mov	r2, r0
 800768e:	460b      	mov	r3, r1
 8007690:	4620      	mov	r0, r4
 8007692:	4629      	mov	r1, r5
 8007694:	f7f8 ff7c 	bl	8000590 <__aeabi_dmul>
 8007698:	4604      	mov	r4, r0
 800769a:	f8da 01c0 	ldr.w	r0, [sl, #448]	@ 0x1c0
 800769e:	460d      	mov	r5, r1
 80076a0:	f7f8 ff1e 	bl	80004e0 <__aeabi_f2d>
 80076a4:	4602      	mov	r2, r0
 80076a6:	460b      	mov	r3, r1
 80076a8:	4620      	mov	r0, r4
 80076aa:	4629      	mov	r1, r5
 80076ac:	f7f9 f89a 	bl	80007e4 <__aeabi_ddiv>
 80076b0:	4642      	mov	r2, r8
 80076b2:	464b      	mov	r3, r9
 80076b4:	f7f8 fdb6 	bl	8000224 <__adddf3>
 80076b8:	f7f9 f97c 	bl	80009b4 <__aeabi_d2f>
 80076bc:	9041      	str	r0, [sp, #260]	@ 0x104
 80076be:	ee1a 0a90 	vmov	r0, s21
 80076c2:	f7f8 ff0d 	bl	80004e0 <__aeabi_f2d>
 80076c6:	f101 4100 	add.w	r1, r1, #2147483648	@ 0x80000000
 80076ca:	f7f9 f973 	bl	80009b4 <__aeabi_d2f>
 80076ce:	9042      	str	r0, [sp, #264]	@ 0x108
 80076d0:	ee19 0a10 	vmov	r0, s18
 80076d4:	f7f8 ff04 	bl	80004e0 <__aeabi_f2d>
 80076d8:	ee29 9a2b 	vmul.f32	s18, s18, s23
 80076dc:	f101 4100 	add.w	r1, r1, #2147483648	@ 0x80000000
 80076e0:	f7f9 f968 	bl	80009b4 <__aeabi_d2f>
 80076e4:	ee79 7a69 	vsub.f32	s15, s18, s19
 80076e8:	9043      	str	r0, [sp, #268]	@ 0x10c
 80076ea:	ee17 0a90 	vmov	r0, s15
 80076ee:	f7f8 fef7 	bl	80004e0 <__aeabi_f2d>
 80076f2:	4bbb      	ldr	r3, [pc, #748]	@ (80079e0 <Reinitialize+0x2818>)
 80076f4:	2200      	movs	r2, #0
 80076f6:	f7f8 fd95 	bl	8000224 <__adddf3>
 80076fa:	4606      	mov	r6, r0
 80076fc:	f8da 010c 	ldr.w	r0, [sl, #268]	@ 0x10c
 8007700:	460f      	mov	r7, r1
 8007702:	f7f8 feed 	bl	80004e0 <__aeabi_f2d>
 8007706:	4604      	mov	r4, r0
 8007708:	f8da 0110 	ldr.w	r0, [sl, #272]	@ 0x110
 800770c:	460d      	mov	r5, r1
 800770e:	f7f8 fee7 	bl	80004e0 <__aeabi_f2d>
 8007712:	4622      	mov	r2, r4
 8007714:	4680      	mov	r8, r0
 8007716:	4689      	mov	r9, r1
 8007718:	462b      	mov	r3, r5
 800771a:	4630      	mov	r0, r6
 800771c:	4639      	mov	r1, r7
 800771e:	f7f8 ff37 	bl	8000590 <__aeabi_dmul>
 8007722:	4642      	mov	r2, r8
 8007724:	464b      	mov	r3, r9
 8007726:	e9cd 010c 	strd	r0, r1, [sp, #48]	@ 0x30
 800772a:	e9dd 0108 	ldrd	r0, r1, [sp, #32]
 800772e:	f7f8 ff2f 	bl	8000590 <__aeabi_dmul>
 8007732:	4602      	mov	r2, r0
 8007734:	460b      	mov	r3, r1
 8007736:	e9dd 010c 	ldrd	r0, r1, [sp, #48]	@ 0x30
 800773a:	f7f8 fd71 	bl	8000220 <__aeabi_dsub>
 800773e:	f7f9 f939 	bl	80009b4 <__aeabi_d2f>
 8007742:	4622      	mov	r2, r4
 8007744:	462b      	mov	r3, r5
 8007746:	9044      	str	r0, [sp, #272]	@ 0x110
 8007748:	e9dd 0108 	ldrd	r0, r1, [sp, #32]
 800774c:	f7f8 ff20 	bl	8000590 <__aeabi_dmul>
 8007750:	4642      	mov	r2, r8
 8007752:	4604      	mov	r4, r0
 8007754:	460d      	mov	r5, r1
 8007756:	464b      	mov	r3, r9
 8007758:	4630      	mov	r0, r6
 800775a:	4639      	mov	r1, r7
 800775c:	f7f8 ff18 	bl	8000590 <__aeabi_dmul>
 8007760:	4602      	mov	r2, r0
 8007762:	460b      	mov	r3, r1
 8007764:	4620      	mov	r0, r4
 8007766:	4629      	mov	r1, r5
 8007768:	f7f8 fd5c 	bl	8000224 <__adddf3>
 800776c:	f7f9 f922 	bl	80009b4 <__aeabi_d2f>
 8007770:	ed9a 0a84 	vldr	s0, [sl, #528]	@ 0x210
 8007774:	edda 9a19 	vldr	s19, [sl, #100]	@ 0x64
 8007778:	9045      	str	r0, [sp, #276]	@ 0x114
 800777a:	f006 fe29 	bl	800e3d0 <SPE_sin_H96e4298bd9675fbbcb46b0c1f68b039a5627ebc5_cb4a8a449b4ada864625ee5a4355578a3aaf08ed>
 800777e:	ed9a 6a3d 	vldr	s12, [sl, #244]	@ 0xf4
 8007782:	edda 6a3c 	vldr	s13, [sl, #240]	@ 0xf0
 8007786:	ed9a 7a3f 	vldr	s14, [sl, #252]	@ 0xfc
 800778a:	edda 7a3e 	vldr	s15, [sl, #248]	@ 0xf8
 800778e:	ee27 7a06 	vmul.f32	s14, s14, s12
 8007792:	ee67 7aa6 	vmul.f32	s15, s15, s13
 8007796:	eeb0 9a40 	vmov.f32	s18, s0
 800779a:	ee77 7a67 	vsub.f32	s15, s14, s15
 800779e:	ee17 0a90 	vmov	r0, s15
 80077a2:	f7f8 fe9d 	bl	80004e0 <__aeabi_f2d>
 80077a6:	4b8e      	ldr	r3, [pc, #568]	@ (80079e0 <Reinitialize+0x2818>)
 80077a8:	2200      	movs	r2, #0
 80077aa:	f7f8 fd3b 	bl	8000224 <__adddf3>
 80077ae:	ee69 7a29 	vmul.f32	s15, s18, s19
 80077b2:	4604      	mov	r4, r0
 80077b4:	ee17 0a90 	vmov	r0, s15
 80077b8:	460d      	mov	r5, r1
 80077ba:	f7f8 fe91 	bl	80004e0 <__aeabi_f2d>
 80077be:	4602      	mov	r2, r0
 80077c0:	460b      	mov	r3, r1
 80077c2:	4620      	mov	r0, r4
 80077c4:	4629      	mov	r1, r5
 80077c6:	f7f8 fee3 	bl	8000590 <__aeabi_dmul>
 80077ca:	ed9a 0a84 	vldr	s0, [sl, #528]	@ 0x210
 80077ce:	edda 9a19 	vldr	s19, [sl, #100]	@ 0x64
 80077d2:	4604      	mov	r4, r0
 80077d4:	460d      	mov	r5, r1
 80077d6:	f006 fdfd 	bl	800e3d4 <SPE_cos_H96e4298bd9675fbbcb46b0c1f68b039a5627ebc5_cb4a8a449b4ada864625ee5a4355578a3aaf08ed>
 80077da:	ed9a 6a3c 	vldr	s12, [sl, #240]	@ 0xf0
 80077de:	edda 6a3d 	vldr	s13, [sl, #244]	@ 0xf4
 80077e2:	ed9a 7a3f 	vldr	s14, [sl, #252]	@ 0xfc
 80077e6:	edda 7a3e 	vldr	s15, [sl, #248]	@ 0xf8
 80077ea:	ee27 7a06 	vmul.f32	s14, s14, s12
 80077ee:	ee67 7aa6 	vmul.f32	s15, s15, s13
 80077f2:	eeb0 9a40 	vmov.f32	s18, s0
 80077f6:	ee77 7a27 	vadd.f32	s15, s14, s15
 80077fa:	ee17 0a90 	vmov	r0, s15
 80077fe:	f7f8 fe6f 	bl	80004e0 <__aeabi_f2d>
 8007802:	ee69 7a89 	vmul.f32	s15, s19, s18
 8007806:	4606      	mov	r6, r0
 8007808:	ee17 0a90 	vmov	r0, s15
 800780c:	460f      	mov	r7, r1
 800780e:	f7f8 fe67 	bl	80004e0 <__aeabi_f2d>
 8007812:	4602      	mov	r2, r0
 8007814:	460b      	mov	r3, r1
 8007816:	4630      	mov	r0, r6
 8007818:	4639      	mov	r1, r7
 800781a:	f7f8 feb9 	bl	8000590 <__aeabi_dmul>
 800781e:	4622      	mov	r2, r4
 8007820:	462b      	mov	r3, r5
 8007822:	f7f8 fcff 	bl	8000224 <__adddf3>
 8007826:	4604      	mov	r4, r0
 8007828:	f8da 0170 	ldr.w	r0, [sl, #368]	@ 0x170
 800782c:	460d      	mov	r5, r1
 800782e:	f7f8 fe57 	bl	80004e0 <__aeabi_f2d>
 8007832:	4602      	mov	r2, r0
 8007834:	460b      	mov	r3, r1
 8007836:	4620      	mov	r0, r4
 8007838:	4629      	mov	r1, r5
 800783a:	f7f8 fea9 	bl	8000590 <__aeabi_dmul>
 800783e:	ed9a 0a84 	vldr	s0, [sl, #528]	@ 0x210
 8007842:	edda 9a19 	vldr	s19, [sl, #100]	@ 0x64
 8007846:	4680      	mov	r8, r0
 8007848:	4689      	mov	r9, r1
 800784a:	f006 fdc1 	bl	800e3d0 <SPE_sin_H96e4298bd9675fbbcb46b0c1f68b039a5627ebc5_cb4a8a449b4ada864625ee5a4355578a3aaf08ed>
 800784e:	ed9a 6a3c 	vldr	s12, [sl, #240]	@ 0xf0
 8007852:	edda 6a3d 	vldr	s13, [sl, #244]	@ 0xf4
 8007856:	ed9a 7a3f 	vldr	s14, [sl, #252]	@ 0xfc
 800785a:	edda 7a3e 	vldr	s15, [sl, #248]	@ 0xf8
 800785e:	ee27 7a06 	vmul.f32	s14, s14, s12
 8007862:	ee67 7aa6 	vmul.f32	s15, s15, s13
 8007866:	eeb0 9a40 	vmov.f32	s18, s0
 800786a:	ee77 7a27 	vadd.f32	s15, s14, s15
 800786e:	ee17 0a90 	vmov	r0, s15
 8007872:	f7f8 fe35 	bl	80004e0 <__aeabi_f2d>
 8007876:	ee69 7a29 	vmul.f32	s15, s18, s19
 800787a:	4604      	mov	r4, r0
 800787c:	ee17 0a90 	vmov	r0, s15
 8007880:	460d      	mov	r5, r1
 8007882:	f7f8 fe2d 	bl	80004e0 <__aeabi_f2d>
 8007886:	4602      	mov	r2, r0
 8007888:	460b      	mov	r3, r1
 800788a:	4620      	mov	r0, r4
 800788c:	4629      	mov	r1, r5
 800788e:	f7f8 fe7f 	bl	8000590 <__aeabi_dmul>
 8007892:	ed9a 0a84 	vldr	s0, [sl, #528]	@ 0x210
 8007896:	ed9a 9a19 	vldr	s18, [sl, #100]	@ 0x64
 800789a:	4604      	mov	r4, r0
 800789c:	460d      	mov	r5, r1
 800789e:	f006 fd99 	bl	800e3d4 <SPE_cos_H96e4298bd9675fbbcb46b0c1f68b039a5627ebc5_cb4a8a449b4ada864625ee5a4355578a3aaf08ed>
 80078a2:	ee69 7a00 	vmul.f32	s15, s18, s0
 80078a6:	ee17 0a90 	vmov	r0, s15
 80078aa:	f7f8 fe19 	bl	80004e0 <__aeabi_f2d>
 80078ae:	ed9a 6a3d 	vldr	s12, [sl, #244]	@ 0xf4
 80078b2:	edda 6a3c 	vldr	s13, [sl, #240]	@ 0xf0
 80078b6:	ed9a 7a3f 	vldr	s14, [sl, #252]	@ 0xfc
 80078ba:	edda 7a3e 	vldr	s15, [sl, #248]	@ 0xf8
 80078be:	ee27 7a06 	vmul.f32	s14, s14, s12
 80078c2:	ee67 7aa6 	vmul.f32	s15, s15, s13
 80078c6:	4606      	mov	r6, r0
 80078c8:	ee77 7a67 	vsub.f32	s15, s14, s15
 80078cc:	460f      	mov	r7, r1
 80078ce:	ee17 0a90 	vmov	r0, s15
 80078d2:	f7f8 fe05 	bl	80004e0 <__aeabi_f2d>
 80078d6:	4b42      	ldr	r3, [pc, #264]	@ (80079e0 <Reinitialize+0x2818>)
 80078d8:	2200      	movs	r2, #0
 80078da:	f7f8 fca3 	bl	8000224 <__adddf3>
 80078de:	4632      	mov	r2, r6
 80078e0:	463b      	mov	r3, r7
 80078e2:	f7f8 fe55 	bl	8000590 <__aeabi_dmul>
 80078e6:	4602      	mov	r2, r0
 80078e8:	460b      	mov	r3, r1
 80078ea:	4620      	mov	r0, r4
 80078ec:	4629      	mov	r1, r5
 80078ee:	f7f8 fc97 	bl	8000220 <__aeabi_dsub>
 80078f2:	4604      	mov	r4, r0
 80078f4:	f8da 0164 	ldr.w	r0, [sl, #356]	@ 0x164
 80078f8:	460d      	mov	r5, r1
 80078fa:	f7f8 fdf1 	bl	80004e0 <__aeabi_f2d>
 80078fe:	4602      	mov	r2, r0
 8007900:	460b      	mov	r3, r1
 8007902:	4620      	mov	r0, r4
 8007904:	4629      	mov	r1, r5
 8007906:	f7f8 fe43 	bl	8000590 <__aeabi_dmul>
 800790a:	4642      	mov	r2, r8
 800790c:	464b      	mov	r3, r9
 800790e:	f7f8 fc89 	bl	8000224 <__adddf3>
 8007912:	4604      	mov	r4, r0
 8007914:	f8da 01c0 	ldr.w	r0, [sl, #448]	@ 0x1c0
 8007918:	460d      	mov	r5, r1
 800791a:	f7f8 fde1 	bl	80004e0 <__aeabi_f2d>
 800791e:	460b      	mov	r3, r1
 8007920:	4602      	mov	r2, r0
 8007922:	4629      	mov	r1, r5
 8007924:	4620      	mov	r0, r4
 8007926:	f7f8 ff5d 	bl	80007e4 <__aeabi_ddiv>
 800792a:	f7f9 f843 	bl	80009b4 <__aeabi_d2f>
 800792e:	ee07 0a90 	vmov	s15, r0
 8007932:	ed9a 0a84 	vldr	s0, [sl, #528]	@ 0x210
 8007936:	ed9a 9a19 	vldr	s18, [sl, #100]	@ 0x64
 800793a:	eef1 7a67 	vneg.f32	s15, s15
 800793e:	edcd 7a46 	vstr	s15, [sp, #280]	@ 0x118
 8007942:	f006 fd45 	bl	800e3d0 <SPE_sin_H96e4298bd9675fbbcb46b0c1f68b039a5627ebc5_cb4a8a449b4ada864625ee5a4355578a3aaf08ed>
 8007946:	ee69 7a00 	vmul.f32	s15, s18, s0
 800794a:	ee17 0a90 	vmov	r0, s15
 800794e:	f7f8 fdc7 	bl	80004e0 <__aeabi_f2d>
 8007952:	9b06      	ldr	r3, [sp, #24]
 8007954:	ed9a 9a19 	vldr	s18, [sl, #100]	@ 0x64
 8007958:	edda 9a84 	vldr	s19, [sl, #528]	@ 0x210
 800795c:	4604      	mov	r4, r0
 800795e:	460d      	mov	r5, r1
 8007960:	2b00      	cmp	r3, #0
 8007962:	f041 81d9 	bne.w	8008d18 <Reinitialize+0x3b50>
 8007966:	ed9a 6a3c 	vldr	s12, [sl, #240]	@ 0xf0
 800796a:	edda 6a3d 	vldr	s13, [sl, #244]	@ 0xf4
 800796e:	ed9a 7a3f 	vldr	s14, [sl, #252]	@ 0xfc
 8007972:	edda 7a3e 	vldr	s15, [sl, #248]	@ 0xf8
 8007976:	ee27 7a06 	vmul.f32	s14, s14, s12
 800797a:	ee67 7aa6 	vmul.f32	s15, s15, s13
 800797e:	ee77 7a27 	vadd.f32	s15, s14, s15
 8007982:	ee17 0a90 	vmov	r0, s15
 8007986:	f7f8 fdab 	bl	80004e0 <__aeabi_f2d>
 800798a:	4622      	mov	r2, r4
 800798c:	462b      	mov	r3, r5
 800798e:	f7f8 fdff 	bl	8000590 <__aeabi_dmul>
 8007992:	eeb0 0a69 	vmov.f32	s0, s19
 8007996:	e9cd 0108 	strd	r0, r1, [sp, #32]
 800799a:	f006 fd1b 	bl	800e3d4 <SPE_cos_H96e4298bd9675fbbcb46b0c1f68b039a5627ebc5_cb4a8a449b4ada864625ee5a4355578a3aaf08ed>
 800799e:	ee69 7a00 	vmul.f32	s15, s18, s0
 80079a2:	ee17 0a90 	vmov	r0, s15
 80079a6:	f7f8 fd9b 	bl	80004e0 <__aeabi_f2d>
 80079aa:	ed9a 6a3d 	vldr	s12, [sl, #244]	@ 0xf4
 80079ae:	edda 6a3c 	vldr	s13, [sl, #240]	@ 0xf0
 80079b2:	ed9a 7a3f 	vldr	s14, [sl, #252]	@ 0xfc
 80079b6:	edda 7a3e 	vldr	s15, [sl, #248]	@ 0xf8
 80079ba:	ee27 7a06 	vmul.f32	s14, s14, s12
 80079be:	ee67 7aa6 	vmul.f32	s15, s15, s13
 80079c2:	4680      	mov	r8, r0
 80079c4:	ee77 7a67 	vsub.f32	s15, s14, s15
 80079c8:	4689      	mov	r9, r1
 80079ca:	ee17 0a90 	vmov	r0, s15
 80079ce:	f7f8 fd87 	bl	80004e0 <__aeabi_f2d>
 80079d2:	4b03      	ldr	r3, [pc, #12]	@ (80079e0 <Reinitialize+0x2818>)
 80079d4:	2200      	movs	r2, #0
 80079d6:	f7f8 fc25 	bl	8000224 <__adddf3>
 80079da:	4606      	mov	r6, r0
 80079dc:	460f      	mov	r7, r1
 80079de:	e001      	b.n	80079e4 <Reinitialize+0x281c>
 80079e0:	3ff00000 	.word	0x3ff00000
 80079e4:	edda 6a5b 	vldr	s13, [sl, #364]	@ 0x16c
 80079e8:	ed9a 6a5d 	vldr	s12, [sl, #372]	@ 0x174
 80079ec:	edda 7a5f 	vldr	s15, [sl, #380]	@ 0x17c
 80079f0:	ed9a 7a56 	vldr	s14, [sl, #344]	@ 0x158
 80079f4:	ed9a 9a54 	vldr	s18, [sl, #336]	@ 0x150
 80079f8:	ee77 7ae6 	vsub.f32	s15, s15, s13
 80079fc:	ee27 7a06 	vmul.f32	s14, s14, s12
 8007a00:	ee27 7a27 	vmul.f32	s14, s14, s15
 8007a04:	ee87 6a09 	vdiv.f32	s12, s14, s18
 8007a08:	ee86 7a26 	vdiv.f32	s14, s12, s13
 8007a0c:	ee77 7ac7 	vsub.f32	s15, s15, s14
 8007a10:	ee67 7a89 	vmul.f32	s15, s15, s18
 8007a14:	ee17 0a90 	vmov	r0, s15
 8007a18:	f7f8 fd62 	bl	80004e0 <__aeabi_f2d>
 8007a1c:	4642      	mov	r2, r8
 8007a1e:	4604      	mov	r4, r0
 8007a20:	460d      	mov	r5, r1
 8007a22:	464b      	mov	r3, r9
 8007a24:	4630      	mov	r0, r6
 8007a26:	4639      	mov	r1, r7
 8007a28:	f7f8 fdb2 	bl	8000590 <__aeabi_dmul>
 8007a2c:	4602      	mov	r2, r0
 8007a2e:	460b      	mov	r3, r1
 8007a30:	e9dd 0108 	ldrd	r0, r1, [sp, #32]
 8007a34:	f7f8 fbf4 	bl	8000220 <__aeabi_dsub>
 8007a38:	4602      	mov	r2, r0
 8007a3a:	460b      	mov	r3, r1
 8007a3c:	4620      	mov	r0, r4
 8007a3e:	4629      	mov	r1, r5
 8007a40:	f7f8 fda6 	bl	8000590 <__aeabi_dmul>
 8007a44:	4604      	mov	r4, r0
 8007a46:	f8da 01c0 	ldr.w	r0, [sl, #448]	@ 0x1c0
 8007a4a:	460d      	mov	r5, r1
 8007a4c:	f7f8 fd48 	bl	80004e0 <__aeabi_f2d>
 8007a50:	4602      	mov	r2, r0
 8007a52:	460b      	mov	r3, r1
 8007a54:	4620      	mov	r0, r4
 8007a56:	4629      	mov	r1, r5
 8007a58:	f7f8 fec4 	bl	80007e4 <__aeabi_ddiv>
 8007a5c:	4604      	mov	r4, r0
 8007a5e:	ee19 0a10 	vmov	r0, s18
 8007a62:	460d      	mov	r5, r1
 8007a64:	f7f8 fd3c 	bl	80004e0 <__aeabi_f2d>
 8007a68:	460b      	mov	r3, r1
 8007a6a:	4602      	mov	r2, r0
 8007a6c:	4629      	mov	r1, r5
 8007a6e:	4620      	mov	r0, r4
 8007a70:	f7f8 feb8 	bl	80007e4 <__aeabi_ddiv>
 8007a74:	ed9a 0a84 	vldr	s0, [sl, #528]	@ 0x210
 8007a78:	ed9a 9a19 	vldr	s18, [sl, #100]	@ 0x64
 8007a7c:	4680      	mov	r8, r0
 8007a7e:	4689      	mov	r9, r1
 8007a80:	f006 fca6 	bl	800e3d0 <SPE_sin_H96e4298bd9675fbbcb46b0c1f68b039a5627ebc5_cb4a8a449b4ada864625ee5a4355578a3aaf08ed>
 8007a84:	ee69 7a00 	vmul.f32	s15, s18, s0
 8007a88:	ee17 0a90 	vmov	r0, s15
 8007a8c:	f7f8 fd28 	bl	80004e0 <__aeabi_f2d>
 8007a90:	9b06      	ldr	r3, [sp, #24]
 8007a92:	ed9a 9a19 	vldr	s18, [sl, #100]	@ 0x64
 8007a96:	edda 9a84 	vldr	s19, [sl, #528]	@ 0x210
 8007a9a:	4604      	mov	r4, r0
 8007a9c:	460d      	mov	r5, r1
 8007a9e:	2b00      	cmp	r3, #0
 8007aa0:	f041 80de 	bne.w	8008c60 <Reinitialize+0x3a98>
 8007aa4:	ed9a 6a3d 	vldr	s12, [sl, #244]	@ 0xf4
 8007aa8:	edda 6a3c 	vldr	s13, [sl, #240]	@ 0xf0
 8007aac:	ed9a 7a3f 	vldr	s14, [sl, #252]	@ 0xfc
 8007ab0:	edda 7a3e 	vldr	s15, [sl, #248]	@ 0xf8
 8007ab4:	ee27 7a06 	vmul.f32	s14, s14, s12
 8007ab8:	ee67 7aa6 	vmul.f32	s15, s15, s13
 8007abc:	ee77 7a67 	vsub.f32	s15, s14, s15
 8007ac0:	ee17 0a90 	vmov	r0, s15
 8007ac4:	f7f8 fd0c 	bl	80004e0 <__aeabi_f2d>
 8007ac8:	4bf4      	ldr	r3, [pc, #976]	@ (8007e9c <Reinitialize+0x2cd4>)
 8007aca:	2200      	movs	r2, #0
 8007acc:	f7f8 fbaa 	bl	8000224 <__adddf3>
 8007ad0:	4622      	mov	r2, r4
 8007ad2:	462b      	mov	r3, r5
 8007ad4:	f7f8 fd5c 	bl	8000590 <__aeabi_dmul>
 8007ad8:	eeb0 0a69 	vmov.f32	s0, s19
 8007adc:	4604      	mov	r4, r0
 8007ade:	460d      	mov	r5, r1
 8007ae0:	f006 fc78 	bl	800e3d4 <SPE_cos_H96e4298bd9675fbbcb46b0c1f68b039a5627ebc5_cb4a8a449b4ada864625ee5a4355578a3aaf08ed>
 8007ae4:	ed9a 6a3c 	vldr	s12, [sl, #240]	@ 0xf0
 8007ae8:	edda 6a3d 	vldr	s13, [sl, #244]	@ 0xf4
 8007aec:	ed9a 7a3f 	vldr	s14, [sl, #252]	@ 0xfc
 8007af0:	edda 7a3e 	vldr	s15, [sl, #248]	@ 0xf8
 8007af4:	ee27 7a06 	vmul.f32	s14, s14, s12
 8007af8:	ee67 7aa6 	vmul.f32	s15, s15, s13
 8007afc:	eef0 9a40 	vmov.f32	s19, s0
 8007b00:	ee77 7a27 	vadd.f32	s15, s14, s15
 8007b04:	ee17 0a90 	vmov	r0, s15
 8007b08:	f7f8 fcea 	bl	80004e0 <__aeabi_f2d>
 8007b0c:	ee69 7a29 	vmul.f32	s15, s18, s19
 8007b10:	4606      	mov	r6, r0
 8007b12:	ee17 0a90 	vmov	r0, s15
 8007b16:	460f      	mov	r7, r1
 8007b18:	f7f8 fce2 	bl	80004e0 <__aeabi_f2d>
 8007b1c:	4602      	mov	r2, r0
 8007b1e:	460b      	mov	r3, r1
 8007b20:	4630      	mov	r0, r6
 8007b22:	4639      	mov	r1, r7
 8007b24:	f7f8 fd34 	bl	8000590 <__aeabi_dmul>
 8007b28:	4622      	mov	r2, r4
 8007b2a:	462b      	mov	r3, r5
 8007b2c:	f7f8 fb7a 	bl	8000224 <__adddf3>
 8007b30:	4604      	mov	r4, r0
 8007b32:	f8da 0164 	ldr.w	r0, [sl, #356]	@ 0x164
 8007b36:	460d      	mov	r5, r1
 8007b38:	f7f8 fcd2 	bl	80004e0 <__aeabi_f2d>
 8007b3c:	4602      	mov	r2, r0
 8007b3e:	460b      	mov	r3, r1
 8007b40:	4620      	mov	r0, r4
 8007b42:	4629      	mov	r1, r5
 8007b44:	f7f8 fd24 	bl	8000590 <__aeabi_dmul>
 8007b48:	4604      	mov	r4, r0
 8007b4a:	f8da 01c0 	ldr.w	r0, [sl, #448]	@ 0x1c0
 8007b4e:	460d      	mov	r5, r1
 8007b50:	f7f8 fcc6 	bl	80004e0 <__aeabi_f2d>
 8007b54:	4602      	mov	r2, r0
 8007b56:	460b      	mov	r3, r1
 8007b58:	4620      	mov	r0, r4
 8007b5a:	4629      	mov	r1, r5
 8007b5c:	f7f8 fe42 	bl	80007e4 <__aeabi_ddiv>
 8007b60:	4602      	mov	r2, r0
 8007b62:	460b      	mov	r3, r1
 8007b64:	4640      	mov	r0, r8
 8007b66:	4649      	mov	r1, r9
 8007b68:	f7f8 fb5a 	bl	8000220 <__aeabi_dsub>
 8007b6c:	ed9a 0a84 	vldr	s0, [sl, #528]	@ 0x210
 8007b70:	edda 9a19 	vldr	s19, [sl, #100]	@ 0x64
 8007b74:	e9cd 0108 	strd	r0, r1, [sp, #32]
 8007b78:	f006 fc2a 	bl	800e3d0 <SPE_sin_H96e4298bd9675fbbcb46b0c1f68b039a5627ebc5_cb4a8a449b4ada864625ee5a4355578a3aaf08ed>
 8007b7c:	ed9a 6a3c 	vldr	s12, [sl, #240]	@ 0xf0
 8007b80:	edda 6a3d 	vldr	s13, [sl, #244]	@ 0xf4
 8007b84:	ed9a 7a3f 	vldr	s14, [sl, #252]	@ 0xfc
 8007b88:	edda 7a3e 	vldr	s15, [sl, #248]	@ 0xf8
 8007b8c:	ee27 7a06 	vmul.f32	s14, s14, s12
 8007b90:	ee67 7aa6 	vmul.f32	s15, s15, s13
 8007b94:	eeb0 9a40 	vmov.f32	s18, s0
 8007b98:	ee77 7a27 	vadd.f32	s15, s14, s15
 8007b9c:	ee17 0a90 	vmov	r0, s15
 8007ba0:	f7f8 fc9e 	bl	80004e0 <__aeabi_f2d>
 8007ba4:	ee69 7a29 	vmul.f32	s15, s18, s19
 8007ba8:	4604      	mov	r4, r0
 8007baa:	ee17 0a90 	vmov	r0, s15
 8007bae:	460d      	mov	r5, r1
 8007bb0:	f7f8 fc96 	bl	80004e0 <__aeabi_f2d>
 8007bb4:	4602      	mov	r2, r0
 8007bb6:	460b      	mov	r3, r1
 8007bb8:	4620      	mov	r0, r4
 8007bba:	4629      	mov	r1, r5
 8007bbc:	f7f8 fce8 	bl	8000590 <__aeabi_dmul>
 8007bc0:	ed9a 0a84 	vldr	s0, [sl, #528]	@ 0x210
 8007bc4:	ed9a 9a19 	vldr	s18, [sl, #100]	@ 0x64
 8007bc8:	e9cd 010c 	strd	r0, r1, [sp, #48]	@ 0x30
 8007bcc:	f006 fc02 	bl	800e3d4 <SPE_cos_H96e4298bd9675fbbcb46b0c1f68b039a5627ebc5_cb4a8a449b4ada864625ee5a4355578a3aaf08ed>
 8007bd0:	ee69 7a00 	vmul.f32	s15, s18, s0
 8007bd4:	ee17 0a90 	vmov	r0, s15
 8007bd8:	f7f8 fc82 	bl	80004e0 <__aeabi_f2d>
 8007bdc:	ed9a 6a3d 	vldr	s12, [sl, #244]	@ 0xf4
 8007be0:	edda 6a3c 	vldr	s13, [sl, #240]	@ 0xf0
 8007be4:	ed9a 7a3f 	vldr	s14, [sl, #252]	@ 0xfc
 8007be8:	edda 7a3e 	vldr	s15, [sl, #248]	@ 0xf8
 8007bec:	ee27 7a06 	vmul.f32	s14, s14, s12
 8007bf0:	ee67 7aa6 	vmul.f32	s15, s15, s13
 8007bf4:	4680      	mov	r8, r0
 8007bf6:	ee77 7a67 	vsub.f32	s15, s14, s15
 8007bfa:	4689      	mov	r9, r1
 8007bfc:	ee17 0a90 	vmov	r0, s15
 8007c00:	f7f8 fc6e 	bl	80004e0 <__aeabi_f2d>
 8007c04:	4ba5      	ldr	r3, [pc, #660]	@ (8007e9c <Reinitialize+0x2cd4>)
 8007c06:	2200      	movs	r2, #0
 8007c08:	f7f8 fb0c 	bl	8000224 <__adddf3>
 8007c0c:	4606      	mov	r6, r0
 8007c0e:	460f      	mov	r7, r1
 8007c10:	edda 6a5b 	vldr	s13, [sl, #364]	@ 0x16c
 8007c14:	ed9a 9a56 	vldr	s18, [sl, #344]	@ 0x158
 8007c18:	ed9a 7a5d 	vldr	s14, [sl, #372]	@ 0x174
 8007c1c:	edda 7a5f 	vldr	s15, [sl, #380]	@ 0x17c
 8007c20:	edda 5a54 	vldr	s11, [sl, #336]	@ 0x150
 8007c24:	ee77 7ae6 	vsub.f32	s15, s15, s13
 8007c28:	ee29 6a07 	vmul.f32	s12, s18, s14
 8007c2c:	ee36 7ac7 	vsub.f32	s14, s13, s14
 8007c30:	ee67 7a86 	vmul.f32	s15, s15, s12
 8007c34:	ee87 6aa5 	vdiv.f32	s12, s15, s11
 8007c38:	eec6 7a26 	vdiv.f32	s15, s12, s13
 8007c3c:	ee77 7a87 	vadd.f32	s15, s15, s14
 8007c40:	ee67 7a89 	vmul.f32	s15, s15, s18
 8007c44:	ee17 0a90 	vmov	r0, s15
 8007c48:	f7f8 fc4a 	bl	80004e0 <__aeabi_f2d>
 8007c4c:	4642      	mov	r2, r8
 8007c4e:	4604      	mov	r4, r0
 8007c50:	460d      	mov	r5, r1
 8007c52:	464b      	mov	r3, r9
 8007c54:	4630      	mov	r0, r6
 8007c56:	4639      	mov	r1, r7
 8007c58:	f7f8 fc9a 	bl	8000590 <__aeabi_dmul>
 8007c5c:	4602      	mov	r2, r0
 8007c5e:	460b      	mov	r3, r1
 8007c60:	e9dd 010c 	ldrd	r0, r1, [sp, #48]	@ 0x30
 8007c64:	f7f8 fadc 	bl	8000220 <__aeabi_dsub>
 8007c68:	4602      	mov	r2, r0
 8007c6a:	460b      	mov	r3, r1
 8007c6c:	4620      	mov	r0, r4
 8007c6e:	4629      	mov	r1, r5
 8007c70:	f7f8 fc8e 	bl	8000590 <__aeabi_dmul>
 8007c74:	4604      	mov	r4, r0
 8007c76:	f8da 01c0 	ldr.w	r0, [sl, #448]	@ 0x1c0
 8007c7a:	460d      	mov	r5, r1
 8007c7c:	f7f8 fc30 	bl	80004e0 <__aeabi_f2d>
 8007c80:	4602      	mov	r2, r0
 8007c82:	460b      	mov	r3, r1
 8007c84:	4620      	mov	r0, r4
 8007c86:	4629      	mov	r1, r5
 8007c88:	f7f8 fdac 	bl	80007e4 <__aeabi_ddiv>
 8007c8c:	4604      	mov	r4, r0
 8007c8e:	ee19 0a10 	vmov	r0, s18
 8007c92:	460d      	mov	r5, r1
 8007c94:	f7f8 fc24 	bl	80004e0 <__aeabi_f2d>
 8007c98:	4602      	mov	r2, r0
 8007c9a:	460b      	mov	r3, r1
 8007c9c:	4620      	mov	r0, r4
 8007c9e:	4629      	mov	r1, r5
 8007ca0:	f7f8 fda0 	bl	80007e4 <__aeabi_ddiv>
 8007ca4:	e9dd 2308 	ldrd	r2, r3, [sp, #32]
 8007ca8:	f7f8 fabc 	bl	8000224 <__adddf3>
 8007cac:	ed9a 0a84 	vldr	s0, [sl, #528]	@ 0x210
 8007cb0:	ed9a 9a19 	vldr	s18, [sl, #100]	@ 0x64
 8007cb4:	4680      	mov	r8, r0
 8007cb6:	4689      	mov	r9, r1
 8007cb8:	f006 fb8a 	bl	800e3d0 <SPE_sin_H96e4298bd9675fbbcb46b0c1f68b039a5627ebc5_cb4a8a449b4ada864625ee5a4355578a3aaf08ed>
 8007cbc:	ee69 7a00 	vmul.f32	s15, s18, s0
 8007cc0:	ee17 0a90 	vmov	r0, s15
 8007cc4:	f7f8 fc0c 	bl	80004e0 <__aeabi_f2d>
 8007cc8:	9b06      	ldr	r3, [sp, #24]
 8007cca:	ed9a 9a19 	vldr	s18, [sl, #100]	@ 0x64
 8007cce:	edda 9a84 	vldr	s19, [sl, #528]	@ 0x210
 8007cd2:	4604      	mov	r4, r0
 8007cd4:	460d      	mov	r5, r1
 8007cd6:	2b00      	cmp	r3, #0
 8007cd8:	f040 866c 	bne.w	80089b4 <Reinitialize+0x37ec>
 8007cdc:	ed9a 6a3c 	vldr	s12, [sl, #240]	@ 0xf0
 8007ce0:	edda 6a3d 	vldr	s13, [sl, #244]	@ 0xf4
 8007ce4:	ed9a 7a3f 	vldr	s14, [sl, #252]	@ 0xfc
 8007ce8:	edda 7a3e 	vldr	s15, [sl, #248]	@ 0xf8
 8007cec:	ee27 7a06 	vmul.f32	s14, s14, s12
 8007cf0:	ee67 7aa6 	vmul.f32	s15, s15, s13
 8007cf4:	ee77 7a27 	vadd.f32	s15, s14, s15
 8007cf8:	ee17 0a90 	vmov	r0, s15
 8007cfc:	f7f8 fbf0 	bl	80004e0 <__aeabi_f2d>
 8007d00:	4622      	mov	r2, r4
 8007d02:	462b      	mov	r3, r5
 8007d04:	f7f8 fc44 	bl	8000590 <__aeabi_dmul>
 8007d08:	eeb0 0a69 	vmov.f32	s0, s19
 8007d0c:	4604      	mov	r4, r0
 8007d0e:	460d      	mov	r5, r1
 8007d10:	f006 fb60 	bl	800e3d4 <SPE_cos_H96e4298bd9675fbbcb46b0c1f68b039a5627ebc5_cb4a8a449b4ada864625ee5a4355578a3aaf08ed>
 8007d14:	ee69 7a00 	vmul.f32	s15, s18, s0
 8007d18:	ee17 0a90 	vmov	r0, s15
 8007d1c:	f7f8 fbe0 	bl	80004e0 <__aeabi_f2d>
 8007d20:	ed9a 6a3d 	vldr	s12, [sl, #244]	@ 0xf4
 8007d24:	edda 6a3c 	vldr	s13, [sl, #240]	@ 0xf0
 8007d28:	ed9a 7a3f 	vldr	s14, [sl, #252]	@ 0xfc
 8007d2c:	edda 7a3e 	vldr	s15, [sl, #248]	@ 0xf8
 8007d30:	ee27 7a06 	vmul.f32	s14, s14, s12
 8007d34:	ee67 7aa6 	vmul.f32	s15, s15, s13
 8007d38:	4606      	mov	r6, r0
 8007d3a:	ee77 7a67 	vsub.f32	s15, s14, s15
 8007d3e:	460f      	mov	r7, r1
 8007d40:	ee17 0a90 	vmov	r0, s15
 8007d44:	f7f8 fbcc 	bl	80004e0 <__aeabi_f2d>
 8007d48:	4b54      	ldr	r3, [pc, #336]	@ (8007e9c <Reinitialize+0x2cd4>)
 8007d4a:	2200      	movs	r2, #0
 8007d4c:	f7f8 fa6a 	bl	8000224 <__adddf3>
 8007d50:	4632      	mov	r2, r6
 8007d52:	463b      	mov	r3, r7
 8007d54:	f7f8 fc1c 	bl	8000590 <__aeabi_dmul>
 8007d58:	4602      	mov	r2, r0
 8007d5a:	460b      	mov	r3, r1
 8007d5c:	4620      	mov	r0, r4
 8007d5e:	4629      	mov	r1, r5
 8007d60:	f7f8 fa5e 	bl	8000220 <__aeabi_dsub>
 8007d64:	4604      	mov	r4, r0
 8007d66:	f8da 0174 	ldr.w	r0, [sl, #372]	@ 0x174
 8007d6a:	460d      	mov	r5, r1
 8007d6c:	f7f8 fbb8 	bl	80004e0 <__aeabi_f2d>
 8007d70:	4602      	mov	r2, r0
 8007d72:	460b      	mov	r3, r1
 8007d74:	4620      	mov	r0, r4
 8007d76:	4629      	mov	r1, r5
 8007d78:	f7f8 fc0a 	bl	8000590 <__aeabi_dmul>
 8007d7c:	4604      	mov	r4, r0
 8007d7e:	f8da 01c0 	ldr.w	r0, [sl, #448]	@ 0x1c0
 8007d82:	460d      	mov	r5, r1
 8007d84:	f7f8 fbac 	bl	80004e0 <__aeabi_f2d>
 8007d88:	4602      	mov	r2, r0
 8007d8a:	460b      	mov	r3, r1
 8007d8c:	4620      	mov	r0, r4
 8007d8e:	4629      	mov	r1, r5
 8007d90:	f7f8 fd28 	bl	80007e4 <__aeabi_ddiv>
 8007d94:	4642      	mov	r2, r8
 8007d96:	464b      	mov	r3, r9
 8007d98:	f7f8 fa44 	bl	8000224 <__adddf3>
 8007d9c:	f7f8 fe0a 	bl	80009b4 <__aeabi_d2f>
 8007da0:	ed9a 0a84 	vldr	s0, [sl, #528]	@ 0x210
 8007da4:	ed9a 9a19 	vldr	s18, [sl, #100]	@ 0x64
 8007da8:	9047      	str	r0, [sp, #284]	@ 0x11c
 8007daa:	f006 fb13 	bl	800e3d4 <SPE_cos_H96e4298bd9675fbbcb46b0c1f68b039a5627ebc5_cb4a8a449b4ada864625ee5a4355578a3aaf08ed>
 8007dae:	ee69 7a00 	vmul.f32	s15, s18, s0
 8007db2:	ee17 0a90 	vmov	r0, s15
 8007db6:	f7f8 fb93 	bl	80004e0 <__aeabi_f2d>
 8007dba:	ed9a 0a70 	vldr	s0, [sl, #448]	@ 0x1c0
 8007dbe:	4606      	mov	r6, r0
 8007dc0:	ee10 0a10 	vmov	r0, s0
 8007dc4:	ed8d 0a08 	vstr	s0, [sp, #32]
 8007dc8:	460f      	mov	r7, r1
 8007dca:	f7f8 fb89 	bl	80004e0 <__aeabi_f2d>
 8007dce:	4604      	mov	r4, r0
 8007dd0:	460d      	mov	r5, r1
 8007dd2:	4622      	mov	r2, r4
 8007dd4:	462b      	mov	r3, r5
 8007dd6:	4931      	ldr	r1, [pc, #196]	@ (8007e9c <Reinitialize+0x2cd4>)
 8007dd8:	2000      	movs	r0, #0
 8007dda:	f7f8 fd03 	bl	80007e4 <__aeabi_ddiv>
 8007dde:	4622      	mov	r2, r4
 8007de0:	462b      	mov	r3, r5
 8007de2:	f7f8 fcff 	bl	80007e4 <__aeabi_ddiv>
 8007de6:	ed9d 0a08 	vldr	s0, [sp, #32]
 8007dea:	4604      	mov	r4, r0
 8007dec:	460d      	mov	r5, r1
 8007dee:	f006 fad1 	bl	800e394 <SPE_ipowSquare_H96e4298bd9675fbbcb46b0c1f68b039a5627ebc5_cb4a8a449b4ada864625ee5a4355578a3aaf08ed>
 8007df2:	ee10 0a10 	vmov	r0, s0
 8007df6:	f7f8 fb73 	bl	80004e0 <__aeabi_f2d>
 8007dfa:	4602      	mov	r2, r0
 8007dfc:	460b      	mov	r3, r1
 8007dfe:	2000      	movs	r0, #0
 8007e00:	4926      	ldr	r1, [pc, #152]	@ (8007e9c <Reinitialize+0x2cd4>)
 8007e02:	f7f8 fcef 	bl	80007e4 <__aeabi_ddiv>
 8007e06:	4602      	mov	r2, r0
 8007e08:	460b      	mov	r3, r1
 8007e0a:	4620      	mov	r0, r4
 8007e0c:	4629      	mov	r1, r5
 8007e0e:	f7f8 fa07 	bl	8000220 <__aeabi_dsub>
 8007e12:	4632      	mov	r2, r6
 8007e14:	463b      	mov	r3, r7
 8007e16:	f7f8 fbbb 	bl	8000590 <__aeabi_dmul>
 8007e1a:	4604      	mov	r4, r0
 8007e1c:	f8da 0220 	ldr.w	r0, [sl, #544]	@ 0x220
 8007e20:	460d      	mov	r5, r1
 8007e22:	f7f8 fb5d 	bl	80004e0 <__aeabi_f2d>
 8007e26:	4602      	mov	r2, r0
 8007e28:	460b      	mov	r3, r1
 8007e2a:	4620      	mov	r0, r4
 8007e2c:	4629      	mov	r1, r5
 8007e2e:	f7f8 fbaf 	bl	8000590 <__aeabi_dmul>
 8007e32:	f7f8 fdbf 	bl	80009b4 <__aeabi_d2f>
 8007e36:	ee07 0a90 	vmov	s15, r0
 8007e3a:	ed9a 0a84 	vldr	s0, [sl, #528]	@ 0x210
 8007e3e:	ed9a 9a19 	vldr	s18, [sl, #100]	@ 0x64
 8007e42:	eef1 7a67 	vneg.f32	s15, s15
 8007e46:	edcd 7a12 	vstr	s15, [sp, #72]	@ 0x48
 8007e4a:	f006 fac1 	bl	800e3d0 <SPE_sin_H96e4298bd9675fbbcb46b0c1f68b039a5627ebc5_cb4a8a449b4ada864625ee5a4355578a3aaf08ed>
 8007e4e:	ee69 7a00 	vmul.f32	s15, s18, s0
 8007e52:	ee17 0a90 	vmov	r0, s15
 8007e56:	f7f8 fb43 	bl	80004e0 <__aeabi_f2d>
 8007e5a:	ed9a 0a70 	vldr	s0, [sl, #448]	@ 0x1c0
 8007e5e:	4606      	mov	r6, r0
 8007e60:	ee10 0a10 	vmov	r0, s0
 8007e64:	ed8d 0a08 	vstr	s0, [sp, #32]
 8007e68:	460f      	mov	r7, r1
 8007e6a:	f7f8 fb39 	bl	80004e0 <__aeabi_f2d>
 8007e6e:	4604      	mov	r4, r0
 8007e70:	460d      	mov	r5, r1
 8007e72:	4622      	mov	r2, r4
 8007e74:	462b      	mov	r3, r5
 8007e76:	4909      	ldr	r1, [pc, #36]	@ (8007e9c <Reinitialize+0x2cd4>)
 8007e78:	2000      	movs	r0, #0
 8007e7a:	f7f8 fcb3 	bl	80007e4 <__aeabi_ddiv>
 8007e7e:	4622      	mov	r2, r4
 8007e80:	462b      	mov	r3, r5
 8007e82:	f7f8 fcaf 	bl	80007e4 <__aeabi_ddiv>
 8007e86:	ed9d 0a08 	vldr	s0, [sp, #32]
 8007e8a:	4604      	mov	r4, r0
 8007e8c:	460d      	mov	r5, r1
 8007e8e:	f006 fa81 	bl	800e394 <SPE_ipowSquare_H96e4298bd9675fbbcb46b0c1f68b039a5627ebc5_cb4a8a449b4ada864625ee5a4355578a3aaf08ed>
 8007e92:	ee10 0a10 	vmov	r0, s0
 8007e96:	f7f8 fb23 	bl	80004e0 <__aeabi_f2d>
 8007e9a:	e001      	b.n	8007ea0 <Reinitialize+0x2cd8>
 8007e9c:	3ff00000 	.word	0x3ff00000
 8007ea0:	4602      	mov	r2, r0
 8007ea2:	460b      	mov	r3, r1
 8007ea4:	2000      	movs	r0, #0
 8007ea6:	49dc      	ldr	r1, [pc, #880]	@ (8008218 <Reinitialize+0x3050>)
 8007ea8:	f7f8 fc9c 	bl	80007e4 <__aeabi_ddiv>
 8007eac:	4602      	mov	r2, r0
 8007eae:	460b      	mov	r3, r1
 8007eb0:	4620      	mov	r0, r4
 8007eb2:	4629      	mov	r1, r5
 8007eb4:	f7f8 f9b4 	bl	8000220 <__aeabi_dsub>
 8007eb8:	4632      	mov	r2, r6
 8007eba:	463b      	mov	r3, r7
 8007ebc:	f7f8 fb68 	bl	8000590 <__aeabi_dmul>
 8007ec0:	4604      	mov	r4, r0
 8007ec2:	f8da 0220 	ldr.w	r0, [sl, #544]	@ 0x220
 8007ec6:	460d      	mov	r5, r1
 8007ec8:	f7f8 fb0a 	bl	80004e0 <__aeabi_f2d>
 8007ecc:	4602      	mov	r2, r0
 8007ece:	460b      	mov	r3, r1
 8007ed0:	4620      	mov	r0, r4
 8007ed2:	4629      	mov	r1, r5
 8007ed4:	f7f8 fb5c 	bl	8000590 <__aeabi_dmul>
 8007ed8:	f7f8 fd6c 	bl	80009b4 <__aeabi_d2f>
 8007edc:	ee07 0a90 	vmov	s15, r0
 8007ee0:	eef1 7a67 	vneg.f32	s15, s15
 8007ee4:	ed9a 9a19 	vldr	s18, [sl, #100]	@ 0x64
 8007ee8:	edda 9a84 	vldr	s19, [sl, #528]	@ 0x210
 8007eec:	edcd 7a13 	vstr	s15, [sp, #76]	@ 0x4c
 8007ef0:	f1bb 0f00 	cmp.w	fp, #0
 8007ef4:	f040 8495 	bne.w	8008822 <Reinitialize+0x365a>
 8007ef8:	f8da 01dc 	ldr.w	r0, [sl, #476]	@ 0x1dc
 8007efc:	f7f8 faf0 	bl	80004e0 <__aeabi_f2d>
 8007f00:	eeb0 0a69 	vmov.f32	s0, s19
 8007f04:	e9cd 010e 	strd	r0, r1, [sp, #56]	@ 0x38
 8007f08:	f006 fa62 	bl	800e3d0 <SPE_sin_H96e4298bd9675fbbcb46b0c1f68b039a5627ebc5_cb4a8a449b4ada864625ee5a4355578a3aaf08ed>
 8007f0c:	edda 6a39 	vldr	s13, [sl, #228]	@ 0xe4
 8007f10:	ed9a aa3b 	vldr	s20, [sl, #236]	@ 0xec
 8007f14:	ed9a 7a3a 	vldr	s14, [sl, #232]	@ 0xe8
 8007f18:	edda 7a38 	vldr	s15, [sl, #224]	@ 0xe0
 8007f1c:	ee27 7a26 	vmul.f32	s14, s14, s13
 8007f20:	ee6a 7a27 	vmul.f32	s15, s20, s15
 8007f24:	eef0 9a40 	vmov.f32	s19, s0
 8007f28:	ee77 7a27 	vadd.f32	s15, s14, s15
 8007f2c:	ee17 0a90 	vmov	r0, s15
 8007f30:	f7f8 fad6 	bl	80004e0 <__aeabi_f2d>
 8007f34:	4602      	mov	r2, r0
 8007f36:	ee1a 0a10 	vmov	r0, s20
 8007f3a:	4614      	mov	r4, r2
 8007f3c:	f101 4500 	add.w	r5, r1, #2147483648	@ 0x80000000
 8007f40:	f7f8 face 	bl	80004e0 <__aeabi_f2d>
 8007f44:	e9dd 2302 	ldrd	r2, r3, [sp, #8]
 8007f48:	f101 4100 	add.w	r1, r1, #2147483648	@ 0x80000000
 8007f4c:	f7f8 fb20 	bl	8000590 <__aeabi_dmul>
 8007f50:	4602      	mov	r2, r0
 8007f52:	460b      	mov	r3, r1
 8007f54:	4620      	mov	r0, r4
 8007f56:	4629      	mov	r1, r5
 8007f58:	f7f8 f962 	bl	8000220 <__aeabi_dsub>
 8007f5c:	ee69 7a29 	vmul.f32	s15, s18, s19
 8007f60:	4604      	mov	r4, r0
 8007f62:	ee17 0a90 	vmov	r0, s15
 8007f66:	460d      	mov	r5, r1
 8007f68:	f7f8 faba 	bl	80004e0 <__aeabi_f2d>
 8007f6c:	4602      	mov	r2, r0
 8007f6e:	460b      	mov	r3, r1
 8007f70:	4620      	mov	r0, r4
 8007f72:	4629      	mov	r1, r5
 8007f74:	f7f8 fb0c 	bl	8000590 <__aeabi_dmul>
 8007f78:	ed9a 0a84 	vldr	s0, [sl, #528]	@ 0x210
 8007f7c:	edda aa19 	vldr	s21, [sl, #100]	@ 0x64
 8007f80:	4680      	mov	r8, r0
 8007f82:	4689      	mov	r9, r1
 8007f84:	f006 fa26 	bl	800e3d4 <SPE_cos_H96e4298bd9675fbbcb46b0c1f68b039a5627ebc5_cb4a8a449b4ada864625ee5a4355578a3aaf08ed>
 8007f88:	ed9a 9a3a 	vldr	s18, [sl, #232]	@ 0xe8
 8007f8c:	ed9a aa3b 	vldr	s20, [sl, #236]	@ 0xec
 8007f90:	ee19 0a10 	vmov	r0, s18
 8007f94:	eef0 9a40 	vmov.f32	s19, s0
 8007f98:	f7f8 faa2 	bl	80004e0 <__aeabi_f2d>
 8007f9c:	4604      	mov	r4, r0
 8007f9e:	ee18 0a10 	vmov	r0, s16
 8007fa2:	460d      	mov	r5, r1
 8007fa4:	f7f8 fa9c 	bl	80004e0 <__aeabi_f2d>
 8007fa8:	e9cd 010c 	strd	r0, r1, [sp, #48]	@ 0x30
 8007fac:	ee18 0a90 	vmov	r0, s17
 8007fb0:	f7f8 fa96 	bl	80004e0 <__aeabi_f2d>
 8007fb4:	ed9a 7a38 	vldr	s14, [sl, #224]	@ 0xe0
 8007fb8:	edda 7a39 	vldr	s15, [sl, #228]	@ 0xe4
 8007fbc:	ee29 9a07 	vmul.f32	s18, s18, s14
 8007fc0:	ee6a 7a27 	vmul.f32	s15, s20, s15
 8007fc4:	e9cd 0108 	strd	r0, r1, [sp, #32]
 8007fc8:	ee77 7ac9 	vsub.f32	s15, s15, s18
 8007fcc:	ee17 0a90 	vmov	r0, s15
 8007fd0:	f7f8 fa86 	bl	80004e0 <__aeabi_f2d>
 8007fd4:	4b90      	ldr	r3, [pc, #576]	@ (8008218 <Reinitialize+0x3050>)
 8007fd6:	2200      	movs	r2, #0
 8007fd8:	f7f8 f924 	bl	8000224 <__adddf3>
 8007fdc:	e9dd 2304 	ldrd	r2, r3, [sp, #16]
 8007fe0:	4606      	mov	r6, r0
 8007fe2:	460f      	mov	r7, r1
 8007fe4:	4620      	mov	r0, r4
 8007fe6:	4629      	mov	r1, r5
 8007fe8:	f7f8 fad2 	bl	8000590 <__aeabi_dmul>
 8007fec:	4602      	mov	r2, r0
 8007fee:	460b      	mov	r3, r1
 8007ff0:	4630      	mov	r0, r6
 8007ff2:	4639      	mov	r1, r7
 8007ff4:	f7f8 f914 	bl	8000220 <__aeabi_dsub>
 8007ff8:	ee6a 7aa9 	vmul.f32	s15, s21, s19
 8007ffc:	4606      	mov	r6, r0
 8007ffe:	ee17 0a90 	vmov	r0, s15
 8008002:	460f      	mov	r7, r1
 8008004:	f7f8 fa6c 	bl	80004e0 <__aeabi_f2d>
 8008008:	4602      	mov	r2, r0
 800800a:	460b      	mov	r3, r1
 800800c:	4630      	mov	r0, r6
 800800e:	4639      	mov	r1, r7
 8008010:	f7f8 fabe 	bl	8000590 <__aeabi_dmul>
 8008014:	4642      	mov	r2, r8
 8008016:	464b      	mov	r3, r9
 8008018:	f7f8 f904 	bl	8000224 <__adddf3>
 800801c:	4606      	mov	r6, r0
 800801e:	f8da 0220 	ldr.w	r0, [sl, #544]	@ 0x220
 8008022:	460f      	mov	r7, r1
 8008024:	f7f8 fa5c 	bl	80004e0 <__aeabi_f2d>
 8008028:	4602      	mov	r2, r0
 800802a:	460b      	mov	r3, r1
 800802c:	4630      	mov	r0, r6
 800802e:	4639      	mov	r1, r7
 8008030:	f7f8 faae 	bl	8000590 <__aeabi_dmul>
 8008034:	4606      	mov	r6, r0
 8008036:	f8da 01c0 	ldr.w	r0, [sl, #448]	@ 0x1c0
 800803a:	460f      	mov	r7, r1
 800803c:	f7f8 fa50 	bl	80004e0 <__aeabi_f2d>
 8008040:	4602      	mov	r2, r0
 8008042:	460b      	mov	r3, r1
 8008044:	4630      	mov	r0, r6
 8008046:	4639      	mov	r1, r7
 8008048:	f7f8 fbcc 	bl	80007e4 <__aeabi_ddiv>
 800804c:	4602      	mov	r2, r0
 800804e:	460b      	mov	r3, r1
 8008050:	4620      	mov	r0, r4
 8008052:	4629      	mov	r1, r5
 8008054:	4614      	mov	r4, r2
 8008056:	461d      	mov	r5, r3
 8008058:	e9dd 230c 	ldrd	r2, r3, [sp, #48]	@ 0x30
 800805c:	f7f8 fa98 	bl	8000590 <__aeabi_dmul>
 8008060:	4602      	mov	r2, r0
 8008062:	460b      	mov	r3, r1
 8008064:	4620      	mov	r0, r4
 8008066:	4629      	mov	r1, r5
 8008068:	f7f8 f8da 	bl	8000220 <__aeabi_dsub>
 800806c:	4604      	mov	r4, r0
 800806e:	ee1a 0a10 	vmov	r0, s20
 8008072:	460d      	mov	r5, r1
 8008074:	f7f8 fa34 	bl	80004e0 <__aeabi_f2d>
 8008078:	e9dd 2308 	ldrd	r2, r3, [sp, #32]
 800807c:	f101 4100 	add.w	r1, r1, #2147483648	@ 0x80000000
 8008080:	f7f8 fa86 	bl	8000590 <__aeabi_dmul>
 8008084:	4602      	mov	r2, r0
 8008086:	460b      	mov	r3, r1
 8008088:	4620      	mov	r0, r4
 800808a:	4629      	mov	r1, r5
 800808c:	f7f8 f8c8 	bl	8000220 <__aeabi_dsub>
 8008090:	e9dd 230e 	ldrd	r2, r3, [sp, #56]	@ 0x38
 8008094:	f7f8 f8c4 	bl	8000220 <__aeabi_dsub>
 8008098:	f7f8 fc8c 	bl	80009b4 <__aeabi_d2f>
 800809c:	ee07 0a90 	vmov	s15, r0
 80080a0:	eef1 7a67 	vneg.f32	s15, s15
 80080a4:	edcd 7a14 	vstr	s15, [sp, #80]	@ 0x50
 80080a8:	f8da 01d8 	ldr.w	r0, [sl, #472]	@ 0x1d8
 80080ac:	f7f8 fa18 	bl	80004e0 <__aeabi_f2d>
 80080b0:	ed9a 0a84 	vldr	s0, [sl, #528]	@ 0x210
 80080b4:	ed9a 9a19 	vldr	s18, [sl, #100]	@ 0x64
 80080b8:	4680      	mov	r8, r0
 80080ba:	f101 4900 	add.w	r9, r1, #2147483648	@ 0x80000000
 80080be:	f006 f987 	bl	800e3d0 <SPE_sin_H96e4298bd9675fbbcb46b0c1f68b039a5627ebc5_cb4a8a449b4ada864625ee5a4355578a3aaf08ed>
 80080c2:	edda 6a39 	vldr	s13, [sl, #228]	@ 0xe4
 80080c6:	edda 8a3a 	vldr	s17, [sl, #232]	@ 0xe8
 80080ca:	ed9a 7a3b 	vldr	s14, [sl, #236]	@ 0xec
 80080ce:	edda 7a38 	vldr	s15, [sl, #224]	@ 0xe0
 80080d2:	ee27 7a26 	vmul.f32	s14, s14, s13
 80080d6:	ee68 7aa7 	vmul.f32	s15, s17, s15
 80080da:	eeb0 8a40 	vmov.f32	s16, s0
 80080de:	ee77 7a67 	vsub.f32	s15, s14, s15
 80080e2:	ee17 0a90 	vmov	r0, s15
 80080e6:	f7f8 f9fb 	bl	80004e0 <__aeabi_f2d>
 80080ea:	4b4b      	ldr	r3, [pc, #300]	@ (8008218 <Reinitialize+0x3050>)
 80080ec:	2200      	movs	r2, #0
 80080ee:	f7f8 f899 	bl	8000224 <__adddf3>
 80080f2:	4606      	mov	r6, r0
 80080f4:	ee18 0a90 	vmov	r0, s17
 80080f8:	460f      	mov	r7, r1
 80080fa:	f7f8 f9f1 	bl	80004e0 <__aeabi_f2d>
 80080fe:	e9dd 2302 	ldrd	r2, r3, [sp, #8]
 8008102:	f101 4100 	add.w	r1, r1, #2147483648	@ 0x80000000
 8008106:	f7f8 fa43 	bl	8000590 <__aeabi_dmul>
 800810a:	4602      	mov	r2, r0
 800810c:	460b      	mov	r3, r1
 800810e:	4630      	mov	r0, r6
 8008110:	4639      	mov	r1, r7
 8008112:	f7f8 f885 	bl	8000220 <__aeabi_dsub>
 8008116:	ee69 7a08 	vmul.f32	s15, s18, s16
 800811a:	4604      	mov	r4, r0
 800811c:	ee17 0a90 	vmov	r0, s15
 8008120:	460d      	mov	r5, r1
 8008122:	f7f8 f9dd 	bl	80004e0 <__aeabi_f2d>
 8008126:	460b      	mov	r3, r1
 8008128:	4602      	mov	r2, r0
 800812a:	4629      	mov	r1, r5
 800812c:	4620      	mov	r0, r4
 800812e:	f7f8 fa2f 	bl	8000590 <__aeabi_dmul>
 8008132:	ed9a 0a84 	vldr	s0, [sl, #528]	@ 0x210
 8008136:	edda 9a19 	vldr	s19, [sl, #100]	@ 0x64
 800813a:	e9cd 0102 	strd	r0, r1, [sp, #8]
 800813e:	f006 f949 	bl	800e3d4 <SPE_cos_H96e4298bd9675fbbcb46b0c1f68b039a5627ebc5_cb4a8a449b4ada864625ee5a4355578a3aaf08ed>
 8008142:	ed9a 8a3b 	vldr	s16, [sl, #236]	@ 0xec
 8008146:	ed9a 9a3a 	vldr	s18, [sl, #232]	@ 0xe8
 800814a:	ee18 0a10 	vmov	r0, s16
 800814e:	eef0 8a40 	vmov.f32	s17, s0
 8008152:	f7f8 f9c5 	bl	80004e0 <__aeabi_f2d>
 8008156:	ed9a 7a38 	vldr	s14, [sl, #224]	@ 0xe0
 800815a:	edda 7a39 	vldr	s15, [sl, #228]	@ 0xe4
 800815e:	ee28 8a07 	vmul.f32	s16, s16, s14
 8008162:	ee69 7a27 	vmul.f32	s15, s18, s15
 8008166:	4602      	mov	r2, r0
 8008168:	ee78 7a27 	vadd.f32	s15, s16, s15
 800816c:	4614      	mov	r4, r2
 800816e:	ee17 0a90 	vmov	r0, s15
 8008172:	f101 4500 	add.w	r5, r1, #2147483648	@ 0x80000000
 8008176:	f7f8 f9b3 	bl	80004e0 <__aeabi_f2d>
 800817a:	e9dd 2304 	ldrd	r2, r3, [sp, #16]
 800817e:	4606      	mov	r6, r0
 8008180:	460f      	mov	r7, r1
 8008182:	4620      	mov	r0, r4
 8008184:	4629      	mov	r1, r5
 8008186:	f7f8 fa03 	bl	8000590 <__aeabi_dmul>
 800818a:	4602      	mov	r2, r0
 800818c:	460b      	mov	r3, r1
 800818e:	4630      	mov	r0, r6
 8008190:	4639      	mov	r1, r7
 8008192:	f7f8 f845 	bl	8000220 <__aeabi_dsub>
 8008196:	ee68 7aa9 	vmul.f32	s15, s17, s19
 800819a:	4606      	mov	r6, r0
 800819c:	ee17 0a90 	vmov	r0, s15
 80081a0:	460f      	mov	r7, r1
 80081a2:	f7f8 f99d 	bl	80004e0 <__aeabi_f2d>
 80081a6:	4602      	mov	r2, r0
 80081a8:	460b      	mov	r3, r1
 80081aa:	4630      	mov	r0, r6
 80081ac:	4639      	mov	r1, r7
 80081ae:	f7f8 f9ef 	bl	8000590 <__aeabi_dmul>
 80081b2:	e9dd 2302 	ldrd	r2, r3, [sp, #8]
 80081b6:	f7f8 f835 	bl	8000224 <__adddf3>
 80081ba:	4606      	mov	r6, r0
 80081bc:	f8da 0220 	ldr.w	r0, [sl, #544]	@ 0x220
 80081c0:	460f      	mov	r7, r1
 80081c2:	f7f8 f98d 	bl	80004e0 <__aeabi_f2d>
 80081c6:	4602      	mov	r2, r0
 80081c8:	460b      	mov	r3, r1
 80081ca:	4630      	mov	r0, r6
 80081cc:	4639      	mov	r1, r7
 80081ce:	f7f8 f9df 	bl	8000590 <__aeabi_dmul>
 80081d2:	4606      	mov	r6, r0
 80081d4:	f8da 01c0 	ldr.w	r0, [sl, #448]	@ 0x1c0
 80081d8:	460f      	mov	r7, r1
 80081da:	f7f8 f981 	bl	80004e0 <__aeabi_f2d>
 80081de:	4602      	mov	r2, r0
 80081e0:	460b      	mov	r3, r1
 80081e2:	4630      	mov	r0, r6
 80081e4:	4639      	mov	r1, r7
 80081e6:	f7f8 fafd 	bl	80007e4 <__aeabi_ddiv>
 80081ea:	e9dd 230c 	ldrd	r2, r3, [sp, #48]	@ 0x30
 80081ee:	4606      	mov	r6, r0
 80081f0:	460f      	mov	r7, r1
 80081f2:	4620      	mov	r0, r4
 80081f4:	4629      	mov	r1, r5
 80081f6:	f7f8 f9cb 	bl	8000590 <__aeabi_dmul>
 80081fa:	4602      	mov	r2, r0
 80081fc:	460b      	mov	r3, r1
 80081fe:	4630      	mov	r0, r6
 8008200:	4639      	mov	r1, r7
 8008202:	f7f8 f80d 	bl	8000220 <__aeabi_dsub>
 8008206:	4604      	mov	r4, r0
 8008208:	ee19 0a10 	vmov	r0, s18
 800820c:	460d      	mov	r5, r1
 800820e:	f7f8 f967 	bl	80004e0 <__aeabi_f2d>
 8008212:	f101 4100 	add.w	r1, r1, #2147483648	@ 0x80000000
 8008216:	e001      	b.n	800821c <Reinitialize+0x3054>
 8008218:	3ff00000 	.word	0x3ff00000
 800821c:	e9dd 2308 	ldrd	r2, r3, [sp, #32]
 8008220:	f7f8 f9b6 	bl	8000590 <__aeabi_dmul>
 8008224:	4602      	mov	r2, r0
 8008226:	460b      	mov	r3, r1
 8008228:	4620      	mov	r0, r4
 800822a:	4629      	mov	r1, r5
 800822c:	f7f7 fff8 	bl	8000220 <__aeabi_dsub>
 8008230:	464b      	mov	r3, r9
 8008232:	4642      	mov	r2, r8
 8008234:	f7f7 fff6 	bl	8000224 <__adddf3>
 8008238:	f7f8 fbbc 	bl	80009b4 <__aeabi_d2f>
 800823c:	ee07 0a90 	vmov	s15, r0
 8008240:	9b06      	ldr	r3, [sp, #24]
 8008242:	ed9a 8a19 	vldr	s16, [sl, #100]	@ 0x64
 8008246:	edda 8a84 	vldr	s17, [sl, #528]	@ 0x210
 800824a:	eef1 7a67 	vneg.f32	s15, s15
 800824e:	edcd 7a15 	vstr	s15, [sp, #84]	@ 0x54
 8008252:	2b00      	cmp	r3, #0
 8008254:	f040 8278 	bne.w	8008748 <Reinitialize+0x3580>
 8008258:	f8da 01dc 	ldr.w	r0, [sl, #476]	@ 0x1dc
 800825c:	f7f8 f940 	bl	80004e0 <__aeabi_f2d>
 8008260:	eeb0 0a68 	vmov.f32	s0, s17
 8008264:	4604      	mov	r4, r0
 8008266:	460d      	mov	r5, r1
 8008268:	f006 f8b2 	bl	800e3d0 <SPE_sin_H96e4298bd9675fbbcb46b0c1f68b039a5627ebc5_cb4a8a449b4ada864625ee5a4355578a3aaf08ed>
 800826c:	ed9a 6a3c 	vldr	s12, [sl, #240]	@ 0xf0
 8008270:	edda 6a3d 	vldr	s13, [sl, #244]	@ 0xf4
 8008274:	ed9a 7a3f 	vldr	s14, [sl, #252]	@ 0xfc
 8008278:	edda 7a3e 	vldr	s15, [sl, #248]	@ 0xf8
 800827c:	ee27 7a06 	vmul.f32	s14, s14, s12
 8008280:	ee67 7aa6 	vmul.f32	s15, s15, s13
 8008284:	eef0 8a40 	vmov.f32	s17, s0
 8008288:	ee77 7a27 	vadd.f32	s15, s14, s15
 800828c:	ee17 0a90 	vmov	r0, s15
 8008290:	f7f8 f926 	bl	80004e0 <__aeabi_f2d>
 8008294:	ee68 7a28 	vmul.f32	s15, s16, s17
 8008298:	4602      	mov	r2, r0
 800829a:	ee17 0a90 	vmov	r0, s15
 800829e:	4616      	mov	r6, r2
 80082a0:	f101 4700 	add.w	r7, r1, #2147483648	@ 0x80000000
 80082a4:	f7f8 f91c 	bl	80004e0 <__aeabi_f2d>
 80082a8:	4602      	mov	r2, r0
 80082aa:	460b      	mov	r3, r1
 80082ac:	4630      	mov	r0, r6
 80082ae:	4639      	mov	r1, r7
 80082b0:	f7f8 f96e 	bl	8000590 <__aeabi_dmul>
 80082b4:	ed9a 0a84 	vldr	s0, [sl, #528]	@ 0x210
 80082b8:	edda 8a19 	vldr	s17, [sl, #100]	@ 0x64
 80082bc:	4606      	mov	r6, r0
 80082be:	460f      	mov	r7, r1
 80082c0:	f006 f888 	bl	800e3d4 <SPE_cos_H96e4298bd9675fbbcb46b0c1f68b039a5627ebc5_cb4a8a449b4ada864625ee5a4355578a3aaf08ed>
 80082c4:	ed9a 6a3d 	vldr	s12, [sl, #244]	@ 0xf4
 80082c8:	edda 6a3c 	vldr	s13, [sl, #240]	@ 0xf0
 80082cc:	ed9a 7a3f 	vldr	s14, [sl, #252]	@ 0xfc
 80082d0:	edda 7a3e 	vldr	s15, [sl, #248]	@ 0xf8
 80082d4:	ee27 7a06 	vmul.f32	s14, s14, s12
 80082d8:	ee67 7aa6 	vmul.f32	s15, s15, s13
 80082dc:	eeb0 8a40 	vmov.f32	s16, s0
 80082e0:	ee77 7a67 	vsub.f32	s15, s14, s15
 80082e4:	ee17 0a90 	vmov	r0, s15
 80082e8:	f7f8 f8fa 	bl	80004e0 <__aeabi_f2d>
 80082ec:	4bd6      	ldr	r3, [pc, #856]	@ (8008648 <Reinitialize+0x3480>)
 80082ee:	2200      	movs	r2, #0
 80082f0:	f7f7 ff98 	bl	8000224 <__adddf3>
 80082f4:	ee68 7a88 	vmul.f32	s15, s17, s16
 80082f8:	4680      	mov	r8, r0
 80082fa:	ee17 0a90 	vmov	r0, s15
 80082fe:	4689      	mov	r9, r1
 8008300:	f7f8 f8ee 	bl	80004e0 <__aeabi_f2d>
 8008304:	4602      	mov	r2, r0
 8008306:	460b      	mov	r3, r1
 8008308:	4640      	mov	r0, r8
 800830a:	4649      	mov	r1, r9
 800830c:	f7f8 f940 	bl	8000590 <__aeabi_dmul>
 8008310:	4632      	mov	r2, r6
 8008312:	463b      	mov	r3, r7
 8008314:	f7f7 ff86 	bl	8000224 <__adddf3>
 8008318:	4606      	mov	r6, r0
 800831a:	f8da 0220 	ldr.w	r0, [sl, #544]	@ 0x220
 800831e:	460f      	mov	r7, r1
 8008320:	f7f8 f8de 	bl	80004e0 <__aeabi_f2d>
 8008324:	4602      	mov	r2, r0
 8008326:	460b      	mov	r3, r1
 8008328:	4630      	mov	r0, r6
 800832a:	4639      	mov	r1, r7
 800832c:	f7f8 f930 	bl	8000590 <__aeabi_dmul>
 8008330:	4606      	mov	r6, r0
 8008332:	f8da 01c0 	ldr.w	r0, [sl, #448]	@ 0x1c0
 8008336:	460f      	mov	r7, r1
 8008338:	f7f8 f8d2 	bl	80004e0 <__aeabi_f2d>
 800833c:	4602      	mov	r2, r0
 800833e:	460b      	mov	r3, r1
 8008340:	4630      	mov	r0, r6
 8008342:	4639      	mov	r1, r7
 8008344:	f7f8 fa4e 	bl	80007e4 <__aeabi_ddiv>
 8008348:	4622      	mov	r2, r4
 800834a:	462b      	mov	r3, r5
 800834c:	f7f7 ff68 	bl	8000220 <__aeabi_dsub>
 8008350:	f7f8 fb30 	bl	80009b4 <__aeabi_d2f>
 8008354:	ee07 0a90 	vmov	s15, r0
 8008358:	f8da 01d8 	ldr.w	r0, [sl, #472]	@ 0x1d8
 800835c:	eef1 7a67 	vneg.f32	s15, s15
 8008360:	edcd 7a16 	vstr	s15, [sp, #88]	@ 0x58
 8008364:	f7f8 f8bc 	bl	80004e0 <__aeabi_f2d>
 8008368:	ed9a 0a84 	vldr	s0, [sl, #528]	@ 0x210
 800836c:	edda 8a19 	vldr	s17, [sl, #100]	@ 0x64
 8008370:	4606      	mov	r6, r0
 8008372:	f101 4700 	add.w	r7, r1, #2147483648	@ 0x80000000
 8008376:	f006 f82b 	bl	800e3d0 <SPE_sin_H96e4298bd9675fbbcb46b0c1f68b039a5627ebc5_cb4a8a449b4ada864625ee5a4355578a3aaf08ed>
 800837a:	ed9a 6a3d 	vldr	s12, [sl, #244]	@ 0xf4
 800837e:	edda 6a3c 	vldr	s13, [sl, #240]	@ 0xf0
 8008382:	ed9a 7a3f 	vldr	s14, [sl, #252]	@ 0xfc
 8008386:	edda 7a3e 	vldr	s15, [sl, #248]	@ 0xf8
 800838a:	ee27 7a06 	vmul.f32	s14, s14, s12
 800838e:	ee67 7aa6 	vmul.f32	s15, s15, s13
 8008392:	eeb0 8a40 	vmov.f32	s16, s0
 8008396:	ee77 7a67 	vsub.f32	s15, s14, s15
 800839a:	ee17 0a90 	vmov	r0, s15
 800839e:	f7f8 f89f 	bl	80004e0 <__aeabi_f2d>
 80083a2:	4ba9      	ldr	r3, [pc, #676]	@ (8008648 <Reinitialize+0x3480>)
 80083a4:	2200      	movs	r2, #0
 80083a6:	f7f7 ff3d 	bl	8000224 <__adddf3>
 80083aa:	ee68 7a88 	vmul.f32	s15, s17, s16
 80083ae:	4604      	mov	r4, r0
 80083b0:	ee17 0a90 	vmov	r0, s15
 80083b4:	460d      	mov	r5, r1
 80083b6:	f7f8 f893 	bl	80004e0 <__aeabi_f2d>
 80083ba:	4602      	mov	r2, r0
 80083bc:	460b      	mov	r3, r1
 80083be:	4620      	mov	r0, r4
 80083c0:	4629      	mov	r1, r5
 80083c2:	f7f8 f8e5 	bl	8000590 <__aeabi_dmul>
 80083c6:	ed9a 0a84 	vldr	s0, [sl, #528]	@ 0x210
 80083ca:	ed9a 8a19 	vldr	s16, [sl, #100]	@ 0x64
 80083ce:	4604      	mov	r4, r0
 80083d0:	460d      	mov	r5, r1
 80083d2:	f005 ffff 	bl	800e3d4 <SPE_cos_H96e4298bd9675fbbcb46b0c1f68b039a5627ebc5_cb4a8a449b4ada864625ee5a4355578a3aaf08ed>
 80083d6:	ee68 7a00 	vmul.f32	s15, s16, s0
 80083da:	ee17 0a90 	vmov	r0, s15
 80083de:	f7f8 f87f 	bl	80004e0 <__aeabi_f2d>
 80083e2:	ed9a 7a3f 	vldr	s14, [sl, #252]	@ 0xfc
 80083e6:	ed9a 6a3c 	vldr	s12, [sl, #240]	@ 0xf0
 80083ea:	edda 7a3e 	vldr	s15, [sl, #248]	@ 0xf8
 80083ee:	edda 6a3d 	vldr	s13, [sl, #244]	@ 0xf4
 80083f2:	ee27 7a06 	vmul.f32	s14, s14, s12
 80083f6:	ee67 7aa6 	vmul.f32	s15, s15, s13
 80083fa:	4680      	mov	r8, r0
 80083fc:	ee77 7a27 	vadd.f32	s15, s14, s15
 8008400:	4689      	mov	r9, r1
 8008402:	ee17 0a90 	vmov	r0, s15
 8008406:	f7f8 f86b 	bl	80004e0 <__aeabi_f2d>
 800840a:	4642      	mov	r2, r8
 800840c:	464b      	mov	r3, r9
 800840e:	f7f8 f8bf 	bl	8000590 <__aeabi_dmul>
 8008412:	4622      	mov	r2, r4
 8008414:	462b      	mov	r3, r5
 8008416:	f7f7 ff05 	bl	8000224 <__adddf3>
 800841a:	4604      	mov	r4, r0
 800841c:	f8da 0220 	ldr.w	r0, [sl, #544]	@ 0x220
 8008420:	460d      	mov	r5, r1
 8008422:	f7f8 f85d 	bl	80004e0 <__aeabi_f2d>
 8008426:	4602      	mov	r2, r0
 8008428:	460b      	mov	r3, r1
 800842a:	4620      	mov	r0, r4
 800842c:	4629      	mov	r1, r5
 800842e:	f7f8 f8af 	bl	8000590 <__aeabi_dmul>
 8008432:	4604      	mov	r4, r0
 8008434:	f8da 01c0 	ldr.w	r0, [sl, #448]	@ 0x1c0
 8008438:	460d      	mov	r5, r1
 800843a:	f7f8 f851 	bl	80004e0 <__aeabi_f2d>
 800843e:	4602      	mov	r2, r0
 8008440:	460b      	mov	r3, r1
 8008442:	4620      	mov	r0, r4
 8008444:	4629      	mov	r1, r5
 8008446:	f7f8 f9cd 	bl	80007e4 <__aeabi_ddiv>
 800844a:	4632      	mov	r2, r6
 800844c:	463b      	mov	r3, r7
 800844e:	f7f7 fee9 	bl	8000224 <__adddf3>
 8008452:	f7f8 faaf 	bl	80009b4 <__aeabi_d2f>
 8008456:	4603      	mov	r3, r0
 8008458:	ee07 3a90 	vmov	s15, r3
 800845c:	2306      	movs	r3, #6
 800845e:	9301      	str	r3, [sp, #4]
 8008460:	ab1e      	add	r3, sp, #120	@ 0x78
 8008462:	9807      	ldr	r0, [sp, #28]
 8008464:	9300      	str	r3, [sp, #0]
 8008466:	eef1 7a67 	vneg.f32	s15, s15
 800846a:	ab18      	add	r3, sp, #96	@ 0x60
 800846c:	aa12      	add	r2, sp, #72	@ 0x48
 800846e:	a924      	add	r1, sp, #144	@ 0x90
 8008470:	edcd 7a17 	vstr	s15, [sp, #92]	@ 0x5c
 8008474:	f005 ffd8 	bl	800e428 <SPE_solveLinearEquations_H96e4298bd9675fbbcb46b0c1f68b039a5627ebc5_cb4a8a449b4ada864625ee5a4355578a3aaf08ed>
 8008478:	4a74      	ldr	r2, [pc, #464]	@ (800864c <Reinitialize+0x3484>)
 800847a:	f8da 3244 	ldr.w	r3, [sl, #580]	@ 0x244
 800847e:	6812      	ldr	r2, [r2, #0]
 8008480:	980a      	ldr	r0, [sp, #40]	@ 0x28
 8008482:	ea03 0102 	and.w	r1, r3, r2
 8008486:	4288      	cmp	r0, r1
 8008488:	f000 86e3 	beq.w	8009252 <Reinitialize+0x408a>
 800848c:	404b      	eors	r3, r1
 800848e:	4313      	orrs	r3, r2
 8008490:	edda 7a21 	vldr	s15, [sl, #132]	@ 0x84
 8008494:	edda 5a22 	vldr	s11, [sl, #136]	@ 0x88
 8008498:	f8ca 3244 	str.w	r3, [sl, #580]	@ 0x244
 800849c:	f04f 5316 	mov.w	r3, #629145600	@ 0x25800000
 80084a0:	edca 7a89 	vstr	s15, [sl, #548]	@ 0x224
 80084a4:	edca 5a8a 	vstr	s11, [sl, #552]	@ 0x228
 80084a8:	f8ca 3234 	str.w	r3, [sl, #564]	@ 0x234
 80084ac:	f8ca 3230 	str.w	r3, [sl, #560]	@ 0x230
 80084b0:	f8ca 3238 	str.w	r3, [sl, #568]	@ 0x238
 80084b4:	f8ca 323c 	str.w	r3, [sl, #572]	@ 0x23c
 80084b8:	edda 3a5b 	vldr	s7, [sl, #364]	@ 0x16c
 80084bc:	edda 4a56 	vldr	s9, [sl, #344]	@ 0x158
 80084c0:	ed9a 6a5d 	vldr	s12, [sl, #372]	@ 0x174
 80084c4:	ed9a 7a5f 	vldr	s14, [sl, #380]	@ 0x17c
 80084c8:	ed9a 4a54 	vldr	s8, [sl, #336]	@ 0x150
 80084cc:	ed9a 3a59 	vldr	s6, [sl, #356]	@ 0x164
 80084d0:	ed9a 9a88 	vldr	s18, [sl, #544]	@ 0x220
 80084d4:	ed9a 0a84 	vldr	s0, [sl, #528]	@ 0x210
 80084d8:	ed9a aa19 	vldr	s20, [sl, #100]	@ 0x64
 80084dc:	ee24 5a86 	vmul.f32	s10, s9, s12
 80084e0:	ee37 7a63 	vsub.f32	s14, s14, s7
 80084e4:	ee25 2a83 	vmul.f32	s4, s11, s6
 80084e8:	ee25 5a07 	vmul.f32	s10, s10, s14
 80084ec:	ee27 8a83 	vmul.f32	s16, s15, s6
 80084f0:	eec5 2a04 	vdiv.f32	s5, s10, s8
 80084f4:	ed9a 5a5c 	vldr	s10, [sl, #368]	@ 0x170
 80084f8:	ee27 5a85 	vmul.f32	s10, s15, s10
 80084fc:	ee73 6ac6 	vsub.f32	s13, s7, s12
 8008500:	ee75 7a02 	vadd.f32	s15, s10, s4
 8008504:	ee25 6a86 	vmul.f32	s12, s11, s12
 8008508:	ee39 9a67 	vsub.f32	s18, s18, s15
 800850c:	eec2 7aa3 	vdiv.f32	s15, s5, s7
 8008510:	ee37 7a67 	vsub.f32	s14, s14, s15
 8008514:	ee76 7aa7 	vadd.f32	s15, s13, s15
 8008518:	ee27 7a25 	vmul.f32	s14, s14, s11
 800851c:	ee67 7aa5 	vmul.f32	s15, s15, s11
 8008520:	ee27 7a04 	vmul.f32	s14, s14, s8
 8008524:	eec7 6a04 	vdiv.f32	s13, s14, s8
 8008528:	ee77 7aa6 	vadd.f32	s15, s15, s13
 800852c:	edca 6a85 	vstr	s13, [sl, #532]	@ 0x214
 8008530:	ee67 7aa4 	vmul.f32	s15, s15, s9
 8008534:	ee87 7aa4 	vdiv.f32	s14, s15, s9
 8008538:	ee37 8a48 	vsub.f32	s16, s14, s16
 800853c:	ed8a 7a87 	vstr	s14, [sl, #540]	@ 0x21c
 8008540:	ee38 8a06 	vadd.f32	s16, s16, s12
 8008544:	f005 ff44 	bl	800e3d0 <SPE_sin_H96e4298bd9675fbbcb46b0c1f68b039a5627ebc5_cb4a8a449b4ada864625ee5a4355578a3aaf08ed>
 8008548:	eef0 8a40 	vmov.f32	s17, s0
 800854c:	ed9a 0a84 	vldr	s0, [sl, #528]	@ 0x210
 8008550:	f005 ff40 	bl	800e3d4 <SPE_cos_H96e4298bd9675fbbcb46b0c1f68b039a5627ebc5_cb4a8a449b4ada864625ee5a4355578a3aaf08ed>
 8008554:	ee68 8a89 	vmul.f32	s17, s17, s18
 8008558:	ee60 7a08 	vmul.f32	s15, s0, s16
 800855c:	ed9a 0a84 	vldr	s0, [sl, #528]	@ 0x210
 8008560:	edda 9a19 	vldr	s19, [sl, #100]	@ 0x64
 8008564:	ee78 8ae7 	vsub.f32	s17, s17, s15
 8008568:	f005 ff32 	bl	800e3d0 <SPE_sin_H96e4298bd9675fbbcb46b0c1f68b039a5627ebc5_cb4a8a449b4ada864625ee5a4355578a3aaf08ed>
 800856c:	eef0 7a40 	vmov.f32	s15, s0
 8008570:	ed9a 0a84 	vldr	s0, [sl, #528]	@ 0x210
 8008574:	ee27 8a88 	vmul.f32	s16, s15, s16
 8008578:	f005 ff2c 	bl	800e3d4 <SPE_cos_H96e4298bd9675fbbcb46b0c1f68b039a5627ebc5_cb4a8a449b4ada864625ee5a4355578a3aaf08ed>
 800857c:	ee20 0a09 	vmul.f32	s0, s0, s18
 8008580:	ee68 8a8a 	vmul.f32	s17, s17, s20
 8008584:	ee30 0a08 	vadd.f32	s0, s0, s16
 8008588:	ee20 0a29 	vmul.f32	s0, s0, s19
 800858c:	f005 ff02 	bl	800e394 <SPE_ipowSquare_H96e4298bd9675fbbcb46b0c1f68b039a5627ebc5_cb4a8a449b4ada864625ee5a4355578a3aaf08ed>
 8008590:	eeb0 8a40 	vmov.f32	s16, s0
 8008594:	eeb0 0a68 	vmov.f32	s0, s17
 8008598:	f005 fefc 	bl	800e394 <SPE_ipowSquare_H96e4298bd9675fbbcb46b0c1f68b039a5627ebc5_cb4a8a449b4ada864625ee5a4355578a3aaf08ed>
 800859c:	ee38 0a00 	vadd.f32	s0, s16, s0
 80085a0:	f005 ff0a 	bl	800e3b8 <SPE_sqrt_H96e4298bd9675fbbcb46b0c1f68b039a5627ebc5_cb4a8a449b4ada864625ee5a4355578a3aaf08ed>
 80085a4:	ed9a 7a4b 	vldr	s14, [sl, #300]	@ 0x12c
 80085a8:	edda 7a4c 	vldr	s15, [sl, #304]	@ 0x130
 80085ac:	edda 8a02 	vldr	s17, [sl, #8]
 80085b0:	f8da 30a0 	ldr.w	r3, [sl, #160]	@ 0xa0
 80085b4:	ed8a 0a05 	vstr	s0, [sl, #20]
 80085b8:	eec7 7a27 	vdiv.f32	s15, s14, s15
 80085bc:	f8ca 31ec 	str.w	r3, [sl, #492]	@ 0x1ec
 80085c0:	ed8a 0a0f 	vstr	s0, [sl, #60]	@ 0x3c
 80085c4:	ed8a 0a7c 	vstr	s0, [sl, #496]	@ 0x1f0
 80085c8:	ee17 0a90 	vmov	r0, s15
 80085cc:	edca 8a0e 	vstr	s17, [sl, #56]	@ 0x38
 80085d0:	eeb0 8a40 	vmov.f32	s16, s0
 80085d4:	f7f7 ff84 	bl	80004e0 <__aeabi_f2d>
 80085d8:	4602      	mov	r2, r0
 80085da:	460b      	mov	r3, r1
 80085dc:	2000      	movs	r0, #0
 80085de:	491a      	ldr	r1, [pc, #104]	@ (8008648 <Reinitialize+0x3480>)
 80085e0:	f7f7 fe1e 	bl	8000220 <__aeabi_dsub>
 80085e4:	4604      	mov	r4, r0
 80085e6:	f8da 0034 	ldr.w	r0, [sl, #52]	@ 0x34
 80085ea:	460d      	mov	r5, r1
 80085ec:	f7f7 ff78 	bl	80004e0 <__aeabi_f2d>
 80085f0:	ee78 8a28 	vadd.f32	s17, s16, s17
 80085f4:	4602      	mov	r2, r0
 80085f6:	460b      	mov	r3, r1
 80085f8:	4620      	mov	r0, r4
 80085fa:	4629      	mov	r1, r5
 80085fc:	f7f7 ffc8 	bl	8000590 <__aeabi_dmul>
 8008600:	ee78 7ac8 	vsub.f32	s15, s17, s16
 8008604:	4604      	mov	r4, r0
 8008606:	ee17 0a90 	vmov	r0, s15
 800860a:	460d      	mov	r5, r1
 800860c:	f7f7 ff68 	bl	80004e0 <__aeabi_f2d>
 8008610:	4602      	mov	r2, r0
 8008612:	460b      	mov	r3, r1
 8008614:	4620      	mov	r0, r4
 8008616:	4629      	mov	r1, r5
 8008618:	f7f7 ffba 	bl	8000590 <__aeabi_dmul>
 800861c:	f7f8 f9ca 	bl	80009b4 <__aeabi_d2f>
 8008620:	f8da 3244 	ldr.w	r3, [sl, #580]	@ 0x244
 8008624:	990b      	ldr	r1, [sp, #44]	@ 0x2c
 8008626:	f8ca 01f4 	str.w	r0, [sl, #500]	@ 0x1f4
 800862a:	2200      	movs	r2, #0
 800862c:	430b      	orrs	r3, r1
 800862e:	f88a 2240 	strb.w	r2, [sl, #576]	@ 0x240
 8008632:	f8ca 3244 	str.w	r3, [sl, #580]	@ 0x244
 8008636:	b049      	add	sp, #292	@ 0x124
 8008638:	ecbd 8b08 	vpop	{d8-d11}
 800863c:	e8bd 8ff0 	ldmia.w	sp!, {r4, r5, r6, r7, r8, r9, sl, fp, pc}
 8008640:	ed9f 0a03 	vldr	s0, [pc, #12]	@ 8008650 <Reinitialize+0x3488>
 8008644:	f7fc be23 	b.w	800528e <Reinitialize+0xc6>
 8008648:	3ff00000 	.word	0x3ff00000
 800864c:	0800f8b4 	.word	0x0800f8b4
 8008650:	00000000 	.word	0x00000000
 8008654:	ee1a 0a10 	vmov	r0, s20
 8008658:	f7f7 ff42 	bl	80004e0 <__aeabi_f2d>
 800865c:	4602      	mov	r2, r0
 800865e:	460b      	mov	r3, r1
 8008660:	e9cd 2310 	strd	r2, r3, [sp, #64]	@ 0x40
 8008664:	f101 4100 	add.w	r1, r1, #2147483648	@ 0x80000000
 8008668:	2200      	movs	r2, #0
 800866a:	2300      	movs	r3, #0
 800866c:	f7f7 ff90 	bl	8000590 <__aeabi_dmul>
 8008670:	4602      	mov	r2, r0
 8008672:	460b      	mov	r3, r1
 8008674:	4620      	mov	r0, r4
 8008676:	4629      	mov	r1, r5
 8008678:	f7f7 fdd2 	bl	8000220 <__aeabi_dsub>
 800867c:	ee69 9a8a 	vmul.f32	s19, s19, s20
 8008680:	4602      	mov	r2, r0
 8008682:	460b      	mov	r3, r1
 8008684:	ee29 9a2a 	vmul.f32	s18, s18, s21
 8008688:	e9dd 0108 	ldrd	r0, r1, [sp, #32]
 800868c:	e9cd 230e 	strd	r2, r3, [sp, #56]	@ 0x38
 8008690:	f7f7 ff7e 	bl	8000590 <__aeabi_dmul>
 8008694:	ee79 7ac9 	vsub.f32	s15, s19, s18
 8008698:	e9cd 010c 	strd	r0, r1, [sp, #48]	@ 0x30
 800869c:	ee17 0a90 	vmov	r0, s15
 80086a0:	f7f7 ff1e 	bl	80004e0 <__aeabi_f2d>
 80086a4:	4bec      	ldr	r3, [pc, #944]	@ (8008a58 <Reinitialize+0x3890>)
 80086a6:	2200      	movs	r2, #0
 80086a8:	f7f7 fdbc 	bl	8000224 <__adddf3>
 80086ac:	ed9f 7be8 	vldr	d7, [pc, #928]	@ 8008a50 <Reinitialize+0x3888>
 80086b0:	4604      	mov	r4, r0
 80086b2:	ed8d 7b02 	vstr	d7, [sp, #8]
 80086b6:	ed8d 7b04 	vstr	d7, [sp, #16]
 80086ba:	ec53 2b17 	vmov	r2, r3, d7
 80086be:	460d      	mov	r5, r1
 80086c0:	f7fd bc41 	b.w	8005f46 <Reinitialize+0xd7e>
 80086c4:	ed9f 7be2 	vldr	d7, [pc, #904]	@ 8008a50 <Reinitialize+0x3888>
 80086c8:	4606      	mov	r6, r0
 80086ca:	ed8d 7b02 	vstr	d7, [sp, #8]
 80086ce:	ed8d 7b04 	vstr	d7, [sp, #16]
 80086d2:	460f      	mov	r7, r1
 80086d4:	f7fd bb4c 	b.w	8005d70 <Reinitialize+0xba8>
 80086d8:	e9dd 2302 	ldrd	r2, r3, [sp, #8]
 80086dc:	2000      	movs	r0, #0
 80086de:	2100      	movs	r1, #0
 80086e0:	f7f7 fd9e 	bl	8000220 <__aeabi_dsub>
 80086e4:	4622      	mov	r2, r4
 80086e6:	462b      	mov	r3, r5
 80086e8:	f7f7 ff52 	bl	8000590 <__aeabi_dmul>
 80086ec:	eeb0 0a69 	vmov.f32	s0, s19
 80086f0:	4680      	mov	r8, r0
 80086f2:	4689      	mov	r9, r1
 80086f4:	f005 fe6e 	bl	800e3d4 <SPE_cos_H96e4298bd9675fbbcb46b0c1f68b039a5627ebc5_cb4a8a449b4ada864625ee5a4355578a3aaf08ed>
 80086f8:	ee69 7a00 	vmul.f32	s15, s18, s0
 80086fc:	2600      	movs	r6, #0
 80086fe:	ee17 0a90 	vmov	r0, s15
 8008702:	f7f7 feed 	bl	80004e0 <__aeabi_f2d>
 8008706:	2700      	movs	r7, #0
 8008708:	4604      	mov	r4, r0
 800870a:	460d      	mov	r5, r1
 800870c:	4630      	mov	r0, r6
 800870e:	4639      	mov	r1, r7
 8008710:	f7fd bec0 	b.w	8006494 <Reinitialize+0x12cc>
 8008714:	2200      	movs	r2, #0
 8008716:	2300      	movs	r3, #0
 8008718:	f7f7 ff3a 	bl	8000590 <__aeabi_dmul>
 800871c:	eeb0 0a69 	vmov.f32	s0, s19
 8008720:	e9cd 0108 	strd	r0, r1, [sp, #32]
 8008724:	f005 fe56 	bl	800e3d4 <SPE_cos_H96e4298bd9675fbbcb46b0c1f68b039a5627ebc5_cb4a8a449b4ada864625ee5a4355578a3aaf08ed>
 8008728:	ee69 7a00 	vmul.f32	s15, s18, s0
 800872c:	f04f 0800 	mov.w	r8, #0
 8008730:	ee17 0a90 	vmov	r0, s15
 8008734:	f7f7 fed4 	bl	80004e0 <__aeabi_f2d>
 8008738:	f04f 0900 	mov.w	r9, #0
 800873c:	e9cd 010c 	strd	r0, r1, [sp, #48]	@ 0x30
 8008740:	e9dd 6702 	ldrd	r6, r7, [sp, #8]
 8008744:	f7fd bdee 	b.w	8006324 <Reinitialize+0x115c>
 8008748:	eeb0 0a68 	vmov.f32	s0, s17
 800874c:	f005 fe40 	bl	800e3d0 <SPE_sin_H96e4298bd9675fbbcb46b0c1f68b039a5627ebc5_cb4a8a449b4ada864625ee5a4355578a3aaf08ed>
 8008750:	ee68 7a00 	vmul.f32	s15, s16, s0
 8008754:	2600      	movs	r6, #0
 8008756:	ee17 0a90 	vmov	r0, s15
 800875a:	f7f7 fec1 	bl	80004e0 <__aeabi_f2d>
 800875e:	2200      	movs	r2, #0
 8008760:	2300      	movs	r3, #0
 8008762:	f7f7 ff15 	bl	8000590 <__aeabi_dmul>
 8008766:	ed9a 0a84 	vldr	s0, [sl, #528]	@ 0x210
 800876a:	ed9a 8a19 	vldr	s16, [sl, #100]	@ 0x64
 800876e:	4604      	mov	r4, r0
 8008770:	460d      	mov	r5, r1
 8008772:	f005 fe2f 	bl	800e3d4 <SPE_cos_H96e4298bd9675fbbcb46b0c1f68b039a5627ebc5_cb4a8a449b4ada864625ee5a4355578a3aaf08ed>
 8008776:	ee68 7a00 	vmul.f32	s15, s16, s0
 800877a:	2700      	movs	r7, #0
 800877c:	ee17 0a90 	vmov	r0, s15
 8008780:	f7f7 feae 	bl	80004e0 <__aeabi_f2d>
 8008784:	2200      	movs	r2, #0
 8008786:	2300      	movs	r3, #0
 8008788:	f7f7 ff02 	bl	8000590 <__aeabi_dmul>
 800878c:	4622      	mov	r2, r4
 800878e:	462b      	mov	r3, r5
 8008790:	f7f7 fd48 	bl	8000224 <__adddf3>
 8008794:	4604      	mov	r4, r0
 8008796:	f8da 0220 	ldr.w	r0, [sl, #544]	@ 0x220
 800879a:	460d      	mov	r5, r1
 800879c:	f7f7 fea0 	bl	80004e0 <__aeabi_f2d>
 80087a0:	4602      	mov	r2, r0
 80087a2:	460b      	mov	r3, r1
 80087a4:	4620      	mov	r0, r4
 80087a6:	4629      	mov	r1, r5
 80087a8:	f7f7 fef2 	bl	8000590 <__aeabi_dmul>
 80087ac:	4604      	mov	r4, r0
 80087ae:	f8da 01c0 	ldr.w	r0, [sl, #448]	@ 0x1c0
 80087b2:	460d      	mov	r5, r1
 80087b4:	f7f7 fe94 	bl	80004e0 <__aeabi_f2d>
 80087b8:	4602      	mov	r2, r0
 80087ba:	460b      	mov	r3, r1
 80087bc:	4620      	mov	r0, r4
 80087be:	4629      	mov	r1, r5
 80087c0:	f7f8 f810 	bl	80007e4 <__aeabi_ddiv>
 80087c4:	2200      	movs	r2, #0
 80087c6:	2300      	movs	r3, #0
 80087c8:	f7f7 fd2c 	bl	8000224 <__adddf3>
 80087cc:	f7f8 f8f2 	bl	80009b4 <__aeabi_d2f>
 80087d0:	ee07 0a90 	vmov	s15, r0
 80087d4:	ed9a 0a84 	vldr	s0, [sl, #528]	@ 0x210
 80087d8:	ed9a 8a19 	vldr	s16, [sl, #100]	@ 0x64
 80087dc:	eef1 7a67 	vneg.f32	s15, s15
 80087e0:	edcd 7a16 	vstr	s15, [sp, #88]	@ 0x58
 80087e4:	f005 fdf4 	bl	800e3d0 <SPE_sin_H96e4298bd9675fbbcb46b0c1f68b039a5627ebc5_cb4a8a449b4ada864625ee5a4355578a3aaf08ed>
 80087e8:	ee68 7a00 	vmul.f32	s15, s16, s0
 80087ec:	ee17 0a90 	vmov	r0, s15
 80087f0:	f7f7 fe76 	bl	80004e0 <__aeabi_f2d>
 80087f4:	2200      	movs	r2, #0
 80087f6:	2300      	movs	r3, #0
 80087f8:	f7f7 feca 	bl	8000590 <__aeabi_dmul>
 80087fc:	ed9a 0a84 	vldr	s0, [sl, #528]	@ 0x210
 8008800:	ed9a 8a19 	vldr	s16, [sl, #100]	@ 0x64
 8008804:	4604      	mov	r4, r0
 8008806:	460d      	mov	r5, r1
 8008808:	f005 fde4 	bl	800e3d4 <SPE_cos_H96e4298bd9675fbbcb46b0c1f68b039a5627ebc5_cb4a8a449b4ada864625ee5a4355578a3aaf08ed>
 800880c:	ee68 7a00 	vmul.f32	s15, s16, s0
 8008810:	ee17 0a90 	vmov	r0, s15
 8008814:	f7f7 fe64 	bl	80004e0 <__aeabi_f2d>
 8008818:	4680      	mov	r8, r0
 800881a:	4689      	mov	r9, r1
 800881c:	4630      	mov	r0, r6
 800881e:	4639      	mov	r1, r7
 8008820:	e5f3      	b.n	800840a <Reinitialize+0x3242>
 8008822:	eeb0 0a69 	vmov.f32	s0, s19
 8008826:	f005 fdd3 	bl	800e3d0 <SPE_sin_H96e4298bd9675fbbcb46b0c1f68b039a5627ebc5_cb4a8a449b4ada864625ee5a4355578a3aaf08ed>
 800882a:	ee69 7a00 	vmul.f32	s15, s18, s0
 800882e:	ee17 0a90 	vmov	r0, s15
 8008832:	f7f7 fe55 	bl	80004e0 <__aeabi_f2d>
 8008836:	e9dd 2302 	ldrd	r2, r3, [sp, #8]
 800883a:	4604      	mov	r4, r0
 800883c:	460d      	mov	r5, r1
 800883e:	2000      	movs	r0, #0
 8008840:	2100      	movs	r1, #0
 8008842:	f7f7 fced 	bl	8000220 <__aeabi_dsub>
 8008846:	4602      	mov	r2, r0
 8008848:	460b      	mov	r3, r1
 800884a:	4620      	mov	r0, r4
 800884c:	4629      	mov	r1, r5
 800884e:	f7f7 fe9f 	bl	8000590 <__aeabi_dmul>
 8008852:	ed9a 0a84 	vldr	s0, [sl, #528]	@ 0x210
 8008856:	edda 9a19 	vldr	s19, [sl, #100]	@ 0x64
 800885a:	4604      	mov	r4, r0
 800885c:	460d      	mov	r5, r1
 800885e:	f005 fdb9 	bl	800e3d4 <SPE_cos_H96e4298bd9675fbbcb46b0c1f68b039a5627ebc5_cb4a8a449b4ada864625ee5a4355578a3aaf08ed>
 8008862:	ee18 0a10 	vmov	r0, s16
 8008866:	eeb0 9a40 	vmov.f32	s18, s0
 800886a:	f7f7 fe39 	bl	80004e0 <__aeabi_f2d>
 800886e:	4680      	mov	r8, r0
 8008870:	ee18 0a90 	vmov	r0, s17
 8008874:	4689      	mov	r9, r1
 8008876:	f7f7 fe33 	bl	80004e0 <__aeabi_f2d>
 800887a:	ee69 7a89 	vmul.f32	s15, s19, s18
 800887e:	4606      	mov	r6, r0
 8008880:	460f      	mov	r7, r1
 8008882:	ee17 0a90 	vmov	r0, s15
 8008886:	e9cd 6708 	strd	r6, r7, [sp, #32]
 800888a:	f7f7 fe29 	bl	80004e0 <__aeabi_f2d>
 800888e:	2200      	movs	r2, #0
 8008890:	2300      	movs	r3, #0
 8008892:	f7f7 fe7d 	bl	8000590 <__aeabi_dmul>
 8008896:	4622      	mov	r2, r4
 8008898:	462b      	mov	r3, r5
 800889a:	f7f7 fcc3 	bl	8000224 <__adddf3>
 800889e:	4604      	mov	r4, r0
 80088a0:	f8da 0220 	ldr.w	r0, [sl, #544]	@ 0x220
 80088a4:	460d      	mov	r5, r1
 80088a6:	f7f7 fe1b 	bl	80004e0 <__aeabi_f2d>
 80088aa:	4602      	mov	r2, r0
 80088ac:	460b      	mov	r3, r1
 80088ae:	4620      	mov	r0, r4
 80088b0:	4629      	mov	r1, r5
 80088b2:	f7f7 fe6d 	bl	8000590 <__aeabi_dmul>
 80088b6:	4604      	mov	r4, r0
 80088b8:	f8da 01c0 	ldr.w	r0, [sl, #448]	@ 0x1c0
 80088bc:	460d      	mov	r5, r1
 80088be:	f7f7 fe0f 	bl	80004e0 <__aeabi_f2d>
 80088c2:	4602      	mov	r2, r0
 80088c4:	460b      	mov	r3, r1
 80088c6:	4620      	mov	r0, r4
 80088c8:	4629      	mov	r1, r5
 80088ca:	f7f7 ff8b 	bl	80007e4 <__aeabi_ddiv>
 80088ce:	2200      	movs	r2, #0
 80088d0:	4604      	mov	r4, r0
 80088d2:	460d      	mov	r5, r1
 80088d4:	2300      	movs	r3, #0
 80088d6:	4640      	mov	r0, r8
 80088d8:	4649      	mov	r1, r9
 80088da:	f7f7 fe59 	bl	8000590 <__aeabi_dmul>
 80088de:	4602      	mov	r2, r0
 80088e0:	460b      	mov	r3, r1
 80088e2:	4620      	mov	r0, r4
 80088e4:	4629      	mov	r1, r5
 80088e6:	f7f7 fc9b 	bl	8000220 <__aeabi_dsub>
 80088ea:	4632      	mov	r2, r6
 80088ec:	463b      	mov	r3, r7
 80088ee:	f7f7 fc97 	bl	8000220 <__aeabi_dsub>
 80088f2:	2200      	movs	r2, #0
 80088f4:	2300      	movs	r3, #0
 80088f6:	f7f7 fc95 	bl	8000224 <__adddf3>
 80088fa:	f7f8 f85b 	bl	80009b4 <__aeabi_d2f>
 80088fe:	ee07 0a90 	vmov	s15, r0
 8008902:	ed9a 0a84 	vldr	s0, [sl, #528]	@ 0x210
 8008906:	ed9a 8a19 	vldr	s16, [sl, #100]	@ 0x64
 800890a:	eef1 7a67 	vneg.f32	s15, s15
 800890e:	edcd 7a14 	vstr	s15, [sp, #80]	@ 0x50
 8008912:	f005 fd5d 	bl	800e3d0 <SPE_sin_H96e4298bd9675fbbcb46b0c1f68b039a5627ebc5_cb4a8a449b4ada864625ee5a4355578a3aaf08ed>
 8008916:	ee68 7a00 	vmul.f32	s15, s16, s0
 800891a:	ee17 0a90 	vmov	r0, s15
 800891e:	f7f7 fddf 	bl	80004e0 <__aeabi_f2d>
 8008922:	2200      	movs	r2, #0
 8008924:	2300      	movs	r3, #0
 8008926:	f7f7 fe33 	bl	8000590 <__aeabi_dmul>
 800892a:	ed9a 0a84 	vldr	s0, [sl, #528]	@ 0x210
 800892e:	ed9a 8a19 	vldr	s16, [sl, #100]	@ 0x64
 8008932:	4604      	mov	r4, r0
 8008934:	460d      	mov	r5, r1
 8008936:	f005 fd4d 	bl	800e3d4 <SPE_cos_H96e4298bd9675fbbcb46b0c1f68b039a5627ebc5_cb4a8a449b4ada864625ee5a4355578a3aaf08ed>
 800893a:	ee60 7a08 	vmul.f32	s15, s0, s16
 800893e:	ee17 0a90 	vmov	r0, s15
 8008942:	f7f7 fdcd 	bl	80004e0 <__aeabi_f2d>
 8008946:	e9dd 2304 	ldrd	r2, r3, [sp, #16]
 800894a:	4606      	mov	r6, r0
 800894c:	460f      	mov	r7, r1
 800894e:	2000      	movs	r0, #0
 8008950:	2100      	movs	r1, #0
 8008952:	f7f7 fc65 	bl	8000220 <__aeabi_dsub>
 8008956:	4602      	mov	r2, r0
 8008958:	460b      	mov	r3, r1
 800895a:	4630      	mov	r0, r6
 800895c:	4639      	mov	r1, r7
 800895e:	f7f7 fe17 	bl	8000590 <__aeabi_dmul>
 8008962:	4622      	mov	r2, r4
 8008964:	462b      	mov	r3, r5
 8008966:	f7f7 fc5d 	bl	8000224 <__adddf3>
 800896a:	4604      	mov	r4, r0
 800896c:	f8da 0220 	ldr.w	r0, [sl, #544]	@ 0x220
 8008970:	460d      	mov	r5, r1
 8008972:	f7f7 fdb5 	bl	80004e0 <__aeabi_f2d>
 8008976:	4602      	mov	r2, r0
 8008978:	460b      	mov	r3, r1
 800897a:	4620      	mov	r0, r4
 800897c:	4629      	mov	r1, r5
 800897e:	f7f7 fe07 	bl	8000590 <__aeabi_dmul>
 8008982:	4604      	mov	r4, r0
 8008984:	f8da 01c0 	ldr.w	r0, [sl, #448]	@ 0x1c0
 8008988:	460d      	mov	r5, r1
 800898a:	f7f7 fda9 	bl	80004e0 <__aeabi_f2d>
 800898e:	4602      	mov	r2, r0
 8008990:	460b      	mov	r3, r1
 8008992:	4620      	mov	r0, r4
 8008994:	4629      	mov	r1, r5
 8008996:	f7f7 ff25 	bl	80007e4 <__aeabi_ddiv>
 800899a:	4642      	mov	r2, r8
 800899c:	464b      	mov	r3, r9
 800899e:	f7f7 fc3f 	bl	8000220 <__aeabi_dsub>
 80089a2:	f04f 0800 	mov.w	r8, #0
 80089a6:	f04f 0900 	mov.w	r9, #0
 80089aa:	4604      	mov	r4, r0
 80089ac:	460d      	mov	r5, r1
 80089ae:	4640      	mov	r0, r8
 80089b0:	4649      	mov	r1, r9
 80089b2:	e433      	b.n	800821c <Reinitialize+0x3054>
 80089b4:	2200      	movs	r2, #0
 80089b6:	2300      	movs	r3, #0
 80089b8:	f7f7 fdea 	bl	8000590 <__aeabi_dmul>
 80089bc:	eeb0 0a69 	vmov.f32	s0, s19
 80089c0:	4604      	mov	r4, r0
 80089c2:	460d      	mov	r5, r1
 80089c4:	f005 fd06 	bl	800e3d4 <SPE_cos_H96e4298bd9675fbbcb46b0c1f68b039a5627ebc5_cb4a8a449b4ada864625ee5a4355578a3aaf08ed>
 80089c8:	ee69 7a00 	vmul.f32	s15, s18, s0
 80089cc:	ee17 0a90 	vmov	r0, s15
 80089d0:	f7f7 fd86 	bl	80004e0 <__aeabi_f2d>
 80089d4:	4606      	mov	r6, r0
 80089d6:	460f      	mov	r7, r1
 80089d8:	2000      	movs	r0, #0
 80089da:	2100      	movs	r1, #0
 80089dc:	f7ff b9b8 	b.w	8007d50 <Reinitialize+0x2b88>
 80089e0:	2200      	movs	r2, #0
 80089e2:	2300      	movs	r3, #0
 80089e4:	f7f7 fdd4 	bl	8000590 <__aeabi_dmul>
 80089e8:	eeb0 0a69 	vmov.f32	s0, s19
 80089ec:	4680      	mov	r8, r0
 80089ee:	4689      	mov	r9, r1
 80089f0:	f005 fcf0 	bl	800e3d4 <SPE_cos_H96e4298bd9675fbbcb46b0c1f68b039a5627ebc5_cb4a8a449b4ada864625ee5a4355578a3aaf08ed>
 80089f4:	ee69 7a00 	vmul.f32	s15, s18, s0
 80089f8:	2600      	movs	r6, #0
 80089fa:	ee17 0a90 	vmov	r0, s15
 80089fe:	f7f7 fd6f 	bl	80004e0 <__aeabi_f2d>
 8008a02:	2700      	movs	r7, #0
 8008a04:	e9dd 2304 	ldrd	r2, r3, [sp, #16]
 8008a08:	4604      	mov	r4, r0
 8008a0a:	460d      	mov	r5, r1
 8008a0c:	f7fe b9c6 	b.w	8006d9c <Reinitialize+0x1bd4>
 8008a10:	e9dd 2304 	ldrd	r2, r3, [sp, #16]
 8008a14:	2000      	movs	r0, #0
 8008a16:	2100      	movs	r1, #0
 8008a18:	f7f7 fc02 	bl	8000220 <__aeabi_dsub>
 8008a1c:	4622      	mov	r2, r4
 8008a1e:	462b      	mov	r3, r5
 8008a20:	f7f7 fdb6 	bl	8000590 <__aeabi_dmul>
 8008a24:	eeb0 0a69 	vmov.f32	s0, s19
 8008a28:	e9cd 0108 	strd	r0, r1, [sp, #32]
 8008a2c:	f005 fcd2 	bl	800e3d4 <SPE_cos_H96e4298bd9675fbbcb46b0c1f68b039a5627ebc5_cb4a8a449b4ada864625ee5a4355578a3aaf08ed>
 8008a30:	ee69 7a00 	vmul.f32	s15, s18, s0
 8008a34:	2600      	movs	r6, #0
 8008a36:	ee17 0a90 	vmov	r0, s15
 8008a3a:	f7f7 fd51 	bl	80004e0 <__aeabi_f2d>
 8008a3e:	2700      	movs	r7, #0
 8008a40:	e9cd 010c 	strd	r0, r1, [sp, #48]	@ 0x30
 8008a44:	46b0      	mov	r8, r6
 8008a46:	46b9      	mov	r9, r7
 8008a48:	f7fe b8e2 	b.w	8006c10 <Reinitialize+0x1a48>
 8008a4c:	f3af 8000 	nop.w
	...
 8008a58:	3ff00000 	.word	0x3ff00000
 8008a5c:	2200      	movs	r2, #0
 8008a5e:	2300      	movs	r3, #0
 8008a60:	f7f7 fd96 	bl	8000590 <__aeabi_dmul>
 8008a64:	eeb0 0a49 	vmov.f32	s0, s18
 8008a68:	4604      	mov	r4, r0
 8008a6a:	460d      	mov	r5, r1
 8008a6c:	f005 fcb2 	bl	800e3d4 <SPE_cos_H96e4298bd9675fbbcb46b0c1f68b039a5627ebc5_cb4a8a449b4ada864625ee5a4355578a3aaf08ed>
 8008a70:	e9dd 2302 	ldrd	r2, r3, [sp, #8]
 8008a74:	2000      	movs	r0, #0
 8008a76:	2100      	movs	r1, #0
 8008a78:	eeb0 9a40 	vmov.f32	s18, s0
 8008a7c:	f7f7 fbd0 	bl	8000220 <__aeabi_dsub>
 8008a80:	ee6a 7a89 	vmul.f32	s15, s21, s18
 8008a84:	4606      	mov	r6, r0
 8008a86:	ee17 0a90 	vmov	r0, s15
 8008a8a:	460f      	mov	r7, r1
 8008a8c:	f7f7 fd28 	bl	80004e0 <__aeabi_f2d>
 8008a90:	4602      	mov	r2, r0
 8008a92:	460b      	mov	r3, r1
 8008a94:	4630      	mov	r0, r6
 8008a96:	4639      	mov	r1, r7
 8008a98:	f7f7 fd7a 	bl	8000590 <__aeabi_dmul>
 8008a9c:	4602      	mov	r2, r0
 8008a9e:	460b      	mov	r3, r1
 8008aa0:	4620      	mov	r0, r4
 8008aa2:	4629      	mov	r1, r5
 8008aa4:	f7f7 fbbc 	bl	8000220 <__aeabi_dsub>
 8008aa8:	4604      	mov	r4, r0
 8008aaa:	f8da 0174 	ldr.w	r0, [sl, #372]	@ 0x174
 8008aae:	460d      	mov	r5, r1
 8008ab0:	f7f7 fd16 	bl	80004e0 <__aeabi_f2d>
 8008ab4:	4602      	mov	r2, r0
 8008ab6:	460b      	mov	r3, r1
 8008ab8:	4620      	mov	r0, r4
 8008aba:	4629      	mov	r1, r5
 8008abc:	f7f7 fd68 	bl	8000590 <__aeabi_dmul>
 8008ac0:	4604      	mov	r4, r0
 8008ac2:	f8da 01c0 	ldr.w	r0, [sl, #448]	@ 0x1c0
 8008ac6:	460d      	mov	r5, r1
 8008ac8:	f7f7 fd0a 	bl	80004e0 <__aeabi_f2d>
 8008acc:	4602      	mov	r2, r0
 8008ace:	460b      	mov	r3, r1
 8008ad0:	4620      	mov	r0, r4
 8008ad2:	4629      	mov	r1, r5
 8008ad4:	f7f7 fe86 	bl	80007e4 <__aeabi_ddiv>
 8008ad8:	e9dd 230c 	ldrd	r2, r3, [sp, #48]	@ 0x30
 8008adc:	f7f7 fba2 	bl	8000224 <__adddf3>
 8008ae0:	f7f7 ff68 	bl	80009b4 <__aeabi_d2f>
 8008ae4:	f04f 4300 	mov.w	r3, #2147483648	@ 0x80000000
 8008ae8:	9035      	str	r0, [sp, #212]	@ 0xd4
 8008aea:	9336      	str	r3, [sp, #216]	@ 0xd8
 8008aec:	f8da 010c 	ldr.w	r0, [sl, #268]	@ 0x10c
 8008af0:	4b94      	ldr	r3, [pc, #592]	@ (8008d44 <Reinitialize+0x3b7c>)
 8008af2:	9337      	str	r3, [sp, #220]	@ 0xdc
 8008af4:	f7f7 fcf4 	bl	80004e0 <__aeabi_f2d>
 8008af8:	e9dd 2304 	ldrd	r2, r3, [sp, #16]
 8008afc:	4680      	mov	r8, r0
 8008afe:	4689      	mov	r9, r1
 8008b00:	2000      	movs	r0, #0
 8008b02:	2100      	movs	r1, #0
 8008b04:	f7f7 fb8c 	bl	8000220 <__aeabi_dsub>
 8008b08:	4606      	mov	r6, r0
 8008b0a:	f8da 0110 	ldr.w	r0, [sl, #272]	@ 0x110
 8008b0e:	460f      	mov	r7, r1
 8008b10:	f7f7 fce6 	bl	80004e0 <__aeabi_f2d>
 8008b14:	2200      	movs	r2, #0
 8008b16:	4604      	mov	r4, r0
 8008b18:	460d      	mov	r5, r1
 8008b1a:	2300      	movs	r3, #0
 8008b1c:	4640      	mov	r0, r8
 8008b1e:	4649      	mov	r1, r9
 8008b20:	f7f7 fd36 	bl	8000590 <__aeabi_dmul>
 8008b24:	4622      	mov	r2, r4
 8008b26:	e9cd 0108 	strd	r0, r1, [sp, #32]
 8008b2a:	462b      	mov	r3, r5
 8008b2c:	4630      	mov	r0, r6
 8008b2e:	4639      	mov	r1, r7
 8008b30:	f7f7 fd2e 	bl	8000590 <__aeabi_dmul>
 8008b34:	4602      	mov	r2, r0
 8008b36:	460b      	mov	r3, r1
 8008b38:	e9dd 0108 	ldrd	r0, r1, [sp, #32]
 8008b3c:	f7f7 fb70 	bl	8000220 <__aeabi_dsub>
 8008b40:	4b81      	ldr	r3, [pc, #516]	@ (8008d48 <Reinitialize+0x3b80>)
 8008b42:	2200      	movs	r2, #0
 8008b44:	f7f7 fb6c 	bl	8000220 <__aeabi_dsub>
 8008b48:	f7f7 ff34 	bl	80009b4 <__aeabi_d2f>
 8008b4c:	4629      	mov	r1, r5
 8008b4e:	9038      	str	r0, [sp, #224]	@ 0xe0
 8008b50:	2200      	movs	r2, #0
 8008b52:	4620      	mov	r0, r4
 8008b54:	2300      	movs	r3, #0
 8008b56:	f7f7 fd1b 	bl	8000590 <__aeabi_dmul>
 8008b5a:	4642      	mov	r2, r8
 8008b5c:	464b      	mov	r3, r9
 8008b5e:	4604      	mov	r4, r0
 8008b60:	460d      	mov	r5, r1
 8008b62:	4630      	mov	r0, r6
 8008b64:	4639      	mov	r1, r7
 8008b66:	f7f7 fd13 	bl	8000590 <__aeabi_dmul>
 8008b6a:	4602      	mov	r2, r0
 8008b6c:	460b      	mov	r3, r1
 8008b6e:	4620      	mov	r0, r4
 8008b70:	4629      	mov	r1, r5
 8008b72:	f7f7 fb57 	bl	8000224 <__adddf3>
 8008b76:	f7f7 ff1d 	bl	80009b4 <__aeabi_d2f>
 8008b7a:	ed9a 0a84 	vldr	s0, [sl, #528]	@ 0x210
 8008b7e:	9039      	str	r0, [sp, #228]	@ 0xe4
 8008b80:	ed9a 9a19 	vldr	s18, [sl, #100]	@ 0x64
 8008b84:	f005 fc24 	bl	800e3d0 <SPE_sin_H96e4298bd9675fbbcb46b0c1f68b039a5627ebc5_cb4a8a449b4ada864625ee5a4355578a3aaf08ed>
 8008b88:	ee69 7a00 	vmul.f32	s15, s18, s0
 8008b8c:	ee17 0a90 	vmov	r0, s15
 8008b90:	f7f7 fca6 	bl	80004e0 <__aeabi_f2d>
 8008b94:	2200      	movs	r2, #0
 8008b96:	2300      	movs	r3, #0
 8008b98:	f7f7 fcfa 	bl	8000590 <__aeabi_dmul>
 8008b9c:	ed9a 0a84 	vldr	s0, [sl, #528]	@ 0x210
 8008ba0:	ed9a 9a19 	vldr	s18, [sl, #100]	@ 0x64
 8008ba4:	4604      	mov	r4, r0
 8008ba6:	460d      	mov	r5, r1
 8008ba8:	f005 fc14 	bl	800e3d4 <SPE_cos_H96e4298bd9675fbbcb46b0c1f68b039a5627ebc5_cb4a8a449b4ada864625ee5a4355578a3aaf08ed>
 8008bac:	ee69 7a00 	vmul.f32	s15, s18, s0
 8008bb0:	ee17 0a90 	vmov	r0, s15
 8008bb4:	f7f7 fc94 	bl	80004e0 <__aeabi_f2d>
 8008bb8:	4632      	mov	r2, r6
 8008bba:	463b      	mov	r3, r7
 8008bbc:	f7f7 fce8 	bl	8000590 <__aeabi_dmul>
 8008bc0:	4622      	mov	r2, r4
 8008bc2:	462b      	mov	r3, r5
 8008bc4:	f7f7 fb2e 	bl	8000224 <__adddf3>
 8008bc8:	4604      	mov	r4, r0
 8008bca:	f8da 0170 	ldr.w	r0, [sl, #368]	@ 0x170
 8008bce:	460d      	mov	r5, r1
 8008bd0:	f7f7 fc86 	bl	80004e0 <__aeabi_f2d>
 8008bd4:	4602      	mov	r2, r0
 8008bd6:	460b      	mov	r3, r1
 8008bd8:	4620      	mov	r0, r4
 8008bda:	4629      	mov	r1, r5
 8008bdc:	f7f7 fcd8 	bl	8000590 <__aeabi_dmul>
 8008be0:	ed9a 0a84 	vldr	s0, [sl, #528]	@ 0x210
 8008be4:	ed9a 9a19 	vldr	s18, [sl, #100]	@ 0x64
 8008be8:	e9cd 0108 	strd	r0, r1, [sp, #32]
 8008bec:	f005 fbf0 	bl	800e3d0 <SPE_sin_H96e4298bd9675fbbcb46b0c1f68b039a5627ebc5_cb4a8a449b4ada864625ee5a4355578a3aaf08ed>
 8008bf0:	ee69 7a00 	vmul.f32	s15, s18, s0
 8008bf4:	ee17 0a90 	vmov	r0, s15
 8008bf8:	f7f7 fc72 	bl	80004e0 <__aeabi_f2d>
 8008bfc:	4632      	mov	r2, r6
 8008bfe:	463b      	mov	r3, r7
 8008c00:	f7f7 fcc6 	bl	8000590 <__aeabi_dmul>
 8008c04:	ed9a 0a84 	vldr	s0, [sl, #528]	@ 0x210
 8008c08:	ed9a 9a19 	vldr	s18, [sl, #100]	@ 0x64
 8008c0c:	4680      	mov	r8, r0
 8008c0e:	4689      	mov	r9, r1
 8008c10:	f005 fbe0 	bl	800e3d4 <SPE_cos_H96e4298bd9675fbbcb46b0c1f68b039a5627ebc5_cb4a8a449b4ada864625ee5a4355578a3aaf08ed>
 8008c14:	ee69 7a00 	vmul.f32	s15, s18, s0
 8008c18:	ee17 0a90 	vmov	r0, s15
 8008c1c:	f7f7 fc60 	bl	80004e0 <__aeabi_f2d>
 8008c20:	4604      	mov	r4, r0
 8008c22:	460d      	mov	r5, r1
 8008c24:	2000      	movs	r0, #0
 8008c26:	2100      	movs	r1, #0
 8008c28:	f7fd bf55 	b.w	8006ad6 <Reinitialize+0x190e>
 8008c2c:	2200      	movs	r2, #0
 8008c2e:	2300      	movs	r3, #0
 8008c30:	f7f7 fcae 	bl	8000590 <__aeabi_dmul>
 8008c34:	eeb0 0a69 	vmov.f32	s0, s19
 8008c38:	e9cd 010c 	strd	r0, r1, [sp, #48]	@ 0x30
 8008c3c:	f005 fbca 	bl	800e3d4 <SPE_cos_H96e4298bd9675fbbcb46b0c1f68b039a5627ebc5_cb4a8a449b4ada864625ee5a4355578a3aaf08ed>
 8008c40:	ee69 7a00 	vmul.f32	s15, s18, s0
 8008c44:	f04f 0800 	mov.w	r8, #0
 8008c48:	ee17 0a90 	vmov	r0, s15
 8008c4c:	f7f7 fc48 	bl	80004e0 <__aeabi_f2d>
 8008c50:	f04f 0900 	mov.w	r9, #0
 8008c54:	e9cd 010e 	strd	r0, r1, [sp, #56]	@ 0x38
 8008c58:	e9dd 6702 	ldrd	r6, r7, [sp, #8]
 8008c5c:	f7fd bcbc 	b.w	80065d8 <Reinitialize+0x1410>
 8008c60:	2200      	movs	r2, #0
 8008c62:	2300      	movs	r3, #0
 8008c64:	f7f7 fc94 	bl	8000590 <__aeabi_dmul>
 8008c68:	eeb0 0a69 	vmov.f32	s0, s19
 8008c6c:	4604      	mov	r4, r0
 8008c6e:	460d      	mov	r5, r1
 8008c70:	f005 fbb0 	bl	800e3d4 <SPE_cos_H96e4298bd9675fbbcb46b0c1f68b039a5627ebc5_cb4a8a449b4ada864625ee5a4355578a3aaf08ed>
 8008c74:	ee69 7a00 	vmul.f32	s15, s18, s0
 8008c78:	2600      	movs	r6, #0
 8008c7a:	ee17 0a90 	vmov	r0, s15
 8008c7e:	f7f7 fc2f 	bl	80004e0 <__aeabi_f2d>
 8008c82:	2200      	movs	r2, #0
 8008c84:	2300      	movs	r3, #0
 8008c86:	f7f7 fc83 	bl	8000590 <__aeabi_dmul>
 8008c8a:	4622      	mov	r2, r4
 8008c8c:	462b      	mov	r3, r5
 8008c8e:	f7f7 fac9 	bl	8000224 <__adddf3>
 8008c92:	4604      	mov	r4, r0
 8008c94:	f8da 0164 	ldr.w	r0, [sl, #356]	@ 0x164
 8008c98:	460d      	mov	r5, r1
 8008c9a:	f7f7 fc21 	bl	80004e0 <__aeabi_f2d>
 8008c9e:	4602      	mov	r2, r0
 8008ca0:	460b      	mov	r3, r1
 8008ca2:	4620      	mov	r0, r4
 8008ca4:	4629      	mov	r1, r5
 8008ca6:	f7f7 fc73 	bl	8000590 <__aeabi_dmul>
 8008caa:	4604      	mov	r4, r0
 8008cac:	f8da 01c0 	ldr.w	r0, [sl, #448]	@ 0x1c0
 8008cb0:	460d      	mov	r5, r1
 8008cb2:	f7f7 fc15 	bl	80004e0 <__aeabi_f2d>
 8008cb6:	4602      	mov	r2, r0
 8008cb8:	460b      	mov	r3, r1
 8008cba:	4620      	mov	r0, r4
 8008cbc:	4629      	mov	r1, r5
 8008cbe:	f7f7 fd91 	bl	80007e4 <__aeabi_ddiv>
 8008cc2:	4602      	mov	r2, r0
 8008cc4:	460b      	mov	r3, r1
 8008cc6:	4640      	mov	r0, r8
 8008cc8:	4649      	mov	r1, r9
 8008cca:	f7f7 faa9 	bl	8000220 <__aeabi_dsub>
 8008cce:	ed9a 0a84 	vldr	s0, [sl, #528]	@ 0x210
 8008cd2:	ed9a 9a19 	vldr	s18, [sl, #100]	@ 0x64
 8008cd6:	e9cd 0108 	strd	r0, r1, [sp, #32]
 8008cda:	f005 fb79 	bl	800e3d0 <SPE_sin_H96e4298bd9675fbbcb46b0c1f68b039a5627ebc5_cb4a8a449b4ada864625ee5a4355578a3aaf08ed>
 8008cde:	ee60 7a09 	vmul.f32	s15, s0, s18
 8008ce2:	2700      	movs	r7, #0
 8008ce4:	ee17 0a90 	vmov	r0, s15
 8008ce8:	f7f7 fbfa 	bl	80004e0 <__aeabi_f2d>
 8008cec:	2200      	movs	r2, #0
 8008cee:	2300      	movs	r3, #0
 8008cf0:	f7f7 fc4e 	bl	8000590 <__aeabi_dmul>
 8008cf4:	ed9a 0a84 	vldr	s0, [sl, #528]	@ 0x210
 8008cf8:	ed9a 9a19 	vldr	s18, [sl, #100]	@ 0x64
 8008cfc:	e9cd 010c 	strd	r0, r1, [sp, #48]	@ 0x30
 8008d00:	f005 fb68 	bl	800e3d4 <SPE_cos_H96e4298bd9675fbbcb46b0c1f68b039a5627ebc5_cb4a8a449b4ada864625ee5a4355578a3aaf08ed>
 8008d04:	ee69 7a00 	vmul.f32	s15, s18, s0
 8008d08:	ee17 0a90 	vmov	r0, s15
 8008d0c:	f7f7 fbe8 	bl	80004e0 <__aeabi_f2d>
 8008d10:	4680      	mov	r8, r0
 8008d12:	4689      	mov	r9, r1
 8008d14:	f7fe bf7c 	b.w	8007c10 <Reinitialize+0x2a48>
 8008d18:	2200      	movs	r2, #0
 8008d1a:	2300      	movs	r3, #0
 8008d1c:	f7f7 fc38 	bl	8000590 <__aeabi_dmul>
 8008d20:	eeb0 0a69 	vmov.f32	s0, s19
 8008d24:	e9cd 0108 	strd	r0, r1, [sp, #32]
 8008d28:	f005 fb54 	bl	800e3d4 <SPE_cos_H96e4298bd9675fbbcb46b0c1f68b039a5627ebc5_cb4a8a449b4ada864625ee5a4355578a3aaf08ed>
 8008d2c:	ee69 7a00 	vmul.f32	s15, s18, s0
 8008d30:	2600      	movs	r6, #0
 8008d32:	ee17 0a90 	vmov	r0, s15
 8008d36:	f7f7 fbd3 	bl	80004e0 <__aeabi_f2d>
 8008d3a:	2700      	movs	r7, #0
 8008d3c:	4680      	mov	r8, r0
 8008d3e:	4689      	mov	r9, r1
 8008d40:	f7fe be50 	b.w	80079e4 <Reinitialize+0x281c>
 8008d44:	bf800000 	.word	0xbf800000
 8008d48:	3ff00000 	.word	0x3ff00000
 8008d4c:	2200      	movs	r2, #0
 8008d4e:	2300      	movs	r3, #0
 8008d50:	f7f7 fc1e 	bl	8000590 <__aeabi_dmul>
 8008d54:	eeb0 0a49 	vmov.f32	s0, s18
 8008d58:	4604      	mov	r4, r0
 8008d5a:	460d      	mov	r5, r1
 8008d5c:	f005 fb3a 	bl	800e3d4 <SPE_cos_H96e4298bd9675fbbcb46b0c1f68b039a5627ebc5_cb4a8a449b4ada864625ee5a4355578a3aaf08ed>
 8008d60:	ee6a 7a00 	vmul.f32	s15, s20, s0
 8008d64:	ee17 0a90 	vmov	r0, s15
 8008d68:	f7f7 fbba 	bl	80004e0 <__aeabi_f2d>
 8008d6c:	2200      	movs	r2, #0
 8008d6e:	2300      	movs	r3, #0
 8008d70:	f7f7 fc0e 	bl	8000590 <__aeabi_dmul>
 8008d74:	4602      	mov	r2, r0
 8008d76:	460b      	mov	r3, r1
 8008d78:	4620      	mov	r0, r4
 8008d7a:	4629      	mov	r1, r5
 8008d7c:	f7f7 fa50 	bl	8000220 <__aeabi_dsub>
 8008d80:	4604      	mov	r4, r0
 8008d82:	f8da 0174 	ldr.w	r0, [sl, #372]	@ 0x174
 8008d86:	460d      	mov	r5, r1
 8008d88:	f7f7 fbaa 	bl	80004e0 <__aeabi_f2d>
 8008d8c:	4602      	mov	r2, r0
 8008d8e:	460b      	mov	r3, r1
 8008d90:	4620      	mov	r0, r4
 8008d92:	4629      	mov	r1, r5
 8008d94:	f7f7 fbfc 	bl	8000590 <__aeabi_dmul>
 8008d98:	4604      	mov	r4, r0
 8008d9a:	f8da 01c0 	ldr.w	r0, [sl, #448]	@ 0x1c0
 8008d9e:	460d      	mov	r5, r1
 8008da0:	f7f7 fb9e 	bl	80004e0 <__aeabi_f2d>
 8008da4:	4602      	mov	r2, r0
 8008da6:	460b      	mov	r3, r1
 8008da8:	4620      	mov	r0, r4
 8008daa:	4629      	mov	r1, r5
 8008dac:	f7f7 fd1a 	bl	80007e4 <__aeabi_ddiv>
 8008db0:	4642      	mov	r2, r8
 8008db2:	464b      	mov	r3, r9
 8008db4:	f7f7 fa36 	bl	8000224 <__adddf3>
 8008db8:	f7f7 fdfc 	bl	80009b4 <__aeabi_d2f>
 8008dbc:	2300      	movs	r3, #0
 8008dbe:	9041      	str	r0, [sp, #260]	@ 0x104
 8008dc0:	9342      	str	r3, [sp, #264]	@ 0x108
 8008dc2:	f8da 010c 	ldr.w	r0, [sl, #268]	@ 0x10c
 8008dc6:	f04f 537e 	mov.w	r3, #1065353216	@ 0x3f800000
 8008dca:	9343      	str	r3, [sp, #268]	@ 0x10c
 8008dcc:	f7f7 fb88 	bl	80004e0 <__aeabi_f2d>
 8008dd0:	2200      	movs	r2, #0
 8008dd2:	2300      	movs	r3, #0
 8008dd4:	f7f7 fbdc 	bl	8000590 <__aeabi_dmul>
 8008dd8:	4606      	mov	r6, r0
 8008dda:	f8da 0110 	ldr.w	r0, [sl, #272]	@ 0x110
 8008dde:	460f      	mov	r7, r1
 8008de0:	f7f7 fb7e 	bl	80004e0 <__aeabi_f2d>
 8008de4:	2200      	movs	r2, #0
 8008de6:	2300      	movs	r3, #0
 8008de8:	f7f7 fbd2 	bl	8000590 <__aeabi_dmul>
 8008dec:	4604      	mov	r4, r0
 8008dee:	460d      	mov	r5, r1
 8008df0:	4622      	mov	r2, r4
 8008df2:	462b      	mov	r3, r5
 8008df4:	4630      	mov	r0, r6
 8008df6:	4639      	mov	r1, r7
 8008df8:	f7f7 fa12 	bl	8000220 <__aeabi_dsub>
 8008dfc:	f7f7 fdda 	bl	80009b4 <__aeabi_d2f>
 8008e00:	4632      	mov	r2, r6
 8008e02:	463b      	mov	r3, r7
 8008e04:	9044      	str	r0, [sp, #272]	@ 0x110
 8008e06:	4629      	mov	r1, r5
 8008e08:	4620      	mov	r0, r4
 8008e0a:	f7f7 fa0b 	bl	8000224 <__adddf3>
 8008e0e:	f7f7 fdd1 	bl	80009b4 <__aeabi_d2f>
 8008e12:	ed9a 0a84 	vldr	s0, [sl, #528]	@ 0x210
 8008e16:	ed9a 9a19 	vldr	s18, [sl, #100]	@ 0x64
 8008e1a:	9045      	str	r0, [sp, #276]	@ 0x114
 8008e1c:	f005 fad8 	bl	800e3d0 <SPE_sin_H96e4298bd9675fbbcb46b0c1f68b039a5627ebc5_cb4a8a449b4ada864625ee5a4355578a3aaf08ed>
 8008e20:	ee60 7a09 	vmul.f32	s15, s0, s18
 8008e24:	ee17 0a90 	vmov	r0, s15
 8008e28:	f7f7 fb5a 	bl	80004e0 <__aeabi_f2d>
 8008e2c:	2200      	movs	r2, #0
 8008e2e:	2300      	movs	r3, #0
 8008e30:	f7f7 fbae 	bl	8000590 <__aeabi_dmul>
 8008e34:	ed9a 0a84 	vldr	s0, [sl, #528]	@ 0x210
 8008e38:	ed9a 9a19 	vldr	s18, [sl, #100]	@ 0x64
 8008e3c:	4604      	mov	r4, r0
 8008e3e:	460d      	mov	r5, r1
 8008e40:	f005 fac8 	bl	800e3d4 <SPE_cos_H96e4298bd9675fbbcb46b0c1f68b039a5627ebc5_cb4a8a449b4ada864625ee5a4355578a3aaf08ed>
 8008e44:	ee69 7a00 	vmul.f32	s15, s18, s0
 8008e48:	ee17 0a90 	vmov	r0, s15
 8008e4c:	f7f7 fb48 	bl	80004e0 <__aeabi_f2d>
 8008e50:	2200      	movs	r2, #0
 8008e52:	2300      	movs	r3, #0
 8008e54:	f7f7 fb9c 	bl	8000590 <__aeabi_dmul>
 8008e58:	4622      	mov	r2, r4
 8008e5a:	462b      	mov	r3, r5
 8008e5c:	f7f7 f9e2 	bl	8000224 <__adddf3>
 8008e60:	4604      	mov	r4, r0
 8008e62:	f8da 0170 	ldr.w	r0, [sl, #368]	@ 0x170
 8008e66:	460d      	mov	r5, r1
 8008e68:	f7f7 fb3a 	bl	80004e0 <__aeabi_f2d>
 8008e6c:	4602      	mov	r2, r0
 8008e6e:	460b      	mov	r3, r1
 8008e70:	4620      	mov	r0, r4
 8008e72:	4629      	mov	r1, r5
 8008e74:	f7f7 fb8c 	bl	8000590 <__aeabi_dmul>
 8008e78:	ed9a 0a84 	vldr	s0, [sl, #528]	@ 0x210
 8008e7c:	ed9a 9a19 	vldr	s18, [sl, #100]	@ 0x64
 8008e80:	4680      	mov	r8, r0
 8008e82:	4689      	mov	r9, r1
 8008e84:	f005 faa4 	bl	800e3d0 <SPE_sin_H96e4298bd9675fbbcb46b0c1f68b039a5627ebc5_cb4a8a449b4ada864625ee5a4355578a3aaf08ed>
 8008e88:	ee60 7a09 	vmul.f32	s15, s0, s18
 8008e8c:	ee17 0a90 	vmov	r0, s15
 8008e90:	f7f7 fb26 	bl	80004e0 <__aeabi_f2d>
 8008e94:	2200      	movs	r2, #0
 8008e96:	2300      	movs	r3, #0
 8008e98:	f7f7 fb7a 	bl	8000590 <__aeabi_dmul>
 8008e9c:	ed9a 0a84 	vldr	s0, [sl, #528]	@ 0x210
 8008ea0:	ed9a 9a19 	vldr	s18, [sl, #100]	@ 0x64
 8008ea4:	4604      	mov	r4, r0
 8008ea6:	460d      	mov	r5, r1
 8008ea8:	f005 fa94 	bl	800e3d4 <SPE_cos_H96e4298bd9675fbbcb46b0c1f68b039a5627ebc5_cb4a8a449b4ada864625ee5a4355578a3aaf08ed>
 8008eac:	ee69 7a00 	vmul.f32	s15, s18, s0
 8008eb0:	ee17 0a90 	vmov	r0, s15
 8008eb4:	f7f7 fb14 	bl	80004e0 <__aeabi_f2d>
 8008eb8:	4606      	mov	r6, r0
 8008eba:	460f      	mov	r7, r1
 8008ebc:	2000      	movs	r0, #0
 8008ebe:	2100      	movs	r1, #0
 8008ec0:	f7fe bd0d 	b.w	80078de <Reinitialize+0x2716>
 8008ec4:	2200      	movs	r2, #0
 8008ec6:	2300      	movs	r3, #0
 8008ec8:	f7f7 fb62 	bl	8000590 <__aeabi_dmul>
 8008ecc:	eeb0 0a69 	vmov.f32	s0, s19
 8008ed0:	4604      	mov	r4, r0
 8008ed2:	460d      	mov	r5, r1
 8008ed4:	f005 fa7e 	bl	800e3d4 <SPE_cos_H96e4298bd9675fbbcb46b0c1f68b039a5627ebc5_cb4a8a449b4ada864625ee5a4355578a3aaf08ed>
 8008ed8:	ee69 7a00 	vmul.f32	s15, s18, s0
 8008edc:	2600      	movs	r6, #0
 8008ede:	ee17 0a90 	vmov	r0, s15
 8008ee2:	f7f7 fafd 	bl	80004e0 <__aeabi_f2d>
 8008ee6:	2200      	movs	r2, #0
 8008ee8:	2300      	movs	r3, #0
 8008eea:	f7f7 fb51 	bl	8000590 <__aeabi_dmul>
 8008eee:	4622      	mov	r2, r4
 8008ef0:	462b      	mov	r3, r5
 8008ef2:	f7f7 f997 	bl	8000224 <__adddf3>
 8008ef6:	4604      	mov	r4, r0
 8008ef8:	f8da 0164 	ldr.w	r0, [sl, #356]	@ 0x164
 8008efc:	460d      	mov	r5, r1
 8008efe:	f7f7 faef 	bl	80004e0 <__aeabi_f2d>
 8008f02:	4602      	mov	r2, r0
 8008f04:	460b      	mov	r3, r1
 8008f06:	4620      	mov	r0, r4
 8008f08:	4629      	mov	r1, r5
 8008f0a:	f7f7 fb41 	bl	8000590 <__aeabi_dmul>
 8008f0e:	4604      	mov	r4, r0
 8008f10:	f8da 01c0 	ldr.w	r0, [sl, #448]	@ 0x1c0
 8008f14:	460d      	mov	r5, r1
 8008f16:	f7f7 fae3 	bl	80004e0 <__aeabi_f2d>
 8008f1a:	4602      	mov	r2, r0
 8008f1c:	460b      	mov	r3, r1
 8008f1e:	4620      	mov	r0, r4
 8008f20:	4629      	mov	r1, r5
 8008f22:	f7f7 fc5f 	bl	80007e4 <__aeabi_ddiv>
 8008f26:	4602      	mov	r2, r0
 8008f28:	460b      	mov	r3, r1
 8008f2a:	4640      	mov	r0, r8
 8008f2c:	4649      	mov	r1, r9
 8008f2e:	f7f7 f977 	bl	8000220 <__aeabi_dsub>
 8008f32:	ed9a 0a84 	vldr	s0, [sl, #528]	@ 0x210
 8008f36:	ed9a 9a19 	vldr	s18, [sl, #100]	@ 0x64
 8008f3a:	e9cd 0108 	strd	r0, r1, [sp, #32]
 8008f3e:	f005 fa47 	bl	800e3d0 <SPE_sin_H96e4298bd9675fbbcb46b0c1f68b039a5627ebc5_cb4a8a449b4ada864625ee5a4355578a3aaf08ed>
 8008f42:	ee60 7a09 	vmul.f32	s15, s0, s18
 8008f46:	2700      	movs	r7, #0
 8008f48:	ee17 0a90 	vmov	r0, s15
 8008f4c:	f7f7 fac8 	bl	80004e0 <__aeabi_f2d>
 8008f50:	2200      	movs	r2, #0
 8008f52:	2300      	movs	r3, #0
 8008f54:	f7f7 fb1c 	bl	8000590 <__aeabi_dmul>
 8008f58:	ed9a 0a84 	vldr	s0, [sl, #528]	@ 0x210
 8008f5c:	ed9a 9a19 	vldr	s18, [sl, #100]	@ 0x64
 8008f60:	e9cd 010c 	strd	r0, r1, [sp, #48]	@ 0x30
 8008f64:	f005 fa36 	bl	800e3d4 <SPE_cos_H96e4298bd9675fbbcb46b0c1f68b039a5627ebc5_cb4a8a449b4ada864625ee5a4355578a3aaf08ed>
 8008f68:	ee69 7a00 	vmul.f32	s15, s18, s0
 8008f6c:	ee17 0a90 	vmov	r0, s15
 8008f70:	f7f7 fab6 	bl	80004e0 <__aeabi_f2d>
 8008f74:	4680      	mov	r8, r0
 8008f76:	4689      	mov	r9, r1
 8008f78:	f7fe bac8 	b.w	800750c <Reinitialize+0x2344>
 8008f7c:	2200      	movs	r2, #0
 8008f7e:	2300      	movs	r3, #0
 8008f80:	f7f7 fb06 	bl	8000590 <__aeabi_dmul>
 8008f84:	eeb0 0a69 	vmov.f32	s0, s19
 8008f88:	e9cd 0108 	strd	r0, r1, [sp, #32]
 8008f8c:	f005 fa22 	bl	800e3d4 <SPE_cos_H96e4298bd9675fbbcb46b0c1f68b039a5627ebc5_cb4a8a449b4ada864625ee5a4355578a3aaf08ed>
 8008f90:	ee69 7a00 	vmul.f32	s15, s18, s0
 8008f94:	2600      	movs	r6, #0
 8008f96:	ee17 0a90 	vmov	r0, s15
 8008f9a:	f7f7 faa1 	bl	80004e0 <__aeabi_f2d>
 8008f9e:	2700      	movs	r7, #0
 8008fa0:	4680      	mov	r8, r0
 8008fa2:	4689      	mov	r9, r1
 8008fa4:	f7fe b999 	b.w	80072da <Reinitialize+0x2112>
 8008fa8:	ed9a 9a3f 	vldr	s18, [sl, #252]	@ 0xfc
 8008fac:	ee19 0a10 	vmov	r0, s18
 8008fb0:	f7f7 fa96 	bl	80004e0 <__aeabi_f2d>
 8008fb4:	f101 4100 	add.w	r1, r1, #2147483648	@ 0x80000000
 8008fb8:	f7f7 fcfc 	bl	80009b4 <__aeabi_d2f>
 8008fbc:	ed9a ba3e 	vldr	s22, [sl, #248]	@ 0xf8
 8008fc0:	edda 9a3c 	vldr	s19, [sl, #240]	@ 0xf0
 8008fc4:	edda ba3d 	vldr	s23, [sl, #244]	@ 0xf4
 8008fc8:	903c      	str	r0, [sp, #240]	@ 0xf0
 8008fca:	ee29 7a29 	vmul.f32	s14, s18, s19
 8008fce:	ee6b 7a8b 	vmul.f32	s15, s23, s22
 8008fd2:	ee29 9a2b 	vmul.f32	s18, s18, s23
 8008fd6:	ee77 7a27 	vadd.f32	s15, s14, s15
 8008fda:	ee69 9a8b 	vmul.f32	s19, s19, s22
 8008fde:	ee17 0a90 	vmov	r0, s15
 8008fe2:	ed8d ba3d 	vstr	s22, [sp, #244]	@ 0xf4
 8008fe6:	f7f7 fa7b 	bl	80004e0 <__aeabi_f2d>
 8008fea:	ee79 7a69 	vsub.f32	s15, s18, s19
 8008fee:	4602      	mov	r2, r0
 8008ff0:	ee17 0a90 	vmov	r0, s15
 8008ff4:	4616      	mov	r6, r2
 8008ff6:	f101 4700 	add.w	r7, r1, #2147483648	@ 0x80000000
 8008ffa:	f7f7 fa71 	bl	80004e0 <__aeabi_f2d>
 8008ffe:	4ba0      	ldr	r3, [pc, #640]	@ (8009280 <Reinitialize+0x40b8>)
 8009000:	2200      	movs	r2, #0
 8009002:	f7f7 f90f 	bl	8000224 <__adddf3>
 8009006:	4632      	mov	r2, r6
 8009008:	e9cd 0108 	strd	r0, r1, [sp, #32]
 800900c:	463b      	mov	r3, r7
 800900e:	4620      	mov	r0, r4
 8009010:	4629      	mov	r1, r5
 8009012:	f7f7 fabd 	bl	8000590 <__aeabi_dmul>
 8009016:	e9dd 2308 	ldrd	r2, r3, [sp, #32]
 800901a:	e9cd 010c 	strd	r0, r1, [sp, #48]	@ 0x30
 800901e:	4640      	mov	r0, r8
 8009020:	4649      	mov	r1, r9
 8009022:	f7f7 fab5 	bl	8000590 <__aeabi_dmul>
 8009026:	4602      	mov	r2, r0
 8009028:	460b      	mov	r3, r1
 800902a:	e9dd 010c 	ldrd	r0, r1, [sp, #48]	@ 0x30
 800902e:	f7f7 f8f7 	bl	8000220 <__aeabi_dsub>
 8009032:	f7f7 fcbf 	bl	80009b4 <__aeabi_d2f>
 8009036:	e9dd 2308 	ldrd	r2, r3, [sp, #32]
 800903a:	903e      	str	r0, [sp, #248]	@ 0xf8
 800903c:	4629      	mov	r1, r5
 800903e:	4620      	mov	r0, r4
 8009040:	f7f7 faa6 	bl	8000590 <__aeabi_dmul>
 8009044:	4632      	mov	r2, r6
 8009046:	4604      	mov	r4, r0
 8009048:	460d      	mov	r5, r1
 800904a:	463b      	mov	r3, r7
 800904c:	4640      	mov	r0, r8
 800904e:	4649      	mov	r1, r9
 8009050:	f7f7 fa9e 	bl	8000590 <__aeabi_dmul>
 8009054:	460b      	mov	r3, r1
 8009056:	4602      	mov	r2, r0
 8009058:	4629      	mov	r1, r5
 800905a:	4620      	mov	r0, r4
 800905c:	f7f7 f8e2 	bl	8000224 <__adddf3>
 8009060:	f7f7 fca8 	bl	80009b4 <__aeabi_d2f>
 8009064:	eeb0 0a6a 	vmov.f32	s0, s21
 8009068:	903f      	str	r0, [sp, #252]	@ 0xfc
 800906a:	f005 f9b1 	bl	800e3d0 <SPE_sin_H96e4298bd9675fbbcb46b0c1f68b039a5627ebc5_cb4a8a449b4ada864625ee5a4355578a3aaf08ed>
 800906e:	ed9a 6a3c 	vldr	s12, [sl, #240]	@ 0xf0
 8009072:	edda 6a3d 	vldr	s13, [sl, #244]	@ 0xf4
 8009076:	ed9a 7a3f 	vldr	s14, [sl, #252]	@ 0xfc
 800907a:	edda 7a3e 	vldr	s15, [sl, #248]	@ 0xf8
 800907e:	ee27 7a06 	vmul.f32	s14, s14, s12
 8009082:	ee67 7aa6 	vmul.f32	s15, s15, s13
 8009086:	eeb0 9a40 	vmov.f32	s18, s0
 800908a:	ee77 7a27 	vadd.f32	s15, s14, s15
 800908e:	ee17 0a90 	vmov	r0, s15
 8009092:	f7f7 fa25 	bl	80004e0 <__aeabi_f2d>
 8009096:	ee6a 7a09 	vmul.f32	s15, s20, s18
 800909a:	4602      	mov	r2, r0
 800909c:	ee17 0a90 	vmov	r0, s15
 80090a0:	4614      	mov	r4, r2
 80090a2:	f101 4500 	add.w	r5, r1, #2147483648	@ 0x80000000
 80090a6:	f7f7 fa1b 	bl	80004e0 <__aeabi_f2d>
 80090aa:	4602      	mov	r2, r0
 80090ac:	460b      	mov	r3, r1
 80090ae:	4620      	mov	r0, r4
 80090b0:	4629      	mov	r1, r5
 80090b2:	f7f7 fa6d 	bl	8000590 <__aeabi_dmul>
 80090b6:	ed9a 0a84 	vldr	s0, [sl, #528]	@ 0x210
 80090ba:	edda 9a19 	vldr	s19, [sl, #100]	@ 0x64
 80090be:	4604      	mov	r4, r0
 80090c0:	460d      	mov	r5, r1
 80090c2:	f005 f987 	bl	800e3d4 <SPE_cos_H96e4298bd9675fbbcb46b0c1f68b039a5627ebc5_cb4a8a449b4ada864625ee5a4355578a3aaf08ed>
 80090c6:	ed9a 6a3d 	vldr	s12, [sl, #244]	@ 0xf4
 80090ca:	edda 6a3c 	vldr	s13, [sl, #240]	@ 0xf0
 80090ce:	ed9a 7a3f 	vldr	s14, [sl, #252]	@ 0xfc
 80090d2:	edda 7a3e 	vldr	s15, [sl, #248]	@ 0xf8
 80090d6:	ee27 7a06 	vmul.f32	s14, s14, s12
 80090da:	ee67 7aa6 	vmul.f32	s15, s15, s13
 80090de:	eeb0 9a40 	vmov.f32	s18, s0
 80090e2:	ee77 7a67 	vsub.f32	s15, s14, s15
 80090e6:	ee17 0a90 	vmov	r0, s15
 80090ea:	f7f7 f9f9 	bl	80004e0 <__aeabi_f2d>
 80090ee:	4b64      	ldr	r3, [pc, #400]	@ (8009280 <Reinitialize+0x40b8>)
 80090f0:	2200      	movs	r2, #0
 80090f2:	f7f7 f897 	bl	8000224 <__adddf3>
 80090f6:	ee69 7a89 	vmul.f32	s15, s19, s18
 80090fa:	4606      	mov	r6, r0
 80090fc:	ee17 0a90 	vmov	r0, s15
 8009100:	460f      	mov	r7, r1
 8009102:	f7f7 f9ed 	bl	80004e0 <__aeabi_f2d>
 8009106:	4602      	mov	r2, r0
 8009108:	460b      	mov	r3, r1
 800910a:	4630      	mov	r0, r6
 800910c:	4639      	mov	r1, r7
 800910e:	f7f7 fa3f 	bl	8000590 <__aeabi_dmul>
 8009112:	4622      	mov	r2, r4
 8009114:	462b      	mov	r3, r5
 8009116:	f7f7 f885 	bl	8000224 <__adddf3>
 800911a:	4604      	mov	r4, r0
 800911c:	f8da 0170 	ldr.w	r0, [sl, #368]	@ 0x170
 8009120:	460d      	mov	r5, r1
 8009122:	f7f7 f9dd 	bl	80004e0 <__aeabi_f2d>
 8009126:	4602      	mov	r2, r0
 8009128:	460b      	mov	r3, r1
 800912a:	4620      	mov	r0, r4
 800912c:	4629      	mov	r1, r5
 800912e:	f7f7 fa2f 	bl	8000590 <__aeabi_dmul>
 8009132:	ed9a 0a84 	vldr	s0, [sl, #528]	@ 0x210
 8009136:	edda 9a19 	vldr	s19, [sl, #100]	@ 0x64
 800913a:	4680      	mov	r8, r0
 800913c:	4689      	mov	r9, r1
 800913e:	f005 f947 	bl	800e3d0 <SPE_sin_H96e4298bd9675fbbcb46b0c1f68b039a5627ebc5_cb4a8a449b4ada864625ee5a4355578a3aaf08ed>
 8009142:	ed9a 6a3d 	vldr	s12, [sl, #244]	@ 0xf4
 8009146:	edda 6a3c 	vldr	s13, [sl, #240]	@ 0xf0
 800914a:	ed9a 7a3f 	vldr	s14, [sl, #252]	@ 0xfc
 800914e:	edda 7a3e 	vldr	s15, [sl, #248]	@ 0xf8
 8009152:	ee27 7a06 	vmul.f32	s14, s14, s12
 8009156:	ee67 7aa6 	vmul.f32	s15, s15, s13
 800915a:	eeb0 9a40 	vmov.f32	s18, s0
 800915e:	ee77 7a67 	vsub.f32	s15, s14, s15
 8009162:	ee17 0a90 	vmov	r0, s15
 8009166:	f7f7 f9bb 	bl	80004e0 <__aeabi_f2d>
 800916a:	4b45      	ldr	r3, [pc, #276]	@ (8009280 <Reinitialize+0x40b8>)
 800916c:	2200      	movs	r2, #0
 800916e:	f7f7 f859 	bl	8000224 <__adddf3>
 8009172:	ee69 7a29 	vmul.f32	s15, s18, s19
 8009176:	4604      	mov	r4, r0
 8009178:	ee17 0a90 	vmov	r0, s15
 800917c:	460d      	mov	r5, r1
 800917e:	f7f7 f9af 	bl	80004e0 <__aeabi_f2d>
 8009182:	4602      	mov	r2, r0
 8009184:	460b      	mov	r3, r1
 8009186:	4620      	mov	r0, r4
 8009188:	4629      	mov	r1, r5
 800918a:	f7f7 fa01 	bl	8000590 <__aeabi_dmul>
 800918e:	ed9a 0a84 	vldr	s0, [sl, #528]	@ 0x210
 8009192:	ed9a 9a19 	vldr	s18, [sl, #100]	@ 0x64
 8009196:	4604      	mov	r4, r0
 8009198:	460d      	mov	r5, r1
 800919a:	f005 f91b 	bl	800e3d4 <SPE_cos_H96e4298bd9675fbbcb46b0c1f68b039a5627ebc5_cb4a8a449b4ada864625ee5a4355578a3aaf08ed>
 800919e:	ee69 7a00 	vmul.f32	s15, s18, s0
 80091a2:	ee17 0a90 	vmov	r0, s15
 80091a6:	f7f7 f99b 	bl	80004e0 <__aeabi_f2d>
 80091aa:	ed9a 6a3c 	vldr	s12, [sl, #240]	@ 0xf0
 80091ae:	edda 6a3d 	vldr	s13, [sl, #244]	@ 0xf4
 80091b2:	ed9a 7a3f 	vldr	s14, [sl, #252]	@ 0xfc
 80091b6:	edda 7a3e 	vldr	s15, [sl, #248]	@ 0xf8
 80091ba:	ee27 7a06 	vmul.f32	s14, s14, s12
 80091be:	ee67 7aa6 	vmul.f32	s15, s15, s13
 80091c2:	4606      	mov	r6, r0
 80091c4:	ee77 7a27 	vadd.f32	s15, s14, s15
 80091c8:	460f      	mov	r7, r1
 80091ca:	ee17 0a90 	vmov	r0, s15
 80091ce:	f7f7 f987 	bl	80004e0 <__aeabi_f2d>
 80091d2:	f101 4100 	add.w	r1, r1, #2147483648	@ 0x80000000
 80091d6:	f7fd bfff 	b.w	80071d8 <Reinitialize+0x2010>
 80091da:	e9dd 2304 	ldrd	r2, r3, [sp, #16]
 80091de:	2000      	movs	r0, #0
 80091e0:	2100      	movs	r1, #0
 80091e2:	f7f7 f81d 	bl	8000220 <__aeabi_dsub>
 80091e6:	4622      	mov	r2, r4
 80091e8:	462b      	mov	r3, r5
 80091ea:	f7f7 f9d1 	bl	8000590 <__aeabi_dmul>
 80091ee:	eeb0 0a69 	vmov.f32	s0, s19
 80091f2:	4680      	mov	r8, r0
 80091f4:	4689      	mov	r9, r1
 80091f6:	f005 f8ed 	bl	800e3d4 <SPE_cos_H96e4298bd9675fbbcb46b0c1f68b039a5627ebc5_cb4a8a449b4ada864625ee5a4355578a3aaf08ed>
 80091fa:	ee60 7a09 	vmul.f32	s15, s0, s18
 80091fe:	2600      	movs	r6, #0
 8009200:	ee17 0a90 	vmov	r0, s15
 8009204:	f7f7 f96c 	bl	80004e0 <__aeabi_f2d>
 8009208:	2700      	movs	r7, #0
 800920a:	4604      	mov	r4, r0
 800920c:	460d      	mov	r5, r1
 800920e:	4630      	mov	r0, r6
 8009210:	4639      	mov	r1, r7
 8009212:	f7fd bf21 	b.w	8007058 <Reinitialize+0x1e90>
 8009216:	e9dd 2304 	ldrd	r2, r3, [sp, #16]
 800921a:	2000      	movs	r0, #0
 800921c:	2100      	movs	r1, #0
 800921e:	f7f6 ffff 	bl	8000220 <__aeabi_dsub>
 8009222:	4622      	mov	r2, r4
 8009224:	462b      	mov	r3, r5
 8009226:	f7f7 f9b3 	bl	8000590 <__aeabi_dmul>
 800922a:	eeb0 0a69 	vmov.f32	s0, s19
 800922e:	e9cd 010c 	strd	r0, r1, [sp, #48]	@ 0x30
 8009232:	f005 f8cf 	bl	800e3d4 <SPE_cos_H96e4298bd9675fbbcb46b0c1f68b039a5627ebc5_cb4a8a449b4ada864625ee5a4355578a3aaf08ed>
 8009236:	ee69 7a00 	vmul.f32	s15, s18, s0
 800923a:	2600      	movs	r6, #0
 800923c:	ee17 0a90 	vmov	r0, s15
 8009240:	f7f7 f94e 	bl	80004e0 <__aeabi_f2d>
 8009244:	2700      	movs	r7, #0
 8009246:	e9cd 010e 	strd	r0, r1, [sp, #56]	@ 0x38
 800924a:	46b0      	mov	r8, r6
 800924c:	46b9      	mov	r9, r7
 800924e:	f7fd be3c 	b.w	8006eca <Reinitialize+0x1d02>
 8009252:	9b12      	ldr	r3, [sp, #72]	@ 0x48
 8009254:	eddd 7a16 	vldr	s15, [sp, #88]	@ 0x58
 8009258:	eddd 5a17 	vldr	s11, [sp, #92]	@ 0x5c
 800925c:	9913      	ldr	r1, [sp, #76]	@ 0x4c
 800925e:	9a14      	ldr	r2, [sp, #80]	@ 0x50
 8009260:	f8ca 3234 	str.w	r3, [sl, #564]	@ 0x234
 8009264:	9b15      	ldr	r3, [sp, #84]	@ 0x54
 8009266:	f8ca 1230 	str.w	r1, [sl, #560]	@ 0x230
 800926a:	f8ca 2238 	str.w	r2, [sl, #568]	@ 0x238
 800926e:	f8ca 323c 	str.w	r3, [sl, #572]	@ 0x23c
 8009272:	edca 7a89 	vstr	s15, [sl, #548]	@ 0x224
 8009276:	edca 5a8a 	vstr	s11, [sl, #552]	@ 0x228
 800927a:	f7ff b91d 	b.w	80084b8 <Reinitialize+0x32f0>
 800927e:	bf00      	nop
 8009280:	3ff00000 	.word	0x3ff00000

08009284 <Startup_H96e4298bd9675fbbcb46b0c1f68b039a5627ebc5_cb4a8a449b4ada864625ee5a4355578a3aaf08ed>:
 8009284:	f8df c184 	ldr.w	ip, [pc, #388]	@ 800940c <Startup_H96e4298bd9675fbbcb46b0c1f68b039a5627ebc5_cb4a8a449b4ada864625ee5a4355578a3aaf08ed+0x188>
 8009288:	4a55      	ldr	r2, [pc, #340]	@ (80093e0 <Startup_H96e4298bd9675fbbcb46b0c1f68b039a5627ebc5_cb4a8a449b4ada864625ee5a4355578a3aaf08ed+0x15c>)
 800928a:	4956      	ldr	r1, [pc, #344]	@ (80093e4 <Startup_H96e4298bd9675fbbcb46b0c1f68b039a5627ebc5_cb4a8a449b4ada864625ee5a4355578a3aaf08ed+0x160>)
 800928c:	eddf 5a56 	vldr	s11, [pc, #344]	@ 80093e8 <Startup_H96e4298bd9675fbbcb46b0c1f68b039a5627ebc5_cb4a8a449b4ada864625ee5a4355578a3aaf08ed+0x164>
 8009290:	ed9f 6a56 	vldr	s12, [pc, #344]	@ 80093ec <Startup_H96e4298bd9675fbbcb46b0c1f68b039a5627ebc5_cb4a8a449b4ada864625ee5a4355578a3aaf08ed+0x168>
 8009294:	eddf 6a56 	vldr	s13, [pc, #344]	@ 80093f0 <Startup_H96e4298bd9675fbbcb46b0c1f68b039a5627ebc5_cb4a8a449b4ada864625ee5a4355578a3aaf08ed+0x16c>
 8009298:	ed9f 7a56 	vldr	s14, [pc, #344]	@ 80093f4 <Startup_H96e4298bd9675fbbcb46b0c1f68b039a5627ebc5_cb4a8a449b4ada864625ee5a4355578a3aaf08ed+0x170>
 800929c:	eddf 7a56 	vldr	s15, [pc, #344]	@ 80093f8 <Startup_H96e4298bd9675fbbcb46b0c1f68b039a5627ebc5_cb4a8a449b4ada864625ee5a4355578a3aaf08ed+0x174>
 80092a0:	b538      	push	{r3, r4, r5, lr}
 80092a2:	f8c0 c164 	str.w	ip, [r0, #356]	@ 0x164
 80092a6:	f8df c168 	ldr.w	ip, [pc, #360]	@ 8009410 <Startup_H96e4298bd9675fbbcb46b0c1f68b039a5627ebc5_cb4a8a449b4ada864625ee5a4355578a3aaf08ed+0x18c>
 80092aa:	f8c0 c170 	str.w	ip, [r0, #368]	@ 0x170
 80092ae:	f8df c164 	ldr.w	ip, [pc, #356]	@ 8009414 <Startup_H96e4298bd9675fbbcb46b0c1f68b039a5627ebc5_cb4a8a449b4ada864625ee5a4355578a3aaf08ed+0x190>
 80092b2:	f8c0 c138 	str.w	ip, [r0, #312]	@ 0x138
 80092b6:	f8df c160 	ldr.w	ip, [pc, #352]	@ 8009418 <Startup_H96e4298bd9675fbbcb46b0c1f68b039a5627ebc5_cb4a8a449b4ada864625ee5a4355578a3aaf08ed+0x194>
 80092ba:	f8c0 c134 	str.w	ip, [r0, #308]	@ 0x134
 80092be:	f8df c15c 	ldr.w	ip, [pc, #348]	@ 800941c <Startup_H96e4298bd9675fbbcb46b0c1f68b039a5627ebc5_cb4a8a449b4ada864625ee5a4355578a3aaf08ed+0x198>
 80092c2:	f8c0 c15c 	str.w	ip, [r0, #348]	@ 0x15c
 80092c6:	f8df c158 	ldr.w	ip, [pc, #344]	@ 8009420 <Startup_H96e4298bd9675fbbcb46b0c1f68b039a5627ebc5_cb4a8a449b4ada864625ee5a4355578a3aaf08ed+0x19c>
 80092ca:	f8c0 c178 	str.w	ip, [r0, #376]	@ 0x178
 80092ce:	f8df c154 	ldr.w	ip, [pc, #340]	@ 8009424 <Startup_H96e4298bd9675fbbcb46b0c1f68b039a5627ebc5_cb4a8a449b4ada864625ee5a4355578a3aaf08ed+0x1a0>
 80092d2:	f8c0 c168 	str.w	ip, [r0, #360]	@ 0x168
 80092d6:	f8df c150 	ldr.w	ip, [pc, #336]	@ 8009428 <Startup_H96e4298bd9675fbbcb46b0c1f68b039a5627ebc5_cb4a8a449b4ada864625ee5a4355578a3aaf08ed+0x1a4>
 80092da:	f8c0 c154 	str.w	ip, [r0, #340]	@ 0x154
 80092de:	f8df c14c 	ldr.w	ip, [pc, #332]	@ 800942c <Startup_H96e4298bd9675fbbcb46b0c1f68b039a5627ebc5_cb4a8a449b4ada864625ee5a4355578a3aaf08ed+0x1a8>
 80092e2:	f8c0 c17c 	str.w	ip, [r0, #380]	@ 0x17c
 80092e6:	f8df c148 	ldr.w	ip, [pc, #328]	@ 8009430 <Startup_H96e4298bd9675fbbcb46b0c1f68b039a5627ebc5_cb4a8a449b4ada864625ee5a4355578a3aaf08ed+0x1ac>
 80092ea:	f8c0 c16c 	str.w	ip, [r0, #364]	@ 0x16c
 80092ee:	f8df c144 	ldr.w	ip, [pc, #324]	@ 8009434 <Startup_H96e4298bd9675fbbcb46b0c1f68b039a5627ebc5_cb4a8a449b4ada864625ee5a4355578a3aaf08ed+0x1b0>
 80092f2:	f8c0 c158 	str.w	ip, [r0, #344]	@ 0x158
 80092f6:	f8df c140 	ldr.w	ip, [pc, #320]	@ 8009438 <Startup_H96e4298bd9675fbbcb46b0c1f68b039a5627ebc5_cb4a8a449b4ada864625ee5a4355578a3aaf08ed+0x1b4>
 80092fa:	f8c0 c1a0 	str.w	ip, [r0, #416]	@ 0x1a0
 80092fe:	f8df c13c 	ldr.w	ip, [pc, #316]	@ 800943c <Startup_H96e4298bd9675fbbcb46b0c1f68b039a5627ebc5_cb4a8a449b4ada864625ee5a4355578a3aaf08ed+0x1b8>
 8009302:	f8c0 c1b0 	str.w	ip, [r0, #432]	@ 0x1b0
 8009306:	4b3d      	ldr	r3, [pc, #244]	@ (80093fc <Startup_H96e4298bd9675fbbcb46b0c1f68b039a5627ebc5_cb4a8a449b4ada864625ee5a4355578a3aaf08ed+0x178>)
 8009308:	f8df c134 	ldr.w	ip, [pc, #308]	@ 8009440 <Startup_H96e4298bd9675fbbcb46b0c1f68b039a5627ebc5_cb4a8a449b4ada864625ee5a4355578a3aaf08ed+0x1bc>
 800930c:	f8c0 c140 	str.w	ip, [r0, #320]	@ 0x140
 8009310:	f8df c130 	ldr.w	ip, [pc, #304]	@ 8009444 <Startup_H96e4298bd9675fbbcb46b0c1f68b039a5627ebc5_cb4a8a449b4ada864625ee5a4355578a3aaf08ed+0x1c0>
 8009314:	681b      	ldr	r3, [r3, #0]
 8009316:	f8c0 c124 	str.w	ip, [r0, #292]	@ 0x124
 800931a:	f8df c12c 	ldr.w	ip, [pc, #300]	@ 8009448 <Startup_H96e4298bd9675fbbcb46b0c1f68b039a5627ebc5_cb4a8a449b4ada864625ee5a4355578a3aaf08ed+0x1c4>
 800931e:	f8c0 3244 	str.w	r3, [r0, #580]	@ 0x244
 8009322:	2500      	movs	r5, #0
 8009324:	f04f 537e 	mov.w	r3, #1065353216	@ 0x3f800000
 8009328:	f8c0 21d4 	str.w	r2, [r0, #468]	@ 0x1d4
 800932c:	f8c0 c144 	str.w	ip, [r0, #324]	@ 0x144
 8009330:	4a33      	ldr	r2, [pc, #204]	@ (8009400 <Startup_H96e4298bd9675fbbcb46b0c1f68b039a5627ebc5_cb4a8a449b4ada864625ee5a4355578a3aaf08ed+0x17c>)
 8009332:	f8c0 c13c 	str.w	ip, [r0, #316]	@ 0x13c
 8009336:	f04f 5c7a 	mov.w	ip, #1048576000	@ 0x3e800000
 800933a:	f8df e110 	ldr.w	lr, [pc, #272]	@ 800944c <Startup_H96e4298bd9675fbbcb46b0c1f68b039a5627ebc5_cb4a8a449b4ada864625ee5a4355578a3aaf08ed+0x1c8>
 800933e:	f8c0 51a8 	str.w	r5, [r0, #424]	@ 0x1a8
 8009342:	f8c0 31c0 	str.w	r3, [r0, #448]	@ 0x1c0
 8009346:	f8c0 312c 	str.w	r3, [r0, #300]	@ 0x12c
 800934a:	f8c0 3130 	str.w	r3, [r0, #304]	@ 0x130
 800934e:	f8c0 3150 	str.w	r3, [r0, #336]	@ 0x150
 8009352:	f8c0 31cc 	str.w	r3, [r0, #460]	@ 0x1cc
 8009356:	f8c0 31d0 	str.w	r3, [r0, #464]	@ 0x1d0
 800935a:	f8c0 51ac 	str.w	r5, [r0, #428]	@ 0x1ac
 800935e:	f8c0 2160 	str.w	r2, [r0, #352]	@ 0x160
 8009362:	f8c0 1148 	str.w	r1, [r0, #328]	@ 0x148
 8009366:	f8c0 c174 	str.w	ip, [r0, #372]	@ 0x174
 800936a:	f04f 4c82 	mov.w	ip, #1090519040	@ 0x41000000
 800936e:	f8c0 3128 	str.w	r3, [r0, #296]	@ 0x128
 8009372:	f8c0 2120 	str.w	r2, [r0, #288]	@ 0x120
 8009376:	f8c0 21b8 	str.w	r2, [r0, #440]	@ 0x1b8
 800937a:	f8c0 21bc 	str.w	r2, [r0, #444]	@ 0x1bc
 800937e:	6243      	str	r3, [r0, #36]	@ 0x24
 8009380:	4a20      	ldr	r2, [pc, #128]	@ (8009404 <Startup_H96e4298bd9675fbbcb46b0c1f68b039a5627ebc5_cb4a8a449b4ada864625ee5a4355578a3aaf08ed+0x180>)
 8009382:	4b21      	ldr	r3, [pc, #132]	@ (8009408 <Startup_H96e4298bd9675fbbcb46b0c1f68b039a5627ebc5_cb4a8a449b4ada864625ee5a4355578a3aaf08ed+0x184>)
 8009384:	f8c0 e1c8 	str.w	lr, [r0, #456]	@ 0x1c8
 8009388:	4604      	mov	r4, r0
 800938a:	f8c0 5198 	str.w	r5, [r0, #408]	@ 0x198
 800938e:	f8c0 5190 	str.w	r5, [r0, #400]	@ 0x190
 8009392:	f8c0 5194 	str.w	r5, [r0, #404]	@ 0x194
 8009396:	f8c0 5188 	str.w	r5, [r0, #392]	@ 0x188
 800939a:	f8c0 5180 	str.w	r5, [r0, #384]	@ 0x180
 800939e:	f8c0 5184 	str.w	r5, [r0, #388]	@ 0x184
 80093a2:	f8c0 51c4 	str.w	r5, [r0, #452]	@ 0x1c4
 80093a6:	6203      	str	r3, [r0, #32]
 80093a8:	f8c0 c14c 	str.w	ip, [r0, #332]	@ 0x14c
 80093ac:	edc0 5a47 	vstr	s11, [r0, #284]	@ 0x11c
 80093b0:	ed80 6a46 	vstr	s12, [r0, #280]	@ 0x118
 80093b4:	edc0 6a69 	vstr	s13, [r0, #420]	@ 0x1a4
 80093b8:	ed80 7a67 	vstr	s14, [r0, #412]	@ 0x19c
 80093bc:	edc0 7a63 	vstr	s15, [r0, #396]	@ 0x18c
 80093c0:	f8c0 11b4 	str.w	r1, [r0, #436]	@ 0x1b4
 80093c4:	6282      	str	r2, [r0, #40]	@ 0x28
 80093c6:	f7fb fc83 	bl	8004cd0 <Recalibrate>
 80093ca:	2300      	movs	r3, #0
 80093cc:	70a3      	strb	r3, [r4, #2]
 80093ce:	8023      	strh	r3, [r4, #0]
 80093d0:	6065      	str	r5, [r4, #4]
 80093d2:	60a5      	str	r5, [r4, #8]
 80093d4:	4620      	mov	r0, r4
 80093d6:	e8bd 4038 	ldmia.w	sp!, {r3, r4, r5, lr}
 80093da:	f7fb bef5 	b.w	80051c8 <Reinitialize>
 80093de:	bf00      	nop
 80093e0:	3951b717 	.word	0x3951b717
 80093e4:	4f045283 	.word	0x4f045283
 80093e8:	4e66c574 	.word	0x4e66c574
 80093ec:	4eee2e1f 	.word	0x4eee2e1f
 80093f0:	42700000 	.word	0x42700000
 80093f4:	3d2b96d5 	.word	0x3d2b96d5
 80093f8:	3cb88127 	.word	0x3cb88127
 80093fc:	0800f8b8 	.word	0x0800f8b8
 8009400:	48c35000 	.word	0x48c35000
 8009404:	41200000 	.word	0x41200000
 8009408:	41f00000 	.word	0x41f00000
 800940c:	3b449ba6 	.word	0x3b449ba6
 8009410:	3e6b851f 	.word	0x3e6b851f
 8009414:	3c75c28f 	.word	0x3c75c28f
 8009418:	3dcccccd 	.word	0x3dcccccd
 800941c:	3b03126f 	.word	0x3b03126f
 8009420:	3fe7ae14 	.word	0x3fe7ae14
 8009424:	3e99999a 	.word	0x3e99999a
 8009428:	3cf5c28f 	.word	0x3cf5c28f
 800942c:	3fe147ae 	.word	0x3fe147ae
 8009430:	3f266666 	.word	0x3f266666
 8009434:	3d8f5c29 	.word	0x3d8f5c29
 8009438:	4cbebc20 	.word	0x4cbebc20
 800943c:	3f669b7c 	.word	0x3f669b7c
 8009440:	c0cccccd 	.word	0xc0cccccd
 8009444:	3efd4654 	.word	0x3efd4654
 8009448:	40e00000 	.word	0x40e00000
 800944c:	3e19999a 	.word	0x3e19999a

08009450 <DoStep_H96e4298bd9675fbbcb46b0c1f68b039a5627ebc5_cb4a8a449b4ada864625ee5a4355578a3aaf08ed>:
 8009450:	e92d 4ff0 	stmdb	sp!, {r4, r5, r6, r7, r8, r9, sl, fp, lr}
 8009454:	ed2d 8b10 	vpush	{d8-d15}
 8009458:	4ae8      	ldr	r2, [pc, #928]	@ (80097fc <DoStep_H96e4298bd9675fbbcb46b0c1f68b039a5627ebc5_cb4a8a449b4ada864625ee5a4355578a3aaf08ed+0x3ac>)
 800945a:	f890 3240 	ldrb.w	r3, [r0, #576]	@ 0x240
 800945e:	6812      	ldr	r2, [r2, #0]
 8009460:	b0c7      	sub	sp, #284	@ 0x11c
 8009462:	4682      	mov	sl, r0
 8009464:	920e      	str	r2, [sp, #56]	@ 0x38
 8009466:	f8c0 2244 	str.w	r2, [r0, #580]	@ 0x244
 800946a:	2b00      	cmp	r3, #0
 800946c:	d05b      	beq.n	8009526 <DoStep_H96e4298bd9675fbbcb46b0c1f68b039a5627ebc5_cb4a8a449b4ada864625ee5a4355578a3aaf08ed+0xd6>
 800946e:	edd0 7a75 	vldr	s15, [r0, #468]	@ 0x1d4
 8009472:	ed90 6a79 	vldr	s12, [r0, #484]	@ 0x1e4
 8009476:	edd0 6a7a 	vldr	s13, [r0, #488]	@ 0x1e8
 800947a:	ed90 7a81 	vldr	s14, [r0, #516]	@ 0x204
 800947e:	ed90 3a7c 	vldr	s6, [r0, #496]	@ 0x1f0
 8009482:	edd0 3a7d 	vldr	s7, [r0, #500]	@ 0x1f4
 8009486:	ed90 0a78 	vldr	s0, [r0, #480]	@ 0x1e0
 800948a:	edd0 0a80 	vldr	s1, [r0, #512]	@ 0x200
 800948e:	ed90 1a82 	vldr	s2, [r0, #520]	@ 0x208
 8009492:	edd0 1a83 	vldr	s3, [r0, #524]	@ 0x20c
 8009496:	ed90 2a7e 	vldr	s4, [r0, #504]	@ 0x1f8
 800949a:	edd0 2a7f 	vldr	s5, [r0, #508]	@ 0x1fc
 800949e:	ed90 4a7b 	vldr	s8, [r0, #492]	@ 0x1ec
 80094a2:	edd0 4a86 	vldr	s9, [r0, #536]	@ 0x218
 80094a6:	ed90 5a88 	vldr	s10, [r0, #544]	@ 0x220
 80094aa:	edd0 5a8b 	vldr	s11, [r0, #556]	@ 0x22c
 80094ae:	ee27 6a86 	vmul.f32	s12, s15, s12
 80094b2:	ee67 6aa6 	vmul.f32	s13, s15, s13
 80094b6:	ee27 0a80 	vmul.f32	s0, s15, s0
 80094ba:	ee67 0aa0 	vmul.f32	s1, s15, s1
 80094be:	ee27 1a81 	vmul.f32	s2, s15, s2
 80094c2:	ee67 1aa1 	vmul.f32	s3, s15, s3
 80094c6:	ee27 2a82 	vmul.f32	s4, s15, s4
 80094ca:	ee67 2aa2 	vmul.f32	s5, s15, s5
 80094ce:	ee33 3a06 	vadd.f32	s6, s6, s12
 80094d2:	ee67 7a87 	vmul.f32	s15, s15, s14
 80094d6:	ee73 3aa6 	vadd.f32	s7, s7, s13
 80094da:	ed90 7a87 	vldr	s14, [r0, #540]	@ 0x21c
 80094de:	ed90 6a84 	vldr	s12, [r0, #528]	@ 0x210
 80094e2:	edd0 6a85 	vldr	s13, [r0, #532]	@ 0x214
 80094e6:	ed80 3a7c 	vstr	s6, [r0, #496]	@ 0x1f0
 80094ea:	ee34 4a00 	vadd.f32	s8, s8, s0
 80094ee:	ee74 4aa0 	vadd.f32	s9, s9, s1
 80094f2:	ee35 5a01 	vadd.f32	s10, s10, s2
 80094f6:	ee75 5aa1 	vadd.f32	s11, s11, s3
 80094fa:	ee36 6a02 	vadd.f32	s12, s12, s4
 80094fe:	ee76 6aa2 	vadd.f32	s13, s13, s5
 8009502:	ee77 7a27 	vadd.f32	s15, s14, s15
 8009506:	edc0 3a7d 	vstr	s7, [r0, #500]	@ 0x1f4
 800950a:	ed80 4a7b 	vstr	s8, [r0, #492]	@ 0x1ec
 800950e:	edc0 4a86 	vstr	s9, [r0, #536]	@ 0x218
 8009512:	ed80 5a88 	vstr	s10, [r0, #544]	@ 0x220
 8009516:	edc0 5a8b 	vstr	s11, [r0, #556]	@ 0x22c
 800951a:	ed80 6a84 	vstr	s12, [r0, #528]	@ 0x210
 800951e:	edc0 6a85 	vstr	s13, [r0, #532]	@ 0x214
 8009522:	edc0 7a87 	vstr	s15, [r0, #540]	@ 0x21c
 8009526:	f89a 3001 	ldrb.w	r3, [sl, #1]
 800952a:	2b00      	cmp	r3, #0
 800952c:	f000 8389 	beq.w	8009c42 <DoStep_H96e4298bd9675fbbcb46b0c1f68b039a5627ebc5_cb4a8a449b4ada864625ee5a4355578a3aaf08ed+0x7f2>
 8009530:	eeb0 0a00 	vmov.f32	s0, #0	@ 0x40000000  2.0
 8009534:	f50a 7311 	add.w	r3, sl, #580	@ 0x244
 8009538:	4618      	mov	r0, r3
 800953a:	eef7 0a00 	vmov.f32	s1, #112	@ 0x3f800000  1.0
 800953e:	9309      	str	r3, [sp, #36]	@ 0x24
 8009540:	f004 ff16 	bl	800e370 <SPE_greater_H96e4298bd9675fbbcb46b0c1f68b039a5627ebc5_cb4a8a449b4ada864625ee5a4355578a3aaf08ed>
 8009544:	f89a 3002 	ldrb.w	r3, [sl, #2]
 8009548:	9004      	str	r0, [sp, #16]
 800954a:	2b00      	cmp	r3, #0
 800954c:	f003 8660 	beq.w	800d210 <DoStep_H96e4298bd9675fbbcb46b0c1f68b039a5627ebc5_cb4a8a449b4ada864625ee5a4355578a3aaf08ed+0x3dc0>
 8009550:	eeb0 0a00 	vmov.f32	s0, #0	@ 0x40000000  2.0
 8009554:	eef7 0a00 	vmov.f32	s1, #112	@ 0x3f800000  1.0
 8009558:	9809      	ldr	r0, [sp, #36]	@ 0x24
 800955a:	f004 ff09 	bl	800e370 <SPE_greater_H96e4298bd9675fbbcb46b0c1f68b039a5627ebc5_cb4a8a449b4ada864625ee5a4355578a3aaf08ed>
 800955e:	ed9a 0a6a 	vldr	s0, [sl, #424]	@ 0x1a8
 8009562:	ed9a 9a01 	vldr	s18, [sl, #4]
 8009566:	9008      	str	r0, [sp, #32]
 8009568:	f004 ff34 	bl	800e3d4 <SPE_cos_H96e4298bd9675fbbcb46b0c1f68b039a5627ebc5_cb4a8a449b4ada864625ee5a4355578a3aaf08ed>
 800956c:	f89a 3000 	ldrb.w	r3, [sl]
 8009570:	ee29 9a00 	vmul.f32	s18, s18, s0
 8009574:	2b00      	cmp	r3, #0
 8009576:	f003 8647 	beq.w	800d208 <DoStep_H96e4298bd9675fbbcb46b0c1f68b039a5627ebc5_cb4a8a449b4ada864625ee5a4355578a3aaf08ed+0x3db8>
 800957a:	eeb0 0a00 	vmov.f32	s0, #0	@ 0x40000000  2.0
 800957e:	eef7 0a00 	vmov.f32	s1, #112	@ 0x3f800000  1.0
 8009582:	9809      	ldr	r0, [sp, #36]	@ 0x24
 8009584:	ed9f aa9e 	vldr	s20, [pc, #632]	@ 8009800 <DoStep_H96e4298bd9675fbbcb46b0c1f68b039a5627ebc5_cb4a8a449b4ada864625ee5a4355578a3aaf08ed+0x3b0>
 8009588:	f004 fef2 	bl	800e370 <SPE_greater_H96e4298bd9675fbbcb46b0c1f68b039a5627ebc5_cb4a8a449b4ada864625ee5a4355578a3aaf08ed>
 800958c:	ed9a 0a6a 	vldr	s0, [sl, #424]	@ 0x1a8
 8009590:	edda 9a01 	vldr	s19, [sl, #4]
 8009594:	4683      	mov	fp, r0
 8009596:	f004 ff1b 	bl	800e3d0 <SPE_sin_H96e4298bd9675fbbcb46b0c1f68b039a5627ebc5_cb4a8a449b4ada864625ee5a4355578a3aaf08ed>
 800959a:	edda 7a44 	vldr	s15, [sl, #272]	@ 0x110
 800959e:	ed9a 7a43 	vldr	s14, [sl, #268]	@ 0x10c
 80095a2:	ed9a 8a70 	vldr	s16, [sl, #448]	@ 0x1c0
 80095a6:	ed8d 7a23 	vstr	s14, [sp, #140]	@ 0x8c
 80095aa:	eef0 6a40 	vmov.f32	s13, s0
 80095ae:	eef1 7a67 	vneg.f32	s15, s15
 80095b2:	ed9a 0a84 	vldr	s0, [sl, #528]	@ 0x210
 80095b6:	edda 8a12 	vldr	s17, [sl, #72]	@ 0x48
 80095ba:	edcd 7a22 	vstr	s15, [sp, #136]	@ 0x88
 80095be:	ee27 8a08 	vmul.f32	s16, s14, s16
 80095c2:	ee69 9aa6 	vmul.f32	s19, s19, s13
 80095c6:	ed8d aa24 	vstr	s20, [sp, #144]	@ 0x90
 80095ca:	ed8d aa25 	vstr	s20, [sp, #148]	@ 0x94
 80095ce:	f004 ff01 	bl	800e3d4 <SPE_cos_H96e4298bd9675fbbcb46b0c1f68b039a5627ebc5_cb4a8a449b4ada864625ee5a4355578a3aaf08ed>
 80095d2:	edda 7a44 	vldr	s15, [sl, #272]	@ 0x110
 80095d6:	edda aa70 	vldr	s21, [sl, #448]	@ 0x1c0
 80095da:	ee68 8a80 	vmul.f32	s17, s17, s0
 80095de:	ed9a 0a84 	vldr	s0, [sl, #528]	@ 0x210
 80095e2:	ee6a aaa7 	vmul.f32	s21, s21, s15
 80095e6:	ee68 8a88 	vmul.f32	s17, s17, s16
 80095ea:	ed9a 8a12 	vldr	s16, [sl, #72]	@ 0x48
 80095ee:	f004 feef 	bl	800e3d0 <SPE_sin_H96e4298bd9675fbbcb46b0c1f68b039a5627ebc5_cb4a8a449b4ada864625ee5a4355578a3aaf08ed>
 80095f2:	ee28 8a00 	vmul.f32	s16, s16, s0
 80095f6:	ee28 8a2a 	vmul.f32	s16, s16, s21
 80095fa:	ee78 7ac8 	vsub.f32	s15, s17, s16
 80095fe:	ee17 0a90 	vmov	r0, s15
 8009602:	f7f6 ff6d 	bl	80004e0 <__aeabi_f2d>
 8009606:	ed9a 0a84 	vldr	s0, [sl, #528]	@ 0x210
 800960a:	ed9a 8a19 	vldr	s16, [sl, #100]	@ 0x64
 800960e:	e9cd 0102 	strd	r0, r1, [sp, #8]
 8009612:	f004 fedd 	bl	800e3d0 <SPE_sin_H96e4298bd9675fbbcb46b0c1f68b039a5627ebc5_cb4a8a449b4ada864625ee5a4355578a3aaf08ed>
 8009616:	ee68 7a00 	vmul.f32	s15, s16, s0
 800961a:	ee17 0a90 	vmov	r0, s15
 800961e:	f7f6 ff5f 	bl	80004e0 <__aeabi_f2d>
 8009622:	ed9a 0a70 	vldr	s0, [sl, #448]	@ 0x1c0
 8009626:	e9cd 0106 	strd	r0, r1, [sp, #24]
 800962a:	ee10 0a10 	vmov	r0, s0
 800962e:	ed8d 0a0a 	vstr	s0, [sp, #40]	@ 0x28
 8009632:	f7f6 ff55 	bl	80004e0 <__aeabi_f2d>
 8009636:	4604      	mov	r4, r0
 8009638:	460d      	mov	r5, r1
 800963a:	4622      	mov	r2, r4
 800963c:	462b      	mov	r3, r5
 800963e:	4971      	ldr	r1, [pc, #452]	@ (8009804 <DoStep_H96e4298bd9675fbbcb46b0c1f68b039a5627ebc5_cb4a8a449b4ada864625ee5a4355578a3aaf08ed+0x3b4>)
 8009640:	2000      	movs	r0, #0
 8009642:	f7f7 f8cf 	bl	80007e4 <__aeabi_ddiv>
 8009646:	ed9d 0a0a 	vldr	s0, [sp, #40]	@ 0x28
 800964a:	4680      	mov	r8, r0
 800964c:	4689      	mov	r9, r1
 800964e:	f004 fea1 	bl	800e394 <SPE_ipowSquare_H96e4298bd9675fbbcb46b0c1f68b039a5627ebc5_cb4a8a449b4ada864625ee5a4355578a3aaf08ed>
 8009652:	ee10 0a10 	vmov	r0, s0
 8009656:	f7f6 ff43 	bl	80004e0 <__aeabi_f2d>
 800965a:	f105 4700 	add.w	r7, r5, #2147483648	@ 0x80000000
 800965e:	4602      	mov	r2, r0
 8009660:	460b      	mov	r3, r1
 8009662:	4620      	mov	r0, r4
 8009664:	4639      	mov	r1, r7
 8009666:	f7f7 f8bd 	bl	80007e4 <__aeabi_ddiv>
 800966a:	4642      	mov	r2, r8
 800966c:	464b      	mov	r3, r9
 800966e:	f7f6 fdd9 	bl	8000224 <__adddf3>
 8009672:	e9dd 2306 	ldrd	r2, r3, [sp, #24]
 8009676:	f7f6 ff8b 	bl	8000590 <__aeabi_dmul>
 800967a:	4604      	mov	r4, r0
 800967c:	f8da 0174 	ldr.w	r0, [sl, #372]	@ 0x174
 8009680:	460d      	mov	r5, r1
 8009682:	f7f6 ff2d 	bl	80004e0 <__aeabi_f2d>
 8009686:	4602      	mov	r2, r0
 8009688:	460b      	mov	r3, r1
 800968a:	4620      	mov	r0, r4
 800968c:	4629      	mov	r1, r5
 800968e:	f7f6 ff7f 	bl	8000590 <__aeabi_dmul>
 8009692:	e9dd 2302 	ldrd	r2, r3, [sp, #8]
 8009696:	f7f6 fdc5 	bl	8000224 <__adddf3>
 800969a:	ed9a 0a84 	vldr	s0, [sl, #528]	@ 0x210
 800969e:	ed9a 8a19 	vldr	s16, [sl, #100]	@ 0x64
 80096a2:	e9cd 0106 	strd	r0, r1, [sp, #24]
 80096a6:	f004 fe95 	bl	800e3d4 <SPE_cos_H96e4298bd9675fbbcb46b0c1f68b039a5627ebc5_cb4a8a449b4ada864625ee5a4355578a3aaf08ed>
 80096aa:	ee68 7a00 	vmul.f32	s15, s16, s0
 80096ae:	ee17 0a90 	vmov	r0, s15
 80096b2:	f7f6 ff15 	bl	80004e0 <__aeabi_f2d>
 80096b6:	ed9a 0a70 	vldr	s0, [sl, #448]	@ 0x1c0
 80096ba:	e9cd 0102 	strd	r0, r1, [sp, #8]
 80096be:	ee10 0a10 	vmov	r0, s0
 80096c2:	ed8d 0a0a 	vstr	s0, [sp, #40]	@ 0x28
 80096c6:	f7f6 ff0b 	bl	80004e0 <__aeabi_f2d>
 80096ca:	4604      	mov	r4, r0
 80096cc:	460d      	mov	r5, r1
 80096ce:	4622      	mov	r2, r4
 80096d0:	462b      	mov	r3, r5
 80096d2:	494c      	ldr	r1, [pc, #304]	@ (8009804 <DoStep_H96e4298bd9675fbbcb46b0c1f68b039a5627ebc5_cb4a8a449b4ada864625ee5a4355578a3aaf08ed+0x3b4>)
 80096d4:	2000      	movs	r0, #0
 80096d6:	f7f7 f885 	bl	80007e4 <__aeabi_ddiv>
 80096da:	ed9d 0a0a 	vldr	s0, [sp, #40]	@ 0x28
 80096de:	4680      	mov	r8, r0
 80096e0:	4689      	mov	r9, r1
 80096e2:	f004 fe57 	bl	800e394 <SPE_ipowSquare_H96e4298bd9675fbbcb46b0c1f68b039a5627ebc5_cb4a8a449b4ada864625ee5a4355578a3aaf08ed>
 80096e6:	ee10 0a10 	vmov	r0, s0
 80096ea:	f7f6 fef9 	bl	80004e0 <__aeabi_f2d>
 80096ee:	f105 4700 	add.w	r7, r5, #2147483648	@ 0x80000000
 80096f2:	4602      	mov	r2, r0
 80096f4:	460b      	mov	r3, r1
 80096f6:	4620      	mov	r0, r4
 80096f8:	4639      	mov	r1, r7
 80096fa:	f7f7 f873 	bl	80007e4 <__aeabi_ddiv>
 80096fe:	4642      	mov	r2, r8
 8009700:	464b      	mov	r3, r9
 8009702:	f7f6 fd8f 	bl	8000224 <__adddf3>
 8009706:	e9dd 2302 	ldrd	r2, r3, [sp, #8]
 800970a:	f7f6 ff41 	bl	8000590 <__aeabi_dmul>
 800970e:	4604      	mov	r4, r0
 8009710:	f8da 0164 	ldr.w	r0, [sl, #356]	@ 0x164
 8009714:	460d      	mov	r5, r1
 8009716:	f7f6 fee3 	bl	80004e0 <__aeabi_f2d>
 800971a:	4602      	mov	r2, r0
 800971c:	460b      	mov	r3, r1
 800971e:	4620      	mov	r0, r4
 8009720:	4629      	mov	r1, r5
 8009722:	f7f6 ff35 	bl	8000590 <__aeabi_dmul>
 8009726:	4602      	mov	r2, r0
 8009728:	460b      	mov	r3, r1
 800972a:	e9dd 0106 	ldrd	r0, r1, [sp, #24]
 800972e:	f7f6 fd77 	bl	8000220 <__aeabi_dsub>
 8009732:	f7f7 f93f 	bl	80009b4 <__aeabi_d2f>
 8009736:	edda 7a43 	vldr	s15, [sl, #268]	@ 0x10c
 800973a:	edda 8a70 	vldr	s17, [sl, #448]	@ 0x1c0
 800973e:	ed9a 0a84 	vldr	s0, [sl, #528]	@ 0x210
 8009742:	9026      	str	r0, [sp, #152]	@ 0x98
 8009744:	ee68 8aa7 	vmul.f32	s17, s17, s15
 8009748:	ed9a 8a12 	vldr	s16, [sl, #72]	@ 0x48
 800974c:	f004 fe40 	bl	800e3d0 <SPE_sin_H96e4298bd9675fbbcb46b0c1f68b039a5627ebc5_cb4a8a449b4ada864625ee5a4355578a3aaf08ed>
 8009750:	edda 7a44 	vldr	s15, [sl, #272]	@ 0x110
 8009754:	edda aa70 	vldr	s21, [sl, #448]	@ 0x1c0
 8009758:	ee28 8a00 	vmul.f32	s16, s16, s0
 800975c:	ed9a 0a84 	vldr	s0, [sl, #528]	@ 0x210
 8009760:	ee28 8a28 	vmul.f32	s16, s16, s17
 8009764:	ee6a aaa7 	vmul.f32	s21, s21, s15
 8009768:	edda 8a12 	vldr	s17, [sl, #72]	@ 0x48
 800976c:	f004 fe32 	bl	800e3d4 <SPE_cos_H96e4298bd9675fbbcb46b0c1f68b039a5627ebc5_cb4a8a449b4ada864625ee5a4355578a3aaf08ed>
 8009770:	ee68 8a80 	vmul.f32	s17, s17, s0
 8009774:	ee68 8aaa 	vmul.f32	s17, s17, s21
 8009778:	ee78 7a88 	vadd.f32	s15, s17, s16
 800977c:	ee17 0a90 	vmov	r0, s15
 8009780:	f7f6 feae 	bl	80004e0 <__aeabi_f2d>
 8009784:	ed9a 0a84 	vldr	s0, [sl, #528]	@ 0x210
 8009788:	ed9a 8a19 	vldr	s16, [sl, #100]	@ 0x64
 800978c:	e9cd 0102 	strd	r0, r1, [sp, #8]
 8009790:	f004 fe1e 	bl	800e3d0 <SPE_sin_H96e4298bd9675fbbcb46b0c1f68b039a5627ebc5_cb4a8a449b4ada864625ee5a4355578a3aaf08ed>
 8009794:	ee68 7a00 	vmul.f32	s15, s16, s0
 8009798:	ee17 0a90 	vmov	r0, s15
 800979c:	f7f6 fea0 	bl	80004e0 <__aeabi_f2d>
 80097a0:	ed9a 0a70 	vldr	s0, [sl, #448]	@ 0x1c0
 80097a4:	e9cd 0106 	strd	r0, r1, [sp, #24]
 80097a8:	ee10 0a10 	vmov	r0, s0
 80097ac:	ed8d 0a0a 	vstr	s0, [sp, #40]	@ 0x28
 80097b0:	f7f6 fe96 	bl	80004e0 <__aeabi_f2d>
 80097b4:	4604      	mov	r4, r0
 80097b6:	460d      	mov	r5, r1
 80097b8:	4622      	mov	r2, r4
 80097ba:	462b      	mov	r3, r5
 80097bc:	4911      	ldr	r1, [pc, #68]	@ (8009804 <DoStep_H96e4298bd9675fbbcb46b0c1f68b039a5627ebc5_cb4a8a449b4ada864625ee5a4355578a3aaf08ed+0x3b4>)
 80097be:	2000      	movs	r0, #0
 80097c0:	f7f7 f810 	bl	80007e4 <__aeabi_ddiv>
 80097c4:	ed9d 0a0a 	vldr	s0, [sp, #40]	@ 0x28
 80097c8:	4680      	mov	r8, r0
 80097ca:	4689      	mov	r9, r1
 80097cc:	f004 fde2 	bl	800e394 <SPE_ipowSquare_H96e4298bd9675fbbcb46b0c1f68b039a5627ebc5_cb4a8a449b4ada864625ee5a4355578a3aaf08ed>
 80097d0:	ee10 0a10 	vmov	r0, s0
 80097d4:	f7f6 fe84 	bl	80004e0 <__aeabi_f2d>
 80097d8:	f105 4700 	add.w	r7, r5, #2147483648	@ 0x80000000
 80097dc:	4602      	mov	r2, r0
 80097de:	460b      	mov	r3, r1
 80097e0:	4620      	mov	r0, r4
 80097e2:	4639      	mov	r1, r7
 80097e4:	f7f6 fffe 	bl	80007e4 <__aeabi_ddiv>
 80097e8:	4642      	mov	r2, r8
 80097ea:	464b      	mov	r3, r9
 80097ec:	f7f6 fd1a 	bl	8000224 <__adddf3>
 80097f0:	e9dd 2306 	ldrd	r2, r3, [sp, #24]
 80097f4:	f7f6 fecc 	bl	8000590 <__aeabi_dmul>
 80097f8:	4604      	mov	r4, r0
 80097fa:	e005      	b.n	8009808 <DoStep_H96e4298bd9675fbbcb46b0c1f68b039a5627ebc5_cb4a8a449b4ada864625ee5a4355578a3aaf08ed+0x3b8>
 80097fc:	0800f8b8 	.word	0x0800f8b8
 8009800:	00000000 	.word	0x00000000
 8009804:	3ff00000 	.word	0x3ff00000
 8009808:	f8da 0164 	ldr.w	r0, [sl, #356]	@ 0x164
 800980c:	460d      	mov	r5, r1
 800980e:	f7f6 fe67 	bl	80004e0 <__aeabi_f2d>
 8009812:	4602      	mov	r2, r0
 8009814:	460b      	mov	r3, r1
 8009816:	4620      	mov	r0, r4
 8009818:	4629      	mov	r1, r5
 800981a:	f7f6 feb9 	bl	8000590 <__aeabi_dmul>
 800981e:	4602      	mov	r2, r0
 8009820:	460b      	mov	r3, r1
 8009822:	e9dd 0102 	ldrd	r0, r1, [sp, #8]
 8009826:	f7f6 fcfb 	bl	8000220 <__aeabi_dsub>
 800982a:	ed9a 0a84 	vldr	s0, [sl, #528]	@ 0x210
 800982e:	ed9a 8a19 	vldr	s16, [sl, #100]	@ 0x64
 8009832:	e9cd 0106 	strd	r0, r1, [sp, #24]
 8009836:	f004 fdcd 	bl	800e3d4 <SPE_cos_H96e4298bd9675fbbcb46b0c1f68b039a5627ebc5_cb4a8a449b4ada864625ee5a4355578a3aaf08ed>
 800983a:	ee68 7a00 	vmul.f32	s15, s16, s0
 800983e:	ee17 0a90 	vmov	r0, s15
 8009842:	f7f6 fe4d 	bl	80004e0 <__aeabi_f2d>
 8009846:	ed9a 0a70 	vldr	s0, [sl, #448]	@ 0x1c0
 800984a:	e9cd 0102 	strd	r0, r1, [sp, #8]
 800984e:	ee10 0a10 	vmov	r0, s0
 8009852:	ed8d 0a0a 	vstr	s0, [sp, #40]	@ 0x28
 8009856:	f7f6 fe43 	bl	80004e0 <__aeabi_f2d>
 800985a:	4604      	mov	r4, r0
 800985c:	460d      	mov	r5, r1
 800985e:	4622      	mov	r2, r4
 8009860:	462b      	mov	r3, r5
 8009862:	49e7      	ldr	r1, [pc, #924]	@ (8009c00 <DoStep_H96e4298bd9675fbbcb46b0c1f68b039a5627ebc5_cb4a8a449b4ada864625ee5a4355578a3aaf08ed+0x7b0>)
 8009864:	2000      	movs	r0, #0
 8009866:	f7f6 ffbd 	bl	80007e4 <__aeabi_ddiv>
 800986a:	ed9d 0a0a 	vldr	s0, [sp, #40]	@ 0x28
 800986e:	4680      	mov	r8, r0
 8009870:	4689      	mov	r9, r1
 8009872:	f004 fd8f 	bl	800e394 <SPE_ipowSquare_H96e4298bd9675fbbcb46b0c1f68b039a5627ebc5_cb4a8a449b4ada864625ee5a4355578a3aaf08ed>
 8009876:	ee10 0a10 	vmov	r0, s0
 800987a:	f7f6 fe31 	bl	80004e0 <__aeabi_f2d>
 800987e:	f105 4700 	add.w	r7, r5, #2147483648	@ 0x80000000
 8009882:	4602      	mov	r2, r0
 8009884:	460b      	mov	r3, r1
 8009886:	4620      	mov	r0, r4
 8009888:	4639      	mov	r1, r7
 800988a:	f7f6 ffab 	bl	80007e4 <__aeabi_ddiv>
 800988e:	4642      	mov	r2, r8
 8009890:	464b      	mov	r3, r9
 8009892:	f7f6 fcc7 	bl	8000224 <__adddf3>
 8009896:	e9dd 2302 	ldrd	r2, r3, [sp, #8]
 800989a:	f7f6 fe79 	bl	8000590 <__aeabi_dmul>
 800989e:	4604      	mov	r4, r0
 80098a0:	f8da 0170 	ldr.w	r0, [sl, #368]	@ 0x170
 80098a4:	460d      	mov	r5, r1
 80098a6:	f7f6 fe1b 	bl	80004e0 <__aeabi_f2d>
 80098aa:	4602      	mov	r2, r0
 80098ac:	460b      	mov	r3, r1
 80098ae:	4620      	mov	r0, r4
 80098b0:	4629      	mov	r1, r5
 80098b2:	f7f6 fe6d 	bl	8000590 <__aeabi_dmul>
 80098b6:	4602      	mov	r2, r0
 80098b8:	460b      	mov	r3, r1
 80098ba:	e9dd 0106 	ldrd	r0, r1, [sp, #24]
 80098be:	f7f6 fcaf 	bl	8000220 <__aeabi_dsub>
 80098c2:	f7f7 f877 	bl	80009b4 <__aeabi_d2f>
 80098c6:	edda 7a44 	vldr	s15, [sl, #272]	@ 0x110
 80098ca:	edda 8a70 	vldr	s17, [sl, #448]	@ 0x1c0
 80098ce:	f8da 310c 	ldr.w	r3, [sl, #268]	@ 0x10c
 80098d2:	ed9a 0a84 	vldr	s0, [sl, #528]	@ 0x210
 80098d6:	9328      	str	r3, [sp, #160]	@ 0xa0
 80098d8:	ee67 8aa8 	vmul.f32	s17, s15, s17
 80098dc:	9027      	str	r0, [sp, #156]	@ 0x9c
 80098de:	ed9a 8a12 	vldr	s16, [sl, #72]	@ 0x48
 80098e2:	edcd 7a29 	vstr	s15, [sp, #164]	@ 0xa4
 80098e6:	ed8d aa2a 	vstr	s20, [sp, #168]	@ 0xa8
 80098ea:	ed8d aa2b 	vstr	s20, [sp, #172]	@ 0xac
 80098ee:	f004 fd71 	bl	800e3d4 <SPE_cos_H96e4298bd9675fbbcb46b0c1f68b039a5627ebc5_cb4a8a449b4ada864625ee5a4355578a3aaf08ed>
 80098f2:	edda 7a43 	vldr	s15, [sl, #268]	@ 0x10c
 80098f6:	ed9a aa70 	vldr	s20, [sl, #448]	@ 0x1c0
 80098fa:	ee28 8a00 	vmul.f32	s16, s16, s0
 80098fe:	ed9a 0a84 	vldr	s0, [sl, #528]	@ 0x210
 8009902:	ee2a aa27 	vmul.f32	s20, s20, s15
 8009906:	ee28 8a28 	vmul.f32	s16, s16, s17
 800990a:	edda 8a12 	vldr	s17, [sl, #72]	@ 0x48
 800990e:	f004 fd5f 	bl	800e3d0 <SPE_sin_H96e4298bd9675fbbcb46b0c1f68b039a5627ebc5_cb4a8a449b4ada864625ee5a4355578a3aaf08ed>
 8009912:	ee68 8a80 	vmul.f32	s17, s17, s0
 8009916:	ee68 8a8a 	vmul.f32	s17, s17, s20
 800991a:	ee78 7a88 	vadd.f32	s15, s17, s16
 800991e:	ee17 0a90 	vmov	r0, s15
 8009922:	f7f6 fddd 	bl	80004e0 <__aeabi_f2d>
 8009926:	ed9a 0a84 	vldr	s0, [sl, #528]	@ 0x210
 800992a:	ed9a 8a19 	vldr	s16, [sl, #100]	@ 0x64
 800992e:	e9cd 0102 	strd	r0, r1, [sp, #8]
 8009932:	f004 fd4f 	bl	800e3d4 <SPE_cos_H96e4298bd9675fbbcb46b0c1f68b039a5627ebc5_cb4a8a449b4ada864625ee5a4355578a3aaf08ed>
 8009936:	ee68 7a00 	vmul.f32	s15, s16, s0
 800993a:	ee17 0a90 	vmov	r0, s15
 800993e:	f7f6 fdcf 	bl	80004e0 <__aeabi_f2d>
 8009942:	ed9a 0a70 	vldr	s0, [sl, #448]	@ 0x1c0
 8009946:	e9cd 0106 	strd	r0, r1, [sp, #24]
 800994a:	ee10 0a10 	vmov	r0, s0
 800994e:	ed8d 0a0a 	vstr	s0, [sp, #40]	@ 0x28
 8009952:	f7f6 fdc5 	bl	80004e0 <__aeabi_f2d>
 8009956:	4604      	mov	r4, r0
 8009958:	460d      	mov	r5, r1
 800995a:	4622      	mov	r2, r4
 800995c:	462b      	mov	r3, r5
 800995e:	49a8      	ldr	r1, [pc, #672]	@ (8009c00 <DoStep_H96e4298bd9675fbbcb46b0c1f68b039a5627ebc5_cb4a8a449b4ada864625ee5a4355578a3aaf08ed+0x7b0>)
 8009960:	2000      	movs	r0, #0
 8009962:	f7f6 ff3f 	bl	80007e4 <__aeabi_ddiv>
 8009966:	ed9d 0a0a 	vldr	s0, [sp, #40]	@ 0x28
 800996a:	4680      	mov	r8, r0
 800996c:	4689      	mov	r9, r1
 800996e:	f004 fd11 	bl	800e394 <SPE_ipowSquare_H96e4298bd9675fbbcb46b0c1f68b039a5627ebc5_cb4a8a449b4ada864625ee5a4355578a3aaf08ed>
 8009972:	ee10 0a10 	vmov	r0, s0
 8009976:	f7f6 fdb3 	bl	80004e0 <__aeabi_f2d>
 800997a:	f105 4700 	add.w	r7, r5, #2147483648	@ 0x80000000
 800997e:	4602      	mov	r2, r0
 8009980:	460b      	mov	r3, r1
 8009982:	4620      	mov	r0, r4
 8009984:	4639      	mov	r1, r7
 8009986:	f7f6 ff2d 	bl	80007e4 <__aeabi_ddiv>
 800998a:	4642      	mov	r2, r8
 800998c:	464b      	mov	r3, r9
 800998e:	f7f6 fc49 	bl	8000224 <__adddf3>
 8009992:	e9dd 2306 	ldrd	r2, r3, [sp, #24]
 8009996:	f7f6 fdfb 	bl	8000590 <__aeabi_dmul>
 800999a:	4604      	mov	r4, r0
 800999c:	f8da 0174 	ldr.w	r0, [sl, #372]	@ 0x174
 80099a0:	460d      	mov	r5, r1
 80099a2:	f7f6 fd9d 	bl	80004e0 <__aeabi_f2d>
 80099a6:	4602      	mov	r2, r0
 80099a8:	460b      	mov	r3, r1
 80099aa:	4620      	mov	r0, r4
 80099ac:	4629      	mov	r1, r5
 80099ae:	f7f6 fdef 	bl	8000590 <__aeabi_dmul>
 80099b2:	4602      	mov	r2, r0
 80099b4:	460b      	mov	r3, r1
 80099b6:	e9dd 0102 	ldrd	r0, r1, [sp, #8]
 80099ba:	f7f6 fc31 	bl	8000220 <__aeabi_dsub>
 80099be:	ed9a 0a84 	vldr	s0, [sl, #528]	@ 0x210
 80099c2:	ed9a 8a19 	vldr	s16, [sl, #100]	@ 0x64
 80099c6:	e9cd 0106 	strd	r0, r1, [sp, #24]
 80099ca:	f004 fd01 	bl	800e3d0 <SPE_sin_H96e4298bd9675fbbcb46b0c1f68b039a5627ebc5_cb4a8a449b4ada864625ee5a4355578a3aaf08ed>
 80099ce:	ee68 7a00 	vmul.f32	s15, s16, s0
 80099d2:	ee17 0a90 	vmov	r0, s15
 80099d6:	f7f6 fd83 	bl	80004e0 <__aeabi_f2d>
 80099da:	ed9a 0a70 	vldr	s0, [sl, #448]	@ 0x1c0
 80099de:	e9cd 0102 	strd	r0, r1, [sp, #8]
 80099e2:	ee10 0a10 	vmov	r0, s0
 80099e6:	ed8d 0a0a 	vstr	s0, [sp, #40]	@ 0x28
 80099ea:	f7f6 fd79 	bl	80004e0 <__aeabi_f2d>
 80099ee:	4604      	mov	r4, r0
 80099f0:	460d      	mov	r5, r1
 80099f2:	4622      	mov	r2, r4
 80099f4:	462b      	mov	r3, r5
 80099f6:	4982      	ldr	r1, [pc, #520]	@ (8009c00 <DoStep_H96e4298bd9675fbbcb46b0c1f68b039a5627ebc5_cb4a8a449b4ada864625ee5a4355578a3aaf08ed+0x7b0>)
 80099f8:	2000      	movs	r0, #0
 80099fa:	f7f6 fef3 	bl	80007e4 <__aeabi_ddiv>
 80099fe:	ed9d 0a0a 	vldr	s0, [sp, #40]	@ 0x28
 8009a02:	4680      	mov	r8, r0
 8009a04:	4689      	mov	r9, r1
 8009a06:	f004 fcc5 	bl	800e394 <SPE_ipowSquare_H96e4298bd9675fbbcb46b0c1f68b039a5627ebc5_cb4a8a449b4ada864625ee5a4355578a3aaf08ed>
 8009a0a:	ee10 0a10 	vmov	r0, s0
 8009a0e:	f7f6 fd67 	bl	80004e0 <__aeabi_f2d>
 8009a12:	f105 4700 	add.w	r7, r5, #2147483648	@ 0x80000000
 8009a16:	4602      	mov	r2, r0
 8009a18:	460b      	mov	r3, r1
 8009a1a:	4620      	mov	r0, r4
 8009a1c:	4639      	mov	r1, r7
 8009a1e:	f7f6 fee1 	bl	80007e4 <__aeabi_ddiv>
 8009a22:	4642      	mov	r2, r8
 8009a24:	464b      	mov	r3, r9
 8009a26:	f7f6 fbfd 	bl	8000224 <__adddf3>
 8009a2a:	e9dd 2302 	ldrd	r2, r3, [sp, #8]
 8009a2e:	f7f6 fdaf 	bl	8000590 <__aeabi_dmul>
 8009a32:	4604      	mov	r4, r0
 8009a34:	f8da 0164 	ldr.w	r0, [sl, #356]	@ 0x164
 8009a38:	460d      	mov	r5, r1
 8009a3a:	f7f6 fd51 	bl	80004e0 <__aeabi_f2d>
 8009a3e:	4602      	mov	r2, r0
 8009a40:	460b      	mov	r3, r1
 8009a42:	4620      	mov	r0, r4
 8009a44:	4629      	mov	r1, r5
 8009a46:	f7f6 fda3 	bl	8000590 <__aeabi_dmul>
 8009a4a:	4602      	mov	r2, r0
 8009a4c:	460b      	mov	r3, r1
 8009a4e:	e9dd 0106 	ldrd	r0, r1, [sp, #24]
 8009a52:	f7f6 fbe5 	bl	8000220 <__aeabi_dsub>
 8009a56:	f7f6 ffad 	bl	80009b4 <__aeabi_d2f>
 8009a5a:	edda 7a44 	vldr	s15, [sl, #272]	@ 0x110
 8009a5e:	ed9a 8a70 	vldr	s16, [sl, #448]	@ 0x1c0
 8009a62:	ed9a 0a84 	vldr	s0, [sl, #528]	@ 0x210
 8009a66:	902c      	str	r0, [sp, #176]	@ 0xb0
 8009a68:	ee28 8a27 	vmul.f32	s16, s16, s15
 8009a6c:	edda 8a12 	vldr	s17, [sl, #72]	@ 0x48
 8009a70:	f004 fcae 	bl	800e3d0 <SPE_sin_H96e4298bd9675fbbcb46b0c1f68b039a5627ebc5_cb4a8a449b4ada864625ee5a4355578a3aaf08ed>
 8009a74:	edda 7a43 	vldr	s15, [sl, #268]	@ 0x10c
 8009a78:	ed9a aa70 	vldr	s20, [sl, #448]	@ 0x1c0
 8009a7c:	ee68 8a80 	vmul.f32	s17, s17, s0
 8009a80:	ed9a 0a84 	vldr	s0, [sl, #528]	@ 0x210
 8009a84:	ee2a aa27 	vmul.f32	s20, s20, s15
 8009a88:	ee68 8a88 	vmul.f32	s17, s17, s16
 8009a8c:	ed9a 8a12 	vldr	s16, [sl, #72]	@ 0x48
 8009a90:	f004 fca0 	bl	800e3d4 <SPE_cos_H96e4298bd9675fbbcb46b0c1f68b039a5627ebc5_cb4a8a449b4ada864625ee5a4355578a3aaf08ed>
 8009a94:	ee28 8a00 	vmul.f32	s16, s16, s0
 8009a98:	ee28 8a0a 	vmul.f32	s16, s16, s20
 8009a9c:	ee78 7ac8 	vsub.f32	s15, s17, s16
 8009aa0:	ee17 0a90 	vmov	r0, s15
 8009aa4:	f7f6 fd1c 	bl	80004e0 <__aeabi_f2d>
 8009aa8:	ed9a 0a84 	vldr	s0, [sl, #528]	@ 0x210
 8009aac:	ed9a 8a19 	vldr	s16, [sl, #100]	@ 0x64
 8009ab0:	e9cd 0102 	strd	r0, r1, [sp, #8]
 8009ab4:	f004 fc8e 	bl	800e3d4 <SPE_cos_H96e4298bd9675fbbcb46b0c1f68b039a5627ebc5_cb4a8a449b4ada864625ee5a4355578a3aaf08ed>
 8009ab8:	ee68 7a00 	vmul.f32	s15, s16, s0
 8009abc:	ee17 0a90 	vmov	r0, s15
 8009ac0:	f7f6 fd0e 	bl	80004e0 <__aeabi_f2d>
 8009ac4:	ed9a 0a70 	vldr	s0, [sl, #448]	@ 0x1c0
 8009ac8:	e9cd 0106 	strd	r0, r1, [sp, #24]
 8009acc:	ee10 0a10 	vmov	r0, s0
 8009ad0:	ed8d 0a0a 	vstr	s0, [sp, #40]	@ 0x28
 8009ad4:	f7f6 fd04 	bl	80004e0 <__aeabi_f2d>
 8009ad8:	4604      	mov	r4, r0
 8009ada:	460d      	mov	r5, r1
 8009adc:	4622      	mov	r2, r4
 8009ade:	462b      	mov	r3, r5
 8009ae0:	4947      	ldr	r1, [pc, #284]	@ (8009c00 <DoStep_H96e4298bd9675fbbcb46b0c1f68b039a5627ebc5_cb4a8a449b4ada864625ee5a4355578a3aaf08ed+0x7b0>)
 8009ae2:	2000      	movs	r0, #0
 8009ae4:	f7f6 fe7e 	bl	80007e4 <__aeabi_ddiv>
 8009ae8:	ed9d 0a0a 	vldr	s0, [sp, #40]	@ 0x28
 8009aec:	4680      	mov	r8, r0
 8009aee:	4689      	mov	r9, r1
 8009af0:	f004 fc50 	bl	800e394 <SPE_ipowSquare_H96e4298bd9675fbbcb46b0c1f68b039a5627ebc5_cb4a8a449b4ada864625ee5a4355578a3aaf08ed>
 8009af4:	ee10 0a10 	vmov	r0, s0
 8009af8:	f7f6 fcf2 	bl	80004e0 <__aeabi_f2d>
 8009afc:	f105 4700 	add.w	r7, r5, #2147483648	@ 0x80000000
 8009b00:	4602      	mov	r2, r0
 8009b02:	460b      	mov	r3, r1
 8009b04:	4620      	mov	r0, r4
 8009b06:	4639      	mov	r1, r7
 8009b08:	f7f6 fe6c 	bl	80007e4 <__aeabi_ddiv>
 8009b0c:	4642      	mov	r2, r8
 8009b0e:	464b      	mov	r3, r9
 8009b10:	f7f6 fb88 	bl	8000224 <__adddf3>
 8009b14:	e9dd 2306 	ldrd	r2, r3, [sp, #24]
 8009b18:	f7f6 fd3a 	bl	8000590 <__aeabi_dmul>
 8009b1c:	4604      	mov	r4, r0
 8009b1e:	f8da 0164 	ldr.w	r0, [sl, #356]	@ 0x164
 8009b22:	460d      	mov	r5, r1
 8009b24:	f7f6 fcdc 	bl	80004e0 <__aeabi_f2d>
 8009b28:	4602      	mov	r2, r0
 8009b2a:	460b      	mov	r3, r1
 8009b2c:	4620      	mov	r0, r4
 8009b2e:	4629      	mov	r1, r5
 8009b30:	f7f6 fd2e 	bl	8000590 <__aeabi_dmul>
 8009b34:	e9dd 2302 	ldrd	r2, r3, [sp, #8]
 8009b38:	f7f6 fb74 	bl	8000224 <__adddf3>
 8009b3c:	ed9a 0a84 	vldr	s0, [sl, #528]	@ 0x210
 8009b40:	ed9a 8a19 	vldr	s16, [sl, #100]	@ 0x64
 8009b44:	e9cd 0106 	strd	r0, r1, [sp, #24]
 8009b48:	f004 fc42 	bl	800e3d0 <SPE_sin_H96e4298bd9675fbbcb46b0c1f68b039a5627ebc5_cb4a8a449b4ada864625ee5a4355578a3aaf08ed>
 8009b4c:	ee68 7a00 	vmul.f32	s15, s16, s0
 8009b50:	ee17 0a90 	vmov	r0, s15
 8009b54:	f7f6 fcc4 	bl	80004e0 <__aeabi_f2d>
 8009b58:	ed9a 0a70 	vldr	s0, [sl, #448]	@ 0x1c0
 8009b5c:	e9cd 0102 	strd	r0, r1, [sp, #8]
 8009b60:	ee10 0a10 	vmov	r0, s0
 8009b64:	ed8d 0a0a 	vstr	s0, [sp, #40]	@ 0x28
 8009b68:	f7f6 fcba 	bl	80004e0 <__aeabi_f2d>
 8009b6c:	4604      	mov	r4, r0
 8009b6e:	460d      	mov	r5, r1
 8009b70:	4622      	mov	r2, r4
 8009b72:	462b      	mov	r3, r5
 8009b74:	4922      	ldr	r1, [pc, #136]	@ (8009c00 <DoStep_H96e4298bd9675fbbcb46b0c1f68b039a5627ebc5_cb4a8a449b4ada864625ee5a4355578a3aaf08ed+0x7b0>)
 8009b76:	2000      	movs	r0, #0
 8009b78:	f7f6 fe34 	bl	80007e4 <__aeabi_ddiv>
 8009b7c:	ed9d 0a0a 	vldr	s0, [sp, #40]	@ 0x28
 8009b80:	4680      	mov	r8, r0
 8009b82:	4689      	mov	r9, r1
 8009b84:	f004 fc06 	bl	800e394 <SPE_ipowSquare_H96e4298bd9675fbbcb46b0c1f68b039a5627ebc5_cb4a8a449b4ada864625ee5a4355578a3aaf08ed>
 8009b88:	ee10 0a10 	vmov	r0, s0
 8009b8c:	f7f6 fca8 	bl	80004e0 <__aeabi_f2d>
 8009b90:	f105 4700 	add.w	r7, r5, #2147483648	@ 0x80000000
 8009b94:	4602      	mov	r2, r0
 8009b96:	460b      	mov	r3, r1
 8009b98:	4620      	mov	r0, r4
 8009b9a:	4639      	mov	r1, r7
 8009b9c:	f7f6 fe22 	bl	80007e4 <__aeabi_ddiv>
 8009ba0:	4642      	mov	r2, r8
 8009ba2:	464b      	mov	r3, r9
 8009ba4:	f7f6 fb3e 	bl	8000224 <__adddf3>
 8009ba8:	e9dd 2302 	ldrd	r2, r3, [sp, #8]
 8009bac:	f7f6 fcf0 	bl	8000590 <__aeabi_dmul>
 8009bb0:	4604      	mov	r4, r0
 8009bb2:	f8da 0170 	ldr.w	r0, [sl, #368]	@ 0x170
 8009bb6:	460d      	mov	r5, r1
 8009bb8:	f7f6 fc92 	bl	80004e0 <__aeabi_f2d>
 8009bbc:	4602      	mov	r2, r0
 8009bbe:	460b      	mov	r3, r1
 8009bc0:	4620      	mov	r0, r4
 8009bc2:	4629      	mov	r1, r5
 8009bc4:	f7f6 fce4 	bl	8000590 <__aeabi_dmul>
 8009bc8:	460b      	mov	r3, r1
 8009bca:	4602      	mov	r2, r0
 8009bcc:	e9dd 0106 	ldrd	r0, r1, [sp, #24]
 8009bd0:	f7f6 fb26 	bl	8000220 <__aeabi_dsub>
 8009bd4:	f7f6 feee 	bl	80009b4 <__aeabi_d2f>
 8009bd8:	ed9a 8a70 	vldr	s16, [sl, #448]	@ 0x1c0
 8009bdc:	edda 7a43 	vldr	s15, [sl, #268]	@ 0x10c
 8009be0:	902d      	str	r0, [sp, #180]	@ 0xb4
 8009be2:	ee68 7a27 	vmul.f32	s15, s16, s15
 8009be6:	ee17 0a90 	vmov	r0, s15
 8009bea:	f7f6 fc79 	bl	80004e0 <__aeabi_f2d>
 8009bee:	edda 7a44 	vldr	s15, [sl, #272]	@ 0x110
 8009bf2:	ee68 7a27 	vmul.f32	s15, s16, s15
 8009bf6:	4680      	mov	r8, r0
 8009bf8:	ee17 0a90 	vmov	r0, s15
 8009bfc:	e002      	b.n	8009c04 <DoStep_H96e4298bd9675fbbcb46b0c1f68b039a5627ebc5_cb4a8a449b4ada864625ee5a4355578a3aaf08ed+0x7b4>
 8009bfe:	bf00      	nop
 8009c00:	3ff00000 	.word	0x3ff00000
 8009c04:	4689      	mov	r9, r1
 8009c06:	f7f6 fc6b 	bl	80004e0 <__aeabi_f2d>
 8009c0a:	9b04      	ldr	r3, [sp, #16]
 8009c0c:	4606      	mov	r6, r0
 8009c0e:	460f      	mov	r7, r1
 8009c10:	b1f3      	cbz	r3, 8009c50 <DoStep_H96e4298bd9675fbbcb46b0c1f68b039a5627ebc5_cb4a8a449b4ada864625ee5a4355578a3aaf08ed+0x800>
 8009c12:	f04f 4300 	mov.w	r3, #2147483648	@ 0x80000000
 8009c16:	932e      	str	r3, [sp, #184]	@ 0xb8
 8009c18:	9331      	str	r3, [sp, #196]	@ 0xc4
 8009c1a:	4b0b      	ldr	r3, [pc, #44]	@ (8009c48 <DoStep_H96e4298bd9675fbbcb46b0c1f68b039a5627ebc5_cb4a8a449b4ada864625ee5a4355578a3aaf08ed+0x7f8>)
 8009c1c:	932f      	str	r3, [sp, #188]	@ 0xbc
 8009c1e:	9330      	str	r3, [sp, #192]	@ 0xc0
 8009c20:	2200      	movs	r2, #0
 8009c22:	2300      	movs	r3, #0
 8009c24:	f7f6 fcb4 	bl	8000590 <__aeabi_dmul>
 8009c28:	4604      	mov	r4, r0
 8009c2a:	460d      	mov	r5, r1
 8009c2c:	f1bb 0f00 	cmp.w	fp, #0
 8009c30:	f043 8317 	bne.w	800d262 <DoStep_H96e4298bd9675fbbcb46b0c1f68b039a5627ebc5_cb4a8a449b4ada864625ee5a4355578a3aaf08ed+0x3e12>
 8009c34:	2200      	movs	r2, #0
 8009c36:	2300      	movs	r3, #0
 8009c38:	e9cd 2302 	strd	r2, r3, [sp, #8]
 8009c3c:	e9cd 2306 	strd	r2, r3, [sp, #24]
 8009c40:	e06c      	b.n	8009d1c <DoStep_H96e4298bd9675fbbcb46b0c1f68b039a5627ebc5_cb4a8a449b4ada864625ee5a4355578a3aaf08ed+0x8cc>
 8009c42:	ed9f 0a02 	vldr	s0, [pc, #8]	@ 8009c4c <DoStep_H96e4298bd9675fbbcb46b0c1f68b039a5627ebc5_cb4a8a449b4ada864625ee5a4355578a3aaf08ed+0x7fc>
 8009c46:	e475      	b.n	8009534 <DoStep_H96e4298bd9675fbbcb46b0c1f68b039a5627ebc5_cb4a8a449b4ada864625ee5a4355578a3aaf08ed+0xe4>
 8009c48:	bf800000 	.word	0xbf800000
 8009c4c:	00000000 	.word	0x00000000
 8009c50:	edda 8a3a 	vldr	s17, [sl, #232]	@ 0xe8
 8009c54:	ee18 0a90 	vmov	r0, s17
 8009c58:	f7f6 fc42 	bl	80004e0 <__aeabi_f2d>
 8009c5c:	460d      	mov	r5, r1
 8009c5e:	f101 4100 	add.w	r1, r1, #2147483648	@ 0x80000000
 8009c62:	4604      	mov	r4, r0
 8009c64:	f7f6 fea6 	bl	80009b4 <__aeabi_d2f>
 8009c68:	ed9a 8a3b 	vldr	s16, [sl, #236]	@ 0xec
 8009c6c:	edda aa39 	vldr	s21, [sl, #228]	@ 0xe4
 8009c70:	ed9a aa38 	vldr	s20, [sl, #224]	@ 0xe0
 8009c74:	902e      	str	r0, [sp, #184]	@ 0xb8
 8009c76:	ee28 7a2a 	vmul.f32	s14, s16, s21
 8009c7a:	ee68 7a8a 	vmul.f32	s15, s17, s20
 8009c7e:	9031      	str	r0, [sp, #196]	@ 0xc4
 8009c80:	ee77 7a67 	vsub.f32	s15, s14, s15
 8009c84:	ed8d 8a2f 	vstr	s16, [sp, #188]	@ 0xbc
 8009c88:	ee17 0a90 	vmov	r0, s15
 8009c8c:	ed8d 8a30 	vstr	s16, [sp, #192]	@ 0xc0
 8009c90:	f7f6 fc26 	bl	80004e0 <__aeabi_f2d>
 8009c94:	4bb8      	ldr	r3, [pc, #736]	@ (8009f78 <DoStep_H96e4298bd9675fbbcb46b0c1f68b039a5627ebc5_cb4a8a449b4ada864625ee5a4355578a3aaf08ed+0xb28>)
 8009c96:	2200      	movs	r2, #0
 8009c98:	f7f6 fac4 	bl	8000224 <__adddf3>
 8009c9c:	e9cd 0102 	strd	r0, r1, [sp, #8]
 8009ca0:	4620      	mov	r0, r4
 8009ca2:	4629      	mov	r1, r5
 8009ca4:	f1bb 0f00 	cmp.w	fp, #0
 8009ca8:	f003 82b6 	beq.w	800d218 <DoStep_H96e4298bd9675fbbcb46b0c1f68b039a5627ebc5_cb4a8a449b4ada864625ee5a4355578a3aaf08ed+0x3dc8>
 8009cac:	a3ae      	add	r3, pc, #696	@ (adr r3, 8009f68 <DoStep_H96e4298bd9675fbbcb46b0c1f68b039a5627ebc5_cb4a8a449b4ada864625ee5a4355578a3aaf08ed+0xb18>)
 8009cae:	e9d3 2300 	ldrd	r2, r3, [r3]
 8009cb2:	f7f6 fc6d 	bl	8000590 <__aeabi_dmul>
 8009cb6:	4602      	mov	r2, r0
 8009cb8:	460b      	mov	r3, r1
 8009cba:	e9dd 0102 	ldrd	r0, r1, [sp, #8]
 8009cbe:	f7f6 faaf 	bl	8000220 <__aeabi_dsub>
 8009cc2:	ee28 aa0a 	vmul.f32	s20, s16, s20
 8009cc6:	4632      	mov	r2, r6
 8009cc8:	463b      	mov	r3, r7
 8009cca:	ee68 8aaa 	vmul.f32	s17, s17, s21
 8009cce:	f7f6 fc5f 	bl	8000590 <__aeabi_dmul>
 8009cd2:	ee7a 7a28 	vadd.f32	s15, s20, s17
 8009cd6:	4604      	mov	r4, r0
 8009cd8:	ee17 0a90 	vmov	r0, s15
 8009cdc:	460d      	mov	r5, r1
 8009cde:	f7f6 fbff 	bl	80004e0 <__aeabi_f2d>
 8009ce2:	ed9f 7ba1 	vldr	d7, [pc, #644]	@ 8009f68 <DoStep_H96e4298bd9675fbbcb46b0c1f68b039a5627ebc5_cb4a8a449b4ada864625ee5a4355578a3aaf08ed+0xb18>
 8009ce6:	ed8d 7b06 	vstr	d7, [sp, #24]
 8009cea:	ed9f 7ba1 	vldr	d7, [pc, #644]	@ 8009f70 <DoStep_H96e4298bd9675fbbcb46b0c1f68b039a5627ebc5_cb4a8a449b4ada864625ee5a4355578a3aaf08ed+0xb20>
 8009cee:	ed8d 7b02 	vstr	d7, [sp, #8]
 8009cf2:	4606      	mov	r6, r0
 8009cf4:	f101 4700 	add.w	r7, r1, #2147483648	@ 0x80000000
 8009cf8:	ee18 0a10 	vmov	r0, s16
 8009cfc:	f7f6 fbf0 	bl	80004e0 <__aeabi_f2d>
 8009d00:	e9dd 2302 	ldrd	r2, r3, [sp, #8]
 8009d04:	f101 4100 	add.w	r1, r1, #2147483648	@ 0x80000000
 8009d08:	f7f6 fc42 	bl	8000590 <__aeabi_dmul>
 8009d0c:	4602      	mov	r2, r0
 8009d0e:	460b      	mov	r3, r1
 8009d10:	4630      	mov	r0, r6
 8009d12:	4639      	mov	r1, r7
 8009d14:	f7f6 fa84 	bl	8000220 <__aeabi_dsub>
 8009d18:	4602      	mov	r2, r0
 8009d1a:	460b      	mov	r3, r1
 8009d1c:	4640      	mov	r0, r8
 8009d1e:	4649      	mov	r1, r9
 8009d20:	f7f6 fc36 	bl	8000590 <__aeabi_dmul>
 8009d24:	4602      	mov	r2, r0
 8009d26:	460b      	mov	r3, r1
 8009d28:	4620      	mov	r0, r4
 8009d2a:	4629      	mov	r1, r5
 8009d2c:	f7f6 fa78 	bl	8000220 <__aeabi_dsub>
 8009d30:	ed9a 0a84 	vldr	s0, [sl, #528]	@ 0x210
 8009d34:	ed9a 8a12 	vldr	s16, [sl, #72]	@ 0x48
 8009d38:	4604      	mov	r4, r0
 8009d3a:	460d      	mov	r5, r1
 8009d3c:	f004 fb48 	bl	800e3d0 <SPE_sin_H96e4298bd9675fbbcb46b0c1f68b039a5627ebc5_cb4a8a449b4ada864625ee5a4355578a3aaf08ed>
 8009d40:	ee68 7a00 	vmul.f32	s15, s16, s0
 8009d44:	ee17 0a90 	vmov	r0, s15
 8009d48:	f7f6 fbca 	bl	80004e0 <__aeabi_f2d>
 8009d4c:	462b      	mov	r3, r5
 8009d4e:	4622      	mov	r2, r4
 8009d50:	f7f6 fc1e 	bl	8000590 <__aeabi_dmul>
 8009d54:	ed9a 8a70 	vldr	s16, [sl, #448]	@ 0x1c0
 8009d58:	edda 7a43 	vldr	s15, [sl, #268]	@ 0x10c
 8009d5c:	ee68 7a27 	vmul.f32	s15, s16, s15
 8009d60:	e9cd 010a 	strd	r0, r1, [sp, #40]	@ 0x28
 8009d64:	ee17 0a90 	vmov	r0, s15
 8009d68:	f7f6 fbba 	bl	80004e0 <__aeabi_f2d>
 8009d6c:	edda 7a44 	vldr	s15, [sl, #272]	@ 0x110
 8009d70:	ee68 7a27 	vmul.f32	s15, s16, s15
 8009d74:	4604      	mov	r4, r0
 8009d76:	ee17 0a90 	vmov	r0, s15
 8009d7a:	460d      	mov	r5, r1
 8009d7c:	f7f6 fbb0 	bl	80004e0 <__aeabi_f2d>
 8009d80:	9b04      	ldr	r3, [sp, #16]
 8009d82:	4680      	mov	r8, r0
 8009d84:	4689      	mov	r9, r1
 8009d86:	2b00      	cmp	r3, #0
 8009d88:	f043 8299 	bne.w	800d2be <DoStep_H96e4298bd9675fbbcb46b0c1f68b039a5627ebc5_cb4a8a449b4ada864625ee5a4355578a3aaf08ed+0x3e6e>
 8009d8c:	ed9a aa3b 	vldr	s20, [sl, #236]	@ 0xec
 8009d90:	edda aa3a 	vldr	s21, [sl, #232]	@ 0xe8
 8009d94:	ed9a 8a39 	vldr	s16, [sl, #228]	@ 0xe4
 8009d98:	edda 8a38 	vldr	s17, [sl, #224]	@ 0xe0
 8009d9c:	ee2a 7a08 	vmul.f32	s14, s20, s16
 8009da0:	ee6a 7aa8 	vmul.f32	s15, s21, s17
 8009da4:	ee28 8a2a 	vmul.f32	s16, s16, s21
 8009da8:	ee77 7a67 	vsub.f32	s15, s14, s15
 8009dac:	ee6a 8a28 	vmul.f32	s17, s20, s17
 8009db0:	ee17 0a90 	vmov	r0, s15
 8009db4:	f7f6 fb94 	bl	80004e0 <__aeabi_f2d>
 8009db8:	4b6f      	ldr	r3, [pc, #444]	@ (8009f78 <DoStep_H96e4298bd9675fbbcb46b0c1f68b039a5627ebc5_cb4a8a449b4ada864625ee5a4355578a3aaf08ed+0xb28>)
 8009dba:	2200      	movs	r2, #0
 8009dbc:	f7f6 fa32 	bl	8000224 <__adddf3>
 8009dc0:	4606      	mov	r6, r0
 8009dc2:	ee1a 0a90 	vmov	r0, s21
 8009dc6:	460f      	mov	r7, r1
 8009dc8:	f7f6 fb8a 	bl	80004e0 <__aeabi_f2d>
 8009dcc:	e9dd 2306 	ldrd	r2, r3, [sp, #24]
 8009dd0:	f7f6 fbde 	bl	8000590 <__aeabi_dmul>
 8009dd4:	4602      	mov	r2, r0
 8009dd6:	460b      	mov	r3, r1
 8009dd8:	4630      	mov	r0, r6
 8009dda:	4639      	mov	r1, r7
 8009ddc:	f7f6 fa20 	bl	8000220 <__aeabi_dsub>
 8009de0:	462b      	mov	r3, r5
 8009de2:	4622      	mov	r2, r4
 8009de4:	f7f6 fbd4 	bl	8000590 <__aeabi_dmul>
 8009de8:	ee78 7a88 	vadd.f32	s15, s17, s16
 8009dec:	4604      	mov	r4, r0
 8009dee:	ee17 0a90 	vmov	r0, s15
 8009df2:	460d      	mov	r5, r1
 8009df4:	f7f6 fb74 	bl	80004e0 <__aeabi_f2d>
 8009df8:	4602      	mov	r2, r0
 8009dfa:	ee1a 0a10 	vmov	r0, s20
 8009dfe:	4616      	mov	r6, r2
 8009e00:	f101 4700 	add.w	r7, r1, #2147483648	@ 0x80000000
 8009e04:	f7f6 fb6c 	bl	80004e0 <__aeabi_f2d>
 8009e08:	e9dd 2302 	ldrd	r2, r3, [sp, #8]
 8009e0c:	f101 4100 	add.w	r1, r1, #2147483648	@ 0x80000000
 8009e10:	f7f6 fbbe 	bl	8000590 <__aeabi_dmul>
 8009e14:	4602      	mov	r2, r0
 8009e16:	460b      	mov	r3, r1
 8009e18:	4630      	mov	r0, r6
 8009e1a:	4639      	mov	r1, r7
 8009e1c:	f7f6 fa00 	bl	8000220 <__aeabi_dsub>
 8009e20:	4642      	mov	r2, r8
 8009e22:	464b      	mov	r3, r9
 8009e24:	f7f6 fbb4 	bl	8000590 <__aeabi_dmul>
 8009e28:	4622      	mov	r2, r4
 8009e2a:	462b      	mov	r3, r5
 8009e2c:	f7f6 f9fa 	bl	8000224 <__adddf3>
 8009e30:	ed9a 0a84 	vldr	s0, [sl, #528]	@ 0x210
 8009e34:	ed9a 8a12 	vldr	s16, [sl, #72]	@ 0x48
 8009e38:	4604      	mov	r4, r0
 8009e3a:	460d      	mov	r5, r1
 8009e3c:	f004 faca 	bl	800e3d4 <SPE_cos_H96e4298bd9675fbbcb46b0c1f68b039a5627ebc5_cb4a8a449b4ada864625ee5a4355578a3aaf08ed>
 8009e40:	ee68 7a00 	vmul.f32	s15, s16, s0
 8009e44:	ee17 0a90 	vmov	r0, s15
 8009e48:	f7f6 fb4a 	bl	80004e0 <__aeabi_f2d>
 8009e4c:	4622      	mov	r2, r4
 8009e4e:	462b      	mov	r3, r5
 8009e50:	f7f6 fb9e 	bl	8000590 <__aeabi_dmul>
 8009e54:	460b      	mov	r3, r1
 8009e56:	4602      	mov	r2, r0
 8009e58:	e9dd 010a 	ldrd	r0, r1, [sp, #40]	@ 0x28
 8009e5c:	f7f6 f9e0 	bl	8000220 <__aeabi_dsub>
 8009e60:	ed9a 0a84 	vldr	s0, [sl, #528]	@ 0x210
 8009e64:	ed9a 8a19 	vldr	s16, [sl, #100]	@ 0x64
 8009e68:	e9cd 010a 	strd	r0, r1, [sp, #40]	@ 0x28
 8009e6c:	f004 fab0 	bl	800e3d0 <SPE_sin_H96e4298bd9675fbbcb46b0c1f68b039a5627ebc5_cb4a8a449b4ada864625ee5a4355578a3aaf08ed>
 8009e70:	ee68 7a00 	vmul.f32	s15, s16, s0
 8009e74:	ee17 0a90 	vmov	r0, s15
 8009e78:	f7f6 fb32 	bl	80004e0 <__aeabi_f2d>
 8009e7c:	4604      	mov	r4, r0
 8009e7e:	f8da 01c0 	ldr.w	r0, [sl, #448]	@ 0x1c0
 8009e82:	460d      	mov	r5, r1
 8009e84:	f7f6 fb2c 	bl	80004e0 <__aeabi_f2d>
 8009e88:	9b04      	ldr	r3, [sp, #16]
 8009e8a:	ed9a 8a19 	vldr	s16, [sl, #100]	@ 0x64
 8009e8e:	edda 8a84 	vldr	s17, [sl, #528]	@ 0x210
 8009e92:	4680      	mov	r8, r0
 8009e94:	4689      	mov	r9, r1
 8009e96:	2b00      	cmp	r3, #0
 8009e98:	f043 81ee 	bne.w	800d278 <DoStep_H96e4298bd9675fbbcb46b0c1f68b039a5627ebc5_cb4a8a449b4ada864625ee5a4355578a3aaf08ed+0x3e28>
 8009e9c:	edda 6a39 	vldr	s13, [sl, #228]	@ 0xe4
 8009ea0:	ed9a aa3a 	vldr	s20, [sl, #232]	@ 0xe8
 8009ea4:	ed9a 7a3b 	vldr	s14, [sl, #236]	@ 0xec
 8009ea8:	edda 7a38 	vldr	s15, [sl, #224]	@ 0xe0
 8009eac:	ee27 7a26 	vmul.f32	s14, s14, s13
 8009eb0:	ee6a 7a27 	vmul.f32	s15, s20, s15
 8009eb4:	ee77 7a67 	vsub.f32	s15, s14, s15
 8009eb8:	ee17 0a90 	vmov	r0, s15
 8009ebc:	f7f6 fb10 	bl	80004e0 <__aeabi_f2d>
 8009ec0:	4b2d      	ldr	r3, [pc, #180]	@ (8009f78 <DoStep_H96e4298bd9675fbbcb46b0c1f68b039a5627ebc5_cb4a8a449b4ada864625ee5a4355578a3aaf08ed+0xb28>)
 8009ec2:	2200      	movs	r2, #0
 8009ec4:	f7f6 f9ae 	bl	8000224 <__adddf3>
 8009ec8:	4606      	mov	r6, r0
 8009eca:	ee1a 0a10 	vmov	r0, s20
 8009ece:	460f      	mov	r7, r1
 8009ed0:	f7f6 fb06 	bl	80004e0 <__aeabi_f2d>
 8009ed4:	e9dd 2306 	ldrd	r2, r3, [sp, #24]
 8009ed8:	f7f6 fb5a 	bl	8000590 <__aeabi_dmul>
 8009edc:	4602      	mov	r2, r0
 8009ede:	460b      	mov	r3, r1
 8009ee0:	4630      	mov	r0, r6
 8009ee2:	4639      	mov	r1, r7
 8009ee4:	f7f6 f99c 	bl	8000220 <__aeabi_dsub>
 8009ee8:	4642      	mov	r2, r8
 8009eea:	464b      	mov	r3, r9
 8009eec:	f7f6 fb50 	bl	8000590 <__aeabi_dmul>
 8009ef0:	462b      	mov	r3, r5
 8009ef2:	4622      	mov	r2, r4
 8009ef4:	f7f6 fb4c 	bl	8000590 <__aeabi_dmul>
 8009ef8:	eeb0 0a68 	vmov.f32	s0, s17
 8009efc:	e9cd 010c 	strd	r0, r1, [sp, #48]	@ 0x30
 8009f00:	f004 fa68 	bl	800e3d4 <SPE_cos_H96e4298bd9675fbbcb46b0c1f68b039a5627ebc5_cb4a8a449b4ada864625ee5a4355578a3aaf08ed>
 8009f04:	ee68 7a00 	vmul.f32	s15, s16, s0
 8009f08:	ee17 0a90 	vmov	r0, s15
 8009f0c:	f7f6 fae8 	bl	80004e0 <__aeabi_f2d>
 8009f10:	f8da b1c0 	ldr.w	fp, [sl, #448]	@ 0x1c0
 8009f14:	4680      	mov	r8, r0
 8009f16:	4658      	mov	r0, fp
 8009f18:	4689      	mov	r9, r1
 8009f1a:	f7f6 fae1 	bl	80004e0 <__aeabi_f2d>
 8009f1e:	edda 6a39 	vldr	s13, [sl, #228]	@ 0xe4
 8009f22:	ed9a 8a3b 	vldr	s16, [sl, #236]	@ 0xec
 8009f26:	ed9a 7a3a 	vldr	s14, [sl, #232]	@ 0xe8
 8009f2a:	edda 7a38 	vldr	s15, [sl, #224]	@ 0xe0
 8009f2e:	ee27 7a26 	vmul.f32	s14, s14, s13
 8009f32:	ee68 7a27 	vmul.f32	s15, s16, s15
 8009f36:	4604      	mov	r4, r0
 8009f38:	ee77 7a27 	vadd.f32	s15, s14, s15
 8009f3c:	460d      	mov	r5, r1
 8009f3e:	ee17 0a90 	vmov	r0, s15
 8009f42:	f7f6 facd 	bl	80004e0 <__aeabi_f2d>
 8009f46:	4602      	mov	r2, r0
 8009f48:	ee18 0a10 	vmov	r0, s16
 8009f4c:	4616      	mov	r6, r2
 8009f4e:	f101 4700 	add.w	r7, r1, #2147483648	@ 0x80000000
 8009f52:	f7f6 fac5 	bl	80004e0 <__aeabi_f2d>
 8009f56:	e9dd 2302 	ldrd	r2, r3, [sp, #8]
 8009f5a:	f101 4100 	add.w	r1, r1, #2147483648	@ 0x80000000
 8009f5e:	f7f6 fb17 	bl	8000590 <__aeabi_dmul>
 8009f62:	4602      	mov	r2, r0
 8009f64:	460b      	mov	r3, r1
 8009f66:	e009      	b.n	8009f7c <DoStep_H96e4298bd9675fbbcb46b0c1f68b039a5627ebc5_cb4a8a449b4ada864625ee5a4355578a3aaf08ed+0xb2c>
 8009f68:	00000000 	.word	0x00000000
 8009f6c:	c0a15800 	.word	0xc0a15800
 8009f70:	00000000 	.word	0x00000000
 8009f74:	40a15800 	.word	0x40a15800
 8009f78:	3ff00000 	.word	0x3ff00000
 8009f7c:	4630      	mov	r0, r6
 8009f7e:	4639      	mov	r1, r7
 8009f80:	f7f6 f94e 	bl	8000220 <__aeabi_dsub>
 8009f84:	4622      	mov	r2, r4
 8009f86:	462b      	mov	r3, r5
 8009f88:	f7f6 fb02 	bl	8000590 <__aeabi_dmul>
 8009f8c:	4642      	mov	r2, r8
 8009f8e:	464b      	mov	r3, r9
 8009f90:	f7f6 fafe 	bl	8000590 <__aeabi_dmul>
 8009f94:	4602      	mov	r2, r0
 8009f96:	460b      	mov	r3, r1
 8009f98:	e9dd 010c 	ldrd	r0, r1, [sp, #48]	@ 0x30
 8009f9c:	f7f6 f940 	bl	8000220 <__aeabi_dsub>
 8009fa0:	4604      	mov	r4, r0
 8009fa2:	f8da 0174 	ldr.w	r0, [sl, #372]	@ 0x174
 8009fa6:	460d      	mov	r5, r1
 8009fa8:	f7f6 fa9a 	bl	80004e0 <__aeabi_f2d>
 8009fac:	4602      	mov	r2, r0
 8009fae:	460b      	mov	r3, r1
 8009fb0:	4620      	mov	r0, r4
 8009fb2:	4629      	mov	r1, r5
 8009fb4:	f7f6 faec 	bl	8000590 <__aeabi_dmul>
 8009fb8:	ee00 ba10 	vmov	s0, fp
 8009fbc:	4604      	mov	r4, r0
 8009fbe:	460d      	mov	r5, r1
 8009fc0:	f004 f9e8 	bl	800e394 <SPE_ipowSquare_H96e4298bd9675fbbcb46b0c1f68b039a5627ebc5_cb4a8a449b4ada864625ee5a4355578a3aaf08ed>
 8009fc4:	ee10 0a10 	vmov	r0, s0
 8009fc8:	f7f6 fa8a 	bl	80004e0 <__aeabi_f2d>
 8009fcc:	4602      	mov	r2, r0
 8009fce:	460b      	mov	r3, r1
 8009fd0:	4620      	mov	r0, r4
 8009fd2:	4629      	mov	r1, r5
 8009fd4:	f7f6 fc06 	bl	80007e4 <__aeabi_ddiv>
 8009fd8:	e9dd 230a 	ldrd	r2, r3, [sp, #40]	@ 0x28
 8009fdc:	f7f6 f922 	bl	8000224 <__adddf3>
 8009fe0:	ed9a 0a84 	vldr	s0, [sl, #528]	@ 0x210
 8009fe4:	ed9a 8a19 	vldr	s16, [sl, #100]	@ 0x64
 8009fe8:	e9cd 010a 	strd	r0, r1, [sp, #40]	@ 0x28
 8009fec:	f004 f9f2 	bl	800e3d4 <SPE_cos_H96e4298bd9675fbbcb46b0c1f68b039a5627ebc5_cb4a8a449b4ada864625ee5a4355578a3aaf08ed>
 8009ff0:	ee68 7a00 	vmul.f32	s15, s16, s0
 8009ff4:	ee17 0a90 	vmov	r0, s15
 8009ff8:	f7f6 fa72 	bl	80004e0 <__aeabi_f2d>
 8009ffc:	4604      	mov	r4, r0
 8009ffe:	f8da 01c0 	ldr.w	r0, [sl, #448]	@ 0x1c0
 800a002:	460d      	mov	r5, r1
 800a004:	f7f6 fa6c 	bl	80004e0 <__aeabi_f2d>
 800a008:	9b04      	ldr	r3, [sp, #16]
 800a00a:	ed9a 8a19 	vldr	s16, [sl, #100]	@ 0x64
 800a00e:	edda 8a84 	vldr	s17, [sl, #528]	@ 0x210
 800a012:	4680      	mov	r8, r0
 800a014:	4689      	mov	r9, r1
 800a016:	2b00      	cmp	r3, #0
 800a018:	f043 8787 	bne.w	800df2a <DoStep_H96e4298bd9675fbbcb46b0c1f68b039a5627ebc5_cb4a8a449b4ada864625ee5a4355578a3aaf08ed+0x4ada>
 800a01c:	edda 6a39 	vldr	s13, [sl, #228]	@ 0xe4
 800a020:	ed9a aa3a 	vldr	s20, [sl, #232]	@ 0xe8
 800a024:	ed9a 7a3b 	vldr	s14, [sl, #236]	@ 0xec
 800a028:	edda 7a38 	vldr	s15, [sl, #224]	@ 0xe0
 800a02c:	ee27 7a26 	vmul.f32	s14, s14, s13
 800a030:	ee6a 7a27 	vmul.f32	s15, s20, s15
 800a034:	ee77 7a67 	vsub.f32	s15, s14, s15
 800a038:	ee17 0a90 	vmov	r0, s15
 800a03c:	f7f6 fa50 	bl	80004e0 <__aeabi_f2d>
 800a040:	4beb      	ldr	r3, [pc, #940]	@ (800a3f0 <DoStep_H96e4298bd9675fbbcb46b0c1f68b039a5627ebc5_cb4a8a449b4ada864625ee5a4355578a3aaf08ed+0xfa0>)
 800a042:	2200      	movs	r2, #0
 800a044:	f7f6 f8ee 	bl	8000224 <__adddf3>
 800a048:	4606      	mov	r6, r0
 800a04a:	ee1a 0a10 	vmov	r0, s20
 800a04e:	460f      	mov	r7, r1
 800a050:	f7f6 fa46 	bl	80004e0 <__aeabi_f2d>
 800a054:	e9dd 2306 	ldrd	r2, r3, [sp, #24]
 800a058:	f7f6 fa9a 	bl	8000590 <__aeabi_dmul>
 800a05c:	4602      	mov	r2, r0
 800a05e:	460b      	mov	r3, r1
 800a060:	4630      	mov	r0, r6
 800a062:	4639      	mov	r1, r7
 800a064:	f7f6 f8dc 	bl	8000220 <__aeabi_dsub>
 800a068:	4642      	mov	r2, r8
 800a06a:	464b      	mov	r3, r9
 800a06c:	f7f6 fa90 	bl	8000590 <__aeabi_dmul>
 800a070:	462b      	mov	r3, r5
 800a072:	4622      	mov	r2, r4
 800a074:	f7f6 fa8c 	bl	8000590 <__aeabi_dmul>
 800a078:	eeb0 0a68 	vmov.f32	s0, s17
 800a07c:	e9cd 010c 	strd	r0, r1, [sp, #48]	@ 0x30
 800a080:	f004 f9a6 	bl	800e3d0 <SPE_sin_H96e4298bd9675fbbcb46b0c1f68b039a5627ebc5_cb4a8a449b4ada864625ee5a4355578a3aaf08ed>
 800a084:	ee68 7a00 	vmul.f32	s15, s16, s0
 800a088:	ee17 0a90 	vmov	r0, s15
 800a08c:	f7f6 fa28 	bl	80004e0 <__aeabi_f2d>
 800a090:	f8da b1c0 	ldr.w	fp, [sl, #448]	@ 0x1c0
 800a094:	4680      	mov	r8, r0
 800a096:	4658      	mov	r0, fp
 800a098:	4689      	mov	r9, r1
 800a09a:	f7f6 fa21 	bl	80004e0 <__aeabi_f2d>
 800a09e:	edda 6a39 	vldr	s13, [sl, #228]	@ 0xe4
 800a0a2:	ed9a 8a3b 	vldr	s16, [sl, #236]	@ 0xec
 800a0a6:	ed9a 7a3a 	vldr	s14, [sl, #232]	@ 0xe8
 800a0aa:	edda 7a38 	vldr	s15, [sl, #224]	@ 0xe0
 800a0ae:	ee27 7a26 	vmul.f32	s14, s14, s13
 800a0b2:	ee68 7a27 	vmul.f32	s15, s16, s15
 800a0b6:	4604      	mov	r4, r0
 800a0b8:	ee77 7a27 	vadd.f32	s15, s14, s15
 800a0bc:	460d      	mov	r5, r1
 800a0be:	ee17 0a90 	vmov	r0, s15
 800a0c2:	f7f6 fa0d 	bl	80004e0 <__aeabi_f2d>
 800a0c6:	4602      	mov	r2, r0
 800a0c8:	ee18 0a10 	vmov	r0, s16
 800a0cc:	4616      	mov	r6, r2
 800a0ce:	f101 4700 	add.w	r7, r1, #2147483648	@ 0x80000000
 800a0d2:	f7f6 fa05 	bl	80004e0 <__aeabi_f2d>
 800a0d6:	e9dd 2302 	ldrd	r2, r3, [sp, #8]
 800a0da:	f101 4100 	add.w	r1, r1, #2147483648	@ 0x80000000
 800a0de:	f7f6 fa57 	bl	8000590 <__aeabi_dmul>
 800a0e2:	4602      	mov	r2, r0
 800a0e4:	460b      	mov	r3, r1
 800a0e6:	4630      	mov	r0, r6
 800a0e8:	4639      	mov	r1, r7
 800a0ea:	f7f6 f899 	bl	8000220 <__aeabi_dsub>
 800a0ee:	4622      	mov	r2, r4
 800a0f0:	462b      	mov	r3, r5
 800a0f2:	f7f6 fa4d 	bl	8000590 <__aeabi_dmul>
 800a0f6:	4642      	mov	r2, r8
 800a0f8:	464b      	mov	r3, r9
 800a0fa:	f7f6 fa49 	bl	8000590 <__aeabi_dmul>
 800a0fe:	e9dd 230c 	ldrd	r2, r3, [sp, #48]	@ 0x30
 800a102:	f7f6 f88f 	bl	8000224 <__adddf3>
 800a106:	4604      	mov	r4, r0
 800a108:	f8da 0164 	ldr.w	r0, [sl, #356]	@ 0x164
 800a10c:	460d      	mov	r5, r1
 800a10e:	f7f6 f9e7 	bl	80004e0 <__aeabi_f2d>
 800a112:	4602      	mov	r2, r0
 800a114:	460b      	mov	r3, r1
 800a116:	4620      	mov	r0, r4
 800a118:	4629      	mov	r1, r5
 800a11a:	f7f6 fa39 	bl	8000590 <__aeabi_dmul>
 800a11e:	ee00 ba10 	vmov	s0, fp
 800a122:	4604      	mov	r4, r0
 800a124:	460d      	mov	r5, r1
 800a126:	f004 f935 	bl	800e394 <SPE_ipowSquare_H96e4298bd9675fbbcb46b0c1f68b039a5627ebc5_cb4a8a449b4ada864625ee5a4355578a3aaf08ed>
 800a12a:	ee10 0a10 	vmov	r0, s0
 800a12e:	f7f6 f9d7 	bl	80004e0 <__aeabi_f2d>
 800a132:	4602      	mov	r2, r0
 800a134:	460b      	mov	r3, r1
 800a136:	4620      	mov	r0, r4
 800a138:	4629      	mov	r1, r5
 800a13a:	f7f6 fb53 	bl	80007e4 <__aeabi_ddiv>
 800a13e:	460b      	mov	r3, r1
 800a140:	4602      	mov	r2, r0
 800a142:	e9dd 010a 	ldrd	r0, r1, [sp, #40]	@ 0x28
 800a146:	f7f6 f86b 	bl	8000220 <__aeabi_dsub>
 800a14a:	f7f6 fc33 	bl	80009b4 <__aeabi_d2f>
 800a14e:	ed9a 8a70 	vldr	s16, [sl, #448]	@ 0x1c0
 800a152:	edda 7a43 	vldr	s15, [sl, #268]	@ 0x10c
 800a156:	9032      	str	r0, [sp, #200]	@ 0xc8
 800a158:	ee68 7a27 	vmul.f32	s15, s16, s15
 800a15c:	ee17 0a90 	vmov	r0, s15
 800a160:	f7f6 f9be 	bl	80004e0 <__aeabi_f2d>
 800a164:	edda 7a44 	vldr	s15, [sl, #272]	@ 0x110
 800a168:	ee68 7a27 	vmul.f32	s15, s16, s15
 800a16c:	4680      	mov	r8, r0
 800a16e:	ee17 0a90 	vmov	r0, s15
 800a172:	4689      	mov	r9, r1
 800a174:	f7f6 f9b4 	bl	80004e0 <__aeabi_f2d>
 800a178:	9b04      	ldr	r3, [sp, #16]
 800a17a:	ed9a aa12 	vldr	s20, [sl, #72]	@ 0x48
 800a17e:	edda aa84 	vldr	s21, [sl, #528]	@ 0x210
 800a182:	4606      	mov	r6, r0
 800a184:	460f      	mov	r7, r1
 800a186:	2b00      	cmp	r3, #0
 800a188:	f043 8683 	bne.w	800de92 <DoStep_H96e4298bd9675fbbcb46b0c1f68b039a5627ebc5_cb4a8a449b4ada864625ee5a4355578a3aaf08ed+0x4a42>
 800a18c:	ed9a ba3a 	vldr	s22, [sl, #232]	@ 0xe8
 800a190:	ed9a 8a3b 	vldr	s16, [sl, #236]	@ 0xec
 800a194:	edda ba39 	vldr	s23, [sl, #228]	@ 0xe4
 800a198:	edda 8a38 	vldr	s17, [sl, #224]	@ 0xe0
 800a19c:	ee6b 7a8b 	vmul.f32	s15, s23, s22
 800a1a0:	ee28 7a28 	vmul.f32	s14, s16, s17
 800a1a4:	ee6b 8a28 	vmul.f32	s17, s22, s17
 800a1a8:	ee77 7a27 	vadd.f32	s15, s14, s15
 800a1ac:	ee17 0a90 	vmov	r0, s15
 800a1b0:	f7f6 f996 	bl	80004e0 <__aeabi_f2d>
 800a1b4:	4602      	mov	r2, r0
 800a1b6:	ee18 0a10 	vmov	r0, s16
 800a1ba:	4614      	mov	r4, r2
 800a1bc:	f101 4500 	add.w	r5, r1, #2147483648	@ 0x80000000
 800a1c0:	f7f6 f98e 	bl	80004e0 <__aeabi_f2d>
 800a1c4:	e9dd 2302 	ldrd	r2, r3, [sp, #8]
 800a1c8:	f101 4100 	add.w	r1, r1, #2147483648	@ 0x80000000
 800a1cc:	f7f6 f9e0 	bl	8000590 <__aeabi_dmul>
 800a1d0:	4602      	mov	r2, r0
 800a1d2:	460b      	mov	r3, r1
 800a1d4:	4620      	mov	r0, r4
 800a1d6:	4629      	mov	r1, r5
 800a1d8:	f7f6 f822 	bl	8000220 <__aeabi_dsub>
 800a1dc:	ee28 8a2b 	vmul.f32	s16, s16, s23
 800a1e0:	4632      	mov	r2, r6
 800a1e2:	463b      	mov	r3, r7
 800a1e4:	f7f6 f9d4 	bl	8000590 <__aeabi_dmul>
 800a1e8:	ee78 7a68 	vsub.f32	s15, s16, s17
 800a1ec:	4604      	mov	r4, r0
 800a1ee:	ee17 0a90 	vmov	r0, s15
 800a1f2:	460d      	mov	r5, r1
 800a1f4:	f7f6 f974 	bl	80004e0 <__aeabi_f2d>
 800a1f8:	4b7d      	ldr	r3, [pc, #500]	@ (800a3f0 <DoStep_H96e4298bd9675fbbcb46b0c1f68b039a5627ebc5_cb4a8a449b4ada864625ee5a4355578a3aaf08ed+0xfa0>)
 800a1fa:	2200      	movs	r2, #0
 800a1fc:	f7f6 f812 	bl	8000224 <__adddf3>
 800a200:	4606      	mov	r6, r0
 800a202:	ee1b 0a10 	vmov	r0, s22
 800a206:	460f      	mov	r7, r1
 800a208:	f7f6 f96a 	bl	80004e0 <__aeabi_f2d>
 800a20c:	e9dd 2306 	ldrd	r2, r3, [sp, #24]
 800a210:	f7f6 f9be 	bl	8000590 <__aeabi_dmul>
 800a214:	4602      	mov	r2, r0
 800a216:	460b      	mov	r3, r1
 800a218:	4630      	mov	r0, r6
 800a21a:	4639      	mov	r1, r7
 800a21c:	f7f6 f800 	bl	8000220 <__aeabi_dsub>
 800a220:	4642      	mov	r2, r8
 800a222:	464b      	mov	r3, r9
 800a224:	f7f6 f9b4 	bl	8000590 <__aeabi_dmul>
 800a228:	4602      	mov	r2, r0
 800a22a:	460b      	mov	r3, r1
 800a22c:	4620      	mov	r0, r4
 800a22e:	4629      	mov	r1, r5
 800a230:	f7f5 fff8 	bl	8000224 <__adddf3>
 800a234:	eeb0 0a6a 	vmov.f32	s0, s21
 800a238:	4604      	mov	r4, r0
 800a23a:	460d      	mov	r5, r1
 800a23c:	f004 f8c8 	bl	800e3d0 <SPE_sin_H96e4298bd9675fbbcb46b0c1f68b039a5627ebc5_cb4a8a449b4ada864625ee5a4355578a3aaf08ed>
 800a240:	ee6a 7a00 	vmul.f32	s15, s20, s0
 800a244:	ee17 0a90 	vmov	r0, s15
 800a248:	f7f6 f94a 	bl	80004e0 <__aeabi_f2d>
 800a24c:	4622      	mov	r2, r4
 800a24e:	462b      	mov	r3, r5
 800a250:	f7f6 f99e 	bl	8000590 <__aeabi_dmul>
 800a254:	ed9a aa3b 	vldr	s20, [sl, #236]	@ 0xec
 800a258:	edda aa3a 	vldr	s21, [sl, #232]	@ 0xe8
 800a25c:	ed9a 8a39 	vldr	s16, [sl, #228]	@ 0xe4
 800a260:	edda 8a38 	vldr	s17, [sl, #224]	@ 0xe0
 800a264:	ed9a ba70 	vldr	s22, [sl, #448]	@ 0x1c0
 800a268:	ee2a 7a08 	vmul.f32	s14, s20, s16
 800a26c:	ee6a 7aa8 	vmul.f32	s15, s21, s17
 800a270:	e9cd 010a 	strd	r0, r1, [sp, #40]	@ 0x28
 800a274:	ee77 7a67 	vsub.f32	s15, s14, s15
 800a278:	ee6a 8a28 	vmul.f32	s17, s20, s17
 800a27c:	ee17 0a90 	vmov	r0, s15
 800a280:	f7f6 f92e 	bl	80004e0 <__aeabi_f2d>
 800a284:	4b5a      	ldr	r3, [pc, #360]	@ (800a3f0 <DoStep_H96e4298bd9675fbbcb46b0c1f68b039a5627ebc5_cb4a8a449b4ada864625ee5a4355578a3aaf08ed+0xfa0>)
 800a286:	2200      	movs	r2, #0
 800a288:	f7f5 ffcc 	bl	8000224 <__adddf3>
 800a28c:	4604      	mov	r4, r0
 800a28e:	ee1a 0a90 	vmov	r0, s21
 800a292:	460d      	mov	r5, r1
 800a294:	f7f6 f924 	bl	80004e0 <__aeabi_f2d>
 800a298:	e9dd 2306 	ldrd	r2, r3, [sp, #24]
 800a29c:	f7f6 f978 	bl	8000590 <__aeabi_dmul>
 800a2a0:	4602      	mov	r2, r0
 800a2a2:	460b      	mov	r3, r1
 800a2a4:	4620      	mov	r0, r4
 800a2a6:	4629      	mov	r1, r5
 800a2a8:	f7f5 ffba 	bl	8000220 <__aeabi_dsub>
 800a2ac:	edda 7a44 	vldr	s15, [sl, #272]	@ 0x110
 800a2b0:	ee6b 7a27 	vmul.f32	s15, s22, s15
 800a2b4:	4604      	mov	r4, r0
 800a2b6:	ee17 0a90 	vmov	r0, s15
 800a2ba:	460d      	mov	r5, r1
 800a2bc:	f7f6 f910 	bl	80004e0 <__aeabi_f2d>
 800a2c0:	460b      	mov	r3, r1
 800a2c2:	4602      	mov	r2, r0
 800a2c4:	4629      	mov	r1, r5
 800a2c6:	4620      	mov	r0, r4
 800a2c8:	f7f6 f962 	bl	8000590 <__aeabi_dmul>
 800a2cc:	edda 7a43 	vldr	s15, [sl, #268]	@ 0x10c
 800a2d0:	ee6b 7a27 	vmul.f32	s15, s22, s15
 800a2d4:	ee28 8a2a 	vmul.f32	s16, s16, s21
 800a2d8:	4680      	mov	r8, r0
 800a2da:	ee17 0a90 	vmov	r0, s15
 800a2de:	4689      	mov	r9, r1
 800a2e0:	f7f6 f8fe 	bl	80004e0 <__aeabi_f2d>
 800a2e4:	ee78 7a88 	vadd.f32	s15, s17, s16
 800a2e8:	4606      	mov	r6, r0
 800a2ea:	ee17 0a90 	vmov	r0, s15
 800a2ee:	460f      	mov	r7, r1
 800a2f0:	f7f6 f8f6 	bl	80004e0 <__aeabi_f2d>
 800a2f4:	4602      	mov	r2, r0
 800a2f6:	ee1a 0a10 	vmov	r0, s20
 800a2fa:	4614      	mov	r4, r2
 800a2fc:	f101 4500 	add.w	r5, r1, #2147483648	@ 0x80000000
 800a300:	f7f6 f8ee 	bl	80004e0 <__aeabi_f2d>
 800a304:	e9dd 2302 	ldrd	r2, r3, [sp, #8]
 800a308:	f101 4100 	add.w	r1, r1, #2147483648	@ 0x80000000
 800a30c:	f7f6 f940 	bl	8000590 <__aeabi_dmul>
 800a310:	4602      	mov	r2, r0
 800a312:	460b      	mov	r3, r1
 800a314:	4620      	mov	r0, r4
 800a316:	4629      	mov	r1, r5
 800a318:	f7f5 ff82 	bl	8000220 <__aeabi_dsub>
 800a31c:	4604      	mov	r4, r0
 800a31e:	460d      	mov	r5, r1
 800a320:	4632      	mov	r2, r6
 800a322:	463b      	mov	r3, r7
 800a324:	4620      	mov	r0, r4
 800a326:	4629      	mov	r1, r5
 800a328:	f7f6 f932 	bl	8000590 <__aeabi_dmul>
 800a32c:	4602      	mov	r2, r0
 800a32e:	460b      	mov	r3, r1
 800a330:	4640      	mov	r0, r8
 800a332:	4649      	mov	r1, r9
 800a334:	f7f5 ff74 	bl	8000220 <__aeabi_dsub>
 800a338:	ed9a 0a84 	vldr	s0, [sl, #528]	@ 0x210
 800a33c:	ed9a 8a12 	vldr	s16, [sl, #72]	@ 0x48
 800a340:	4604      	mov	r4, r0
 800a342:	460d      	mov	r5, r1
 800a344:	f004 f846 	bl	800e3d4 <SPE_cos_H96e4298bd9675fbbcb46b0c1f68b039a5627ebc5_cb4a8a449b4ada864625ee5a4355578a3aaf08ed>
 800a348:	ee68 7a00 	vmul.f32	s15, s16, s0
 800a34c:	ee17 0a90 	vmov	r0, s15
 800a350:	f7f6 f8c6 	bl	80004e0 <__aeabi_f2d>
 800a354:	4622      	mov	r2, r4
 800a356:	462b      	mov	r3, r5
 800a358:	f7f6 f91a 	bl	8000590 <__aeabi_dmul>
 800a35c:	e9dd 230a 	ldrd	r2, r3, [sp, #40]	@ 0x28
 800a360:	f7f5 ff60 	bl	8000224 <__adddf3>
 800a364:	ed9a 0a84 	vldr	s0, [sl, #528]	@ 0x210
 800a368:	ed9a 8a19 	vldr	s16, [sl, #100]	@ 0x64
 800a36c:	e9cd 010a 	strd	r0, r1, [sp, #40]	@ 0x28
 800a370:	f004 f82e 	bl	800e3d0 <SPE_sin_H96e4298bd9675fbbcb46b0c1f68b039a5627ebc5_cb4a8a449b4ada864625ee5a4355578a3aaf08ed>
 800a374:	ee68 7a00 	vmul.f32	s15, s16, s0
 800a378:	ee17 0a90 	vmov	r0, s15
 800a37c:	f7f6 f8b0 	bl	80004e0 <__aeabi_f2d>
 800a380:	4604      	mov	r4, r0
 800a382:	f8da 01c0 	ldr.w	r0, [sl, #448]	@ 0x1c0
 800a386:	460d      	mov	r5, r1
 800a388:	f7f6 f8aa 	bl	80004e0 <__aeabi_f2d>
 800a38c:	9b04      	ldr	r3, [sp, #16]
 800a38e:	ed9a 8a19 	vldr	s16, [sl, #100]	@ 0x64
 800a392:	edda 8a84 	vldr	s17, [sl, #528]	@ 0x210
 800a396:	4680      	mov	r8, r0
 800a398:	4689      	mov	r9, r1
 800a39a:	2b00      	cmp	r3, #0
 800a39c:	f043 8556 	bne.w	800de4c <DoStep_H96e4298bd9675fbbcb46b0c1f68b039a5627ebc5_cb4a8a449b4ada864625ee5a4355578a3aaf08ed+0x49fc>
 800a3a0:	edda 6a39 	vldr	s13, [sl, #228]	@ 0xe4
 800a3a4:	ed9a aa3a 	vldr	s20, [sl, #232]	@ 0xe8
 800a3a8:	ed9a 7a3b 	vldr	s14, [sl, #236]	@ 0xec
 800a3ac:	edda 7a38 	vldr	s15, [sl, #224]	@ 0xe0
 800a3b0:	ee27 7a26 	vmul.f32	s14, s14, s13
 800a3b4:	ee6a 7a27 	vmul.f32	s15, s20, s15
 800a3b8:	ee77 7a67 	vsub.f32	s15, s14, s15
 800a3bc:	ee17 0a90 	vmov	r0, s15
 800a3c0:	f7f6 f88e 	bl	80004e0 <__aeabi_f2d>
 800a3c4:	4b0a      	ldr	r3, [pc, #40]	@ (800a3f0 <DoStep_H96e4298bd9675fbbcb46b0c1f68b039a5627ebc5_cb4a8a449b4ada864625ee5a4355578a3aaf08ed+0xfa0>)
 800a3c6:	2200      	movs	r2, #0
 800a3c8:	f7f5 ff2c 	bl	8000224 <__adddf3>
 800a3cc:	4606      	mov	r6, r0
 800a3ce:	ee1a 0a10 	vmov	r0, s20
 800a3d2:	460f      	mov	r7, r1
 800a3d4:	f7f6 f884 	bl	80004e0 <__aeabi_f2d>
 800a3d8:	e9dd 2306 	ldrd	r2, r3, [sp, #24]
 800a3dc:	f7f6 f8d8 	bl	8000590 <__aeabi_dmul>
 800a3e0:	4602      	mov	r2, r0
 800a3e2:	460b      	mov	r3, r1
 800a3e4:	4630      	mov	r0, r6
 800a3e6:	4639      	mov	r1, r7
 800a3e8:	f7f5 ff1a 	bl	8000220 <__aeabi_dsub>
 800a3ec:	e002      	b.n	800a3f4 <DoStep_H96e4298bd9675fbbcb46b0c1f68b039a5627ebc5_cb4a8a449b4ada864625ee5a4355578a3aaf08ed+0xfa4>
 800a3ee:	bf00      	nop
 800a3f0:	3ff00000 	.word	0x3ff00000
 800a3f4:	4642      	mov	r2, r8
 800a3f6:	464b      	mov	r3, r9
 800a3f8:	f7f6 f8ca 	bl	8000590 <__aeabi_dmul>
 800a3fc:	462b      	mov	r3, r5
 800a3fe:	4622      	mov	r2, r4
 800a400:	f7f6 f8c6 	bl	8000590 <__aeabi_dmul>
 800a404:	eeb0 0a68 	vmov.f32	s0, s17
 800a408:	e9cd 010c 	strd	r0, r1, [sp, #48]	@ 0x30
 800a40c:	f003 ffe2 	bl	800e3d4 <SPE_cos_H96e4298bd9675fbbcb46b0c1f68b039a5627ebc5_cb4a8a449b4ada864625ee5a4355578a3aaf08ed>
 800a410:	ee68 7a00 	vmul.f32	s15, s16, s0
 800a414:	ee17 0a90 	vmov	r0, s15
 800a418:	f7f6 f862 	bl	80004e0 <__aeabi_f2d>
 800a41c:	f8da b1c0 	ldr.w	fp, [sl, #448]	@ 0x1c0
 800a420:	4680      	mov	r8, r0
 800a422:	4658      	mov	r0, fp
 800a424:	4689      	mov	r9, r1
 800a426:	f7f6 f85b 	bl	80004e0 <__aeabi_f2d>
 800a42a:	edda 6a39 	vldr	s13, [sl, #228]	@ 0xe4
 800a42e:	ed9a 8a3b 	vldr	s16, [sl, #236]	@ 0xec
 800a432:	ed9a 7a3a 	vldr	s14, [sl, #232]	@ 0xe8
 800a436:	edda 7a38 	vldr	s15, [sl, #224]	@ 0xe0
 800a43a:	ee27 7a26 	vmul.f32	s14, s14, s13
 800a43e:	ee68 7a27 	vmul.f32	s15, s16, s15
 800a442:	4604      	mov	r4, r0
 800a444:	ee77 7a27 	vadd.f32	s15, s14, s15
 800a448:	460d      	mov	r5, r1
 800a44a:	ee17 0a90 	vmov	r0, s15
 800a44e:	f7f6 f847 	bl	80004e0 <__aeabi_f2d>
 800a452:	4602      	mov	r2, r0
 800a454:	ee18 0a10 	vmov	r0, s16
 800a458:	4616      	mov	r6, r2
 800a45a:	f101 4700 	add.w	r7, r1, #2147483648	@ 0x80000000
 800a45e:	f7f6 f83f 	bl	80004e0 <__aeabi_f2d>
 800a462:	e9dd 2302 	ldrd	r2, r3, [sp, #8]
 800a466:	f101 4100 	add.w	r1, r1, #2147483648	@ 0x80000000
 800a46a:	f7f6 f891 	bl	8000590 <__aeabi_dmul>
 800a46e:	4602      	mov	r2, r0
 800a470:	460b      	mov	r3, r1
 800a472:	4630      	mov	r0, r6
 800a474:	4639      	mov	r1, r7
 800a476:	f7f5 fed3 	bl	8000220 <__aeabi_dsub>
 800a47a:	4622      	mov	r2, r4
 800a47c:	462b      	mov	r3, r5
 800a47e:	f7f6 f887 	bl	8000590 <__aeabi_dmul>
 800a482:	4642      	mov	r2, r8
 800a484:	464b      	mov	r3, r9
 800a486:	f7f6 f883 	bl	8000590 <__aeabi_dmul>
 800a48a:	4602      	mov	r2, r0
 800a48c:	460b      	mov	r3, r1
 800a48e:	e9dd 010c 	ldrd	r0, r1, [sp, #48]	@ 0x30
 800a492:	f7f5 fec5 	bl	8000220 <__aeabi_dsub>
 800a496:	4604      	mov	r4, r0
 800a498:	f8da 0164 	ldr.w	r0, [sl, #356]	@ 0x164
 800a49c:	460d      	mov	r5, r1
 800a49e:	f7f6 f81f 	bl	80004e0 <__aeabi_f2d>
 800a4a2:	4602      	mov	r2, r0
 800a4a4:	460b      	mov	r3, r1
 800a4a6:	4620      	mov	r0, r4
 800a4a8:	4629      	mov	r1, r5
 800a4aa:	f7f6 f871 	bl	8000590 <__aeabi_dmul>
 800a4ae:	ee00 ba10 	vmov	s0, fp
 800a4b2:	4604      	mov	r4, r0
 800a4b4:	460d      	mov	r5, r1
 800a4b6:	f003 ff6d 	bl	800e394 <SPE_ipowSquare_H96e4298bd9675fbbcb46b0c1f68b039a5627ebc5_cb4a8a449b4ada864625ee5a4355578a3aaf08ed>
 800a4ba:	ee10 0a10 	vmov	r0, s0
 800a4be:	f7f6 f80f 	bl	80004e0 <__aeabi_f2d>
 800a4c2:	4602      	mov	r2, r0
 800a4c4:	460b      	mov	r3, r1
 800a4c6:	4620      	mov	r0, r4
 800a4c8:	4629      	mov	r1, r5
 800a4ca:	f7f6 f98b 	bl	80007e4 <__aeabi_ddiv>
 800a4ce:	e9dd 230a 	ldrd	r2, r3, [sp, #40]	@ 0x28
 800a4d2:	f7f5 fea7 	bl	8000224 <__adddf3>
 800a4d6:	ed9a 0a84 	vldr	s0, [sl, #528]	@ 0x210
 800a4da:	ed9a 8a19 	vldr	s16, [sl, #100]	@ 0x64
 800a4de:	e9cd 010a 	strd	r0, r1, [sp, #40]	@ 0x28
 800a4e2:	f003 ff77 	bl	800e3d4 <SPE_cos_H96e4298bd9675fbbcb46b0c1f68b039a5627ebc5_cb4a8a449b4ada864625ee5a4355578a3aaf08ed>
 800a4e6:	ee68 7a00 	vmul.f32	s15, s16, s0
 800a4ea:	ee17 0a90 	vmov	r0, s15
 800a4ee:	f7f5 fff7 	bl	80004e0 <__aeabi_f2d>
 800a4f2:	4604      	mov	r4, r0
 800a4f4:	f8da 01c0 	ldr.w	r0, [sl, #448]	@ 0x1c0
 800a4f8:	460d      	mov	r5, r1
 800a4fa:	f7f5 fff1 	bl	80004e0 <__aeabi_f2d>
 800a4fe:	9b04      	ldr	r3, [sp, #16]
 800a500:	edda 8a19 	vldr	s17, [sl, #100]	@ 0x64
 800a504:	ed9a 8a84 	vldr	s16, [sl, #528]	@ 0x210
 800a508:	4680      	mov	r8, r0
 800a50a:	4689      	mov	r9, r1
 800a50c:	2b00      	cmp	r3, #0
 800a50e:	f043 83dd 	bne.w	800dccc <DoStep_H96e4298bd9675fbbcb46b0c1f68b039a5627ebc5_cb4a8a449b4ada864625ee5a4355578a3aaf08ed+0x487c>
 800a512:	edda 6a39 	vldr	s13, [sl, #228]	@ 0xe4
 800a516:	ed9a aa3a 	vldr	s20, [sl, #232]	@ 0xe8
 800a51a:	ed9a 7a3b 	vldr	s14, [sl, #236]	@ 0xec
 800a51e:	edda 7a38 	vldr	s15, [sl, #224]	@ 0xe0
 800a522:	ee27 7a26 	vmul.f32	s14, s14, s13
 800a526:	ee6a 7a27 	vmul.f32	s15, s20, s15
 800a52a:	ee77 7a67 	vsub.f32	s15, s14, s15
 800a52e:	ee17 0a90 	vmov	r0, s15
 800a532:	f7f5 ffd5 	bl	80004e0 <__aeabi_f2d>
 800a536:	4bc0      	ldr	r3, [pc, #768]	@ (800a838 <DoStep_H96e4298bd9675fbbcb46b0c1f68b039a5627ebc5_cb4a8a449b4ada864625ee5a4355578a3aaf08ed+0x13e8>)
 800a538:	2200      	movs	r2, #0
 800a53a:	f7f5 fe73 	bl	8000224 <__adddf3>
 800a53e:	4606      	mov	r6, r0
 800a540:	ee1a 0a10 	vmov	r0, s20
 800a544:	460f      	mov	r7, r1
 800a546:	f7f5 ffcb 	bl	80004e0 <__aeabi_f2d>
 800a54a:	e9dd 2306 	ldrd	r2, r3, [sp, #24]
 800a54e:	f7f6 f81f 	bl	8000590 <__aeabi_dmul>
 800a552:	4602      	mov	r2, r0
 800a554:	460b      	mov	r3, r1
 800a556:	4630      	mov	r0, r6
 800a558:	4639      	mov	r1, r7
 800a55a:	f7f5 fe61 	bl	8000220 <__aeabi_dsub>
 800a55e:	4642      	mov	r2, r8
 800a560:	464b      	mov	r3, r9
 800a562:	f7f6 f815 	bl	8000590 <__aeabi_dmul>
 800a566:	462b      	mov	r3, r5
 800a568:	4622      	mov	r2, r4
 800a56a:	f7f6 f811 	bl	8000590 <__aeabi_dmul>
 800a56e:	eeb0 0a48 	vmov.f32	s0, s16
 800a572:	4604      	mov	r4, r0
 800a574:	460d      	mov	r5, r1
 800a576:	f003 ff2b 	bl	800e3d0 <SPE_sin_H96e4298bd9675fbbcb46b0c1f68b039a5627ebc5_cb4a8a449b4ada864625ee5a4355578a3aaf08ed>
 800a57a:	edda 6a39 	vldr	s13, [sl, #228]	@ 0xe4
 800a57e:	ed9a aa3b 	vldr	s20, [sl, #236]	@ 0xec
 800a582:	ed9a 7a3a 	vldr	s14, [sl, #232]	@ 0xe8
 800a586:	edda 7a38 	vldr	s15, [sl, #224]	@ 0xe0
 800a58a:	f8da 81c0 	ldr.w	r8, [sl, #448]	@ 0x1c0
 800a58e:	ee27 7a26 	vmul.f32	s14, s14, s13
 800a592:	ee6a 7a27 	vmul.f32	s15, s20, s15
 800a596:	eeb0 8a40 	vmov.f32	s16, s0
 800a59a:	ee77 7a27 	vadd.f32	s15, s14, s15
 800a59e:	ee17 0a90 	vmov	r0, s15
 800a5a2:	f7f5 ff9d 	bl	80004e0 <__aeabi_f2d>
 800a5a6:	4602      	mov	r2, r0
 800a5a8:	ee1a 0a10 	vmov	r0, s20
 800a5ac:	4616      	mov	r6, r2
 800a5ae:	f101 4700 	add.w	r7, r1, #2147483648	@ 0x80000000
 800a5b2:	f7f5 ff95 	bl	80004e0 <__aeabi_f2d>
 800a5b6:	e9dd 2302 	ldrd	r2, r3, [sp, #8]
 800a5ba:	f101 4100 	add.w	r1, r1, #2147483648	@ 0x80000000
 800a5be:	f7f5 ffe7 	bl	8000590 <__aeabi_dmul>
 800a5c2:	4602      	mov	r2, r0
 800a5c4:	460b      	mov	r3, r1
 800a5c6:	4630      	mov	r0, r6
 800a5c8:	4639      	mov	r1, r7
 800a5ca:	f7f5 fe29 	bl	8000220 <__aeabi_dsub>
 800a5ce:	4606      	mov	r6, r0
 800a5d0:	4640      	mov	r0, r8
 800a5d2:	460f      	mov	r7, r1
 800a5d4:	f7f5 ff84 	bl	80004e0 <__aeabi_f2d>
 800a5d8:	4602      	mov	r2, r0
 800a5da:	460b      	mov	r3, r1
 800a5dc:	4630      	mov	r0, r6
 800a5de:	4639      	mov	r1, r7
 800a5e0:	f7f5 ffd6 	bl	8000590 <__aeabi_dmul>
 800a5e4:	ee68 7a88 	vmul.f32	s15, s17, s16
 800a5e8:	4606      	mov	r6, r0
 800a5ea:	ee17 0a90 	vmov	r0, s15
 800a5ee:	460f      	mov	r7, r1
 800a5f0:	f7f5 ff76 	bl	80004e0 <__aeabi_f2d>
 800a5f4:	4602      	mov	r2, r0
 800a5f6:	460b      	mov	r3, r1
 800a5f8:	4630      	mov	r0, r6
 800a5fa:	4639      	mov	r1, r7
 800a5fc:	f7f5 ffc8 	bl	8000590 <__aeabi_dmul>
 800a600:	4622      	mov	r2, r4
 800a602:	462b      	mov	r3, r5
 800a604:	f7f5 fe0e 	bl	8000224 <__adddf3>
 800a608:	4604      	mov	r4, r0
 800a60a:	f8da 0170 	ldr.w	r0, [sl, #368]	@ 0x170
 800a60e:	460d      	mov	r5, r1
 800a610:	f7f5 ff66 	bl	80004e0 <__aeabi_f2d>
 800a614:	4602      	mov	r2, r0
 800a616:	460b      	mov	r3, r1
 800a618:	4620      	mov	r0, r4
 800a61a:	4629      	mov	r1, r5
 800a61c:	f7f5 ffb8 	bl	8000590 <__aeabi_dmul>
 800a620:	ee00 8a10 	vmov	s0, r8
 800a624:	4604      	mov	r4, r0
 800a626:	460d      	mov	r5, r1
 800a628:	f003 feb4 	bl	800e394 <SPE_ipowSquare_H96e4298bd9675fbbcb46b0c1f68b039a5627ebc5_cb4a8a449b4ada864625ee5a4355578a3aaf08ed>
 800a62c:	ee10 0a10 	vmov	r0, s0
 800a630:	f7f5 ff56 	bl	80004e0 <__aeabi_f2d>
 800a634:	4602      	mov	r2, r0
 800a636:	460b      	mov	r3, r1
 800a638:	4620      	mov	r0, r4
 800a63a:	4629      	mov	r1, r5
 800a63c:	f7f6 f8d2 	bl	80007e4 <__aeabi_ddiv>
 800a640:	e9dd 230a 	ldrd	r2, r3, [sp, #40]	@ 0x28
 800a644:	f7f5 fdee 	bl	8000224 <__adddf3>
 800a648:	f7f6 f9b4 	bl	80009b4 <__aeabi_d2f>
 800a64c:	edda 8a3a 	vldr	s17, [sl, #232]	@ 0xe8
 800a650:	ed9a 8a3b 	vldr	s16, [sl, #236]	@ 0xec
 800a654:	ed9a ba39 	vldr	s22, [sl, #228]	@ 0xe4
 800a658:	ed9a aa38 	vldr	s20, [sl, #224]	@ 0xe0
 800a65c:	ed8d 8a34 	vstr	s16, [sp, #208]	@ 0xd0
 800a660:	ee07 0a90 	vmov	s15, r0
 800a664:	ee68 6a0a 	vmul.f32	s13, s16, s20
 800a668:	ee28 7a8b 	vmul.f32	s14, s17, s22
 800a66c:	eef1 7a67 	vneg.f32	s15, s15
 800a670:	edcd 7a33 	vstr	s15, [sp, #204]	@ 0xcc
 800a674:	ee76 7a87 	vadd.f32	s15, s13, s14
 800a678:	edcd 8a35 	vstr	s17, [sp, #212]	@ 0xd4
 800a67c:	ee17 0a90 	vmov	r0, s15
 800a680:	edcd 8a36 	vstr	s17, [sp, #216]	@ 0xd8
 800a684:	ed8d 8a37 	vstr	s16, [sp, #220]	@ 0xdc
 800a688:	f7f5 ff2a 	bl	80004e0 <__aeabi_f2d>
 800a68c:	4604      	mov	r4, r0
 800a68e:	ee18 0a10 	vmov	r0, s16
 800a692:	460d      	mov	r5, r1
 800a694:	f7f5 ff24 	bl	80004e0 <__aeabi_f2d>
 800a698:	e9dd 8906 	ldrd	r8, r9, [sp, #24]
 800a69c:	f101 4100 	add.w	r1, r1, #2147483648	@ 0x80000000
 800a6a0:	4642      	mov	r2, r8
 800a6a2:	464b      	mov	r3, r9
 800a6a4:	f7f5 ff74 	bl	8000590 <__aeabi_dmul>
 800a6a8:	4602      	mov	r2, r0
 800a6aa:	460b      	mov	r3, r1
 800a6ac:	4620      	mov	r0, r4
 800a6ae:	4629      	mov	r1, r5
 800a6b0:	f7f5 fdb6 	bl	8000220 <__aeabi_dsub>
 800a6b4:	edda aa70 	vldr	s21, [sl, #448]	@ 0x1c0
 800a6b8:	edda 7a44 	vldr	s15, [sl, #272]	@ 0x110
 800a6bc:	ee6a 7aa7 	vmul.f32	s15, s21, s15
 800a6c0:	4604      	mov	r4, r0
 800a6c2:	ee17 0a90 	vmov	r0, s15
 800a6c6:	460d      	mov	r5, r1
 800a6c8:	f7f5 ff0a 	bl	80004e0 <__aeabi_f2d>
 800a6cc:	ee28 8a0b 	vmul.f32	s16, s16, s22
 800a6d0:	4602      	mov	r2, r0
 800a6d2:	460b      	mov	r3, r1
 800a6d4:	ee28 aa8a 	vmul.f32	s20, s17, s20
 800a6d8:	4620      	mov	r0, r4
 800a6da:	4629      	mov	r1, r5
 800a6dc:	f7f5 ff58 	bl	8000590 <__aeabi_dmul>
 800a6e0:	ee78 7a4a 	vsub.f32	s15, s16, s20
 800a6e4:	4604      	mov	r4, r0
 800a6e6:	ee17 0a90 	vmov	r0, s15
 800a6ea:	460d      	mov	r5, r1
 800a6ec:	f7f5 fef8 	bl	80004e0 <__aeabi_f2d>
 800a6f0:	4b51      	ldr	r3, [pc, #324]	@ (800a838 <DoStep_H96e4298bd9675fbbcb46b0c1f68b039a5627ebc5_cb4a8a449b4ada864625ee5a4355578a3aaf08ed+0x13e8>)
 800a6f2:	2200      	movs	r2, #0
 800a6f4:	f7f5 fd96 	bl	8000224 <__adddf3>
 800a6f8:	4606      	mov	r6, r0
 800a6fa:	ee18 0a90 	vmov	r0, s17
 800a6fe:	460f      	mov	r7, r1
 800a700:	f7f5 feee 	bl	80004e0 <__aeabi_f2d>
 800a704:	e9dd 2302 	ldrd	r2, r3, [sp, #8]
 800a708:	f101 4100 	add.w	r1, r1, #2147483648	@ 0x80000000
 800a70c:	f7f5 ff40 	bl	8000590 <__aeabi_dmul>
 800a710:	4602      	mov	r2, r0
 800a712:	460b      	mov	r3, r1
 800a714:	4630      	mov	r0, r6
 800a716:	4639      	mov	r1, r7
 800a718:	f7f5 fd82 	bl	8000220 <__aeabi_dsub>
 800a71c:	edda 7a43 	vldr	s15, [sl, #268]	@ 0x10c
 800a720:	ee6a 7aa7 	vmul.f32	s15, s21, s15
 800a724:	4606      	mov	r6, r0
 800a726:	ee17 0a90 	vmov	r0, s15
 800a72a:	460f      	mov	r7, r1
 800a72c:	f7f5 fed8 	bl	80004e0 <__aeabi_f2d>
 800a730:	4602      	mov	r2, r0
 800a732:	460b      	mov	r3, r1
 800a734:	4630      	mov	r0, r6
 800a736:	4639      	mov	r1, r7
 800a738:	f7f5 ff2a 	bl	8000590 <__aeabi_dmul>
 800a73c:	4602      	mov	r2, r0
 800a73e:	460b      	mov	r3, r1
 800a740:	4620      	mov	r0, r4
 800a742:	4629      	mov	r1, r5
 800a744:	f7f5 fd6c 	bl	8000220 <__aeabi_dsub>
 800a748:	ed9a 0a84 	vldr	s0, [sl, #528]	@ 0x210
 800a74c:	ed9a 8a12 	vldr	s16, [sl, #72]	@ 0x48
 800a750:	4604      	mov	r4, r0
 800a752:	460d      	mov	r5, r1
 800a754:	f003 fe3c 	bl	800e3d0 <SPE_sin_H96e4298bd9675fbbcb46b0c1f68b039a5627ebc5_cb4a8a449b4ada864625ee5a4355578a3aaf08ed>
 800a758:	ee68 7a00 	vmul.f32	s15, s16, s0
 800a75c:	ee17 0a90 	vmov	r0, s15
 800a760:	f7f5 febe 	bl	80004e0 <__aeabi_f2d>
 800a764:	4622      	mov	r2, r4
 800a766:	462b      	mov	r3, r5
 800a768:	f7f5 ff12 	bl	8000590 <__aeabi_dmul>
 800a76c:	ed9a 8a3b 	vldr	s16, [sl, #236]	@ 0xec
 800a770:	ed9a aa3a 	vldr	s20, [sl, #232]	@ 0xe8
 800a774:	edda 8a38 	vldr	s17, [sl, #224]	@ 0xe0
 800a778:	edda aa39 	vldr	s21, [sl, #228]	@ 0xe4
 800a77c:	ed9a ba70 	vldr	s22, [sl, #448]	@ 0x1c0
 800a780:	ee28 7a28 	vmul.f32	s14, s16, s17
 800a784:	ee6a 7a2a 	vmul.f32	s15, s20, s21
 800a788:	4606      	mov	r6, r0
 800a78a:	ee77 7a27 	vadd.f32	s15, s14, s15
 800a78e:	460f      	mov	r7, r1
 800a790:	ee17 0a90 	vmov	r0, s15
 800a794:	f7f5 fea4 	bl	80004e0 <__aeabi_f2d>
 800a798:	4604      	mov	r4, r0
 800a79a:	ee18 0a10 	vmov	r0, s16
 800a79e:	460d      	mov	r5, r1
 800a7a0:	f7f5 fe9e 	bl	80004e0 <__aeabi_f2d>
 800a7a4:	4642      	mov	r2, r8
 800a7a6:	464b      	mov	r3, r9
 800a7a8:	f101 4100 	add.w	r1, r1, #2147483648	@ 0x80000000
 800a7ac:	f7f5 fef0 	bl	8000590 <__aeabi_dmul>
 800a7b0:	4602      	mov	r2, r0
 800a7b2:	460b      	mov	r3, r1
 800a7b4:	4620      	mov	r0, r4
 800a7b6:	4629      	mov	r1, r5
 800a7b8:	f7f5 fd32 	bl	8000220 <__aeabi_dsub>
 800a7bc:	edda 7a43 	vldr	s15, [sl, #268]	@ 0x10c
 800a7c0:	ee6b 7a27 	vmul.f32	s15, s22, s15
 800a7c4:	4604      	mov	r4, r0
 800a7c6:	ee17 0a90 	vmov	r0, s15
 800a7ca:	460d      	mov	r5, r1
 800a7cc:	f7f5 fe88 	bl	80004e0 <__aeabi_f2d>
 800a7d0:	4602      	mov	r2, r0
 800a7d2:	460b      	mov	r3, r1
 800a7d4:	4620      	mov	r0, r4
 800a7d6:	4629      	mov	r1, r5
 800a7d8:	f7f5 feda 	bl	8000590 <__aeabi_dmul>
 800a7dc:	edda 7a44 	vldr	s15, [sl, #272]	@ 0x110
 800a7e0:	ee6b 7a27 	vmul.f32	s15, s22, s15
 800a7e4:	ee28 8a2a 	vmul.f32	s16, s16, s21
 800a7e8:	ee68 8a8a 	vmul.f32	s17, s17, s20
 800a7ec:	4680      	mov	r8, r0
 800a7ee:	ee17 0a90 	vmov	r0, s15
 800a7f2:	4689      	mov	r9, r1
 800a7f4:	f7f5 fe74 	bl	80004e0 <__aeabi_f2d>
 800a7f8:	ee78 7a68 	vsub.f32	s15, s16, s17
 800a7fc:	4604      	mov	r4, r0
 800a7fe:	ee17 0a90 	vmov	r0, s15
 800a802:	460d      	mov	r5, r1
 800a804:	f7f5 fe6c 	bl	80004e0 <__aeabi_f2d>
 800a808:	4b0b      	ldr	r3, [pc, #44]	@ (800a838 <DoStep_H96e4298bd9675fbbcb46b0c1f68b039a5627ebc5_cb4a8a449b4ada864625ee5a4355578a3aaf08ed+0x13e8>)
 800a80a:	2200      	movs	r2, #0
 800a80c:	f7f5 fd0a 	bl	8000224 <__adddf3>
 800a810:	e9cd 010a 	strd	r0, r1, [sp, #40]	@ 0x28
 800a814:	ee1a 0a10 	vmov	r0, s20
 800a818:	f7f5 fe62 	bl	80004e0 <__aeabi_f2d>
 800a81c:	e9dd 2302 	ldrd	r2, r3, [sp, #8]
 800a820:	f101 4100 	add.w	r1, r1, #2147483648	@ 0x80000000
 800a824:	f7f5 feb4 	bl	8000590 <__aeabi_dmul>
 800a828:	4602      	mov	r2, r0
 800a82a:	460b      	mov	r3, r1
 800a82c:	e9dd 010a 	ldrd	r0, r1, [sp, #40]	@ 0x28
 800a830:	f7f5 fcf6 	bl	8000220 <__aeabi_dsub>
 800a834:	e002      	b.n	800a83c <DoStep_H96e4298bd9675fbbcb46b0c1f68b039a5627ebc5_cb4a8a449b4ada864625ee5a4355578a3aaf08ed+0x13ec>
 800a836:	bf00      	nop
 800a838:	3ff00000 	.word	0x3ff00000
 800a83c:	4622      	mov	r2, r4
 800a83e:	462b      	mov	r3, r5
 800a840:	f7f5 fea6 	bl	8000590 <__aeabi_dmul>
 800a844:	4642      	mov	r2, r8
 800a846:	464b      	mov	r3, r9
 800a848:	f7f5 fcec 	bl	8000224 <__adddf3>
 800a84c:	ed9a 0a84 	vldr	s0, [sl, #528]	@ 0x210
 800a850:	ed9a 8a12 	vldr	s16, [sl, #72]	@ 0x48
 800a854:	4604      	mov	r4, r0
 800a856:	460d      	mov	r5, r1
 800a858:	f003 fdbc 	bl	800e3d4 <SPE_cos_H96e4298bd9675fbbcb46b0c1f68b039a5627ebc5_cb4a8a449b4ada864625ee5a4355578a3aaf08ed>
 800a85c:	ee68 7a00 	vmul.f32	s15, s16, s0
 800a860:	ee17 0a90 	vmov	r0, s15
 800a864:	f7f5 fe3c 	bl	80004e0 <__aeabi_f2d>
 800a868:	4622      	mov	r2, r4
 800a86a:	462b      	mov	r3, r5
 800a86c:	f7f5 fe90 	bl	8000590 <__aeabi_dmul>
 800a870:	460b      	mov	r3, r1
 800a872:	4602      	mov	r2, r0
 800a874:	4639      	mov	r1, r7
 800a876:	4630      	mov	r0, r6
 800a878:	f7f5 fcd2 	bl	8000220 <__aeabi_dsub>
 800a87c:	ed9a 0a84 	vldr	s0, [sl, #528]	@ 0x210
 800a880:	ed9a 8a19 	vldr	s16, [sl, #100]	@ 0x64
 800a884:	e9cd 010a 	strd	r0, r1, [sp, #40]	@ 0x28
 800a888:	f003 fda2 	bl	800e3d0 <SPE_sin_H96e4298bd9675fbbcb46b0c1f68b039a5627ebc5_cb4a8a449b4ada864625ee5a4355578a3aaf08ed>
 800a88c:	ee68 7a00 	vmul.f32	s15, s16, s0
 800a890:	ee17 0a90 	vmov	r0, s15
 800a894:	f7f5 fe24 	bl	80004e0 <__aeabi_f2d>
 800a898:	4680      	mov	r8, r0
 800a89a:	f8da 01c0 	ldr.w	r0, [sl, #448]	@ 0x1c0
 800a89e:	4689      	mov	r9, r1
 800a8a0:	f7f5 fe1e 	bl	80004e0 <__aeabi_f2d>
 800a8a4:	9b04      	ldr	r3, [sp, #16]
 800a8a6:	ed9a 8a19 	vldr	s16, [sl, #100]	@ 0x64
 800a8aa:	edda 8a84 	vldr	s17, [sl, #528]	@ 0x210
 800a8ae:	4604      	mov	r4, r0
 800a8b0:	460d      	mov	r5, r1
 800a8b2:	2b00      	cmp	r3, #0
 800a8b4:	f043 84fd 	bne.w	800e2b2 <DoStep_H96e4298bd9675fbbcb46b0c1f68b039a5627ebc5_cb4a8a449b4ada864625ee5a4355578a3aaf08ed+0x4e62>
 800a8b8:	edda 6a39 	vldr	s13, [sl, #228]	@ 0xe4
 800a8bc:	ed9a aa3b 	vldr	s20, [sl, #236]	@ 0xec
 800a8c0:	ed9a 7a3a 	vldr	s14, [sl, #232]	@ 0xe8
 800a8c4:	edda 7a38 	vldr	s15, [sl, #224]	@ 0xe0
 800a8c8:	ee27 7a26 	vmul.f32	s14, s14, s13
 800a8cc:	ee6a 7a27 	vmul.f32	s15, s20, s15
 800a8d0:	ee77 7a27 	vadd.f32	s15, s14, s15
 800a8d4:	ee17 0a90 	vmov	r0, s15
 800a8d8:	f7f5 fe02 	bl	80004e0 <__aeabi_f2d>
 800a8dc:	4606      	mov	r6, r0
 800a8de:	ee1a 0a10 	vmov	r0, s20
 800a8e2:	460f      	mov	r7, r1
 800a8e4:	f7f5 fdfc 	bl	80004e0 <__aeabi_f2d>
 800a8e8:	e9dd 2306 	ldrd	r2, r3, [sp, #24]
 800a8ec:	f101 4100 	add.w	r1, r1, #2147483648	@ 0x80000000
 800a8f0:	f7f5 fe4e 	bl	8000590 <__aeabi_dmul>
 800a8f4:	4602      	mov	r2, r0
 800a8f6:	460b      	mov	r3, r1
 800a8f8:	4630      	mov	r0, r6
 800a8fa:	4639      	mov	r1, r7
 800a8fc:	f7f5 fc90 	bl	8000220 <__aeabi_dsub>
 800a900:	4622      	mov	r2, r4
 800a902:	462b      	mov	r3, r5
 800a904:	f7f5 fe44 	bl	8000590 <__aeabi_dmul>
 800a908:	4642      	mov	r2, r8
 800a90a:	464b      	mov	r3, r9
 800a90c:	f7f5 fe40 	bl	8000590 <__aeabi_dmul>
 800a910:	eeb0 0a68 	vmov.f32	s0, s17
 800a914:	e9cd 010c 	strd	r0, r1, [sp, #48]	@ 0x30
 800a918:	f003 fd5c 	bl	800e3d4 <SPE_cos_H96e4298bd9675fbbcb46b0c1f68b039a5627ebc5_cb4a8a449b4ada864625ee5a4355578a3aaf08ed>
 800a91c:	ee68 7a00 	vmul.f32	s15, s16, s0
 800a920:	ee17 0a90 	vmov	r0, s15
 800a924:	f7f5 fddc 	bl	80004e0 <__aeabi_f2d>
 800a928:	f8da b1c0 	ldr.w	fp, [sl, #448]	@ 0x1c0
 800a92c:	4680      	mov	r8, r0
 800a92e:	4658      	mov	r0, fp
 800a930:	4689      	mov	r9, r1
 800a932:	f7f5 fdd5 	bl	80004e0 <__aeabi_f2d>
 800a936:	edda 6a39 	vldr	s13, [sl, #228]	@ 0xe4
 800a93a:	ed9a 8a3a 	vldr	s16, [sl, #232]	@ 0xe8
 800a93e:	ed9a 7a3b 	vldr	s14, [sl, #236]	@ 0xec
 800a942:	edda 7a38 	vldr	s15, [sl, #224]	@ 0xe0
 800a946:	ee27 7a26 	vmul.f32	s14, s14, s13
 800a94a:	ee68 7a27 	vmul.f32	s15, s16, s15
 800a94e:	4604      	mov	r4, r0
 800a950:	ee77 7a67 	vsub.f32	s15, s14, s15
 800a954:	460d      	mov	r5, r1
 800a956:	ee17 0a90 	vmov	r0, s15
 800a95a:	f7f5 fdc1 	bl	80004e0 <__aeabi_f2d>
 800a95e:	4beb      	ldr	r3, [pc, #940]	@ (800ad0c <DoStep_H96e4298bd9675fbbcb46b0c1f68b039a5627ebc5_cb4a8a449b4ada864625ee5a4355578a3aaf08ed+0x18bc>)
 800a960:	2200      	movs	r2, #0
 800a962:	f7f5 fc5f 	bl	8000224 <__adddf3>
 800a966:	4606      	mov	r6, r0
 800a968:	ee18 0a10 	vmov	r0, s16
 800a96c:	460f      	mov	r7, r1
 800a96e:	f7f5 fdb7 	bl	80004e0 <__aeabi_f2d>
 800a972:	f101 4100 	add.w	r1, r1, #2147483648	@ 0x80000000
 800a976:	e9dd 2302 	ldrd	r2, r3, [sp, #8]
 800a97a:	f7f5 fe09 	bl	8000590 <__aeabi_dmul>
 800a97e:	4602      	mov	r2, r0
 800a980:	460b      	mov	r3, r1
 800a982:	4630      	mov	r0, r6
 800a984:	4639      	mov	r1, r7
 800a986:	f7f5 fc4b 	bl	8000220 <__aeabi_dsub>
 800a98a:	4622      	mov	r2, r4
 800a98c:	462b      	mov	r3, r5
 800a98e:	f7f5 fdff 	bl	8000590 <__aeabi_dmul>
 800a992:	4642      	mov	r2, r8
 800a994:	464b      	mov	r3, r9
 800a996:	f7f5 fdfb 	bl	8000590 <__aeabi_dmul>
 800a99a:	4602      	mov	r2, r0
 800a99c:	460b      	mov	r3, r1
 800a99e:	e9dd 010c 	ldrd	r0, r1, [sp, #48]	@ 0x30
 800a9a2:	f7f5 fc3d 	bl	8000220 <__aeabi_dsub>
 800a9a6:	4604      	mov	r4, r0
 800a9a8:	f8da 0174 	ldr.w	r0, [sl, #372]	@ 0x174
 800a9ac:	460d      	mov	r5, r1
 800a9ae:	f7f5 fd97 	bl	80004e0 <__aeabi_f2d>
 800a9b2:	4602      	mov	r2, r0
 800a9b4:	460b      	mov	r3, r1
 800a9b6:	4620      	mov	r0, r4
 800a9b8:	4629      	mov	r1, r5
 800a9ba:	f7f5 fde9 	bl	8000590 <__aeabi_dmul>
 800a9be:	ee00 ba10 	vmov	s0, fp
 800a9c2:	4604      	mov	r4, r0
 800a9c4:	460d      	mov	r5, r1
 800a9c6:	f003 fce5 	bl	800e394 <SPE_ipowSquare_H96e4298bd9675fbbcb46b0c1f68b039a5627ebc5_cb4a8a449b4ada864625ee5a4355578a3aaf08ed>
 800a9ca:	ee10 0a10 	vmov	r0, s0
 800a9ce:	f7f5 fd87 	bl	80004e0 <__aeabi_f2d>
 800a9d2:	4602      	mov	r2, r0
 800a9d4:	460b      	mov	r3, r1
 800a9d6:	4620      	mov	r0, r4
 800a9d8:	4629      	mov	r1, r5
 800a9da:	f7f5 ff03 	bl	80007e4 <__aeabi_ddiv>
 800a9de:	e9dd 230a 	ldrd	r2, r3, [sp, #40]	@ 0x28
 800a9e2:	f7f5 fc1f 	bl	8000224 <__adddf3>
 800a9e6:	ed9a 0a84 	vldr	s0, [sl, #528]	@ 0x210
 800a9ea:	ed9a 8a19 	vldr	s16, [sl, #100]	@ 0x64
 800a9ee:	e9cd 010a 	strd	r0, r1, [sp, #40]	@ 0x28
 800a9f2:	f003 fcef 	bl	800e3d4 <SPE_cos_H96e4298bd9675fbbcb46b0c1f68b039a5627ebc5_cb4a8a449b4ada864625ee5a4355578a3aaf08ed>
 800a9f6:	ee68 7a00 	vmul.f32	s15, s16, s0
 800a9fa:	ee17 0a90 	vmov	r0, s15
 800a9fe:	f7f5 fd6f 	bl	80004e0 <__aeabi_f2d>
 800aa02:	4680      	mov	r8, r0
 800aa04:	f8da 01c0 	ldr.w	r0, [sl, #448]	@ 0x1c0
 800aa08:	4689      	mov	r9, r1
 800aa0a:	f7f5 fd69 	bl	80004e0 <__aeabi_f2d>
 800aa0e:	9b04      	ldr	r3, [sp, #16]
 800aa10:	ed9a 8a19 	vldr	s16, [sl, #100]	@ 0x64
 800aa14:	edda 8a84 	vldr	s17, [sl, #528]	@ 0x210
 800aa18:	4604      	mov	r4, r0
 800aa1a:	460d      	mov	r5, r1
 800aa1c:	2b00      	cmp	r3, #0
 800aa1e:	f043 841f 	bne.w	800e260 <DoStep_H96e4298bd9675fbbcb46b0c1f68b039a5627ebc5_cb4a8a449b4ada864625ee5a4355578a3aaf08ed+0x4e10>
 800aa22:	edda 6a39 	vldr	s13, [sl, #228]	@ 0xe4
 800aa26:	ed9a aa3b 	vldr	s20, [sl, #236]	@ 0xec
 800aa2a:	ed9a 7a3a 	vldr	s14, [sl, #232]	@ 0xe8
 800aa2e:	edda 7a38 	vldr	s15, [sl, #224]	@ 0xe0
 800aa32:	ee27 7a26 	vmul.f32	s14, s14, s13
 800aa36:	ee6a 7a27 	vmul.f32	s15, s20, s15
 800aa3a:	ee77 7a27 	vadd.f32	s15, s14, s15
 800aa3e:	ee17 0a90 	vmov	r0, s15
 800aa42:	f7f5 fd4d 	bl	80004e0 <__aeabi_f2d>
 800aa46:	4606      	mov	r6, r0
 800aa48:	ee1a 0a10 	vmov	r0, s20
 800aa4c:	460f      	mov	r7, r1
 800aa4e:	f7f5 fd47 	bl	80004e0 <__aeabi_f2d>
 800aa52:	e9dd 2306 	ldrd	r2, r3, [sp, #24]
 800aa56:	f101 4100 	add.w	r1, r1, #2147483648	@ 0x80000000
 800aa5a:	f7f5 fd99 	bl	8000590 <__aeabi_dmul>
 800aa5e:	4602      	mov	r2, r0
 800aa60:	460b      	mov	r3, r1
 800aa62:	4630      	mov	r0, r6
 800aa64:	4639      	mov	r1, r7
 800aa66:	f7f5 fbdb 	bl	8000220 <__aeabi_dsub>
 800aa6a:	4622      	mov	r2, r4
 800aa6c:	462b      	mov	r3, r5
 800aa6e:	f7f5 fd8f 	bl	8000590 <__aeabi_dmul>
 800aa72:	4642      	mov	r2, r8
 800aa74:	464b      	mov	r3, r9
 800aa76:	f7f5 fd8b 	bl	8000590 <__aeabi_dmul>
 800aa7a:	eeb0 0a68 	vmov.f32	s0, s17
 800aa7e:	e9cd 010c 	strd	r0, r1, [sp, #48]	@ 0x30
 800aa82:	f003 fca5 	bl	800e3d0 <SPE_sin_H96e4298bd9675fbbcb46b0c1f68b039a5627ebc5_cb4a8a449b4ada864625ee5a4355578a3aaf08ed>
 800aa86:	ee68 7a00 	vmul.f32	s15, s16, s0
 800aa8a:	ee17 0a90 	vmov	r0, s15
 800aa8e:	f7f5 fd27 	bl	80004e0 <__aeabi_f2d>
 800aa92:	f8da b1c0 	ldr.w	fp, [sl, #448]	@ 0x1c0
 800aa96:	4680      	mov	r8, r0
 800aa98:	4658      	mov	r0, fp
 800aa9a:	4689      	mov	r9, r1
 800aa9c:	f7f5 fd20 	bl	80004e0 <__aeabi_f2d>
 800aaa0:	edda 6a39 	vldr	s13, [sl, #228]	@ 0xe4
 800aaa4:	ed9a 8a3a 	vldr	s16, [sl, #232]	@ 0xe8
 800aaa8:	ed9a 7a3b 	vldr	s14, [sl, #236]	@ 0xec
 800aaac:	edda 7a38 	vldr	s15, [sl, #224]	@ 0xe0
 800aab0:	ee27 7a26 	vmul.f32	s14, s14, s13
 800aab4:	ee68 7a27 	vmul.f32	s15, s16, s15
 800aab8:	4604      	mov	r4, r0
 800aaba:	ee77 7a67 	vsub.f32	s15, s14, s15
 800aabe:	460d      	mov	r5, r1
 800aac0:	ee17 0a90 	vmov	r0, s15
 800aac4:	f7f5 fd0c 	bl	80004e0 <__aeabi_f2d>
 800aac8:	4b90      	ldr	r3, [pc, #576]	@ (800ad0c <DoStep_H96e4298bd9675fbbcb46b0c1f68b039a5627ebc5_cb4a8a449b4ada864625ee5a4355578a3aaf08ed+0x18bc>)
 800aaca:	2200      	movs	r2, #0
 800aacc:	f7f5 fbaa 	bl	8000224 <__adddf3>
 800aad0:	4606      	mov	r6, r0
 800aad2:	ee18 0a10 	vmov	r0, s16
 800aad6:	460f      	mov	r7, r1
 800aad8:	f7f5 fd02 	bl	80004e0 <__aeabi_f2d>
 800aadc:	f101 4100 	add.w	r1, r1, #2147483648	@ 0x80000000
 800aae0:	e9dd 2302 	ldrd	r2, r3, [sp, #8]
 800aae4:	f7f5 fd54 	bl	8000590 <__aeabi_dmul>
 800aae8:	4602      	mov	r2, r0
 800aaea:	460b      	mov	r3, r1
 800aaec:	4630      	mov	r0, r6
 800aaee:	4639      	mov	r1, r7
 800aaf0:	f7f5 fb96 	bl	8000220 <__aeabi_dsub>
 800aaf4:	4622      	mov	r2, r4
 800aaf6:	462b      	mov	r3, r5
 800aaf8:	f7f5 fd4a 	bl	8000590 <__aeabi_dmul>
 800aafc:	4642      	mov	r2, r8
 800aafe:	464b      	mov	r3, r9
 800ab00:	f7f5 fd46 	bl	8000590 <__aeabi_dmul>
 800ab04:	e9dd 230c 	ldrd	r2, r3, [sp, #48]	@ 0x30
 800ab08:	f7f5 fb8c 	bl	8000224 <__adddf3>
 800ab0c:	4604      	mov	r4, r0
 800ab0e:	f8da 0164 	ldr.w	r0, [sl, #356]	@ 0x164
 800ab12:	460d      	mov	r5, r1
 800ab14:	f7f5 fce4 	bl	80004e0 <__aeabi_f2d>
 800ab18:	4602      	mov	r2, r0
 800ab1a:	460b      	mov	r3, r1
 800ab1c:	4620      	mov	r0, r4
 800ab1e:	4629      	mov	r1, r5
 800ab20:	f7f5 fd36 	bl	8000590 <__aeabi_dmul>
 800ab24:	ee00 ba10 	vmov	s0, fp
 800ab28:	4604      	mov	r4, r0
 800ab2a:	460d      	mov	r5, r1
 800ab2c:	f003 fc32 	bl	800e394 <SPE_ipowSquare_H96e4298bd9675fbbcb46b0c1f68b039a5627ebc5_cb4a8a449b4ada864625ee5a4355578a3aaf08ed>
 800ab30:	ee10 0a10 	vmov	r0, s0
 800ab34:	f7f5 fcd4 	bl	80004e0 <__aeabi_f2d>
 800ab38:	4602      	mov	r2, r0
 800ab3a:	460b      	mov	r3, r1
 800ab3c:	4620      	mov	r0, r4
 800ab3e:	4629      	mov	r1, r5
 800ab40:	f7f5 fe50 	bl	80007e4 <__aeabi_ddiv>
 800ab44:	460b      	mov	r3, r1
 800ab46:	4602      	mov	r2, r0
 800ab48:	e9dd 010a 	ldrd	r0, r1, [sp, #40]	@ 0x28
 800ab4c:	f7f5 fb68 	bl	8000220 <__aeabi_dsub>
 800ab50:	f7f5 ff30 	bl	80009b4 <__aeabi_d2f>
 800ab54:	ed9a 8a70 	vldr	s16, [sl, #448]	@ 0x1c0
 800ab58:	edda 7a43 	vldr	s15, [sl, #268]	@ 0x10c
 800ab5c:	9038      	str	r0, [sp, #224]	@ 0xe0
 800ab5e:	ee68 7a27 	vmul.f32	s15, s16, s15
 800ab62:	ee17 0a90 	vmov	r0, s15
 800ab66:	f7f5 fcbb 	bl	80004e0 <__aeabi_f2d>
 800ab6a:	edda 7a44 	vldr	s15, [sl, #272]	@ 0x110
 800ab6e:	ee68 7a27 	vmul.f32	s15, s16, s15
 800ab72:	4680      	mov	r8, r0
 800ab74:	ee17 0a90 	vmov	r0, s15
 800ab78:	4689      	mov	r9, r1
 800ab7a:	f7f5 fcb1 	bl	80004e0 <__aeabi_f2d>
 800ab7e:	9b04      	ldr	r3, [sp, #16]
 800ab80:	ed9a aa12 	vldr	s20, [sl, #72]	@ 0x48
 800ab84:	edda aa84 	vldr	s21, [sl, #528]	@ 0x210
 800ab88:	4604      	mov	r4, r0
 800ab8a:	460d      	mov	r5, r1
 800ab8c:	2b00      	cmp	r3, #0
 800ab8e:	f043 8319 	bne.w	800e1c4 <DoStep_H96e4298bd9675fbbcb46b0c1f68b039a5627ebc5_cb4a8a449b4ada864625ee5a4355578a3aaf08ed+0x4d74>
 800ab92:	ed9a ba3b 	vldr	s22, [sl, #236]	@ 0xec
 800ab96:	ed9a 8a3a 	vldr	s16, [sl, #232]	@ 0xe8
 800ab9a:	edda 8a38 	vldr	s17, [sl, #224]	@ 0xe0
 800ab9e:	edda ba39 	vldr	s23, [sl, #228]	@ 0xe4
 800aba2:	ee68 7a88 	vmul.f32	s15, s17, s16
 800aba6:	ee2b 7a2b 	vmul.f32	s14, s22, s23
 800abaa:	ee6b 8a28 	vmul.f32	s17, s22, s17
 800abae:	ee77 7a67 	vsub.f32	s15, s14, s15
 800abb2:	ee17 0a90 	vmov	r0, s15
 800abb6:	f7f5 fc93 	bl	80004e0 <__aeabi_f2d>
 800abba:	4b54      	ldr	r3, [pc, #336]	@ (800ad0c <DoStep_H96e4298bd9675fbbcb46b0c1f68b039a5627ebc5_cb4a8a449b4ada864625ee5a4355578a3aaf08ed+0x18bc>)
 800abbc:	2200      	movs	r2, #0
 800abbe:	f7f5 fb31 	bl	8000224 <__adddf3>
 800abc2:	4606      	mov	r6, r0
 800abc4:	ee18 0a10 	vmov	r0, s16
 800abc8:	460f      	mov	r7, r1
 800abca:	f7f5 fc89 	bl	80004e0 <__aeabi_f2d>
 800abce:	e9dd 2302 	ldrd	r2, r3, [sp, #8]
 800abd2:	f101 4100 	add.w	r1, r1, #2147483648	@ 0x80000000
 800abd6:	f7f5 fcdb 	bl	8000590 <__aeabi_dmul>
 800abda:	4602      	mov	r2, r0
 800abdc:	460b      	mov	r3, r1
 800abde:	4630      	mov	r0, r6
 800abe0:	4639      	mov	r1, r7
 800abe2:	f7f5 fb1d 	bl	8000220 <__aeabi_dsub>
 800abe6:	ee28 8a2b 	vmul.f32	s16, s16, s23
 800abea:	4622      	mov	r2, r4
 800abec:	462b      	mov	r3, r5
 800abee:	f7f5 fccf 	bl	8000590 <__aeabi_dmul>
 800abf2:	ee78 7a88 	vadd.f32	s15, s17, s16
 800abf6:	4604      	mov	r4, r0
 800abf8:	ee17 0a90 	vmov	r0, s15
 800abfc:	460d      	mov	r5, r1
 800abfe:	f7f5 fc6f 	bl	80004e0 <__aeabi_f2d>
 800ac02:	4606      	mov	r6, r0
 800ac04:	ee1b 0a10 	vmov	r0, s22
 800ac08:	460f      	mov	r7, r1
 800ac0a:	f7f5 fc69 	bl	80004e0 <__aeabi_f2d>
 800ac0e:	e9dd 2306 	ldrd	r2, r3, [sp, #24]
 800ac12:	f101 4100 	add.w	r1, r1, #2147483648	@ 0x80000000
 800ac16:	f7f5 fcbb 	bl	8000590 <__aeabi_dmul>
 800ac1a:	4602      	mov	r2, r0
 800ac1c:	460b      	mov	r3, r1
 800ac1e:	4630      	mov	r0, r6
 800ac20:	4639      	mov	r1, r7
 800ac22:	f7f5 fafd 	bl	8000220 <__aeabi_dsub>
 800ac26:	4642      	mov	r2, r8
 800ac28:	464b      	mov	r3, r9
 800ac2a:	f7f5 fcb1 	bl	8000590 <__aeabi_dmul>
 800ac2e:	4602      	mov	r2, r0
 800ac30:	460b      	mov	r3, r1
 800ac32:	4620      	mov	r0, r4
 800ac34:	4629      	mov	r1, r5
 800ac36:	f7f5 faf5 	bl	8000224 <__adddf3>
 800ac3a:	eeb0 0a6a 	vmov.f32	s0, s21
 800ac3e:	4604      	mov	r4, r0
 800ac40:	460d      	mov	r5, r1
 800ac42:	f003 fbc5 	bl	800e3d0 <SPE_sin_H96e4298bd9675fbbcb46b0c1f68b039a5627ebc5_cb4a8a449b4ada864625ee5a4355578a3aaf08ed>
 800ac46:	ee6a 7a00 	vmul.f32	s15, s20, s0
 800ac4a:	ee17 0a90 	vmov	r0, s15
 800ac4e:	f7f5 fc47 	bl	80004e0 <__aeabi_f2d>
 800ac52:	4622      	mov	r2, r4
 800ac54:	462b      	mov	r3, r5
 800ac56:	f7f5 fc9b 	bl	8000590 <__aeabi_dmul>
 800ac5a:	ed9a 8a3b 	vldr	s16, [sl, #236]	@ 0xec
 800ac5e:	ed9a aa3a 	vldr	s20, [sl, #232]	@ 0xe8
 800ac62:	edda 8a38 	vldr	s17, [sl, #224]	@ 0xe0
 800ac66:	edda aa39 	vldr	s21, [sl, #228]	@ 0xe4
 800ac6a:	ed9a ba70 	vldr	s22, [sl, #448]	@ 0x1c0
 800ac6e:	ee28 7a28 	vmul.f32	s14, s16, s17
 800ac72:	ee6a 7a2a 	vmul.f32	s15, s20, s21
 800ac76:	e9cd 010a 	strd	r0, r1, [sp, #40]	@ 0x28
 800ac7a:	ee77 7a27 	vadd.f32	s15, s14, s15
 800ac7e:	ee68 8a8a 	vmul.f32	s17, s17, s20
 800ac82:	ee17 0a90 	vmov	r0, s15
 800ac86:	f7f5 fc2b 	bl	80004e0 <__aeabi_f2d>
 800ac8a:	4604      	mov	r4, r0
 800ac8c:	ee18 0a10 	vmov	r0, s16
 800ac90:	460d      	mov	r5, r1
 800ac92:	f7f5 fc25 	bl	80004e0 <__aeabi_f2d>
 800ac96:	e9dd 2306 	ldrd	r2, r3, [sp, #24]
 800ac9a:	f101 4100 	add.w	r1, r1, #2147483648	@ 0x80000000
 800ac9e:	f7f5 fc77 	bl	8000590 <__aeabi_dmul>
 800aca2:	4602      	mov	r2, r0
 800aca4:	460b      	mov	r3, r1
 800aca6:	4620      	mov	r0, r4
 800aca8:	4629      	mov	r1, r5
 800acaa:	f7f5 fab9 	bl	8000220 <__aeabi_dsub>
 800acae:	edda 7a44 	vldr	s15, [sl, #272]	@ 0x110
 800acb2:	ee6b 7a27 	vmul.f32	s15, s22, s15
 800acb6:	4604      	mov	r4, r0
 800acb8:	ee17 0a90 	vmov	r0, s15
 800acbc:	460d      	mov	r5, r1
 800acbe:	f7f5 fc0f 	bl	80004e0 <__aeabi_f2d>
 800acc2:	4602      	mov	r2, r0
 800acc4:	460b      	mov	r3, r1
 800acc6:	4620      	mov	r0, r4
 800acc8:	4629      	mov	r1, r5
 800acca:	f7f5 fc61 	bl	8000590 <__aeabi_dmul>
 800acce:	edda 7a43 	vldr	s15, [sl, #268]	@ 0x10c
 800acd2:	ee6b 7a27 	vmul.f32	s15, s22, s15
 800acd6:	ee28 8a2a 	vmul.f32	s16, s16, s21
 800acda:	4680      	mov	r8, r0
 800acdc:	ee17 0a90 	vmov	r0, s15
 800ace0:	4689      	mov	r9, r1
 800ace2:	f7f5 fbfd 	bl	80004e0 <__aeabi_f2d>
 800ace6:	ee78 7a68 	vsub.f32	s15, s16, s17
 800acea:	4604      	mov	r4, r0
 800acec:	ee17 0a90 	vmov	r0, s15
 800acf0:	460d      	mov	r5, r1
 800acf2:	f7f5 fbf5 	bl	80004e0 <__aeabi_f2d>
 800acf6:	4b05      	ldr	r3, [pc, #20]	@ (800ad0c <DoStep_H96e4298bd9675fbbcb46b0c1f68b039a5627ebc5_cb4a8a449b4ada864625ee5a4355578a3aaf08ed+0x18bc>)
 800acf8:	2200      	movs	r2, #0
 800acfa:	f7f5 fa93 	bl	8000224 <__adddf3>
 800acfe:	4606      	mov	r6, r0
 800ad00:	ee1a 0a10 	vmov	r0, s20
 800ad04:	460f      	mov	r7, r1
 800ad06:	f7f5 fbeb 	bl	80004e0 <__aeabi_f2d>
 800ad0a:	e001      	b.n	800ad10 <DoStep_H96e4298bd9675fbbcb46b0c1f68b039a5627ebc5_cb4a8a449b4ada864625ee5a4355578a3aaf08ed+0x18c0>
 800ad0c:	3ff00000 	.word	0x3ff00000
 800ad10:	e9dd 2302 	ldrd	r2, r3, [sp, #8]
 800ad14:	f101 4100 	add.w	r1, r1, #2147483648	@ 0x80000000
 800ad18:	f7f5 fc3a 	bl	8000590 <__aeabi_dmul>
 800ad1c:	4602      	mov	r2, r0
 800ad1e:	460b      	mov	r3, r1
 800ad20:	4630      	mov	r0, r6
 800ad22:	4639      	mov	r1, r7
 800ad24:	f7f5 fa7c 	bl	8000220 <__aeabi_dsub>
 800ad28:	4622      	mov	r2, r4
 800ad2a:	462b      	mov	r3, r5
 800ad2c:	f7f5 fc30 	bl	8000590 <__aeabi_dmul>
 800ad30:	4602      	mov	r2, r0
 800ad32:	460b      	mov	r3, r1
 800ad34:	4640      	mov	r0, r8
 800ad36:	4649      	mov	r1, r9
 800ad38:	f7f5 fa72 	bl	8000220 <__aeabi_dsub>
 800ad3c:	ed9a 0a84 	vldr	s0, [sl, #528]	@ 0x210
 800ad40:	ed9a 8a12 	vldr	s16, [sl, #72]	@ 0x48
 800ad44:	4604      	mov	r4, r0
 800ad46:	460d      	mov	r5, r1
 800ad48:	f003 fb44 	bl	800e3d4 <SPE_cos_H96e4298bd9675fbbcb46b0c1f68b039a5627ebc5_cb4a8a449b4ada864625ee5a4355578a3aaf08ed>
 800ad4c:	ee68 7a00 	vmul.f32	s15, s16, s0
 800ad50:	ee17 0a90 	vmov	r0, s15
 800ad54:	f7f5 fbc4 	bl	80004e0 <__aeabi_f2d>
 800ad58:	4622      	mov	r2, r4
 800ad5a:	462b      	mov	r3, r5
 800ad5c:	f7f5 fc18 	bl	8000590 <__aeabi_dmul>
 800ad60:	e9dd 230a 	ldrd	r2, r3, [sp, #40]	@ 0x28
 800ad64:	f7f5 fa5e 	bl	8000224 <__adddf3>
 800ad68:	ed9a 0a84 	vldr	s0, [sl, #528]	@ 0x210
 800ad6c:	ed9a 8a19 	vldr	s16, [sl, #100]	@ 0x64
 800ad70:	e9cd 010a 	strd	r0, r1, [sp, #40]	@ 0x28
 800ad74:	f003 fb2c 	bl	800e3d0 <SPE_sin_H96e4298bd9675fbbcb46b0c1f68b039a5627ebc5_cb4a8a449b4ada864625ee5a4355578a3aaf08ed>
 800ad78:	ee68 7a00 	vmul.f32	s15, s16, s0
 800ad7c:	ee17 0a90 	vmov	r0, s15
 800ad80:	f7f5 fbae 	bl	80004e0 <__aeabi_f2d>
 800ad84:	4680      	mov	r8, r0
 800ad86:	f8da 01c0 	ldr.w	r0, [sl, #448]	@ 0x1c0
 800ad8a:	4689      	mov	r9, r1
 800ad8c:	f7f5 fba8 	bl	80004e0 <__aeabi_f2d>
 800ad90:	9b04      	ldr	r3, [sp, #16]
 800ad92:	ed9a 8a19 	vldr	s16, [sl, #100]	@ 0x64
 800ad96:	edda 8a84 	vldr	s17, [sl, #528]	@ 0x210
 800ad9a:	4604      	mov	r4, r0
 800ad9c:	460d      	mov	r5, r1
 800ad9e:	2b00      	cmp	r3, #0
 800ada0:	f043 81e7 	bne.w	800e172 <DoStep_H96e4298bd9675fbbcb46b0c1f68b039a5627ebc5_cb4a8a449b4ada864625ee5a4355578a3aaf08ed+0x4d22>
 800ada4:	edda 6a39 	vldr	s13, [sl, #228]	@ 0xe4
 800ada8:	ed9a aa3b 	vldr	s20, [sl, #236]	@ 0xec
 800adac:	ed9a 7a3a 	vldr	s14, [sl, #232]	@ 0xe8
 800adb0:	edda 7a38 	vldr	s15, [sl, #224]	@ 0xe0
 800adb4:	ee27 7a26 	vmul.f32	s14, s14, s13
 800adb8:	ee6a 7a27 	vmul.f32	s15, s20, s15
 800adbc:	ee77 7a27 	vadd.f32	s15, s14, s15
 800adc0:	ee17 0a90 	vmov	r0, s15
 800adc4:	f7f5 fb8c 	bl	80004e0 <__aeabi_f2d>
 800adc8:	4606      	mov	r6, r0
 800adca:	ee1a 0a10 	vmov	r0, s20
 800adce:	460f      	mov	r7, r1
 800add0:	f7f5 fb86 	bl	80004e0 <__aeabi_f2d>
 800add4:	e9dd 2306 	ldrd	r2, r3, [sp, #24]
 800add8:	f101 4100 	add.w	r1, r1, #2147483648	@ 0x80000000
 800addc:	f7f5 fbd8 	bl	8000590 <__aeabi_dmul>
 800ade0:	4602      	mov	r2, r0
 800ade2:	460b      	mov	r3, r1
 800ade4:	4630      	mov	r0, r6
 800ade6:	4639      	mov	r1, r7
 800ade8:	f7f5 fa1a 	bl	8000220 <__aeabi_dsub>
 800adec:	4622      	mov	r2, r4
 800adee:	462b      	mov	r3, r5
 800adf0:	f7f5 fbce 	bl	8000590 <__aeabi_dmul>
 800adf4:	4642      	mov	r2, r8
 800adf6:	464b      	mov	r3, r9
 800adf8:	f7f5 fbca 	bl	8000590 <__aeabi_dmul>
 800adfc:	eeb0 0a68 	vmov.f32	s0, s17
 800ae00:	e9cd 010c 	strd	r0, r1, [sp, #48]	@ 0x30
 800ae04:	f003 fae6 	bl	800e3d4 <SPE_cos_H96e4298bd9675fbbcb46b0c1f68b039a5627ebc5_cb4a8a449b4ada864625ee5a4355578a3aaf08ed>
 800ae08:	ee68 7a00 	vmul.f32	s15, s16, s0
 800ae0c:	ee17 0a90 	vmov	r0, s15
 800ae10:	f7f5 fb66 	bl	80004e0 <__aeabi_f2d>
 800ae14:	f8da b1c0 	ldr.w	fp, [sl, #448]	@ 0x1c0
 800ae18:	4680      	mov	r8, r0
 800ae1a:	4658      	mov	r0, fp
 800ae1c:	4689      	mov	r9, r1
 800ae1e:	f7f5 fb5f 	bl	80004e0 <__aeabi_f2d>
 800ae22:	edda 6a39 	vldr	s13, [sl, #228]	@ 0xe4
 800ae26:	ed9a 8a3a 	vldr	s16, [sl, #232]	@ 0xe8
 800ae2a:	ed9a 7a3b 	vldr	s14, [sl, #236]	@ 0xec
 800ae2e:	edda 7a38 	vldr	s15, [sl, #224]	@ 0xe0
 800ae32:	ee27 7a26 	vmul.f32	s14, s14, s13
 800ae36:	ee68 7a27 	vmul.f32	s15, s16, s15
 800ae3a:	4604      	mov	r4, r0
 800ae3c:	ee77 7a67 	vsub.f32	s15, s14, s15
 800ae40:	460d      	mov	r5, r1
 800ae42:	ee17 0a90 	vmov	r0, s15
 800ae46:	f7f5 fb4b 	bl	80004e0 <__aeabi_f2d>
 800ae4a:	4bed      	ldr	r3, [pc, #948]	@ (800b200 <DoStep_H96e4298bd9675fbbcb46b0c1f68b039a5627ebc5_cb4a8a449b4ada864625ee5a4355578a3aaf08ed+0x1db0>)
 800ae4c:	2200      	movs	r2, #0
 800ae4e:	f7f5 f9e9 	bl	8000224 <__adddf3>
 800ae52:	4606      	mov	r6, r0
 800ae54:	ee18 0a10 	vmov	r0, s16
 800ae58:	460f      	mov	r7, r1
 800ae5a:	f7f5 fb41 	bl	80004e0 <__aeabi_f2d>
 800ae5e:	f101 4100 	add.w	r1, r1, #2147483648	@ 0x80000000
 800ae62:	e9dd 2302 	ldrd	r2, r3, [sp, #8]
 800ae66:	f7f5 fb93 	bl	8000590 <__aeabi_dmul>
 800ae6a:	4602      	mov	r2, r0
 800ae6c:	460b      	mov	r3, r1
 800ae6e:	4630      	mov	r0, r6
 800ae70:	4639      	mov	r1, r7
 800ae72:	f7f5 f9d5 	bl	8000220 <__aeabi_dsub>
 800ae76:	4622      	mov	r2, r4
 800ae78:	462b      	mov	r3, r5
 800ae7a:	f7f5 fb89 	bl	8000590 <__aeabi_dmul>
 800ae7e:	4642      	mov	r2, r8
 800ae80:	464b      	mov	r3, r9
 800ae82:	f7f5 fb85 	bl	8000590 <__aeabi_dmul>
 800ae86:	4602      	mov	r2, r0
 800ae88:	460b      	mov	r3, r1
 800ae8a:	e9dd 010c 	ldrd	r0, r1, [sp, #48]	@ 0x30
 800ae8e:	f7f5 f9c7 	bl	8000220 <__aeabi_dsub>
 800ae92:	4604      	mov	r4, r0
 800ae94:	f8da 0164 	ldr.w	r0, [sl, #356]	@ 0x164
 800ae98:	460d      	mov	r5, r1
 800ae9a:	f7f5 fb21 	bl	80004e0 <__aeabi_f2d>
 800ae9e:	4602      	mov	r2, r0
 800aea0:	460b      	mov	r3, r1
 800aea2:	4620      	mov	r0, r4
 800aea4:	4629      	mov	r1, r5
 800aea6:	f7f5 fb73 	bl	8000590 <__aeabi_dmul>
 800aeaa:	ee00 ba10 	vmov	s0, fp
 800aeae:	4604      	mov	r4, r0
 800aeb0:	460d      	mov	r5, r1
 800aeb2:	f003 fa6f 	bl	800e394 <SPE_ipowSquare_H96e4298bd9675fbbcb46b0c1f68b039a5627ebc5_cb4a8a449b4ada864625ee5a4355578a3aaf08ed>
 800aeb6:	ee10 0a10 	vmov	r0, s0
 800aeba:	f7f5 fb11 	bl	80004e0 <__aeabi_f2d>
 800aebe:	4602      	mov	r2, r0
 800aec0:	460b      	mov	r3, r1
 800aec2:	4620      	mov	r0, r4
 800aec4:	4629      	mov	r1, r5
 800aec6:	f7f5 fc8d 	bl	80007e4 <__aeabi_ddiv>
 800aeca:	e9dd 230a 	ldrd	r2, r3, [sp, #40]	@ 0x28
 800aece:	f7f5 f9a9 	bl	8000224 <__adddf3>
 800aed2:	ed9a 0a84 	vldr	s0, [sl, #528]	@ 0x210
 800aed6:	ed9a 8a19 	vldr	s16, [sl, #100]	@ 0x64
 800aeda:	e9cd 010a 	strd	r0, r1, [sp, #40]	@ 0x28
 800aede:	f003 fa79 	bl	800e3d4 <SPE_cos_H96e4298bd9675fbbcb46b0c1f68b039a5627ebc5_cb4a8a449b4ada864625ee5a4355578a3aaf08ed>
 800aee2:	ee68 7a00 	vmul.f32	s15, s16, s0
 800aee6:	ee17 0a90 	vmov	r0, s15
 800aeea:	f7f5 faf9 	bl	80004e0 <__aeabi_f2d>
 800aeee:	4680      	mov	r8, r0
 800aef0:	f8da 01c0 	ldr.w	r0, [sl, #448]	@ 0x1c0
 800aef4:	4689      	mov	r9, r1
 800aef6:	f7f5 faf3 	bl	80004e0 <__aeabi_f2d>
 800aefa:	9b04      	ldr	r3, [sp, #16]
 800aefc:	ed9a 8a19 	vldr	s16, [sl, #100]	@ 0x64
 800af00:	edda 8a84 	vldr	s17, [sl, #528]	@ 0x210
 800af04:	4604      	mov	r4, r0
 800af06:	460d      	mov	r5, r1
 800af08:	2b00      	cmp	r3, #0
 800af0a:	f043 8109 	bne.w	800e120 <DoStep_H96e4298bd9675fbbcb46b0c1f68b039a5627ebc5_cb4a8a449b4ada864625ee5a4355578a3aaf08ed+0x4cd0>
 800af0e:	edda 6a39 	vldr	s13, [sl, #228]	@ 0xe4
 800af12:	ed9a aa3b 	vldr	s20, [sl, #236]	@ 0xec
 800af16:	ed9a 7a3a 	vldr	s14, [sl, #232]	@ 0xe8
 800af1a:	edda 7a38 	vldr	s15, [sl, #224]	@ 0xe0
 800af1e:	ee27 7a26 	vmul.f32	s14, s14, s13
 800af22:	ee6a 7a27 	vmul.f32	s15, s20, s15
 800af26:	ee77 7a27 	vadd.f32	s15, s14, s15
 800af2a:	ee17 0a90 	vmov	r0, s15
 800af2e:	f7f5 fad7 	bl	80004e0 <__aeabi_f2d>
 800af32:	4606      	mov	r6, r0
 800af34:	ee1a 0a10 	vmov	r0, s20
 800af38:	460f      	mov	r7, r1
 800af3a:	f7f5 fad1 	bl	80004e0 <__aeabi_f2d>
 800af3e:	e9dd 2306 	ldrd	r2, r3, [sp, #24]
 800af42:	f101 4100 	add.w	r1, r1, #2147483648	@ 0x80000000
 800af46:	f7f5 fb23 	bl	8000590 <__aeabi_dmul>
 800af4a:	4602      	mov	r2, r0
 800af4c:	460b      	mov	r3, r1
 800af4e:	4630      	mov	r0, r6
 800af50:	4639      	mov	r1, r7
 800af52:	f7f5 f965 	bl	8000220 <__aeabi_dsub>
 800af56:	4622      	mov	r2, r4
 800af58:	462b      	mov	r3, r5
 800af5a:	f7f5 fb19 	bl	8000590 <__aeabi_dmul>
 800af5e:	4642      	mov	r2, r8
 800af60:	464b      	mov	r3, r9
 800af62:	f7f5 fb15 	bl	8000590 <__aeabi_dmul>
 800af66:	eeb0 0a68 	vmov.f32	s0, s17
 800af6a:	e9cd 010c 	strd	r0, r1, [sp, #48]	@ 0x30
 800af6e:	f003 fa2f 	bl	800e3d0 <SPE_sin_H96e4298bd9675fbbcb46b0c1f68b039a5627ebc5_cb4a8a449b4ada864625ee5a4355578a3aaf08ed>
 800af72:	ee68 7a00 	vmul.f32	s15, s16, s0
 800af76:	ee17 0a90 	vmov	r0, s15
 800af7a:	f7f5 fab1 	bl	80004e0 <__aeabi_f2d>
 800af7e:	f8da b1c0 	ldr.w	fp, [sl, #448]	@ 0x1c0
 800af82:	4680      	mov	r8, r0
 800af84:	4658      	mov	r0, fp
 800af86:	4689      	mov	r9, r1
 800af88:	f7f5 faaa 	bl	80004e0 <__aeabi_f2d>
 800af8c:	edda 6a39 	vldr	s13, [sl, #228]	@ 0xe4
 800af90:	ed9a 8a3a 	vldr	s16, [sl, #232]	@ 0xe8
 800af94:	ed9a 7a3b 	vldr	s14, [sl, #236]	@ 0xec
 800af98:	edda 7a38 	vldr	s15, [sl, #224]	@ 0xe0
 800af9c:	ee27 7a26 	vmul.f32	s14, s14, s13
 800afa0:	ee68 7a27 	vmul.f32	s15, s16, s15
 800afa4:	4604      	mov	r4, r0
 800afa6:	ee77 7a67 	vsub.f32	s15, s14, s15
 800afaa:	460d      	mov	r5, r1
 800afac:	ee17 0a90 	vmov	r0, s15
 800afb0:	f7f5 fa96 	bl	80004e0 <__aeabi_f2d>
 800afb4:	4b92      	ldr	r3, [pc, #584]	@ (800b200 <DoStep_H96e4298bd9675fbbcb46b0c1f68b039a5627ebc5_cb4a8a449b4ada864625ee5a4355578a3aaf08ed+0x1db0>)
 800afb6:	2200      	movs	r2, #0
 800afb8:	f7f5 f934 	bl	8000224 <__adddf3>
 800afbc:	4606      	mov	r6, r0
 800afbe:	ee18 0a10 	vmov	r0, s16
 800afc2:	460f      	mov	r7, r1
 800afc4:	f7f5 fa8c 	bl	80004e0 <__aeabi_f2d>
 800afc8:	f101 4100 	add.w	r1, r1, #2147483648	@ 0x80000000
 800afcc:	e9dd 2302 	ldrd	r2, r3, [sp, #8]
 800afd0:	f7f5 fade 	bl	8000590 <__aeabi_dmul>
 800afd4:	4602      	mov	r2, r0
 800afd6:	460b      	mov	r3, r1
 800afd8:	4630      	mov	r0, r6
 800afda:	4639      	mov	r1, r7
 800afdc:	f7f5 f920 	bl	8000220 <__aeabi_dsub>
 800afe0:	4622      	mov	r2, r4
 800afe2:	462b      	mov	r3, r5
 800afe4:	f7f5 fad4 	bl	8000590 <__aeabi_dmul>
 800afe8:	4642      	mov	r2, r8
 800afea:	464b      	mov	r3, r9
 800afec:	f7f5 fad0 	bl	8000590 <__aeabi_dmul>
 800aff0:	e9dd 230c 	ldrd	r2, r3, [sp, #48]	@ 0x30
 800aff4:	f7f5 f916 	bl	8000224 <__adddf3>
 800aff8:	4604      	mov	r4, r0
 800affa:	f8da 0170 	ldr.w	r0, [sl, #368]	@ 0x170
 800affe:	460d      	mov	r5, r1
 800b000:	f7f5 fa6e 	bl	80004e0 <__aeabi_f2d>
 800b004:	4602      	mov	r2, r0
 800b006:	460b      	mov	r3, r1
 800b008:	4620      	mov	r0, r4
 800b00a:	4629      	mov	r1, r5
 800b00c:	f7f5 fac0 	bl	8000590 <__aeabi_dmul>
 800b010:	ee00 ba10 	vmov	s0, fp
 800b014:	4604      	mov	r4, r0
 800b016:	460d      	mov	r5, r1
 800b018:	f003 f9bc 	bl	800e394 <SPE_ipowSquare_H96e4298bd9675fbbcb46b0c1f68b039a5627ebc5_cb4a8a449b4ada864625ee5a4355578a3aaf08ed>
 800b01c:	ee10 0a10 	vmov	r0, s0
 800b020:	f7f5 fa5e 	bl	80004e0 <__aeabi_f2d>
 800b024:	4602      	mov	r2, r0
 800b026:	460b      	mov	r3, r1
 800b028:	4620      	mov	r0, r4
 800b02a:	4629      	mov	r1, r5
 800b02c:	f7f5 fbda 	bl	80007e4 <__aeabi_ddiv>
 800b030:	e9dd 230a 	ldrd	r2, r3, [sp, #40]	@ 0x28
 800b034:	f7f5 f8f6 	bl	8000224 <__adddf3>
 800b038:	f7f5 fcbc 	bl	80009b4 <__aeabi_d2f>
 800b03c:	ee07 0a90 	vmov	s15, r0
 800b040:	ed9a 7a43 	vldr	s14, [sl, #268]	@ 0x10c
 800b044:	ed9a 8a70 	vldr	s16, [sl, #448]	@ 0x1c0
 800b048:	eef1 7a67 	vneg.f32	s15, s15
 800b04c:	edcd 7a39 	vstr	s15, [sp, #228]	@ 0xe4
 800b050:	ee68 7a07 	vmul.f32	s15, s16, s14
 800b054:	f04f 0800 	mov.w	r8, #0
 800b058:	ee17 0a90 	vmov	r0, s15
 800b05c:	f8cd 80e8 	str.w	r8, [sp, #232]	@ 0xe8
 800b060:	f8cd 80ec 	str.w	r8, [sp, #236]	@ 0xec
 800b064:	f7f5 fa3c 	bl	80004e0 <__aeabi_f2d>
 800b068:	edda 7a44 	vldr	s15, [sl, #272]	@ 0x110
 800b06c:	ee68 7a27 	vmul.f32	s15, s16, s15
 800b070:	4604      	mov	r4, r0
 800b072:	ee17 0a90 	vmov	r0, s15
 800b076:	460d      	mov	r5, r1
 800b078:	f7f5 fa32 	bl	80004e0 <__aeabi_f2d>
 800b07c:	9b08      	ldr	r3, [sp, #32]
 800b07e:	ed9a aa12 	vldr	s20, [sl, #72]	@ 0x48
 800b082:	edda aa84 	vldr	s21, [sl, #528]	@ 0x210
 800b086:	4606      	mov	r6, r0
 800b088:	460f      	mov	r7, r1
 800b08a:	2b00      	cmp	r3, #0
 800b08c:	f002 87b2 	beq.w	800dff4 <DoStep_H96e4298bd9675fbbcb46b0c1f68b039a5627ebc5_cb4a8a449b4ada864625ee5a4355578a3aaf08ed+0x4ba4>
 800b090:	f04f 537e 	mov.w	r3, #1065353216	@ 0x3f800000
 800b094:	933c      	str	r3, [sp, #240]	@ 0xf0
 800b096:	2200      	movs	r2, #0
 800b098:	2300      	movs	r3, #0
 800b09a:	f8cd 80f4 	str.w	r8, [sp, #244]	@ 0xf4
 800b09e:	f7f5 fa77 	bl	8000590 <__aeabi_dmul>
 800b0a2:	4602      	mov	r2, r0
 800b0a4:	460b      	mov	r3, r1
 800b0a6:	4620      	mov	r0, r4
 800b0a8:	4629      	mov	r1, r5
 800b0aa:	4614      	mov	r4, r2
 800b0ac:	461d      	mov	r5, r3
 800b0ae:	2200      	movs	r2, #0
 800b0b0:	2300      	movs	r3, #0
 800b0b2:	f7f5 fa6d 	bl	8000590 <__aeabi_dmul>
 800b0b6:	4602      	mov	r2, r0
 800b0b8:	460b      	mov	r3, r1
 800b0ba:	4620      	mov	r0, r4
 800b0bc:	4629      	mov	r1, r5
 800b0be:	f7f5 f8af 	bl	8000220 <__aeabi_dsub>
 800b0c2:	eeb0 0a6a 	vmov.f32	s0, s21
 800b0c6:	4604      	mov	r4, r0
 800b0c8:	460d      	mov	r5, r1
 800b0ca:	f003 f981 	bl	800e3d0 <SPE_sin_H96e4298bd9675fbbcb46b0c1f68b039a5627ebc5_cb4a8a449b4ada864625ee5a4355578a3aaf08ed>
 800b0ce:	ee6a 7a00 	vmul.f32	s15, s20, s0
 800b0d2:	ee17 0a90 	vmov	r0, s15
 800b0d6:	f7f5 fa03 	bl	80004e0 <__aeabi_f2d>
 800b0da:	4622      	mov	r2, r4
 800b0dc:	462b      	mov	r3, r5
 800b0de:	f7f5 fa57 	bl	8000590 <__aeabi_dmul>
 800b0e2:	ed9a 8a70 	vldr	s16, [sl, #448]	@ 0x1c0
 800b0e6:	edda 7a43 	vldr	s15, [sl, #268]	@ 0x10c
 800b0ea:	ee68 7a27 	vmul.f32	s15, s16, s15
 800b0ee:	4680      	mov	r8, r0
 800b0f0:	ee17 0a90 	vmov	r0, s15
 800b0f4:	4689      	mov	r9, r1
 800b0f6:	f7f5 f9f3 	bl	80004e0 <__aeabi_f2d>
 800b0fa:	2200      	movs	r2, #0
 800b0fc:	2300      	movs	r3, #0
 800b0fe:	f7f5 fa47 	bl	8000590 <__aeabi_dmul>
 800b102:	edda 7a44 	vldr	s15, [sl, #272]	@ 0x110
 800b106:	ee68 7a27 	vmul.f32	s15, s16, s15
 800b10a:	4604      	mov	r4, r0
 800b10c:	ee17 0a90 	vmov	r0, s15
 800b110:	460d      	mov	r5, r1
 800b112:	f7f5 f9e5 	bl	80004e0 <__aeabi_f2d>
 800b116:	4606      	mov	r6, r0
 800b118:	460f      	mov	r7, r1
 800b11a:	2000      	movs	r0, #0
 800b11c:	2100      	movs	r1, #0
 800b11e:	4632      	mov	r2, r6
 800b120:	463b      	mov	r3, r7
 800b122:	f7f5 fa35 	bl	8000590 <__aeabi_dmul>
 800b126:	4622      	mov	r2, r4
 800b128:	462b      	mov	r3, r5
 800b12a:	f7f5 f87b 	bl	8000224 <__adddf3>
 800b12e:	ed9a 0a84 	vldr	s0, [sl, #528]	@ 0x210
 800b132:	ed9a 8a12 	vldr	s16, [sl, #72]	@ 0x48
 800b136:	4604      	mov	r4, r0
 800b138:	460d      	mov	r5, r1
 800b13a:	f003 f94b 	bl	800e3d4 <SPE_cos_H96e4298bd9675fbbcb46b0c1f68b039a5627ebc5_cb4a8a449b4ada864625ee5a4355578a3aaf08ed>
 800b13e:	ee68 7a00 	vmul.f32	s15, s16, s0
 800b142:	ee17 0a90 	vmov	r0, s15
 800b146:	f7f5 f9cb 	bl	80004e0 <__aeabi_f2d>
 800b14a:	4622      	mov	r2, r4
 800b14c:	462b      	mov	r3, r5
 800b14e:	f7f5 fa1f 	bl	8000590 <__aeabi_dmul>
 800b152:	460b      	mov	r3, r1
 800b154:	4602      	mov	r2, r0
 800b156:	4649      	mov	r1, r9
 800b158:	4640      	mov	r0, r8
 800b15a:	f7f5 f861 	bl	8000220 <__aeabi_dsub>
 800b15e:	ed9a 0a84 	vldr	s0, [sl, #528]	@ 0x210
 800b162:	ed9a 8a19 	vldr	s16, [sl, #100]	@ 0x64
 800b166:	e9cd 010a 	strd	r0, r1, [sp, #40]	@ 0x28
 800b16a:	f003 f931 	bl	800e3d0 <SPE_sin_H96e4298bd9675fbbcb46b0c1f68b039a5627ebc5_cb4a8a449b4ada864625ee5a4355578a3aaf08ed>
 800b16e:	ee68 7a00 	vmul.f32	s15, s16, s0
 800b172:	ee17 0a90 	vmov	r0, s15
 800b176:	f7f5 f9b3 	bl	80004e0 <__aeabi_f2d>
 800b17a:	4604      	mov	r4, r0
 800b17c:	f8da 01c0 	ldr.w	r0, [sl, #448]	@ 0x1c0
 800b180:	460d      	mov	r5, r1
 800b182:	f7f5 f9ad 	bl	80004e0 <__aeabi_f2d>
 800b186:	9b08      	ldr	r3, [sp, #32]
 800b188:	ed9a 8a19 	vldr	s16, [sl, #100]	@ 0x64
 800b18c:	edda 8a84 	vldr	s17, [sl, #528]	@ 0x210
 800b190:	4606      	mov	r6, r0
 800b192:	460f      	mov	r7, r1
 800b194:	2b00      	cmp	r3, #0
 800b196:	f042 870c 	bne.w	800dfb2 <DoStep_H96e4298bd9675fbbcb46b0c1f68b039a5627ebc5_cb4a8a449b4ada864625ee5a4355578a3aaf08ed+0x4b62>
 800b19a:	ed9a 6a3d 	vldr	s12, [sl, #244]	@ 0xf4
 800b19e:	edda 6a3c 	vldr	s13, [sl, #240]	@ 0xf0
 800b1a2:	ed9a 7a3f 	vldr	s14, [sl, #252]	@ 0xfc
 800b1a6:	edda 7a3e 	vldr	s15, [sl, #248]	@ 0xf8
 800b1aa:	ee27 7a06 	vmul.f32	s14, s14, s12
 800b1ae:	ee67 7aa6 	vmul.f32	s15, s15, s13
 800b1b2:	ee77 7a67 	vsub.f32	s15, s14, s15
 800b1b6:	ee17 0a90 	vmov	r0, s15
 800b1ba:	f7f5 f991 	bl	80004e0 <__aeabi_f2d>
 800b1be:	4b10      	ldr	r3, [pc, #64]	@ (800b200 <DoStep_H96e4298bd9675fbbcb46b0c1f68b039a5627ebc5_cb4a8a449b4ada864625ee5a4355578a3aaf08ed+0x1db0>)
 800b1c0:	2200      	movs	r2, #0
 800b1c2:	f7f5 f82f 	bl	8000224 <__adddf3>
 800b1c6:	4632      	mov	r2, r6
 800b1c8:	463b      	mov	r3, r7
 800b1ca:	f7f5 f9e1 	bl	8000590 <__aeabi_dmul>
 800b1ce:	4622      	mov	r2, r4
 800b1d0:	462b      	mov	r3, r5
 800b1d2:	f7f5 f9dd 	bl	8000590 <__aeabi_dmul>
 800b1d6:	eeb0 0a68 	vmov.f32	s0, s17
 800b1da:	4680      	mov	r8, r0
 800b1dc:	4689      	mov	r9, r1
 800b1de:	f003 f8f9 	bl	800e3d4 <SPE_cos_H96e4298bd9675fbbcb46b0c1f68b039a5627ebc5_cb4a8a449b4ada864625ee5a4355578a3aaf08ed>
 800b1e2:	ee68 7a00 	vmul.f32	s15, s16, s0
 800b1e6:	ee17 0a90 	vmov	r0, s15
 800b1ea:	f7f5 f979 	bl	80004e0 <__aeabi_f2d>
 800b1ee:	f8da b1c0 	ldr.w	fp, [sl, #448]	@ 0x1c0
 800b1f2:	4606      	mov	r6, r0
 800b1f4:	4658      	mov	r0, fp
 800b1f6:	460f      	mov	r7, r1
 800b1f8:	f7f5 f972 	bl	80004e0 <__aeabi_f2d>
 800b1fc:	e002      	b.n	800b204 <DoStep_H96e4298bd9675fbbcb46b0c1f68b039a5627ebc5_cb4a8a449b4ada864625ee5a4355578a3aaf08ed+0x1db4>
 800b1fe:	bf00      	nop
 800b200:	3ff00000 	.word	0x3ff00000
 800b204:	ed9a 6a3c 	vldr	s12, [sl, #240]	@ 0xf0
 800b208:	edda 6a3d 	vldr	s13, [sl, #244]	@ 0xf4
 800b20c:	ed9a 7a3f 	vldr	s14, [sl, #252]	@ 0xfc
 800b210:	edda 7a3e 	vldr	s15, [sl, #248]	@ 0xf8
 800b214:	ee27 7a06 	vmul.f32	s14, s14, s12
 800b218:	ee67 7aa6 	vmul.f32	s15, s15, s13
 800b21c:	4604      	mov	r4, r0
 800b21e:	ee77 7a27 	vadd.f32	s15, s14, s15
 800b222:	460d      	mov	r5, r1
 800b224:	ee17 0a90 	vmov	r0, s15
 800b228:	f7f5 f95a 	bl	80004e0 <__aeabi_f2d>
 800b22c:	f101 4100 	add.w	r1, r1, #2147483648	@ 0x80000000
 800b230:	4622      	mov	r2, r4
 800b232:	462b      	mov	r3, r5
 800b234:	f7f5 f9ac 	bl	8000590 <__aeabi_dmul>
 800b238:	4632      	mov	r2, r6
 800b23a:	463b      	mov	r3, r7
 800b23c:	f7f5 f9a8 	bl	8000590 <__aeabi_dmul>
 800b240:	4602      	mov	r2, r0
 800b242:	460b      	mov	r3, r1
 800b244:	4640      	mov	r0, r8
 800b246:	4649      	mov	r1, r9
 800b248:	f7f4 ffea 	bl	8000220 <__aeabi_dsub>
 800b24c:	4604      	mov	r4, r0
 800b24e:	f8da 0174 	ldr.w	r0, [sl, #372]	@ 0x174
 800b252:	460d      	mov	r5, r1
 800b254:	f7f5 f944 	bl	80004e0 <__aeabi_f2d>
 800b258:	4602      	mov	r2, r0
 800b25a:	460b      	mov	r3, r1
 800b25c:	4620      	mov	r0, r4
 800b25e:	4629      	mov	r1, r5
 800b260:	f7f5 f996 	bl	8000590 <__aeabi_dmul>
 800b264:	ee00 ba10 	vmov	s0, fp
 800b268:	4604      	mov	r4, r0
 800b26a:	460d      	mov	r5, r1
 800b26c:	f003 f892 	bl	800e394 <SPE_ipowSquare_H96e4298bd9675fbbcb46b0c1f68b039a5627ebc5_cb4a8a449b4ada864625ee5a4355578a3aaf08ed>
 800b270:	ee10 0a10 	vmov	r0, s0
 800b274:	f7f5 f934 	bl	80004e0 <__aeabi_f2d>
 800b278:	4602      	mov	r2, r0
 800b27a:	460b      	mov	r3, r1
 800b27c:	4620      	mov	r0, r4
 800b27e:	4629      	mov	r1, r5
 800b280:	f7f5 fab0 	bl	80007e4 <__aeabi_ddiv>
 800b284:	e9dd 230a 	ldrd	r2, r3, [sp, #40]	@ 0x28
 800b288:	f7f4 ffcc 	bl	8000224 <__adddf3>
 800b28c:	ed9a 0a84 	vldr	s0, [sl, #528]	@ 0x210
 800b290:	ed9a 8a19 	vldr	s16, [sl, #100]	@ 0x64
 800b294:	e9cd 010a 	strd	r0, r1, [sp, #40]	@ 0x28
 800b298:	f003 f89c 	bl	800e3d4 <SPE_cos_H96e4298bd9675fbbcb46b0c1f68b039a5627ebc5_cb4a8a449b4ada864625ee5a4355578a3aaf08ed>
 800b29c:	ee68 7a00 	vmul.f32	s15, s16, s0
 800b2a0:	ee17 0a90 	vmov	r0, s15
 800b2a4:	f7f5 f91c 	bl	80004e0 <__aeabi_f2d>
 800b2a8:	4604      	mov	r4, r0
 800b2aa:	f8da 01c0 	ldr.w	r0, [sl, #448]	@ 0x1c0
 800b2ae:	460d      	mov	r5, r1
 800b2b0:	f7f5 f916 	bl	80004e0 <__aeabi_f2d>
 800b2b4:	9b08      	ldr	r3, [sp, #32]
 800b2b6:	ed9a 8a19 	vldr	s16, [sl, #100]	@ 0x64
 800b2ba:	edda 8a84 	vldr	s17, [sl, #528]	@ 0x210
 800b2be:	4606      	mov	r6, r0
 800b2c0:	460f      	mov	r7, r1
 800b2c2:	2b00      	cmp	r3, #0
 800b2c4:	f042 8654 	bne.w	800df70 <DoStep_H96e4298bd9675fbbcb46b0c1f68b039a5627ebc5_cb4a8a449b4ada864625ee5a4355578a3aaf08ed+0x4b20>
 800b2c8:	ed9a 6a3d 	vldr	s12, [sl, #244]	@ 0xf4
 800b2cc:	edda 6a3c 	vldr	s13, [sl, #240]	@ 0xf0
 800b2d0:	ed9a 7a3f 	vldr	s14, [sl, #252]	@ 0xfc
 800b2d4:	edda 7a3e 	vldr	s15, [sl, #248]	@ 0xf8
 800b2d8:	ee27 7a06 	vmul.f32	s14, s14, s12
 800b2dc:	ee67 7aa6 	vmul.f32	s15, s15, s13
 800b2e0:	ee77 7a67 	vsub.f32	s15, s14, s15
 800b2e4:	ee17 0a90 	vmov	r0, s15
 800b2e8:	f7f5 f8fa 	bl	80004e0 <__aeabi_f2d>
 800b2ec:	4bc6      	ldr	r3, [pc, #792]	@ (800b608 <DoStep_H96e4298bd9675fbbcb46b0c1f68b039a5627ebc5_cb4a8a449b4ada864625ee5a4355578a3aaf08ed+0x21b8>)
 800b2ee:	2200      	movs	r2, #0
 800b2f0:	f7f4 ff98 	bl	8000224 <__adddf3>
 800b2f4:	4632      	mov	r2, r6
 800b2f6:	463b      	mov	r3, r7
 800b2f8:	f7f5 f94a 	bl	8000590 <__aeabi_dmul>
 800b2fc:	4622      	mov	r2, r4
 800b2fe:	462b      	mov	r3, r5
 800b300:	f7f5 f946 	bl	8000590 <__aeabi_dmul>
 800b304:	eeb0 0a68 	vmov.f32	s0, s17
 800b308:	4680      	mov	r8, r0
 800b30a:	4689      	mov	r9, r1
 800b30c:	f003 f860 	bl	800e3d0 <SPE_sin_H96e4298bd9675fbbcb46b0c1f68b039a5627ebc5_cb4a8a449b4ada864625ee5a4355578a3aaf08ed>
 800b310:	ee68 7a00 	vmul.f32	s15, s16, s0
 800b314:	ee17 0a90 	vmov	r0, s15
 800b318:	f7f5 f8e2 	bl	80004e0 <__aeabi_f2d>
 800b31c:	f8da b1c0 	ldr.w	fp, [sl, #448]	@ 0x1c0
 800b320:	4606      	mov	r6, r0
 800b322:	4658      	mov	r0, fp
 800b324:	460f      	mov	r7, r1
 800b326:	f7f5 f8db 	bl	80004e0 <__aeabi_f2d>
 800b32a:	ed9a 6a3c 	vldr	s12, [sl, #240]	@ 0xf0
 800b32e:	edda 6a3d 	vldr	s13, [sl, #244]	@ 0xf4
 800b332:	ed9a 7a3f 	vldr	s14, [sl, #252]	@ 0xfc
 800b336:	edda 7a3e 	vldr	s15, [sl, #248]	@ 0xf8
 800b33a:	ee27 7a06 	vmul.f32	s14, s14, s12
 800b33e:	ee67 7aa6 	vmul.f32	s15, s15, s13
 800b342:	4604      	mov	r4, r0
 800b344:	ee77 7a27 	vadd.f32	s15, s14, s15
 800b348:	460d      	mov	r5, r1
 800b34a:	ee17 0a90 	vmov	r0, s15
 800b34e:	f7f5 f8c7 	bl	80004e0 <__aeabi_f2d>
 800b352:	f101 4100 	add.w	r1, r1, #2147483648	@ 0x80000000
 800b356:	4622      	mov	r2, r4
 800b358:	462b      	mov	r3, r5
 800b35a:	f7f5 f919 	bl	8000590 <__aeabi_dmul>
 800b35e:	4632      	mov	r2, r6
 800b360:	463b      	mov	r3, r7
 800b362:	f7f5 f915 	bl	8000590 <__aeabi_dmul>
 800b366:	4642      	mov	r2, r8
 800b368:	464b      	mov	r3, r9
 800b36a:	f7f4 ff5b 	bl	8000224 <__adddf3>
 800b36e:	4604      	mov	r4, r0
 800b370:	f8da 0164 	ldr.w	r0, [sl, #356]	@ 0x164
 800b374:	460d      	mov	r5, r1
 800b376:	f7f5 f8b3 	bl	80004e0 <__aeabi_f2d>
 800b37a:	4602      	mov	r2, r0
 800b37c:	460b      	mov	r3, r1
 800b37e:	4620      	mov	r0, r4
 800b380:	4629      	mov	r1, r5
 800b382:	f7f5 f905 	bl	8000590 <__aeabi_dmul>
 800b386:	ee00 ba10 	vmov	s0, fp
 800b38a:	4604      	mov	r4, r0
 800b38c:	460d      	mov	r5, r1
 800b38e:	f003 f801 	bl	800e394 <SPE_ipowSquare_H96e4298bd9675fbbcb46b0c1f68b039a5627ebc5_cb4a8a449b4ada864625ee5a4355578a3aaf08ed>
 800b392:	ee10 0a10 	vmov	r0, s0
 800b396:	f7f5 f8a3 	bl	80004e0 <__aeabi_f2d>
 800b39a:	4602      	mov	r2, r0
 800b39c:	460b      	mov	r3, r1
 800b39e:	4620      	mov	r0, r4
 800b3a0:	4629      	mov	r1, r5
 800b3a2:	f7f5 fa1f 	bl	80007e4 <__aeabi_ddiv>
 800b3a6:	460b      	mov	r3, r1
 800b3a8:	4602      	mov	r2, r0
 800b3aa:	e9dd 010a 	ldrd	r0, r1, [sp, #40]	@ 0x28
 800b3ae:	f7f4 ff37 	bl	8000220 <__aeabi_dsub>
 800b3b2:	f7f5 faff 	bl	80009b4 <__aeabi_d2f>
 800b3b6:	ed9a 8a70 	vldr	s16, [sl, #448]	@ 0x1c0
 800b3ba:	edda 7a43 	vldr	s15, [sl, #268]	@ 0x10c
 800b3be:	903e      	str	r0, [sp, #248]	@ 0xf8
 800b3c0:	ee68 7a27 	vmul.f32	s15, s16, s15
 800b3c4:	ee17 0a90 	vmov	r0, s15
 800b3c8:	f7f5 f88a 	bl	80004e0 <__aeabi_f2d>
 800b3cc:	edda 7a44 	vldr	s15, [sl, #272]	@ 0x110
 800b3d0:	ee68 7a27 	vmul.f32	s15, s16, s15
 800b3d4:	4606      	mov	r6, r0
 800b3d6:	ee17 0a90 	vmov	r0, s15
 800b3da:	460f      	mov	r7, r1
 800b3dc:	f7f5 f880 	bl	80004e0 <__aeabi_f2d>
 800b3e0:	9b08      	ldr	r3, [sp, #32]
 800b3e2:	ed9a aa12 	vldr	s20, [sl, #72]	@ 0x48
 800b3e6:	edda aa84 	vldr	s21, [sl, #528]	@ 0x210
 800b3ea:	4604      	mov	r4, r0
 800b3ec:	460d      	mov	r5, r1
 800b3ee:	2b00      	cmp	r3, #0
 800b3f0:	f042 8122 	bne.w	800d638 <DoStep_H96e4298bd9675fbbcb46b0c1f68b039a5627ebc5_cb4a8a449b4ada864625ee5a4355578a3aaf08ed+0x41e8>
 800b3f4:	ed9a ba3e 	vldr	s22, [sl, #248]	@ 0xf8
 800b3f8:	edda 8a3f 	vldr	s17, [sl, #252]	@ 0xfc
 800b3fc:	ed9a 8a3d 	vldr	s16, [sl, #244]	@ 0xf4
 800b400:	edda ba3c 	vldr	s23, [sl, #240]	@ 0xf0
 800b404:	ee28 7a88 	vmul.f32	s14, s17, s16
 800b408:	ee6b 7a2b 	vmul.f32	s15, s22, s23
 800b40c:	ee28 8a0b 	vmul.f32	s16, s16, s22
 800b410:	ee77 7a67 	vsub.f32	s15, s14, s15
 800b414:	ee68 8aab 	vmul.f32	s17, s17, s23
 800b418:	ee17 0a90 	vmov	r0, s15
 800b41c:	f7f5 f860 	bl	80004e0 <__aeabi_f2d>
 800b420:	4b79      	ldr	r3, [pc, #484]	@ (800b608 <DoStep_H96e4298bd9675fbbcb46b0c1f68b039a5627ebc5_cb4a8a449b4ada864625ee5a4355578a3aaf08ed+0x21b8>)
 800b422:	2200      	movs	r2, #0
 800b424:	f7f4 fefe 	bl	8000224 <__adddf3>
 800b428:	4632      	mov	r2, r6
 800b42a:	463b      	mov	r3, r7
 800b42c:	f7f5 f8b0 	bl	8000590 <__aeabi_dmul>
 800b430:	ee78 7a88 	vadd.f32	s15, s17, s16
 800b434:	4606      	mov	r6, r0
 800b436:	ee17 0a90 	vmov	r0, s15
 800b43a:	460f      	mov	r7, r1
 800b43c:	f7f5 f850 	bl	80004e0 <__aeabi_f2d>
 800b440:	4622      	mov	r2, r4
 800b442:	462b      	mov	r3, r5
 800b444:	f101 4100 	add.w	r1, r1, #2147483648	@ 0x80000000
 800b448:	f7f5 f8a2 	bl	8000590 <__aeabi_dmul>
 800b44c:	4602      	mov	r2, r0
 800b44e:	460b      	mov	r3, r1
 800b450:	4630      	mov	r0, r6
 800b452:	4639      	mov	r1, r7
 800b454:	f7f4 fee6 	bl	8000224 <__adddf3>
 800b458:	eeb0 0a6a 	vmov.f32	s0, s21
 800b45c:	4604      	mov	r4, r0
 800b45e:	460d      	mov	r5, r1
 800b460:	f002 ffb6 	bl	800e3d0 <SPE_sin_H96e4298bd9675fbbcb46b0c1f68b039a5627ebc5_cb4a8a449b4ada864625ee5a4355578a3aaf08ed>
 800b464:	ee6a 7a00 	vmul.f32	s15, s20, s0
 800b468:	ee17 0a90 	vmov	r0, s15
 800b46c:	f7f5 f838 	bl	80004e0 <__aeabi_f2d>
 800b470:	4622      	mov	r2, r4
 800b472:	462b      	mov	r3, r5
 800b474:	f7f5 f88c 	bl	8000590 <__aeabi_dmul>
 800b478:	edda 8a3f 	vldr	s17, [sl, #252]	@ 0xfc
 800b47c:	ed9a 8a3d 	vldr	s16, [sl, #244]	@ 0xf4
 800b480:	ed9a aa3e 	vldr	s20, [sl, #248]	@ 0xf8
 800b484:	edda aa3c 	vldr	s21, [sl, #240]	@ 0xf0
 800b488:	ed9a ba70 	vldr	s22, [sl, #448]	@ 0x1c0
 800b48c:	ee28 7a88 	vmul.f32	s14, s17, s16
 800b490:	ee6a 7a2a 	vmul.f32	s15, s20, s21
 800b494:	4680      	mov	r8, r0
 800b496:	ee77 7a67 	vsub.f32	s15, s14, s15
 800b49a:	4689      	mov	r9, r1
 800b49c:	ee17 0a90 	vmov	r0, s15
 800b4a0:	f7f5 f81e 	bl	80004e0 <__aeabi_f2d>
 800b4a4:	4b58      	ldr	r3, [pc, #352]	@ (800b608 <DoStep_H96e4298bd9675fbbcb46b0c1f68b039a5627ebc5_cb4a8a449b4ada864625ee5a4355578a3aaf08ed+0x21b8>)
 800b4a6:	2200      	movs	r2, #0
 800b4a8:	f7f4 febc 	bl	8000224 <__adddf3>
 800b4ac:	edda 7a44 	vldr	s15, [sl, #272]	@ 0x110
 800b4b0:	ee6b 7a27 	vmul.f32	s15, s22, s15
 800b4b4:	4604      	mov	r4, r0
 800b4b6:	ee17 0a90 	vmov	r0, s15
 800b4ba:	460d      	mov	r5, r1
 800b4bc:	f7f5 f810 	bl	80004e0 <__aeabi_f2d>
 800b4c0:	4602      	mov	r2, r0
 800b4c2:	460b      	mov	r3, r1
 800b4c4:	4620      	mov	r0, r4
 800b4c6:	4629      	mov	r1, r5
 800b4c8:	f7f5 f862 	bl	8000590 <__aeabi_dmul>
 800b4cc:	edda 7a43 	vldr	s15, [sl, #268]	@ 0x10c
 800b4d0:	ee6b 7a27 	vmul.f32	s15, s22, s15
 800b4d4:	ee68 8aaa 	vmul.f32	s17, s17, s21
 800b4d8:	ee28 8a0a 	vmul.f32	s16, s16, s20
 800b4dc:	4604      	mov	r4, r0
 800b4de:	ee17 0a90 	vmov	r0, s15
 800b4e2:	460d      	mov	r5, r1
 800b4e4:	f7f4 fffc 	bl	80004e0 <__aeabi_f2d>
 800b4e8:	ee78 7a88 	vadd.f32	s15, s17, s16
 800b4ec:	4606      	mov	r6, r0
 800b4ee:	ee17 0a90 	vmov	r0, s15
 800b4f2:	460f      	mov	r7, r1
 800b4f4:	f7f4 fff4 	bl	80004e0 <__aeabi_f2d>
 800b4f8:	f101 4100 	add.w	r1, r1, #2147483648	@ 0x80000000
 800b4fc:	4632      	mov	r2, r6
 800b4fe:	463b      	mov	r3, r7
 800b500:	f7f5 f846 	bl	8000590 <__aeabi_dmul>
 800b504:	4602      	mov	r2, r0
 800b506:	460b      	mov	r3, r1
 800b508:	4620      	mov	r0, r4
 800b50a:	4629      	mov	r1, r5
 800b50c:	f7f4 fe88 	bl	8000220 <__aeabi_dsub>
 800b510:	ed9a 0a84 	vldr	s0, [sl, #528]	@ 0x210
 800b514:	ed9a 8a12 	vldr	s16, [sl, #72]	@ 0x48
 800b518:	4604      	mov	r4, r0
 800b51a:	460d      	mov	r5, r1
 800b51c:	f002 ff5a 	bl	800e3d4 <SPE_cos_H96e4298bd9675fbbcb46b0c1f68b039a5627ebc5_cb4a8a449b4ada864625ee5a4355578a3aaf08ed>
 800b520:	ee68 7a00 	vmul.f32	s15, s16, s0
 800b524:	ee17 0a90 	vmov	r0, s15
 800b528:	f7f4 ffda 	bl	80004e0 <__aeabi_f2d>
 800b52c:	4622      	mov	r2, r4
 800b52e:	462b      	mov	r3, r5
 800b530:	f7f5 f82e 	bl	8000590 <__aeabi_dmul>
 800b534:	464b      	mov	r3, r9
 800b536:	4642      	mov	r2, r8
 800b538:	f7f4 fe74 	bl	8000224 <__adddf3>
 800b53c:	ed9a 0a84 	vldr	s0, [sl, #528]	@ 0x210
 800b540:	ed9a 8a19 	vldr	s16, [sl, #100]	@ 0x64
 800b544:	e9cd 010a 	strd	r0, r1, [sp, #40]	@ 0x28
 800b548:	f002 ff42 	bl	800e3d0 <SPE_sin_H96e4298bd9675fbbcb46b0c1f68b039a5627ebc5_cb4a8a449b4ada864625ee5a4355578a3aaf08ed>
 800b54c:	ee68 7a00 	vmul.f32	s15, s16, s0
 800b550:	ee17 0a90 	vmov	r0, s15
 800b554:	f7f4 ffc4 	bl	80004e0 <__aeabi_f2d>
 800b558:	4604      	mov	r4, r0
 800b55a:	f8da 01c0 	ldr.w	r0, [sl, #448]	@ 0x1c0
 800b55e:	460d      	mov	r5, r1
 800b560:	f7f4 ffbe 	bl	80004e0 <__aeabi_f2d>
 800b564:	9b08      	ldr	r3, [sp, #32]
 800b566:	ed9a 8a19 	vldr	s16, [sl, #100]	@ 0x64
 800b56a:	edda 8a84 	vldr	s17, [sl, #528]	@ 0x210
 800b56e:	4606      	mov	r6, r0
 800b570:	460f      	mov	r7, r1
 800b572:	2b00      	cmp	r3, #0
 800b574:	f042 803f 	bne.w	800d5f6 <DoStep_H96e4298bd9675fbbcb46b0c1f68b039a5627ebc5_cb4a8a449b4ada864625ee5a4355578a3aaf08ed+0x41a6>
 800b578:	ed9a 6a3d 	vldr	s12, [sl, #244]	@ 0xf4
 800b57c:	edda 6a3c 	vldr	s13, [sl, #240]	@ 0xf0
 800b580:	ed9a 7a3f 	vldr	s14, [sl, #252]	@ 0xfc
 800b584:	edda 7a3e 	vldr	s15, [sl, #248]	@ 0xf8
 800b588:	ee27 7a06 	vmul.f32	s14, s14, s12
 800b58c:	ee67 7aa6 	vmul.f32	s15, s15, s13
 800b590:	ee77 7a67 	vsub.f32	s15, s14, s15
 800b594:	ee17 0a90 	vmov	r0, s15
 800b598:	f7f4 ffa2 	bl	80004e0 <__aeabi_f2d>
 800b59c:	4b1a      	ldr	r3, [pc, #104]	@ (800b608 <DoStep_H96e4298bd9675fbbcb46b0c1f68b039a5627ebc5_cb4a8a449b4ada864625ee5a4355578a3aaf08ed+0x21b8>)
 800b59e:	2200      	movs	r2, #0
 800b5a0:	f7f4 fe40 	bl	8000224 <__adddf3>
 800b5a4:	4632      	mov	r2, r6
 800b5a6:	463b      	mov	r3, r7
 800b5a8:	f7f4 fff2 	bl	8000590 <__aeabi_dmul>
 800b5ac:	4622      	mov	r2, r4
 800b5ae:	462b      	mov	r3, r5
 800b5b0:	f7f4 ffee 	bl	8000590 <__aeabi_dmul>
 800b5b4:	eeb0 0a68 	vmov.f32	s0, s17
 800b5b8:	4680      	mov	r8, r0
 800b5ba:	4689      	mov	r9, r1
 800b5bc:	f002 ff0a 	bl	800e3d4 <SPE_cos_H96e4298bd9675fbbcb46b0c1f68b039a5627ebc5_cb4a8a449b4ada864625ee5a4355578a3aaf08ed>
 800b5c0:	ee68 7a00 	vmul.f32	s15, s16, s0
 800b5c4:	ee17 0a90 	vmov	r0, s15
 800b5c8:	f7f4 ff8a 	bl	80004e0 <__aeabi_f2d>
 800b5cc:	f8da b1c0 	ldr.w	fp, [sl, #448]	@ 0x1c0
 800b5d0:	4606      	mov	r6, r0
 800b5d2:	4658      	mov	r0, fp
 800b5d4:	460f      	mov	r7, r1
 800b5d6:	f7f4 ff83 	bl	80004e0 <__aeabi_f2d>
 800b5da:	ed9a 6a3c 	vldr	s12, [sl, #240]	@ 0xf0
 800b5de:	edda 6a3d 	vldr	s13, [sl, #244]	@ 0xf4
 800b5e2:	ed9a 7a3f 	vldr	s14, [sl, #252]	@ 0xfc
 800b5e6:	edda 7a3e 	vldr	s15, [sl, #248]	@ 0xf8
 800b5ea:	ee27 7a06 	vmul.f32	s14, s14, s12
 800b5ee:	ee67 7aa6 	vmul.f32	s15, s15, s13
 800b5f2:	4604      	mov	r4, r0
 800b5f4:	ee77 7a27 	vadd.f32	s15, s14, s15
 800b5f8:	460d      	mov	r5, r1
 800b5fa:	ee17 0a90 	vmov	r0, s15
 800b5fe:	f7f4 ff6f 	bl	80004e0 <__aeabi_f2d>
 800b602:	f101 4100 	add.w	r1, r1, #2147483648	@ 0x80000000
 800b606:	e001      	b.n	800b60c <DoStep_H96e4298bd9675fbbcb46b0c1f68b039a5627ebc5_cb4a8a449b4ada864625ee5a4355578a3aaf08ed+0x21bc>
 800b608:	3ff00000 	.word	0x3ff00000
 800b60c:	4622      	mov	r2, r4
 800b60e:	462b      	mov	r3, r5
 800b610:	f7f4 ffbe 	bl	8000590 <__aeabi_dmul>
 800b614:	4632      	mov	r2, r6
 800b616:	463b      	mov	r3, r7
 800b618:	f7f4 ffba 	bl	8000590 <__aeabi_dmul>
 800b61c:	4602      	mov	r2, r0
 800b61e:	460b      	mov	r3, r1
 800b620:	4640      	mov	r0, r8
 800b622:	4649      	mov	r1, r9
 800b624:	f7f4 fdfc 	bl	8000220 <__aeabi_dsub>
 800b628:	4604      	mov	r4, r0
 800b62a:	f8da 0164 	ldr.w	r0, [sl, #356]	@ 0x164
 800b62e:	460d      	mov	r5, r1
 800b630:	f7f4 ff56 	bl	80004e0 <__aeabi_f2d>
 800b634:	4602      	mov	r2, r0
 800b636:	460b      	mov	r3, r1
 800b638:	4620      	mov	r0, r4
 800b63a:	4629      	mov	r1, r5
 800b63c:	f7f4 ffa8 	bl	8000590 <__aeabi_dmul>
 800b640:	ee00 ba10 	vmov	s0, fp
 800b644:	4604      	mov	r4, r0
 800b646:	460d      	mov	r5, r1
 800b648:	f002 fea4 	bl	800e394 <SPE_ipowSquare_H96e4298bd9675fbbcb46b0c1f68b039a5627ebc5_cb4a8a449b4ada864625ee5a4355578a3aaf08ed>
 800b64c:	ee10 0a10 	vmov	r0, s0
 800b650:	f7f4 ff46 	bl	80004e0 <__aeabi_f2d>
 800b654:	4602      	mov	r2, r0
 800b656:	460b      	mov	r3, r1
 800b658:	4620      	mov	r0, r4
 800b65a:	4629      	mov	r1, r5
 800b65c:	f7f5 f8c2 	bl	80007e4 <__aeabi_ddiv>
 800b660:	e9dd 230a 	ldrd	r2, r3, [sp, #40]	@ 0x28
 800b664:	f7f4 fdde 	bl	8000224 <__adddf3>
 800b668:	ed9a 0a84 	vldr	s0, [sl, #528]	@ 0x210
 800b66c:	ed9a 8a19 	vldr	s16, [sl, #100]	@ 0x64
 800b670:	4680      	mov	r8, r0
 800b672:	4689      	mov	r9, r1
 800b674:	f002 feae 	bl	800e3d4 <SPE_cos_H96e4298bd9675fbbcb46b0c1f68b039a5627ebc5_cb4a8a449b4ada864625ee5a4355578a3aaf08ed>
 800b678:	ee68 7a00 	vmul.f32	s15, s16, s0
 800b67c:	ee17 0a90 	vmov	r0, s15
 800b680:	f7f4 ff2e 	bl	80004e0 <__aeabi_f2d>
 800b684:	4604      	mov	r4, r0
 800b686:	f8da 01c0 	ldr.w	r0, [sl, #448]	@ 0x1c0
 800b68a:	460d      	mov	r5, r1
 800b68c:	f7f4 ff28 	bl	80004e0 <__aeabi_f2d>
 800b690:	9b08      	ldr	r3, [sp, #32]
 800b692:	edda 8a19 	vldr	s17, [sl, #100]	@ 0x64
 800b696:	ed9a 8a84 	vldr	s16, [sl, #528]	@ 0x210
 800b69a:	4606      	mov	r6, r0
 800b69c:	460f      	mov	r7, r1
 800b69e:	2b00      	cmp	r3, #0
 800b6a0:	f041 86f8 	bne.w	800d494 <DoStep_H96e4298bd9675fbbcb46b0c1f68b039a5627ebc5_cb4a8a449b4ada864625ee5a4355578a3aaf08ed+0x4044>
 800b6a4:	ed9a 6a3d 	vldr	s12, [sl, #244]	@ 0xf4
 800b6a8:	edda 6a3c 	vldr	s13, [sl, #240]	@ 0xf0
 800b6ac:	ed9a 7a3f 	vldr	s14, [sl, #252]	@ 0xfc
 800b6b0:	edda 7a3e 	vldr	s15, [sl, #248]	@ 0xf8
 800b6b4:	ee27 7a06 	vmul.f32	s14, s14, s12
 800b6b8:	ee67 7aa6 	vmul.f32	s15, s15, s13
 800b6bc:	ee77 7a67 	vsub.f32	s15, s14, s15
 800b6c0:	ee17 0a90 	vmov	r0, s15
 800b6c4:	f7f4 ff0c 	bl	80004e0 <__aeabi_f2d>
 800b6c8:	4bd0      	ldr	r3, [pc, #832]	@ (800ba0c <DoStep_H96e4298bd9675fbbcb46b0c1f68b039a5627ebc5_cb4a8a449b4ada864625ee5a4355578a3aaf08ed+0x25bc>)
 800b6ca:	2200      	movs	r2, #0
 800b6cc:	f7f4 fdaa 	bl	8000224 <__adddf3>
 800b6d0:	4632      	mov	r2, r6
 800b6d2:	463b      	mov	r3, r7
 800b6d4:	f7f4 ff5c 	bl	8000590 <__aeabi_dmul>
 800b6d8:	462b      	mov	r3, r5
 800b6da:	4622      	mov	r2, r4
 800b6dc:	f7f4 ff58 	bl	8000590 <__aeabi_dmul>
 800b6e0:	eeb0 0a48 	vmov.f32	s0, s16
 800b6e4:	4604      	mov	r4, r0
 800b6e6:	460d      	mov	r5, r1
 800b6e8:	f002 fe72 	bl	800e3d0 <SPE_sin_H96e4298bd9675fbbcb46b0c1f68b039a5627ebc5_cb4a8a449b4ada864625ee5a4355578a3aaf08ed>
 800b6ec:	ed9a 6a3c 	vldr	s12, [sl, #240]	@ 0xf0
 800b6f0:	edda 6a3d 	vldr	s13, [sl, #244]	@ 0xf4
 800b6f4:	ed9a 7a3f 	vldr	s14, [sl, #252]	@ 0xfc
 800b6f8:	edda 7a3e 	vldr	s15, [sl, #248]	@ 0xf8
 800b6fc:	f8da b1c0 	ldr.w	fp, [sl, #448]	@ 0x1c0
 800b700:	ee27 7a06 	vmul.f32	s14, s14, s12
 800b704:	ee67 7aa6 	vmul.f32	s15, s15, s13
 800b708:	eeb0 8a40 	vmov.f32	s16, s0
 800b70c:	ee77 7a27 	vadd.f32	s15, s14, s15
 800b710:	ee17 0a90 	vmov	r0, s15
 800b714:	f7f4 fee4 	bl	80004e0 <__aeabi_f2d>
 800b718:	4602      	mov	r2, r0
 800b71a:	4658      	mov	r0, fp
 800b71c:	4616      	mov	r6, r2
 800b71e:	f101 4700 	add.w	r7, r1, #2147483648	@ 0x80000000
 800b722:	f7f4 fedd 	bl	80004e0 <__aeabi_f2d>
 800b726:	4602      	mov	r2, r0
 800b728:	460b      	mov	r3, r1
 800b72a:	4630      	mov	r0, r6
 800b72c:	4639      	mov	r1, r7
 800b72e:	f7f4 ff2f 	bl	8000590 <__aeabi_dmul>
 800b732:	ee68 7a88 	vmul.f32	s15, s17, s16
 800b736:	4606      	mov	r6, r0
 800b738:	ee17 0a90 	vmov	r0, s15
 800b73c:	460f      	mov	r7, r1
 800b73e:	f7f4 fecf 	bl	80004e0 <__aeabi_f2d>
 800b742:	4602      	mov	r2, r0
 800b744:	460b      	mov	r3, r1
 800b746:	4630      	mov	r0, r6
 800b748:	4639      	mov	r1, r7
 800b74a:	f7f4 ff21 	bl	8000590 <__aeabi_dmul>
 800b74e:	4622      	mov	r2, r4
 800b750:	462b      	mov	r3, r5
 800b752:	f7f4 fd67 	bl	8000224 <__adddf3>
 800b756:	4604      	mov	r4, r0
 800b758:	f8da 0170 	ldr.w	r0, [sl, #368]	@ 0x170
 800b75c:	460d      	mov	r5, r1
 800b75e:	f7f4 febf 	bl	80004e0 <__aeabi_f2d>
 800b762:	4602      	mov	r2, r0
 800b764:	460b      	mov	r3, r1
 800b766:	4620      	mov	r0, r4
 800b768:	4629      	mov	r1, r5
 800b76a:	f7f4 ff11 	bl	8000590 <__aeabi_dmul>
 800b76e:	ee00 ba10 	vmov	s0, fp
 800b772:	4604      	mov	r4, r0
 800b774:	460d      	mov	r5, r1
 800b776:	f002 fe0d 	bl	800e394 <SPE_ipowSquare_H96e4298bd9675fbbcb46b0c1f68b039a5627ebc5_cb4a8a449b4ada864625ee5a4355578a3aaf08ed>
 800b77a:	ee10 0a10 	vmov	r0, s0
 800b77e:	f7f4 feaf 	bl	80004e0 <__aeabi_f2d>
 800b782:	4602      	mov	r2, r0
 800b784:	460b      	mov	r3, r1
 800b786:	4620      	mov	r0, r4
 800b788:	4629      	mov	r1, r5
 800b78a:	f7f5 f82b 	bl	80007e4 <__aeabi_ddiv>
 800b78e:	4642      	mov	r2, r8
 800b790:	464b      	mov	r3, r9
 800b792:	f7f4 fd47 	bl	8000224 <__adddf3>
 800b796:	f7f5 f90d 	bl	80009b4 <__aeabi_d2f>
 800b79a:	ed9a 8a3e 	vldr	s16, [sl, #248]	@ 0xf8
 800b79e:	edda 8a3f 	vldr	s17, [sl, #252]	@ 0xfc
 800b7a2:	ed9a aa3c 	vldr	s20, [sl, #240]	@ 0xf0
 800b7a6:	edda aa3d 	vldr	s21, [sl, #244]	@ 0xf4
 800b7aa:	ed9a ba70 	vldr	s22, [sl, #448]	@ 0x1c0
 800b7ae:	ee07 0a90 	vmov	s15, r0
 800b7b2:	ee68 6a8a 	vmul.f32	s13, s17, s20
 800b7b6:	ee28 7a2a 	vmul.f32	s14, s16, s21
 800b7ba:	eef1 7a67 	vneg.f32	s15, s15
 800b7be:	edcd 7a3f 	vstr	s15, [sp, #252]	@ 0xfc
 800b7c2:	ee76 7a87 	vadd.f32	s15, s13, s14
 800b7c6:	2300      	movs	r3, #0
 800b7c8:	ee17 0a90 	vmov	r0, s15
 800b7cc:	9340      	str	r3, [sp, #256]	@ 0x100
 800b7ce:	9341      	str	r3, [sp, #260]	@ 0x104
 800b7d0:	f7f4 fe86 	bl	80004e0 <__aeabi_f2d>
 800b7d4:	edda 7a44 	vldr	s15, [sl, #272]	@ 0x110
 800b7d8:	ee6b 7a27 	vmul.f32	s15, s22, s15
 800b7dc:	4604      	mov	r4, r0
 800b7de:	ee17 0a90 	vmov	r0, s15
 800b7e2:	460d      	mov	r5, r1
 800b7e4:	f7f4 fe7c 	bl	80004e0 <__aeabi_f2d>
 800b7e8:	4602      	mov	r2, r0
 800b7ea:	460b      	mov	r3, r1
 800b7ec:	4620      	mov	r0, r4
 800b7ee:	4629      	mov	r1, r5
 800b7f0:	f7f4 fece 	bl	8000590 <__aeabi_dmul>
 800b7f4:	edda 7a43 	vldr	s15, [sl, #268]	@ 0x10c
 800b7f8:	ee6b 7a27 	vmul.f32	s15, s22, s15
 800b7fc:	4604      	mov	r4, r0
 800b7fe:	ee17 0a90 	vmov	r0, s15
 800b802:	460d      	mov	r5, r1
 800b804:	f7f4 fe6c 	bl	80004e0 <__aeabi_f2d>
 800b808:	4606      	mov	r6, r0
 800b80a:	ee18 0a90 	vmov	r0, s17
 800b80e:	460f      	mov	r7, r1
 800b810:	f7f4 fe66 	bl	80004e0 <__aeabi_f2d>
 800b814:	f101 4100 	add.w	r1, r1, #2147483648	@ 0x80000000
 800b818:	f7f5 f8cc 	bl	80009b4 <__aeabi_d2f>
 800b81c:	9043      	str	r0, [sp, #268]	@ 0x10c
 800b81e:	ee18 0a10 	vmov	r0, s16
 800b822:	f7f4 fe5d 	bl	80004e0 <__aeabi_f2d>
 800b826:	ee68 8aaa 	vmul.f32	s17, s17, s21
 800b82a:	ee28 8a0a 	vmul.f32	s16, s16, s20
 800b82e:	f101 4100 	add.w	r1, r1, #2147483648	@ 0x80000000
 800b832:	f7f5 f8bf 	bl	80009b4 <__aeabi_d2f>
 800b836:	ee78 7ac8 	vsub.f32	s15, s17, s16
 800b83a:	9042      	str	r0, [sp, #264]	@ 0x108
 800b83c:	ee17 0a90 	vmov	r0, s15
 800b840:	f7f4 fe4e 	bl	80004e0 <__aeabi_f2d>
 800b844:	4b71      	ldr	r3, [pc, #452]	@ (800ba0c <DoStep_H96e4298bd9675fbbcb46b0c1f68b039a5627ebc5_cb4a8a449b4ada864625ee5a4355578a3aaf08ed+0x25bc>)
 800b846:	2200      	movs	r2, #0
 800b848:	f7f4 fcec 	bl	8000224 <__adddf3>
 800b84c:	4632      	mov	r2, r6
 800b84e:	463b      	mov	r3, r7
 800b850:	f7f4 fe9e 	bl	8000590 <__aeabi_dmul>
 800b854:	4602      	mov	r2, r0
 800b856:	460b      	mov	r3, r1
 800b858:	4620      	mov	r0, r4
 800b85a:	4629      	mov	r1, r5
 800b85c:	f7f4 fce0 	bl	8000220 <__aeabi_dsub>
 800b860:	ed9a 0a84 	vldr	s0, [sl, #528]	@ 0x210
 800b864:	ed9a 8a12 	vldr	s16, [sl, #72]	@ 0x48
 800b868:	4604      	mov	r4, r0
 800b86a:	460d      	mov	r5, r1
 800b86c:	f002 fdb0 	bl	800e3d0 <SPE_sin_H96e4298bd9675fbbcb46b0c1f68b039a5627ebc5_cb4a8a449b4ada864625ee5a4355578a3aaf08ed>
 800b870:	ee68 7a00 	vmul.f32	s15, s16, s0
 800b874:	ee17 0a90 	vmov	r0, s15
 800b878:	f7f4 fe32 	bl	80004e0 <__aeabi_f2d>
 800b87c:	4622      	mov	r2, r4
 800b87e:	462b      	mov	r3, r5
 800b880:	f7f4 fe86 	bl	8000590 <__aeabi_dmul>
 800b884:	edda 8a3f 	vldr	s17, [sl, #252]	@ 0xfc
 800b888:	ed9a 8a3c 	vldr	s16, [sl, #240]	@ 0xf0
 800b88c:	ed9a aa3e 	vldr	s20, [sl, #248]	@ 0xf8
 800b890:	edda aa3d 	vldr	s21, [sl, #244]	@ 0xf4
 800b894:	ed9a ba70 	vldr	s22, [sl, #448]	@ 0x1c0
 800b898:	ee28 7a88 	vmul.f32	s14, s17, s16
 800b89c:	ee6a 7a2a 	vmul.f32	s15, s20, s21
 800b8a0:	4680      	mov	r8, r0
 800b8a2:	ee77 7a27 	vadd.f32	s15, s14, s15
 800b8a6:	4689      	mov	r9, r1
 800b8a8:	ee17 0a90 	vmov	r0, s15
 800b8ac:	f7f4 fe18 	bl	80004e0 <__aeabi_f2d>
 800b8b0:	edda 7a43 	vldr	s15, [sl, #268]	@ 0x10c
 800b8b4:	ee6b 7a27 	vmul.f32	s15, s22, s15
 800b8b8:	4604      	mov	r4, r0
 800b8ba:	ee17 0a90 	vmov	r0, s15
 800b8be:	460d      	mov	r5, r1
 800b8c0:	f7f4 fe0e 	bl	80004e0 <__aeabi_f2d>
 800b8c4:	4602      	mov	r2, r0
 800b8c6:	460b      	mov	r3, r1
 800b8c8:	4620      	mov	r0, r4
 800b8ca:	4629      	mov	r1, r5
 800b8cc:	f7f4 fe60 	bl	8000590 <__aeabi_dmul>
 800b8d0:	edda 7a44 	vldr	s15, [sl, #272]	@ 0x110
 800b8d4:	ee6b 7a27 	vmul.f32	s15, s22, s15
 800b8d8:	ee68 8aaa 	vmul.f32	s17, s17, s21
 800b8dc:	ee28 8a0a 	vmul.f32	s16, s16, s20
 800b8e0:	4606      	mov	r6, r0
 800b8e2:	ee17 0a90 	vmov	r0, s15
 800b8e6:	460f      	mov	r7, r1
 800b8e8:	f7f4 fdfa 	bl	80004e0 <__aeabi_f2d>
 800b8ec:	ee78 7ac8 	vsub.f32	s15, s17, s16
 800b8f0:	4604      	mov	r4, r0
 800b8f2:	ee17 0a90 	vmov	r0, s15
 800b8f6:	460d      	mov	r5, r1
 800b8f8:	f7f4 fdf2 	bl	80004e0 <__aeabi_f2d>
 800b8fc:	4b43      	ldr	r3, [pc, #268]	@ (800ba0c <DoStep_H96e4298bd9675fbbcb46b0c1f68b039a5627ebc5_cb4a8a449b4ada864625ee5a4355578a3aaf08ed+0x25bc>)
 800b8fe:	2200      	movs	r2, #0
 800b900:	f7f4 fc90 	bl	8000224 <__adddf3>
 800b904:	4622      	mov	r2, r4
 800b906:	462b      	mov	r3, r5
 800b908:	f7f4 fe42 	bl	8000590 <__aeabi_dmul>
 800b90c:	4632      	mov	r2, r6
 800b90e:	463b      	mov	r3, r7
 800b910:	f7f4 fc88 	bl	8000224 <__adddf3>
 800b914:	ed9a 0a84 	vldr	s0, [sl, #528]	@ 0x210
 800b918:	ed9a 8a12 	vldr	s16, [sl, #72]	@ 0x48
 800b91c:	4604      	mov	r4, r0
 800b91e:	460d      	mov	r5, r1
 800b920:	f002 fd58 	bl	800e3d4 <SPE_cos_H96e4298bd9675fbbcb46b0c1f68b039a5627ebc5_cb4a8a449b4ada864625ee5a4355578a3aaf08ed>
 800b924:	ee68 7a00 	vmul.f32	s15, s16, s0
 800b928:	ee17 0a90 	vmov	r0, s15
 800b92c:	f7f4 fdd8 	bl	80004e0 <__aeabi_f2d>
 800b930:	4622      	mov	r2, r4
 800b932:	462b      	mov	r3, r5
 800b934:	f7f4 fe2c 	bl	8000590 <__aeabi_dmul>
 800b938:	460b      	mov	r3, r1
 800b93a:	4602      	mov	r2, r0
 800b93c:	4649      	mov	r1, r9
 800b93e:	4640      	mov	r0, r8
 800b940:	f7f4 fc6e 	bl	8000220 <__aeabi_dsub>
 800b944:	ed9a 0a84 	vldr	s0, [sl, #528]	@ 0x210
 800b948:	ed9a 8a19 	vldr	s16, [sl, #100]	@ 0x64
 800b94c:	e9cd 010a 	strd	r0, r1, [sp, #40]	@ 0x28
 800b950:	f002 fd3e 	bl	800e3d0 <SPE_sin_H96e4298bd9675fbbcb46b0c1f68b039a5627ebc5_cb4a8a449b4ada864625ee5a4355578a3aaf08ed>
 800b954:	ee68 7a00 	vmul.f32	s15, s16, s0
 800b958:	ee17 0a90 	vmov	r0, s15
 800b95c:	f7f4 fdc0 	bl	80004e0 <__aeabi_f2d>
 800b960:	4604      	mov	r4, r0
 800b962:	f8da 01c0 	ldr.w	r0, [sl, #448]	@ 0x1c0
 800b966:	460d      	mov	r5, r1
 800b968:	f7f4 fdba 	bl	80004e0 <__aeabi_f2d>
 800b96c:	9b08      	ldr	r3, [sp, #32]
 800b96e:	ed9a 8a19 	vldr	s16, [sl, #100]	@ 0x64
 800b972:	edda 8a84 	vldr	s17, [sl, #528]	@ 0x210
 800b976:	4606      	mov	r6, r0
 800b978:	460f      	mov	r7, r1
 800b97a:	2b00      	cmp	r3, #0
 800b97c:	f041 8569 	bne.w	800d452 <DoStep_H96e4298bd9675fbbcb46b0c1f68b039a5627ebc5_cb4a8a449b4ada864625ee5a4355578a3aaf08ed+0x4002>
 800b980:	ed9a 6a3c 	vldr	s12, [sl, #240]	@ 0xf0
 800b984:	edda 6a3d 	vldr	s13, [sl, #244]	@ 0xf4
 800b988:	ed9a 7a3f 	vldr	s14, [sl, #252]	@ 0xfc
 800b98c:	edda 7a3e 	vldr	s15, [sl, #248]	@ 0xf8
 800b990:	ee27 7a06 	vmul.f32	s14, s14, s12
 800b994:	ee67 7aa6 	vmul.f32	s15, s15, s13
 800b998:	ee77 7a27 	vadd.f32	s15, s14, s15
 800b99c:	ee17 0a90 	vmov	r0, s15
 800b9a0:	f7f4 fd9e 	bl	80004e0 <__aeabi_f2d>
 800b9a4:	4632      	mov	r2, r6
 800b9a6:	463b      	mov	r3, r7
 800b9a8:	f7f4 fdf2 	bl	8000590 <__aeabi_dmul>
 800b9ac:	4622      	mov	r2, r4
 800b9ae:	462b      	mov	r3, r5
 800b9b0:	f7f4 fdee 	bl	8000590 <__aeabi_dmul>
 800b9b4:	eeb0 0a68 	vmov.f32	s0, s17
 800b9b8:	4680      	mov	r8, r0
 800b9ba:	4689      	mov	r9, r1
 800b9bc:	f002 fd0a 	bl	800e3d4 <SPE_cos_H96e4298bd9675fbbcb46b0c1f68b039a5627ebc5_cb4a8a449b4ada864625ee5a4355578a3aaf08ed>
 800b9c0:	ee68 7a00 	vmul.f32	s15, s16, s0
 800b9c4:	ee17 0a90 	vmov	r0, s15
 800b9c8:	f7f4 fd8a 	bl	80004e0 <__aeabi_f2d>
 800b9cc:	f8da b1c0 	ldr.w	fp, [sl, #448]	@ 0x1c0
 800b9d0:	4606      	mov	r6, r0
 800b9d2:	4658      	mov	r0, fp
 800b9d4:	460f      	mov	r7, r1
 800b9d6:	f7f4 fd83 	bl	80004e0 <__aeabi_f2d>
 800b9da:	ed9a 6a3d 	vldr	s12, [sl, #244]	@ 0xf4
 800b9de:	edda 6a3c 	vldr	s13, [sl, #240]	@ 0xf0
 800b9e2:	ed9a 7a3f 	vldr	s14, [sl, #252]	@ 0xfc
 800b9e6:	edda 7a3e 	vldr	s15, [sl, #248]	@ 0xf8
 800b9ea:	ee27 7a06 	vmul.f32	s14, s14, s12
 800b9ee:	ee67 7aa6 	vmul.f32	s15, s15, s13
 800b9f2:	4604      	mov	r4, r0
 800b9f4:	ee77 7a67 	vsub.f32	s15, s14, s15
 800b9f8:	460d      	mov	r5, r1
 800b9fa:	ee17 0a90 	vmov	r0, s15
 800b9fe:	f7f4 fd6f 	bl	80004e0 <__aeabi_f2d>
 800ba02:	4b02      	ldr	r3, [pc, #8]	@ (800ba0c <DoStep_H96e4298bd9675fbbcb46b0c1f68b039a5627ebc5_cb4a8a449b4ada864625ee5a4355578a3aaf08ed+0x25bc>)
 800ba04:	2200      	movs	r2, #0
 800ba06:	f7f4 fc0d 	bl	8000224 <__adddf3>
 800ba0a:	e001      	b.n	800ba10 <DoStep_H96e4298bd9675fbbcb46b0c1f68b039a5627ebc5_cb4a8a449b4ada864625ee5a4355578a3aaf08ed+0x25c0>
 800ba0c:	3ff00000 	.word	0x3ff00000
 800ba10:	4622      	mov	r2, r4
 800ba12:	462b      	mov	r3, r5
 800ba14:	f7f4 fdbc 	bl	8000590 <__aeabi_dmul>
 800ba18:	4632      	mov	r2, r6
 800ba1a:	463b      	mov	r3, r7
 800ba1c:	f7f4 fdb8 	bl	8000590 <__aeabi_dmul>
 800ba20:	4602      	mov	r2, r0
 800ba22:	460b      	mov	r3, r1
 800ba24:	4640      	mov	r0, r8
 800ba26:	4649      	mov	r1, r9
 800ba28:	f7f4 fbfa 	bl	8000220 <__aeabi_dsub>
 800ba2c:	4604      	mov	r4, r0
 800ba2e:	f8da 0174 	ldr.w	r0, [sl, #372]	@ 0x174
 800ba32:	460d      	mov	r5, r1
 800ba34:	f7f4 fd54 	bl	80004e0 <__aeabi_f2d>
 800ba38:	4602      	mov	r2, r0
 800ba3a:	460b      	mov	r3, r1
 800ba3c:	4620      	mov	r0, r4
 800ba3e:	4629      	mov	r1, r5
 800ba40:	f7f4 fda6 	bl	8000590 <__aeabi_dmul>
 800ba44:	ee00 ba10 	vmov	s0, fp
 800ba48:	4604      	mov	r4, r0
 800ba4a:	460d      	mov	r5, r1
 800ba4c:	f002 fca2 	bl	800e394 <SPE_ipowSquare_H96e4298bd9675fbbcb46b0c1f68b039a5627ebc5_cb4a8a449b4ada864625ee5a4355578a3aaf08ed>
 800ba50:	ee10 0a10 	vmov	r0, s0
 800ba54:	f7f4 fd44 	bl	80004e0 <__aeabi_f2d>
 800ba58:	4602      	mov	r2, r0
 800ba5a:	460b      	mov	r3, r1
 800ba5c:	4620      	mov	r0, r4
 800ba5e:	4629      	mov	r1, r5
 800ba60:	f7f4 fec0 	bl	80007e4 <__aeabi_ddiv>
 800ba64:	e9dd 230a 	ldrd	r2, r3, [sp, #40]	@ 0x28
 800ba68:	f7f4 fbdc 	bl	8000224 <__adddf3>
 800ba6c:	ed9a 0a84 	vldr	s0, [sl, #528]	@ 0x210
 800ba70:	ed9a 8a19 	vldr	s16, [sl, #100]	@ 0x64
 800ba74:	e9cd 010a 	strd	r0, r1, [sp, #40]	@ 0x28
 800ba78:	f002 fcac 	bl	800e3d4 <SPE_cos_H96e4298bd9675fbbcb46b0c1f68b039a5627ebc5_cb4a8a449b4ada864625ee5a4355578a3aaf08ed>
 800ba7c:	ee68 7a00 	vmul.f32	s15, s16, s0
 800ba80:	ee17 0a90 	vmov	r0, s15
 800ba84:	f7f4 fd2c 	bl	80004e0 <__aeabi_f2d>
 800ba88:	4604      	mov	r4, r0
 800ba8a:	f8da 01c0 	ldr.w	r0, [sl, #448]	@ 0x1c0
 800ba8e:	460d      	mov	r5, r1
 800ba90:	f7f4 fd26 	bl	80004e0 <__aeabi_f2d>
 800ba94:	9b08      	ldr	r3, [sp, #32]
 800ba96:	ed9a 8a19 	vldr	s16, [sl, #100]	@ 0x64
 800ba9a:	edda 8a84 	vldr	s17, [sl, #528]	@ 0x210
 800ba9e:	4606      	mov	r6, r0
 800baa0:	460f      	mov	r7, r1
 800baa2:	2b00      	cmp	r3, #0
 800baa4:	f041 84b4 	bne.w	800d410 <DoStep_H96e4298bd9675fbbcb46b0c1f68b039a5627ebc5_cb4a8a449b4ada864625ee5a4355578a3aaf08ed+0x3fc0>
 800baa8:	ed9a 6a3c 	vldr	s12, [sl, #240]	@ 0xf0
 800baac:	edda 6a3d 	vldr	s13, [sl, #244]	@ 0xf4
 800bab0:	ed9a 7a3f 	vldr	s14, [sl, #252]	@ 0xfc
 800bab4:	edda 7a3e 	vldr	s15, [sl, #248]	@ 0xf8
 800bab8:	ee27 7a06 	vmul.f32	s14, s14, s12
 800babc:	ee67 7aa6 	vmul.f32	s15, s15, s13
 800bac0:	ee77 7a27 	vadd.f32	s15, s14, s15
 800bac4:	ee17 0a90 	vmov	r0, s15
 800bac8:	f7f4 fd0a 	bl	80004e0 <__aeabi_f2d>
 800bacc:	4632      	mov	r2, r6
 800bace:	463b      	mov	r3, r7
 800bad0:	f7f4 fd5e 	bl	8000590 <__aeabi_dmul>
 800bad4:	4622      	mov	r2, r4
 800bad6:	462b      	mov	r3, r5
 800bad8:	f7f4 fd5a 	bl	8000590 <__aeabi_dmul>
 800badc:	eeb0 0a68 	vmov.f32	s0, s17
 800bae0:	4680      	mov	r8, r0
 800bae2:	4689      	mov	r9, r1
 800bae4:	f002 fc74 	bl	800e3d0 <SPE_sin_H96e4298bd9675fbbcb46b0c1f68b039a5627ebc5_cb4a8a449b4ada864625ee5a4355578a3aaf08ed>
 800bae8:	ee68 7a00 	vmul.f32	s15, s16, s0
 800baec:	ee17 0a90 	vmov	r0, s15
 800baf0:	f7f4 fcf6 	bl	80004e0 <__aeabi_f2d>
 800baf4:	f8da b1c0 	ldr.w	fp, [sl, #448]	@ 0x1c0
 800baf8:	4606      	mov	r6, r0
 800bafa:	4658      	mov	r0, fp
 800bafc:	460f      	mov	r7, r1
 800bafe:	f7f4 fcef 	bl	80004e0 <__aeabi_f2d>
 800bb02:	ed9a 6a3d 	vldr	s12, [sl, #244]	@ 0xf4
 800bb06:	edda 6a3c 	vldr	s13, [sl, #240]	@ 0xf0
 800bb0a:	ed9a 7a3f 	vldr	s14, [sl, #252]	@ 0xfc
 800bb0e:	edda 7a3e 	vldr	s15, [sl, #248]	@ 0xf8
 800bb12:	ee27 7a06 	vmul.f32	s14, s14, s12
 800bb16:	ee67 7aa6 	vmul.f32	s15, s15, s13
 800bb1a:	4604      	mov	r4, r0
 800bb1c:	ee77 7a67 	vsub.f32	s15, s14, s15
 800bb20:	460d      	mov	r5, r1
 800bb22:	ee17 0a90 	vmov	r0, s15
 800bb26:	f7f4 fcdb 	bl	80004e0 <__aeabi_f2d>
 800bb2a:	4bab      	ldr	r3, [pc, #684]	@ (800bdd8 <DoStep_H96e4298bd9675fbbcb46b0c1f68b039a5627ebc5_cb4a8a449b4ada864625ee5a4355578a3aaf08ed+0x2988>)
 800bb2c:	2200      	movs	r2, #0
 800bb2e:	f7f4 fb79 	bl	8000224 <__adddf3>
 800bb32:	4622      	mov	r2, r4
 800bb34:	462b      	mov	r3, r5
 800bb36:	f7f4 fd2b 	bl	8000590 <__aeabi_dmul>
 800bb3a:	4632      	mov	r2, r6
 800bb3c:	463b      	mov	r3, r7
 800bb3e:	f7f4 fd27 	bl	8000590 <__aeabi_dmul>
 800bb42:	4642      	mov	r2, r8
 800bb44:	464b      	mov	r3, r9
 800bb46:	f7f4 fb6d 	bl	8000224 <__adddf3>
 800bb4a:	4604      	mov	r4, r0
 800bb4c:	f8da 0164 	ldr.w	r0, [sl, #356]	@ 0x164
 800bb50:	460d      	mov	r5, r1
 800bb52:	f7f4 fcc5 	bl	80004e0 <__aeabi_f2d>
 800bb56:	4602      	mov	r2, r0
 800bb58:	460b      	mov	r3, r1
 800bb5a:	4620      	mov	r0, r4
 800bb5c:	4629      	mov	r1, r5
 800bb5e:	f7f4 fd17 	bl	8000590 <__aeabi_dmul>
 800bb62:	ee00 ba10 	vmov	s0, fp
 800bb66:	4604      	mov	r4, r0
 800bb68:	460d      	mov	r5, r1
 800bb6a:	f002 fc13 	bl	800e394 <SPE_ipowSquare_H96e4298bd9675fbbcb46b0c1f68b039a5627ebc5_cb4a8a449b4ada864625ee5a4355578a3aaf08ed>
 800bb6e:	ee10 0a10 	vmov	r0, s0
 800bb72:	f7f4 fcb5 	bl	80004e0 <__aeabi_f2d>
 800bb76:	4602      	mov	r2, r0
 800bb78:	460b      	mov	r3, r1
 800bb7a:	4620      	mov	r0, r4
 800bb7c:	4629      	mov	r1, r5
 800bb7e:	f7f4 fe31 	bl	80007e4 <__aeabi_ddiv>
 800bb82:	460b      	mov	r3, r1
 800bb84:	4602      	mov	r2, r0
 800bb86:	e9dd 010a 	ldrd	r0, r1, [sp, #40]	@ 0x28
 800bb8a:	f7f4 fb49 	bl	8000220 <__aeabi_dsub>
 800bb8e:	f7f4 ff11 	bl	80009b4 <__aeabi_d2f>
 800bb92:	ed9a 8a70 	vldr	s16, [sl, #448]	@ 0x1c0
 800bb96:	edda 7a43 	vldr	s15, [sl, #268]	@ 0x10c
 800bb9a:	9044      	str	r0, [sp, #272]	@ 0x110
 800bb9c:	ee68 7a27 	vmul.f32	s15, s16, s15
 800bba0:	ee17 0a90 	vmov	r0, s15
 800bba4:	f7f4 fc9c 	bl	80004e0 <__aeabi_f2d>
 800bba8:	edda 7a44 	vldr	s15, [sl, #272]	@ 0x110
 800bbac:	ee68 7a27 	vmul.f32	s15, s16, s15
 800bbb0:	4606      	mov	r6, r0
 800bbb2:	ee17 0a90 	vmov	r0, s15
 800bbb6:	460f      	mov	r7, r1
 800bbb8:	f7f4 fc92 	bl	80004e0 <__aeabi_f2d>
 800bbbc:	9b08      	ldr	r3, [sp, #32]
 800bbbe:	ed9a aa12 	vldr	s20, [sl, #72]	@ 0x48
 800bbc2:	edda aa84 	vldr	s21, [sl, #528]	@ 0x210
 800bbc6:	4604      	mov	r4, r0
 800bbc8:	460d      	mov	r5, r1
 800bbca:	2b00      	cmp	r3, #0
 800bbcc:	f041 83da 	bne.w	800d384 <DoStep_H96e4298bd9675fbbcb46b0c1f68b039a5627ebc5_cb4a8a449b4ada864625ee5a4355578a3aaf08ed+0x3f34>
 800bbd0:	ed9a ba3d 	vldr	s22, [sl, #244]	@ 0xf4
 800bbd4:	edda 8a3f 	vldr	s17, [sl, #252]	@ 0xfc
 800bbd8:	edda ba3c 	vldr	s23, [sl, #240]	@ 0xf0
 800bbdc:	ed9a 8a3e 	vldr	s16, [sl, #248]	@ 0xf8
 800bbe0:	ee28 7a8b 	vmul.f32	s14, s17, s22
 800bbe4:	ee6b 7a88 	vmul.f32	s15, s23, s16
 800bbe8:	ee68 8aab 	vmul.f32	s17, s17, s23
 800bbec:	ee77 7a67 	vsub.f32	s15, s14, s15
 800bbf0:	ee28 8a0b 	vmul.f32	s16, s16, s22
 800bbf4:	ee17 0a90 	vmov	r0, s15
 800bbf8:	f7f4 fc72 	bl	80004e0 <__aeabi_f2d>
 800bbfc:	4b76      	ldr	r3, [pc, #472]	@ (800bdd8 <DoStep_H96e4298bd9675fbbcb46b0c1f68b039a5627ebc5_cb4a8a449b4ada864625ee5a4355578a3aaf08ed+0x2988>)
 800bbfe:	2200      	movs	r2, #0
 800bc00:	f7f4 fb10 	bl	8000224 <__adddf3>
 800bc04:	4622      	mov	r2, r4
 800bc06:	462b      	mov	r3, r5
 800bc08:	f7f4 fcc2 	bl	8000590 <__aeabi_dmul>
 800bc0c:	ee78 7a88 	vadd.f32	s15, s17, s16
 800bc10:	4604      	mov	r4, r0
 800bc12:	ee17 0a90 	vmov	r0, s15
 800bc16:	460d      	mov	r5, r1
 800bc18:	f7f4 fc62 	bl	80004e0 <__aeabi_f2d>
 800bc1c:	4632      	mov	r2, r6
 800bc1e:	463b      	mov	r3, r7
 800bc20:	f7f4 fcb6 	bl	8000590 <__aeabi_dmul>
 800bc24:	4602      	mov	r2, r0
 800bc26:	460b      	mov	r3, r1
 800bc28:	4620      	mov	r0, r4
 800bc2a:	4629      	mov	r1, r5
 800bc2c:	f7f4 fafa 	bl	8000224 <__adddf3>
 800bc30:	eeb0 0a6a 	vmov.f32	s0, s21
 800bc34:	4604      	mov	r4, r0
 800bc36:	460d      	mov	r5, r1
 800bc38:	f002 fbca 	bl	800e3d0 <SPE_sin_H96e4298bd9675fbbcb46b0c1f68b039a5627ebc5_cb4a8a449b4ada864625ee5a4355578a3aaf08ed>
 800bc3c:	ee6a 7a00 	vmul.f32	s15, s20, s0
 800bc40:	ee17 0a90 	vmov	r0, s15
 800bc44:	f7f4 fc4c 	bl	80004e0 <__aeabi_f2d>
 800bc48:	4622      	mov	r2, r4
 800bc4a:	462b      	mov	r3, r5
 800bc4c:	f7f4 fca0 	bl	8000590 <__aeabi_dmul>
 800bc50:	edda 8a3f 	vldr	s17, [sl, #252]	@ 0xfc
 800bc54:	ed9a 8a3c 	vldr	s16, [sl, #240]	@ 0xf0
 800bc58:	ed9a aa3e 	vldr	s20, [sl, #248]	@ 0xf8
 800bc5c:	edda aa3d 	vldr	s21, [sl, #244]	@ 0xf4
 800bc60:	ed9a ba70 	vldr	s22, [sl, #448]	@ 0x1c0
 800bc64:	ee28 7a88 	vmul.f32	s14, s17, s16
 800bc68:	ee6a 7a2a 	vmul.f32	s15, s20, s21
 800bc6c:	4680      	mov	r8, r0
 800bc6e:	ee77 7a27 	vadd.f32	s15, s14, s15
 800bc72:	4689      	mov	r9, r1
 800bc74:	ee17 0a90 	vmov	r0, s15
 800bc78:	f7f4 fc32 	bl	80004e0 <__aeabi_f2d>
 800bc7c:	edda 7a44 	vldr	s15, [sl, #272]	@ 0x110
 800bc80:	ee6b 7a27 	vmul.f32	s15, s22, s15
 800bc84:	4604      	mov	r4, r0
 800bc86:	ee17 0a90 	vmov	r0, s15
 800bc8a:	460d      	mov	r5, r1
 800bc8c:	f7f4 fc28 	bl	80004e0 <__aeabi_f2d>
 800bc90:	4602      	mov	r2, r0
 800bc92:	460b      	mov	r3, r1
 800bc94:	4620      	mov	r0, r4
 800bc96:	4629      	mov	r1, r5
 800bc98:	f7f4 fc7a 	bl	8000590 <__aeabi_dmul>
 800bc9c:	edda 7a43 	vldr	s15, [sl, #268]	@ 0x10c
 800bca0:	ee6b 7a27 	vmul.f32	s15, s22, s15
 800bca4:	ee68 8aaa 	vmul.f32	s17, s17, s21
 800bca8:	ee28 8a0a 	vmul.f32	s16, s16, s20
 800bcac:	4604      	mov	r4, r0
 800bcae:	ee17 0a90 	vmov	r0, s15
 800bcb2:	460d      	mov	r5, r1
 800bcb4:	f7f4 fc14 	bl	80004e0 <__aeabi_f2d>
 800bcb8:	ee78 7ac8 	vsub.f32	s15, s17, s16
 800bcbc:	4606      	mov	r6, r0
 800bcbe:	ee17 0a90 	vmov	r0, s15
 800bcc2:	460f      	mov	r7, r1
 800bcc4:	f7f4 fc0c 	bl	80004e0 <__aeabi_f2d>
 800bcc8:	4b43      	ldr	r3, [pc, #268]	@ (800bdd8 <DoStep_H96e4298bd9675fbbcb46b0c1f68b039a5627ebc5_cb4a8a449b4ada864625ee5a4355578a3aaf08ed+0x2988>)
 800bcca:	2200      	movs	r2, #0
 800bccc:	f7f4 faaa 	bl	8000224 <__adddf3>
 800bcd0:	4632      	mov	r2, r6
 800bcd2:	463b      	mov	r3, r7
 800bcd4:	f7f4 fc5c 	bl	8000590 <__aeabi_dmul>
 800bcd8:	4602      	mov	r2, r0
 800bcda:	460b      	mov	r3, r1
 800bcdc:	4620      	mov	r0, r4
 800bcde:	4629      	mov	r1, r5
 800bce0:	f7f4 fa9e 	bl	8000220 <__aeabi_dsub>
 800bce4:	ed9a 0a84 	vldr	s0, [sl, #528]	@ 0x210
 800bce8:	ed9a 8a12 	vldr	s16, [sl, #72]	@ 0x48
 800bcec:	4604      	mov	r4, r0
 800bcee:	460d      	mov	r5, r1
 800bcf0:	f002 fb70 	bl	800e3d4 <SPE_cos_H96e4298bd9675fbbcb46b0c1f68b039a5627ebc5_cb4a8a449b4ada864625ee5a4355578a3aaf08ed>
 800bcf4:	ee68 7a00 	vmul.f32	s15, s16, s0
 800bcf8:	ee17 0a90 	vmov	r0, s15
 800bcfc:	f7f4 fbf0 	bl	80004e0 <__aeabi_f2d>
 800bd00:	4622      	mov	r2, r4
 800bd02:	462b      	mov	r3, r5
 800bd04:	f7f4 fc44 	bl	8000590 <__aeabi_dmul>
 800bd08:	464b      	mov	r3, r9
 800bd0a:	4642      	mov	r2, r8
 800bd0c:	f7f4 fa8a 	bl	8000224 <__adddf3>
 800bd10:	ed9a 0a84 	vldr	s0, [sl, #528]	@ 0x210
 800bd14:	ed9a 8a19 	vldr	s16, [sl, #100]	@ 0x64
 800bd18:	e9cd 010a 	strd	r0, r1, [sp, #40]	@ 0x28
 800bd1c:	f002 fb58 	bl	800e3d0 <SPE_sin_H96e4298bd9675fbbcb46b0c1f68b039a5627ebc5_cb4a8a449b4ada864625ee5a4355578a3aaf08ed>
 800bd20:	ee68 7a00 	vmul.f32	s15, s16, s0
 800bd24:	ee17 0a90 	vmov	r0, s15
 800bd28:	f7f4 fbda 	bl	80004e0 <__aeabi_f2d>
 800bd2c:	4604      	mov	r4, r0
 800bd2e:	f8da 01c0 	ldr.w	r0, [sl, #448]	@ 0x1c0
 800bd32:	460d      	mov	r5, r1
 800bd34:	f7f4 fbd4 	bl	80004e0 <__aeabi_f2d>
 800bd38:	9b08      	ldr	r3, [sp, #32]
 800bd3a:	ed9a 8a19 	vldr	s16, [sl, #100]	@ 0x64
 800bd3e:	edda 8a84 	vldr	s17, [sl, #528]	@ 0x210
 800bd42:	4606      	mov	r6, r0
 800bd44:	460f      	mov	r7, r1
 800bd46:	2b00      	cmp	r3, #0
 800bd48:	f041 82fb 	bne.w	800d342 <DoStep_H96e4298bd9675fbbcb46b0c1f68b039a5627ebc5_cb4a8a449b4ada864625ee5a4355578a3aaf08ed+0x3ef2>
 800bd4c:	ed9a 6a3c 	vldr	s12, [sl, #240]	@ 0xf0
 800bd50:	edda 6a3d 	vldr	s13, [sl, #244]	@ 0xf4
 800bd54:	ed9a 7a3f 	vldr	s14, [sl, #252]	@ 0xfc
 800bd58:	edda 7a3e 	vldr	s15, [sl, #248]	@ 0xf8
 800bd5c:	ee27 7a06 	vmul.f32	s14, s14, s12
 800bd60:	ee67 7aa6 	vmul.f32	s15, s15, s13
 800bd64:	ee77 7a27 	vadd.f32	s15, s14, s15
 800bd68:	ee17 0a90 	vmov	r0, s15
 800bd6c:	f7f4 fbb8 	bl	80004e0 <__aeabi_f2d>
 800bd70:	4632      	mov	r2, r6
 800bd72:	463b      	mov	r3, r7
 800bd74:	f7f4 fc0c 	bl	8000590 <__aeabi_dmul>
 800bd78:	4622      	mov	r2, r4
 800bd7a:	462b      	mov	r3, r5
 800bd7c:	f7f4 fc08 	bl	8000590 <__aeabi_dmul>
 800bd80:	eeb0 0a68 	vmov.f32	s0, s17
 800bd84:	4680      	mov	r8, r0
 800bd86:	4689      	mov	r9, r1
 800bd88:	f002 fb24 	bl	800e3d4 <SPE_cos_H96e4298bd9675fbbcb46b0c1f68b039a5627ebc5_cb4a8a449b4ada864625ee5a4355578a3aaf08ed>
 800bd8c:	ee68 7a00 	vmul.f32	s15, s16, s0
 800bd90:	ee17 0a90 	vmov	r0, s15
 800bd94:	f7f4 fba4 	bl	80004e0 <__aeabi_f2d>
 800bd98:	f8da b1c0 	ldr.w	fp, [sl, #448]	@ 0x1c0
 800bd9c:	4606      	mov	r6, r0
 800bd9e:	4658      	mov	r0, fp
 800bda0:	460f      	mov	r7, r1
 800bda2:	f7f4 fb9d 	bl	80004e0 <__aeabi_f2d>
 800bda6:	ed9a 6a3d 	vldr	s12, [sl, #244]	@ 0xf4
 800bdaa:	edda 6a3c 	vldr	s13, [sl, #240]	@ 0xf0
 800bdae:	ed9a 7a3f 	vldr	s14, [sl, #252]	@ 0xfc
 800bdb2:	edda 7a3e 	vldr	s15, [sl, #248]	@ 0xf8
 800bdb6:	ee27 7a06 	vmul.f32	s14, s14, s12
 800bdba:	ee67 7aa6 	vmul.f32	s15, s15, s13
 800bdbe:	4604      	mov	r4, r0
 800bdc0:	ee77 7a67 	vsub.f32	s15, s14, s15
 800bdc4:	460d      	mov	r5, r1
 800bdc6:	ee17 0a90 	vmov	r0, s15
 800bdca:	f7f4 fb89 	bl	80004e0 <__aeabi_f2d>
 800bdce:	4b02      	ldr	r3, [pc, #8]	@ (800bdd8 <DoStep_H96e4298bd9675fbbcb46b0c1f68b039a5627ebc5_cb4a8a449b4ada864625ee5a4355578a3aaf08ed+0x2988>)
 800bdd0:	2200      	movs	r2, #0
 800bdd2:	f7f4 fa27 	bl	8000224 <__adddf3>
 800bdd6:	e001      	b.n	800bddc <DoStep_H96e4298bd9675fbbcb46b0c1f68b039a5627ebc5_cb4a8a449b4ada864625ee5a4355578a3aaf08ed+0x298c>
 800bdd8:	3ff00000 	.word	0x3ff00000
 800bddc:	4622      	mov	r2, r4
 800bdde:	462b      	mov	r3, r5
 800bde0:	f7f4 fbd6 	bl	8000590 <__aeabi_dmul>
 800bde4:	4632      	mov	r2, r6
 800bde6:	463b      	mov	r3, r7
 800bde8:	f7f4 fbd2 	bl	8000590 <__aeabi_dmul>
 800bdec:	4602      	mov	r2, r0
 800bdee:	460b      	mov	r3, r1
 800bdf0:	4640      	mov	r0, r8
 800bdf2:	4649      	mov	r1, r9
 800bdf4:	f7f4 fa14 	bl	8000220 <__aeabi_dsub>
 800bdf8:	4604      	mov	r4, r0
 800bdfa:	f8da 0164 	ldr.w	r0, [sl, #356]	@ 0x164
 800bdfe:	460d      	mov	r5, r1
 800be00:	f7f4 fb6e 	bl	80004e0 <__aeabi_f2d>
 800be04:	4602      	mov	r2, r0
 800be06:	460b      	mov	r3, r1
 800be08:	4620      	mov	r0, r4
 800be0a:	4629      	mov	r1, r5
 800be0c:	f7f4 fbc0 	bl	8000590 <__aeabi_dmul>
 800be10:	ee00 ba10 	vmov	s0, fp
 800be14:	4604      	mov	r4, r0
 800be16:	460d      	mov	r5, r1
 800be18:	f002 fabc 	bl	800e394 <SPE_ipowSquare_H96e4298bd9675fbbcb46b0c1f68b039a5627ebc5_cb4a8a449b4ada864625ee5a4355578a3aaf08ed>
 800be1c:	ee10 0a10 	vmov	r0, s0
 800be20:	f7f4 fb5e 	bl	80004e0 <__aeabi_f2d>
 800be24:	4602      	mov	r2, r0
 800be26:	460b      	mov	r3, r1
 800be28:	4620      	mov	r0, r4
 800be2a:	4629      	mov	r1, r5
 800be2c:	f7f4 fcda 	bl	80007e4 <__aeabi_ddiv>
 800be30:	e9dd 230a 	ldrd	r2, r3, [sp, #40]	@ 0x28
 800be34:	f7f4 f9f6 	bl	8000224 <__adddf3>
 800be38:	ed9a 0a84 	vldr	s0, [sl, #528]	@ 0x210
 800be3c:	ed9a 8a19 	vldr	s16, [sl, #100]	@ 0x64
 800be40:	e9cd 010a 	strd	r0, r1, [sp, #40]	@ 0x28
 800be44:	f002 fac6 	bl	800e3d4 <SPE_cos_H96e4298bd9675fbbcb46b0c1f68b039a5627ebc5_cb4a8a449b4ada864625ee5a4355578a3aaf08ed>
 800be48:	ee68 7a00 	vmul.f32	s15, s16, s0
 800be4c:	ee17 0a90 	vmov	r0, s15
 800be50:	f7f4 fb46 	bl	80004e0 <__aeabi_f2d>
 800be54:	4604      	mov	r4, r0
 800be56:	f8da 01c0 	ldr.w	r0, [sl, #448]	@ 0x1c0
 800be5a:	460d      	mov	r5, r1
 800be5c:	f7f4 fb40 	bl	80004e0 <__aeabi_f2d>
 800be60:	9b08      	ldr	r3, [sp, #32]
 800be62:	ed9a 8a19 	vldr	s16, [sl, #100]	@ 0x64
 800be66:	edda 8a84 	vldr	s17, [sl, #528]	@ 0x210
 800be6a:	4606      	mov	r6, r0
 800be6c:	460f      	mov	r7, r1
 800be6e:	2b00      	cmp	r3, #0
 800be70:	f041 8246 	bne.w	800d300 <DoStep_H96e4298bd9675fbbcb46b0c1f68b039a5627ebc5_cb4a8a449b4ada864625ee5a4355578a3aaf08ed+0x3eb0>
 800be74:	ed9a 6a3c 	vldr	s12, [sl, #240]	@ 0xf0
 800be78:	edda 6a3d 	vldr	s13, [sl, #244]	@ 0xf4
 800be7c:	ed9a 7a3f 	vldr	s14, [sl, #252]	@ 0xfc
 800be80:	edda 7a3e 	vldr	s15, [sl, #248]	@ 0xf8
 800be84:	ee27 7a06 	vmul.f32	s14, s14, s12
 800be88:	ee67 7aa6 	vmul.f32	s15, s15, s13
 800be8c:	ee77 7a27 	vadd.f32	s15, s14, s15
 800be90:	ee17 0a90 	vmov	r0, s15
 800be94:	f7f4 fb24 	bl	80004e0 <__aeabi_f2d>
 800be98:	4632      	mov	r2, r6
 800be9a:	463b      	mov	r3, r7
 800be9c:	f7f4 fb78 	bl	8000590 <__aeabi_dmul>
 800bea0:	4622      	mov	r2, r4
 800bea2:	462b      	mov	r3, r5
 800bea4:	f7f4 fb74 	bl	8000590 <__aeabi_dmul>
 800bea8:	eeb0 0a68 	vmov.f32	s0, s17
 800beac:	4680      	mov	r8, r0
 800beae:	4689      	mov	r9, r1
 800beb0:	f002 fa8e 	bl	800e3d0 <SPE_sin_H96e4298bd9675fbbcb46b0c1f68b039a5627ebc5_cb4a8a449b4ada864625ee5a4355578a3aaf08ed>
 800beb4:	ee68 7a00 	vmul.f32	s15, s16, s0
 800beb8:	ee17 0a90 	vmov	r0, s15
 800bebc:	f7f4 fb10 	bl	80004e0 <__aeabi_f2d>
 800bec0:	f8da b1c0 	ldr.w	fp, [sl, #448]	@ 0x1c0
 800bec4:	4606      	mov	r6, r0
 800bec6:	4658      	mov	r0, fp
 800bec8:	460f      	mov	r7, r1
 800beca:	f7f4 fb09 	bl	80004e0 <__aeabi_f2d>
 800bece:	ed9a 6a3d 	vldr	s12, [sl, #244]	@ 0xf4
 800bed2:	edda 6a3c 	vldr	s13, [sl, #240]	@ 0xf0
 800bed6:	ed9a 7a3f 	vldr	s14, [sl, #252]	@ 0xfc
 800beda:	edda 7a3e 	vldr	s15, [sl, #248]	@ 0xf8
 800bede:	ee27 7a06 	vmul.f32	s14, s14, s12
 800bee2:	ee67 7aa6 	vmul.f32	s15, s15, s13
 800bee6:	4604      	mov	r4, r0
 800bee8:	ee77 7a67 	vsub.f32	s15, s14, s15
 800beec:	460d      	mov	r5, r1
 800beee:	ee17 0a90 	vmov	r0, s15
 800bef2:	f7f4 faf5 	bl	80004e0 <__aeabi_f2d>
 800bef6:	4be9      	ldr	r3, [pc, #932]	@ (800c29c <DoStep_H96e4298bd9675fbbcb46b0c1f68b039a5627ebc5_cb4a8a449b4ada864625ee5a4355578a3aaf08ed+0x2e4c>)
 800bef8:	2200      	movs	r2, #0
 800befa:	f7f4 f993 	bl	8000224 <__adddf3>
 800befe:	4622      	mov	r2, r4
 800bf00:	462b      	mov	r3, r5
 800bf02:	f7f4 fb45 	bl	8000590 <__aeabi_dmul>
 800bf06:	463b      	mov	r3, r7
 800bf08:	4632      	mov	r2, r6
 800bf0a:	f7f4 fb41 	bl	8000590 <__aeabi_dmul>
 800bf0e:	4642      	mov	r2, r8
 800bf10:	464b      	mov	r3, r9
 800bf12:	f7f4 f987 	bl	8000224 <__adddf3>
 800bf16:	4604      	mov	r4, r0
 800bf18:	f8da 0170 	ldr.w	r0, [sl, #368]	@ 0x170
 800bf1c:	460d      	mov	r5, r1
 800bf1e:	f7f4 fadf 	bl	80004e0 <__aeabi_f2d>
 800bf22:	4602      	mov	r2, r0
 800bf24:	460b      	mov	r3, r1
 800bf26:	4620      	mov	r0, r4
 800bf28:	4629      	mov	r1, r5
 800bf2a:	f7f4 fb31 	bl	8000590 <__aeabi_dmul>
 800bf2e:	ee00 ba10 	vmov	s0, fp
 800bf32:	4604      	mov	r4, r0
 800bf34:	460d      	mov	r5, r1
 800bf36:	f002 fa2d 	bl	800e394 <SPE_ipowSquare_H96e4298bd9675fbbcb46b0c1f68b039a5627ebc5_cb4a8a449b4ada864625ee5a4355578a3aaf08ed>
 800bf3a:	ee10 0a10 	vmov	r0, s0
 800bf3e:	f7f4 facf 	bl	80004e0 <__aeabi_f2d>
 800bf42:	4602      	mov	r2, r0
 800bf44:	460b      	mov	r3, r1
 800bf46:	4620      	mov	r0, r4
 800bf48:	4629      	mov	r1, r5
 800bf4a:	f7f4 fc4b 	bl	80007e4 <__aeabi_ddiv>
 800bf4e:	e9dd 230a 	ldrd	r2, r3, [sp, #40]	@ 0x28
 800bf52:	f7f4 f967 	bl	8000224 <__adddf3>
 800bf56:	f7f4 fd2d 	bl	80009b4 <__aeabi_d2f>
 800bf5a:	ee07 0a90 	vmov	s15, r0
 800bf5e:	ed9a 0a84 	vldr	s0, [sl, #528]	@ 0x210
 800bf62:	ed9a 8a19 	vldr	s16, [sl, #100]	@ 0x64
 800bf66:	eef1 7a67 	vneg.f32	s15, s15
 800bf6a:	edcd 7a45 	vstr	s15, [sp, #276]	@ 0x114
 800bf6e:	f002 fa2f 	bl	800e3d0 <SPE_sin_H96e4298bd9675fbbcb46b0c1f68b039a5627ebc5_cb4a8a449b4ada864625ee5a4355578a3aaf08ed>
 800bf72:	ee68 7a00 	vmul.f32	s15, s16, s0
 800bf76:	ee17 0a90 	vmov	r0, s15
 800bf7a:	f7f4 fab1 	bl	80004e0 <__aeabi_f2d>
 800bf7e:	ed9a 0a70 	vldr	s0, [sl, #448]	@ 0x1c0
 800bf82:	e9cd 010a 	strd	r0, r1, [sp, #40]	@ 0x28
 800bf86:	ee10 0a10 	vmov	r0, s0
 800bf8a:	ed8d 0a0c 	vstr	s0, [sp, #48]	@ 0x30
 800bf8e:	f7f4 faa7 	bl	80004e0 <__aeabi_f2d>
 800bf92:	4604      	mov	r4, r0
 800bf94:	460d      	mov	r5, r1
 800bf96:	4622      	mov	r2, r4
 800bf98:	462b      	mov	r3, r5
 800bf9a:	49c0      	ldr	r1, [pc, #768]	@ (800c29c <DoStep_H96e4298bd9675fbbcb46b0c1f68b039a5627ebc5_cb4a8a449b4ada864625ee5a4355578a3aaf08ed+0x2e4c>)
 800bf9c:	2000      	movs	r0, #0
 800bf9e:	f7f4 fc21 	bl	80007e4 <__aeabi_ddiv>
 800bfa2:	ed9d 0a0c 	vldr	s0, [sp, #48]	@ 0x30
 800bfa6:	4680      	mov	r8, r0
 800bfa8:	4689      	mov	r9, r1
 800bfaa:	f002 f9f3 	bl	800e394 <SPE_ipowSquare_H96e4298bd9675fbbcb46b0c1f68b039a5627ebc5_cb4a8a449b4ada864625ee5a4355578a3aaf08ed>
 800bfae:	ee10 0a10 	vmov	r0, s0
 800bfb2:	f7f4 fa95 	bl	80004e0 <__aeabi_f2d>
 800bfb6:	f105 4700 	add.w	r7, r5, #2147483648	@ 0x80000000
 800bfba:	4602      	mov	r2, r0
 800bfbc:	460b      	mov	r3, r1
 800bfbe:	4620      	mov	r0, r4
 800bfc0:	4639      	mov	r1, r7
 800bfc2:	f7f4 fc0f 	bl	80007e4 <__aeabi_ddiv>
 800bfc6:	4642      	mov	r2, r8
 800bfc8:	464b      	mov	r3, r9
 800bfca:	f7f4 f92b 	bl	8000224 <__adddf3>
 800bfce:	e9dd 230a 	ldrd	r2, r3, [sp, #40]	@ 0x28
 800bfd2:	f7f4 fadd 	bl	8000590 <__aeabi_dmul>
 800bfd6:	4604      	mov	r4, r0
 800bfd8:	f8da 021c 	ldr.w	r0, [sl, #540]	@ 0x21c
 800bfdc:	460d      	mov	r5, r1
 800bfde:	f7f4 fa7f 	bl	80004e0 <__aeabi_f2d>
 800bfe2:	4602      	mov	r2, r0
 800bfe4:	460b      	mov	r3, r1
 800bfe6:	4620      	mov	r0, r4
 800bfe8:	4629      	mov	r1, r5
 800bfea:	f7f4 fad1 	bl	8000590 <__aeabi_dmul>
 800bfee:	ed9a 0a84 	vldr	s0, [sl, #528]	@ 0x210
 800bff2:	ed9a 8a19 	vldr	s16, [sl, #100]	@ 0x64
 800bff6:	e9cd 010c 	strd	r0, r1, [sp, #48]	@ 0x30
 800bffa:	f002 f9eb 	bl	800e3d4 <SPE_cos_H96e4298bd9675fbbcb46b0c1f68b039a5627ebc5_cb4a8a449b4ada864625ee5a4355578a3aaf08ed>
 800bffe:	ee68 7a00 	vmul.f32	s15, s16, s0
 800c002:	ee17 0a90 	vmov	r0, s15
 800c006:	f7f4 fa6b 	bl	80004e0 <__aeabi_f2d>
 800c00a:	ed9a 0a70 	vldr	s0, [sl, #448]	@ 0x1c0
 800c00e:	e9cd 010a 	strd	r0, r1, [sp, #40]	@ 0x28
 800c012:	ee10 0a10 	vmov	r0, s0
 800c016:	ed8d 0a0f 	vstr	s0, [sp, #60]	@ 0x3c
 800c01a:	f7f4 fa61 	bl	80004e0 <__aeabi_f2d>
 800c01e:	4604      	mov	r4, r0
 800c020:	460d      	mov	r5, r1
 800c022:	4622      	mov	r2, r4
 800c024:	462b      	mov	r3, r5
 800c026:	499d      	ldr	r1, [pc, #628]	@ (800c29c <DoStep_H96e4298bd9675fbbcb46b0c1f68b039a5627ebc5_cb4a8a449b4ada864625ee5a4355578a3aaf08ed+0x2e4c>)
 800c028:	2000      	movs	r0, #0
 800c02a:	f7f4 fbdb 	bl	80007e4 <__aeabi_ddiv>
 800c02e:	ed9d 0a0f 	vldr	s0, [sp, #60]	@ 0x3c
 800c032:	4680      	mov	r8, r0
 800c034:	4689      	mov	r9, r1
 800c036:	f002 f9ad 	bl	800e394 <SPE_ipowSquare_H96e4298bd9675fbbcb46b0c1f68b039a5627ebc5_cb4a8a449b4ada864625ee5a4355578a3aaf08ed>
 800c03a:	ee10 0a10 	vmov	r0, s0
 800c03e:	f7f4 fa4f 	bl	80004e0 <__aeabi_f2d>
 800c042:	f105 4700 	add.w	r7, r5, #2147483648	@ 0x80000000
 800c046:	4602      	mov	r2, r0
 800c048:	460b      	mov	r3, r1
 800c04a:	4620      	mov	r0, r4
 800c04c:	4639      	mov	r1, r7
 800c04e:	f7f4 fbc9 	bl	80007e4 <__aeabi_ddiv>
 800c052:	4642      	mov	r2, r8
 800c054:	464b      	mov	r3, r9
 800c056:	f7f4 f8e5 	bl	8000224 <__adddf3>
 800c05a:	e9dd 230a 	ldrd	r2, r3, [sp, #40]	@ 0x28
 800c05e:	f7f4 fa97 	bl	8000590 <__aeabi_dmul>
 800c062:	4604      	mov	r4, r0
 800c064:	f8da 0220 	ldr.w	r0, [sl, #544]	@ 0x220
 800c068:	460d      	mov	r5, r1
 800c06a:	f7f4 fa39 	bl	80004e0 <__aeabi_f2d>
 800c06e:	4602      	mov	r2, r0
 800c070:	460b      	mov	r3, r1
 800c072:	4620      	mov	r0, r4
 800c074:	4629      	mov	r1, r5
 800c076:	f7f4 fa8b 	bl	8000590 <__aeabi_dmul>
 800c07a:	e9dd 230c 	ldrd	r2, r3, [sp, #48]	@ 0x30
 800c07e:	f7f4 f8d1 	bl	8000224 <__adddf3>
 800c082:	f7f4 fc97 	bl	80009b4 <__aeabi_d2f>
 800c086:	ee07 0a90 	vmov	s15, r0
 800c08a:	ed9a 0a84 	vldr	s0, [sl, #528]	@ 0x210
 800c08e:	ed9a 8a19 	vldr	s16, [sl, #100]	@ 0x64
 800c092:	eef1 7a67 	vneg.f32	s15, s15
 800c096:	edcd 7a10 	vstr	s15, [sp, #64]	@ 0x40
 800c09a:	f002 f99b 	bl	800e3d4 <SPE_cos_H96e4298bd9675fbbcb46b0c1f68b039a5627ebc5_cb4a8a449b4ada864625ee5a4355578a3aaf08ed>
 800c09e:	ee68 7a00 	vmul.f32	s15, s16, s0
 800c0a2:	ee17 0a90 	vmov	r0, s15
 800c0a6:	f7f4 fa1b 	bl	80004e0 <__aeabi_f2d>
 800c0aa:	ed9a 0a70 	vldr	s0, [sl, #448]	@ 0x1c0
 800c0ae:	e9cd 010a 	strd	r0, r1, [sp, #40]	@ 0x28
 800c0b2:	ee10 0a10 	vmov	r0, s0
 800c0b6:	ed8d 0a0c 	vstr	s0, [sp, #48]	@ 0x30
 800c0ba:	f7f4 fa11 	bl	80004e0 <__aeabi_f2d>
 800c0be:	4604      	mov	r4, r0
 800c0c0:	460d      	mov	r5, r1
 800c0c2:	4622      	mov	r2, r4
 800c0c4:	462b      	mov	r3, r5
 800c0c6:	4975      	ldr	r1, [pc, #468]	@ (800c29c <DoStep_H96e4298bd9675fbbcb46b0c1f68b039a5627ebc5_cb4a8a449b4ada864625ee5a4355578a3aaf08ed+0x2e4c>)
 800c0c8:	2000      	movs	r0, #0
 800c0ca:	f7f4 fb8b 	bl	80007e4 <__aeabi_ddiv>
 800c0ce:	ed9d 0a0c 	vldr	s0, [sp, #48]	@ 0x30
 800c0d2:	4680      	mov	r8, r0
 800c0d4:	4689      	mov	r9, r1
 800c0d6:	f002 f95d 	bl	800e394 <SPE_ipowSquare_H96e4298bd9675fbbcb46b0c1f68b039a5627ebc5_cb4a8a449b4ada864625ee5a4355578a3aaf08ed>
 800c0da:	ee10 0a10 	vmov	r0, s0
 800c0de:	f7f4 f9ff 	bl	80004e0 <__aeabi_f2d>
 800c0e2:	f105 4700 	add.w	r7, r5, #2147483648	@ 0x80000000
 800c0e6:	4602      	mov	r2, r0
 800c0e8:	460b      	mov	r3, r1
 800c0ea:	4620      	mov	r0, r4
 800c0ec:	4639      	mov	r1, r7
 800c0ee:	f7f4 fb79 	bl	80007e4 <__aeabi_ddiv>
 800c0f2:	4642      	mov	r2, r8
 800c0f4:	464b      	mov	r3, r9
 800c0f6:	f7f4 f895 	bl	8000224 <__adddf3>
 800c0fa:	e9dd 230a 	ldrd	r2, r3, [sp, #40]	@ 0x28
 800c0fe:	f7f4 fa47 	bl	8000590 <__aeabi_dmul>
 800c102:	4604      	mov	r4, r0
 800c104:	f8da 021c 	ldr.w	r0, [sl, #540]	@ 0x21c
 800c108:	460d      	mov	r5, r1
 800c10a:	f7f4 f9e9 	bl	80004e0 <__aeabi_f2d>
 800c10e:	4602      	mov	r2, r0
 800c110:	460b      	mov	r3, r1
 800c112:	4620      	mov	r0, r4
 800c114:	4629      	mov	r1, r5
 800c116:	f7f4 fa3b 	bl	8000590 <__aeabi_dmul>
 800c11a:	ed9a 0a84 	vldr	s0, [sl, #528]	@ 0x210
 800c11e:	ed9a 8a19 	vldr	s16, [sl, #100]	@ 0x64
 800c122:	e9cd 010c 	strd	r0, r1, [sp, #48]	@ 0x30
 800c126:	f002 f953 	bl	800e3d0 <SPE_sin_H96e4298bd9675fbbcb46b0c1f68b039a5627ebc5_cb4a8a449b4ada864625ee5a4355578a3aaf08ed>
 800c12a:	ee68 7a00 	vmul.f32	s15, s16, s0
 800c12e:	ee17 0a90 	vmov	r0, s15
 800c132:	f7f4 f9d5 	bl	80004e0 <__aeabi_f2d>
 800c136:	ed9a 0a70 	vldr	s0, [sl, #448]	@ 0x1c0
 800c13a:	e9cd 010a 	strd	r0, r1, [sp, #40]	@ 0x28
 800c13e:	ee10 0a10 	vmov	r0, s0
 800c142:	ed8d 0a0f 	vstr	s0, [sp, #60]	@ 0x3c
 800c146:	f7f4 f9cb 	bl	80004e0 <__aeabi_f2d>
 800c14a:	4604      	mov	r4, r0
 800c14c:	460d      	mov	r5, r1
 800c14e:	4622      	mov	r2, r4
 800c150:	462b      	mov	r3, r5
 800c152:	4952      	ldr	r1, [pc, #328]	@ (800c29c <DoStep_H96e4298bd9675fbbcb46b0c1f68b039a5627ebc5_cb4a8a449b4ada864625ee5a4355578a3aaf08ed+0x2e4c>)
 800c154:	2000      	movs	r0, #0
 800c156:	f7f4 fb45 	bl	80007e4 <__aeabi_ddiv>
 800c15a:	ed9d 0a0f 	vldr	s0, [sp, #60]	@ 0x3c
 800c15e:	4680      	mov	r8, r0
 800c160:	4689      	mov	r9, r1
 800c162:	f002 f917 	bl	800e394 <SPE_ipowSquare_H96e4298bd9675fbbcb46b0c1f68b039a5627ebc5_cb4a8a449b4ada864625ee5a4355578a3aaf08ed>
 800c166:	ee10 0a10 	vmov	r0, s0
 800c16a:	f7f4 f9b9 	bl	80004e0 <__aeabi_f2d>
 800c16e:	f105 4700 	add.w	r7, r5, #2147483648	@ 0x80000000
 800c172:	4602      	mov	r2, r0
 800c174:	460b      	mov	r3, r1
 800c176:	4620      	mov	r0, r4
 800c178:	4639      	mov	r1, r7
 800c17a:	f7f4 fb33 	bl	80007e4 <__aeabi_ddiv>
 800c17e:	4642      	mov	r2, r8
 800c180:	464b      	mov	r3, r9
 800c182:	f7f4 f84f 	bl	8000224 <__adddf3>
 800c186:	e9dd 230a 	ldrd	r2, r3, [sp, #40]	@ 0x28
 800c18a:	f7f4 fa01 	bl	8000590 <__aeabi_dmul>
 800c18e:	4604      	mov	r4, r0
 800c190:	f8da 0220 	ldr.w	r0, [sl, #544]	@ 0x220
 800c194:	460d      	mov	r5, r1
 800c196:	f7f4 f9a3 	bl	80004e0 <__aeabi_f2d>
 800c19a:	4602      	mov	r2, r0
 800c19c:	460b      	mov	r3, r1
 800c19e:	4620      	mov	r0, r4
 800c1a0:	4629      	mov	r1, r5
 800c1a2:	f7f4 f9f5 	bl	8000590 <__aeabi_dmul>
 800c1a6:	460b      	mov	r3, r1
 800c1a8:	4602      	mov	r2, r0
 800c1aa:	e9dd 010c 	ldrd	r0, r1, [sp, #48]	@ 0x30
 800c1ae:	f7f4 f837 	bl	8000220 <__aeabi_dsub>
 800c1b2:	f7f4 fbff 	bl	80009b4 <__aeabi_d2f>
 800c1b6:	9b04      	ldr	r3, [sp, #16]
 800c1b8:	edda 8a19 	vldr	s17, [sl, #100]	@ 0x64
 800c1bc:	ed9a 8a84 	vldr	s16, [sl, #528]	@ 0x210
 800c1c0:	9011      	str	r0, [sp, #68]	@ 0x44
 800c1c2:	2b00      	cmp	r3, #0
 800c1c4:	f041 83ca 	bne.w	800d95c <DoStep_H96e4298bd9675fbbcb46b0c1f68b039a5627ebc5_cb4a8a449b4ada864625ee5a4355578a3aaf08ed+0x450c>
 800c1c8:	f8da 01dc 	ldr.w	r0, [sl, #476]	@ 0x1dc
 800c1cc:	f7f4 f988 	bl	80004e0 <__aeabi_f2d>
 800c1d0:	eeb0 0a48 	vmov.f32	s0, s16
 800c1d4:	e9cd 010c 	strd	r0, r1, [sp, #48]	@ 0x30
 800c1d8:	f002 f8fa 	bl	800e3d0 <SPE_sin_H96e4298bd9675fbbcb46b0c1f68b039a5627ebc5_cb4a8a449b4ada864625ee5a4355578a3aaf08ed>
 800c1dc:	edda 6a39 	vldr	s13, [sl, #228]	@ 0xe4
 800c1e0:	ed9a aa3a 	vldr	s20, [sl, #232]	@ 0xe8
 800c1e4:	ed9a 7a3b 	vldr	s14, [sl, #236]	@ 0xec
 800c1e8:	edda 7a38 	vldr	s15, [sl, #224]	@ 0xe0
 800c1ec:	ee27 7a26 	vmul.f32	s14, s14, s13
 800c1f0:	ee6a 7a27 	vmul.f32	s15, s20, s15
 800c1f4:	eeb0 8a40 	vmov.f32	s16, s0
 800c1f8:	ee77 7a67 	vsub.f32	s15, s14, s15
 800c1fc:	ee17 0a90 	vmov	r0, s15
 800c200:	f7f4 f96e 	bl	80004e0 <__aeabi_f2d>
 800c204:	4b25      	ldr	r3, [pc, #148]	@ (800c29c <DoStep_H96e4298bd9675fbbcb46b0c1f68b039a5627ebc5_cb4a8a449b4ada864625ee5a4355578a3aaf08ed+0x2e4c>)
 800c206:	2200      	movs	r2, #0
 800c208:	f7f4 f80c 	bl	8000224 <__adddf3>
 800c20c:	4604      	mov	r4, r0
 800c20e:	ee1a 0a10 	vmov	r0, s20
 800c212:	460d      	mov	r5, r1
 800c214:	f7f4 f964 	bl	80004e0 <__aeabi_f2d>
 800c218:	e9dd 2306 	ldrd	r2, r3, [sp, #24]
 800c21c:	f7f4 f9b8 	bl	8000590 <__aeabi_dmul>
 800c220:	4602      	mov	r2, r0
 800c222:	460b      	mov	r3, r1
 800c224:	4620      	mov	r0, r4
 800c226:	4629      	mov	r1, r5
 800c228:	f7f3 fffa 	bl	8000220 <__aeabi_dsub>
 800c22c:	4604      	mov	r4, r0
 800c22e:	f8da 01c0 	ldr.w	r0, [sl, #448]	@ 0x1c0
 800c232:	460d      	mov	r5, r1
 800c234:	f7f4 f954 	bl	80004e0 <__aeabi_f2d>
 800c238:	4602      	mov	r2, r0
 800c23a:	460b      	mov	r3, r1
 800c23c:	4620      	mov	r0, r4
 800c23e:	4629      	mov	r1, r5
 800c240:	f7f4 f9a6 	bl	8000590 <__aeabi_dmul>
 800c244:	ee68 7a88 	vmul.f32	s15, s17, s16
 800c248:	4604      	mov	r4, r0
 800c24a:	ee17 0a90 	vmov	r0, s15
 800c24e:	460d      	mov	r5, r1
 800c250:	f7f4 f946 	bl	80004e0 <__aeabi_f2d>
 800c254:	460b      	mov	r3, r1
 800c256:	4602      	mov	r2, r0
 800c258:	4629      	mov	r1, r5
 800c25a:	4620      	mov	r0, r4
 800c25c:	f7f4 f998 	bl	8000590 <__aeabi_dmul>
 800c260:	ed9a 0a84 	vldr	s0, [sl, #528]	@ 0x210
 800c264:	ed9a aa19 	vldr	s20, [sl, #100]	@ 0x64
 800c268:	4604      	mov	r4, r0
 800c26a:	460d      	mov	r5, r1
 800c26c:	f002 f8b2 	bl	800e3d4 <SPE_cos_H96e4298bd9675fbbcb46b0c1f68b039a5627ebc5_cb4a8a449b4ada864625ee5a4355578a3aaf08ed>
 800c270:	edda 6a39 	vldr	s13, [sl, #228]	@ 0xe4
 800c274:	edda 8a3b 	vldr	s17, [sl, #236]	@ 0xec
 800c278:	ed9a 7a3a 	vldr	s14, [sl, #232]	@ 0xe8
 800c27c:	edda 7a38 	vldr	s15, [sl, #224]	@ 0xe0
 800c280:	ee27 7a26 	vmul.f32	s14, s14, s13
 800c284:	ee68 7aa7 	vmul.f32	s15, s17, s15
 800c288:	eeb0 8a40 	vmov.f32	s16, s0
 800c28c:	ee77 7a27 	vadd.f32	s15, s14, s15
 800c290:	ee17 0a90 	vmov	r0, s15
 800c294:	f7f4 f924 	bl	80004e0 <__aeabi_f2d>
 800c298:	4602      	mov	r2, r0
 800c29a:	e001      	b.n	800c2a0 <DoStep_H96e4298bd9675fbbcb46b0c1f68b039a5627ebc5_cb4a8a449b4ada864625ee5a4355578a3aaf08ed+0x2e50>
 800c29c:	3ff00000 	.word	0x3ff00000
 800c2a0:	ee18 0a90 	vmov	r0, s17
 800c2a4:	4616      	mov	r6, r2
 800c2a6:	f101 4700 	add.w	r7, r1, #2147483648	@ 0x80000000
 800c2aa:	f7f4 f919 	bl	80004e0 <__aeabi_f2d>
 800c2ae:	e9dd 2302 	ldrd	r2, r3, [sp, #8]
 800c2b2:	f101 4100 	add.w	r1, r1, #2147483648	@ 0x80000000
 800c2b6:	f7f4 f96b 	bl	8000590 <__aeabi_dmul>
 800c2ba:	4602      	mov	r2, r0
 800c2bc:	460b      	mov	r3, r1
 800c2be:	4630      	mov	r0, r6
 800c2c0:	4639      	mov	r1, r7
 800c2c2:	f7f3 ffad 	bl	8000220 <__aeabi_dsub>
 800c2c6:	4606      	mov	r6, r0
 800c2c8:	f8da 01c0 	ldr.w	r0, [sl, #448]	@ 0x1c0
 800c2cc:	460f      	mov	r7, r1
 800c2ce:	f7f4 f907 	bl	80004e0 <__aeabi_f2d>
 800c2d2:	4602      	mov	r2, r0
 800c2d4:	460b      	mov	r3, r1
 800c2d6:	4630      	mov	r0, r6
 800c2d8:	4639      	mov	r1, r7
 800c2da:	f7f4 f959 	bl	8000590 <__aeabi_dmul>
 800c2de:	ee6a 7a08 	vmul.f32	s15, s20, s16
 800c2e2:	4606      	mov	r6, r0
 800c2e4:	ee17 0a90 	vmov	r0, s15
 800c2e8:	460f      	mov	r7, r1
 800c2ea:	f7f4 f8f9 	bl	80004e0 <__aeabi_f2d>
 800c2ee:	4602      	mov	r2, r0
 800c2f0:	460b      	mov	r3, r1
 800c2f2:	4630      	mov	r0, r6
 800c2f4:	4639      	mov	r1, r7
 800c2f6:	f7f4 f94b 	bl	8000590 <__aeabi_dmul>
 800c2fa:	4602      	mov	r2, r0
 800c2fc:	460b      	mov	r3, r1
 800c2fe:	4620      	mov	r0, r4
 800c300:	4629      	mov	r1, r5
 800c302:	f7f3 ff8d 	bl	8000220 <__aeabi_dsub>
 800c306:	4604      	mov	r4, r0
 800c308:	f8da 021c 	ldr.w	r0, [sl, #540]	@ 0x21c
 800c30c:	460d      	mov	r5, r1
 800c30e:	f7f4 f8e7 	bl	80004e0 <__aeabi_f2d>
 800c312:	4602      	mov	r2, r0
 800c314:	460b      	mov	r3, r1
 800c316:	4620      	mov	r0, r4
 800c318:	4629      	mov	r1, r5
 800c31a:	f7f4 f939 	bl	8000590 <__aeabi_dmul>
 800c31e:	ed9a 0a84 	vldr	s0, [sl, #528]	@ 0x210
 800c322:	ed9a aa19 	vldr	s20, [sl, #100]	@ 0x64
 800c326:	4680      	mov	r8, r0
 800c328:	4689      	mov	r9, r1
 800c32a:	f002 f853 	bl	800e3d4 <SPE_cos_H96e4298bd9675fbbcb46b0c1f68b039a5627ebc5_cb4a8a449b4ada864625ee5a4355578a3aaf08ed>
 800c32e:	edda 6a39 	vldr	s13, [sl, #228]	@ 0xe4
 800c332:	edda 8a3a 	vldr	s17, [sl, #232]	@ 0xe8
 800c336:	ed9a 7a3b 	vldr	s14, [sl, #236]	@ 0xec
 800c33a:	edda 7a38 	vldr	s15, [sl, #224]	@ 0xe0
 800c33e:	ee27 7a26 	vmul.f32	s14, s14, s13
 800c342:	ee68 7aa7 	vmul.f32	s15, s17, s15
 800c346:	eeb0 8a40 	vmov.f32	s16, s0
 800c34a:	ee77 7a67 	vsub.f32	s15, s14, s15
 800c34e:	ee17 0a90 	vmov	r0, s15
 800c352:	f7f4 f8c5 	bl	80004e0 <__aeabi_f2d>
 800c356:	4bf1      	ldr	r3, [pc, #964]	@ (800c71c <DoStep_H96e4298bd9675fbbcb46b0c1f68b039a5627ebc5_cb4a8a449b4ada864625ee5a4355578a3aaf08ed+0x32cc>)
 800c358:	2200      	movs	r2, #0
 800c35a:	f7f3 ff63 	bl	8000224 <__adddf3>
 800c35e:	4604      	mov	r4, r0
 800c360:	ee18 0a90 	vmov	r0, s17
 800c364:	460d      	mov	r5, r1
 800c366:	f7f4 f8bb 	bl	80004e0 <__aeabi_f2d>
 800c36a:	e9dd 2306 	ldrd	r2, r3, [sp, #24]
 800c36e:	f7f4 f90f 	bl	8000590 <__aeabi_dmul>
 800c372:	4602      	mov	r2, r0
 800c374:	460b      	mov	r3, r1
 800c376:	4620      	mov	r0, r4
 800c378:	4629      	mov	r1, r5
 800c37a:	f7f3 ff51 	bl	8000220 <__aeabi_dsub>
 800c37e:	4604      	mov	r4, r0
 800c380:	f8da 01c0 	ldr.w	r0, [sl, #448]	@ 0x1c0
 800c384:	460d      	mov	r5, r1
 800c386:	f7f4 f8ab 	bl	80004e0 <__aeabi_f2d>
 800c38a:	4602      	mov	r2, r0
 800c38c:	460b      	mov	r3, r1
 800c38e:	4620      	mov	r0, r4
 800c390:	4629      	mov	r1, r5
 800c392:	f7f4 f8fd 	bl	8000590 <__aeabi_dmul>
 800c396:	ee6a 7a08 	vmul.f32	s15, s20, s16
 800c39a:	4604      	mov	r4, r0
 800c39c:	ee17 0a90 	vmov	r0, s15
 800c3a0:	460d      	mov	r5, r1
 800c3a2:	f7f4 f89d 	bl	80004e0 <__aeabi_f2d>
 800c3a6:	460b      	mov	r3, r1
 800c3a8:	4602      	mov	r2, r0
 800c3aa:	4629      	mov	r1, r5
 800c3ac:	4620      	mov	r0, r4
 800c3ae:	f7f4 f8ef 	bl	8000590 <__aeabi_dmul>
 800c3b2:	ed9a 0a84 	vldr	s0, [sl, #528]	@ 0x210
 800c3b6:	ed9a aa19 	vldr	s20, [sl, #100]	@ 0x64
 800c3ba:	4604      	mov	r4, r0
 800c3bc:	460d      	mov	r5, r1
 800c3be:	f002 f807 	bl	800e3d0 <SPE_sin_H96e4298bd9675fbbcb46b0c1f68b039a5627ebc5_cb4a8a449b4ada864625ee5a4355578a3aaf08ed>
 800c3c2:	edda 6a39 	vldr	s13, [sl, #228]	@ 0xe4
 800c3c6:	edda 8a3b 	vldr	s17, [sl, #236]	@ 0xec
 800c3ca:	ed9a 7a3a 	vldr	s14, [sl, #232]	@ 0xe8
 800c3ce:	edda 7a38 	vldr	s15, [sl, #224]	@ 0xe0
 800c3d2:	f8da b1c0 	ldr.w	fp, [sl, #448]	@ 0x1c0
 800c3d6:	ee27 7a26 	vmul.f32	s14, s14, s13
 800c3da:	ee68 7aa7 	vmul.f32	s15, s17, s15
 800c3de:	eeb0 8a40 	vmov.f32	s16, s0
 800c3e2:	ee77 7a27 	vadd.f32	s15, s14, s15
 800c3e6:	ee17 0a90 	vmov	r0, s15
 800c3ea:	f7f4 f879 	bl	80004e0 <__aeabi_f2d>
 800c3ee:	4602      	mov	r2, r0
 800c3f0:	ee18 0a90 	vmov	r0, s17
 800c3f4:	4616      	mov	r6, r2
 800c3f6:	f101 4700 	add.w	r7, r1, #2147483648	@ 0x80000000
 800c3fa:	f7f4 f871 	bl	80004e0 <__aeabi_f2d>
 800c3fe:	e9dd 2302 	ldrd	r2, r3, [sp, #8]
 800c402:	f101 4100 	add.w	r1, r1, #2147483648	@ 0x80000000
 800c406:	f7f4 f8c3 	bl	8000590 <__aeabi_dmul>
 800c40a:	4602      	mov	r2, r0
 800c40c:	460b      	mov	r3, r1
 800c40e:	4630      	mov	r0, r6
 800c410:	4639      	mov	r1, r7
 800c412:	f7f3 ff05 	bl	8000220 <__aeabi_dsub>
 800c416:	4606      	mov	r6, r0
 800c418:	4658      	mov	r0, fp
 800c41a:	460f      	mov	r7, r1
 800c41c:	f7f4 f860 	bl	80004e0 <__aeabi_f2d>
 800c420:	4602      	mov	r2, r0
 800c422:	460b      	mov	r3, r1
 800c424:	4630      	mov	r0, r6
 800c426:	4639      	mov	r1, r7
 800c428:	f7f4 f8b2 	bl	8000590 <__aeabi_dmul>
 800c42c:	ee6a 7a08 	vmul.f32	s15, s20, s16
 800c430:	4606      	mov	r6, r0
 800c432:	ee17 0a90 	vmov	r0, s15
 800c436:	460f      	mov	r7, r1
 800c438:	f7f4 f852 	bl	80004e0 <__aeabi_f2d>
 800c43c:	4602      	mov	r2, r0
 800c43e:	460b      	mov	r3, r1
 800c440:	4630      	mov	r0, r6
 800c442:	4639      	mov	r1, r7
 800c444:	f7f4 f8a4 	bl	8000590 <__aeabi_dmul>
 800c448:	4622      	mov	r2, r4
 800c44a:	462b      	mov	r3, r5
 800c44c:	f7f3 feea 	bl	8000224 <__adddf3>
 800c450:	4604      	mov	r4, r0
 800c452:	f8da 0220 	ldr.w	r0, [sl, #544]	@ 0x220
 800c456:	460d      	mov	r5, r1
 800c458:	f7f4 f842 	bl	80004e0 <__aeabi_f2d>
 800c45c:	4602      	mov	r2, r0
 800c45e:	460b      	mov	r3, r1
 800c460:	4620      	mov	r0, r4
 800c462:	4629      	mov	r1, r5
 800c464:	f7f4 f894 	bl	8000590 <__aeabi_dmul>
 800c468:	464b      	mov	r3, r9
 800c46a:	4642      	mov	r2, r8
 800c46c:	f7f3 feda 	bl	8000224 <__adddf3>
 800c470:	ee00 ba10 	vmov	s0, fp
 800c474:	4604      	mov	r4, r0
 800c476:	460d      	mov	r5, r1
 800c478:	f001 ff8c 	bl	800e394 <SPE_ipowSquare_H96e4298bd9675fbbcb46b0c1f68b039a5627ebc5_cb4a8a449b4ada864625ee5a4355578a3aaf08ed>
 800c47c:	ee19 0a10 	vmov	r0, s18
 800c480:	ee10 6a10 	vmov	r6, s0
 800c484:	f7f4 f82c 	bl	80004e0 <__aeabi_f2d>
 800c488:	4680      	mov	r8, r0
 800c48a:	ee19 0a90 	vmov	r0, s19
 800c48e:	4689      	mov	r9, r1
 800c490:	f7f4 f826 	bl	80004e0 <__aeabi_f2d>
 800c494:	4602      	mov	r2, r0
 800c496:	4630      	mov	r0, r6
 800c498:	460f      	mov	r7, r1
 800c49a:	4616      	mov	r6, r2
 800c49c:	f7f4 f820 	bl	80004e0 <__aeabi_f2d>
 800c4a0:	4602      	mov	r2, r0
 800c4a2:	460b      	mov	r3, r1
 800c4a4:	4620      	mov	r0, r4
 800c4a6:	4629      	mov	r1, r5
 800c4a8:	f7f4 f99c 	bl	80007e4 <__aeabi_ddiv>
 800c4ac:	4604      	mov	r4, r0
 800c4ae:	f8da 00ec 	ldr.w	r0, [sl, #236]	@ 0xec
 800c4b2:	460d      	mov	r5, r1
 800c4b4:	f7f4 f814 	bl	80004e0 <__aeabi_f2d>
 800c4b8:	4642      	mov	r2, r8
 800c4ba:	464b      	mov	r3, r9
 800c4bc:	f101 4100 	add.w	r1, r1, #2147483648	@ 0x80000000
 800c4c0:	e9cd 890a 	strd	r8, r9, [sp, #40]	@ 0x28
 800c4c4:	f7f4 f864 	bl	8000590 <__aeabi_dmul>
 800c4c8:	4602      	mov	r2, r0
 800c4ca:	460b      	mov	r3, r1
 800c4cc:	4620      	mov	r0, r4
 800c4ce:	4629      	mov	r1, r5
 800c4d0:	f7f3 fea6 	bl	8000220 <__aeabi_dsub>
 800c4d4:	4604      	mov	r4, r0
 800c4d6:	f8da 00e8 	ldr.w	r0, [sl, #232]	@ 0xe8
 800c4da:	460d      	mov	r5, r1
 800c4dc:	f7f4 f800 	bl	80004e0 <__aeabi_f2d>
 800c4e0:	4632      	mov	r2, r6
 800c4e2:	463b      	mov	r3, r7
 800c4e4:	e9cd 6704 	strd	r6, r7, [sp, #16]
 800c4e8:	f7f4 f852 	bl	8000590 <__aeabi_dmul>
 800c4ec:	4602      	mov	r2, r0
 800c4ee:	460b      	mov	r3, r1
 800c4f0:	4620      	mov	r0, r4
 800c4f2:	4629      	mov	r1, r5
 800c4f4:	f7f3 fe94 	bl	8000220 <__aeabi_dsub>
 800c4f8:	e9dd 230c 	ldrd	r2, r3, [sp, #48]	@ 0x30
 800c4fc:	f7f3 fe90 	bl	8000220 <__aeabi_dsub>
 800c500:	f7f4 fa58 	bl	80009b4 <__aeabi_d2f>
 800c504:	ee07 0a90 	vmov	s15, r0
 800c508:	f8da 01d8 	ldr.w	r0, [sl, #472]	@ 0x1d8
 800c50c:	eef1 7a67 	vneg.f32	s15, s15
 800c510:	edcd 7a12 	vstr	s15, [sp, #72]	@ 0x48
 800c514:	f7f3 ffe4 	bl	80004e0 <__aeabi_f2d>
 800c518:	ed9a 0a84 	vldr	s0, [sl, #528]	@ 0x210
 800c51c:	ed9a 9a19 	vldr	s18, [sl, #100]	@ 0x64
 800c520:	4680      	mov	r8, r0
 800c522:	f101 4900 	add.w	r9, r1, #2147483648	@ 0x80000000
 800c526:	f001 ff53 	bl	800e3d0 <SPE_sin_H96e4298bd9675fbbcb46b0c1f68b039a5627ebc5_cb4a8a449b4ada864625ee5a4355578a3aaf08ed>
 800c52a:	edda 6a39 	vldr	s13, [sl, #228]	@ 0xe4
 800c52e:	edda 8a3b 	vldr	s17, [sl, #236]	@ 0xec
 800c532:	ed9a 7a3a 	vldr	s14, [sl, #232]	@ 0xe8
 800c536:	edda 7a38 	vldr	s15, [sl, #224]	@ 0xe0
 800c53a:	ee27 7a26 	vmul.f32	s14, s14, s13
 800c53e:	ee68 7aa7 	vmul.f32	s15, s17, s15
 800c542:	eeb0 8a40 	vmov.f32	s16, s0
 800c546:	ee77 7a27 	vadd.f32	s15, s14, s15
 800c54a:	ee17 0a90 	vmov	r0, s15
 800c54e:	f7f3 ffc7 	bl	80004e0 <__aeabi_f2d>
 800c552:	4604      	mov	r4, r0
 800c554:	ee18 0a90 	vmov	r0, s17
 800c558:	460d      	mov	r5, r1
 800c55a:	f7f3 ffc1 	bl	80004e0 <__aeabi_f2d>
 800c55e:	e9dd 2306 	ldrd	r2, r3, [sp, #24]
 800c562:	f101 4100 	add.w	r1, r1, #2147483648	@ 0x80000000
 800c566:	f7f4 f813 	bl	8000590 <__aeabi_dmul>
 800c56a:	4602      	mov	r2, r0
 800c56c:	460b      	mov	r3, r1
 800c56e:	4620      	mov	r0, r4
 800c570:	4629      	mov	r1, r5
 800c572:	f7f3 fe55 	bl	8000220 <__aeabi_dsub>
 800c576:	4604      	mov	r4, r0
 800c578:	f8da 01c0 	ldr.w	r0, [sl, #448]	@ 0x1c0
 800c57c:	460d      	mov	r5, r1
 800c57e:	f7f3 ffaf 	bl	80004e0 <__aeabi_f2d>
 800c582:	4602      	mov	r2, r0
 800c584:	460b      	mov	r3, r1
 800c586:	4620      	mov	r0, r4
 800c588:	4629      	mov	r1, r5
 800c58a:	f7f4 f801 	bl	8000590 <__aeabi_dmul>
 800c58e:	ee69 7a08 	vmul.f32	s15, s18, s16
 800c592:	4604      	mov	r4, r0
 800c594:	ee17 0a90 	vmov	r0, s15
 800c598:	460d      	mov	r5, r1
 800c59a:	f7f3 ffa1 	bl	80004e0 <__aeabi_f2d>
 800c59e:	4602      	mov	r2, r0
 800c5a0:	460b      	mov	r3, r1
 800c5a2:	4620      	mov	r0, r4
 800c5a4:	4629      	mov	r1, r5
 800c5a6:	f7f3 fff3 	bl	8000590 <__aeabi_dmul>
 800c5aa:	ed9a 0a84 	vldr	s0, [sl, #528]	@ 0x210
 800c5ae:	ed9a 9a19 	vldr	s18, [sl, #100]	@ 0x64
 800c5b2:	4604      	mov	r4, r0
 800c5b4:	460d      	mov	r5, r1
 800c5b6:	f001 ff0d 	bl	800e3d4 <SPE_cos_H96e4298bd9675fbbcb46b0c1f68b039a5627ebc5_cb4a8a449b4ada864625ee5a4355578a3aaf08ed>
 800c5ba:	edda 6a39 	vldr	s13, [sl, #228]	@ 0xe4
 800c5be:	edda 8a3a 	vldr	s17, [sl, #232]	@ 0xe8
 800c5c2:	ed9a 7a3b 	vldr	s14, [sl, #236]	@ 0xec
 800c5c6:	edda 7a38 	vldr	s15, [sl, #224]	@ 0xe0
 800c5ca:	ee27 7a26 	vmul.f32	s14, s14, s13
 800c5ce:	ee68 7aa7 	vmul.f32	s15, s17, s15
 800c5d2:	eeb0 8a40 	vmov.f32	s16, s0
 800c5d6:	ee77 7a67 	vsub.f32	s15, s14, s15
 800c5da:	ee17 0a90 	vmov	r0, s15
 800c5de:	f7f3 ff7f 	bl	80004e0 <__aeabi_f2d>
 800c5e2:	4b4e      	ldr	r3, [pc, #312]	@ (800c71c <DoStep_H96e4298bd9675fbbcb46b0c1f68b039a5627ebc5_cb4a8a449b4ada864625ee5a4355578a3aaf08ed+0x32cc>)
 800c5e4:	2200      	movs	r2, #0
 800c5e6:	f7f3 fe1d 	bl	8000224 <__adddf3>
 800c5ea:	4606      	mov	r6, r0
 800c5ec:	ee18 0a90 	vmov	r0, s17
 800c5f0:	460f      	mov	r7, r1
 800c5f2:	f7f3 ff75 	bl	80004e0 <__aeabi_f2d>
 800c5f6:	e9dd 2302 	ldrd	r2, r3, [sp, #8]
 800c5fa:	f101 4100 	add.w	r1, r1, #2147483648	@ 0x80000000
 800c5fe:	f7f3 ffc7 	bl	8000590 <__aeabi_dmul>
 800c602:	4602      	mov	r2, r0
 800c604:	460b      	mov	r3, r1
 800c606:	4630      	mov	r0, r6
 800c608:	4639      	mov	r1, r7
 800c60a:	f7f3 fe09 	bl	8000220 <__aeabi_dsub>
 800c60e:	4606      	mov	r6, r0
 800c610:	f8da 01c0 	ldr.w	r0, [sl, #448]	@ 0x1c0
 800c614:	460f      	mov	r7, r1
 800c616:	f7f3 ff63 	bl	80004e0 <__aeabi_f2d>
 800c61a:	4602      	mov	r2, r0
 800c61c:	460b      	mov	r3, r1
 800c61e:	4630      	mov	r0, r6
 800c620:	4639      	mov	r1, r7
 800c622:	f7f3 ffb5 	bl	8000590 <__aeabi_dmul>
 800c626:	ee68 7a09 	vmul.f32	s15, s16, s18
 800c62a:	4606      	mov	r6, r0
 800c62c:	ee17 0a90 	vmov	r0, s15
 800c630:	460f      	mov	r7, r1
 800c632:	f7f3 ff55 	bl	80004e0 <__aeabi_f2d>
 800c636:	4602      	mov	r2, r0
 800c638:	460b      	mov	r3, r1
 800c63a:	4630      	mov	r0, r6
 800c63c:	4639      	mov	r1, r7
 800c63e:	f7f3 ffa7 	bl	8000590 <__aeabi_dmul>
 800c642:	4602      	mov	r2, r0
 800c644:	460b      	mov	r3, r1
 800c646:	4620      	mov	r0, r4
 800c648:	4629      	mov	r1, r5
 800c64a:	f7f3 fde9 	bl	8000220 <__aeabi_dsub>
 800c64e:	4604      	mov	r4, r0
 800c650:	f8da 021c 	ldr.w	r0, [sl, #540]	@ 0x21c
 800c654:	460d      	mov	r5, r1
 800c656:	f7f3 ff43 	bl	80004e0 <__aeabi_f2d>
 800c65a:	4602      	mov	r2, r0
 800c65c:	460b      	mov	r3, r1
 800c65e:	4620      	mov	r0, r4
 800c660:	4629      	mov	r1, r5
 800c662:	f7f3 ff95 	bl	8000590 <__aeabi_dmul>
 800c666:	ed9a 0a84 	vldr	s0, [sl, #528]	@ 0x210
 800c66a:	ed9a 9a19 	vldr	s18, [sl, #100]	@ 0x64
 800c66e:	e9cd 010c 	strd	r0, r1, [sp, #48]	@ 0x30
 800c672:	f001 feaf 	bl	800e3d4 <SPE_cos_H96e4298bd9675fbbcb46b0c1f68b039a5627ebc5_cb4a8a449b4ada864625ee5a4355578a3aaf08ed>
 800c676:	edda 6a39 	vldr	s13, [sl, #228]	@ 0xe4
 800c67a:	edda 8a3b 	vldr	s17, [sl, #236]	@ 0xec
 800c67e:	ed9a 7a3a 	vldr	s14, [sl, #232]	@ 0xe8
 800c682:	edda 7a38 	vldr	s15, [sl, #224]	@ 0xe0
 800c686:	ee27 7a26 	vmul.f32	s14, s14, s13
 800c68a:	ee68 7aa7 	vmul.f32	s15, s17, s15
 800c68e:	eeb0 8a40 	vmov.f32	s16, s0
 800c692:	ee77 7a27 	vadd.f32	s15, s14, s15
 800c696:	ee17 0a90 	vmov	r0, s15
 800c69a:	f7f3 ff21 	bl	80004e0 <__aeabi_f2d>
 800c69e:	4606      	mov	r6, r0
 800c6a0:	ee18 0a90 	vmov	r0, s17
 800c6a4:	460f      	mov	r7, r1
 800c6a6:	f7f3 ff1b 	bl	80004e0 <__aeabi_f2d>
 800c6aa:	e9dd 2306 	ldrd	r2, r3, [sp, #24]
 800c6ae:	f101 4100 	add.w	r1, r1, #2147483648	@ 0x80000000
 800c6b2:	f7f3 ff6d 	bl	8000590 <__aeabi_dmul>
 800c6b6:	4602      	mov	r2, r0
 800c6b8:	460b      	mov	r3, r1
 800c6ba:	4630      	mov	r0, r6
 800c6bc:	4639      	mov	r1, r7
 800c6be:	f7f3 fdaf 	bl	8000220 <__aeabi_dsub>
 800c6c2:	4604      	mov	r4, r0
 800c6c4:	f8da 01c0 	ldr.w	r0, [sl, #448]	@ 0x1c0
 800c6c8:	460d      	mov	r5, r1
 800c6ca:	f7f3 ff09 	bl	80004e0 <__aeabi_f2d>
 800c6ce:	4602      	mov	r2, r0
 800c6d0:	460b      	mov	r3, r1
 800c6d2:	4620      	mov	r0, r4
 800c6d4:	4629      	mov	r1, r5
 800c6d6:	f7f3 ff5b 	bl	8000590 <__aeabi_dmul>
 800c6da:	ee68 7a09 	vmul.f32	s15, s16, s18
 800c6de:	4604      	mov	r4, r0
 800c6e0:	ee17 0a90 	vmov	r0, s15
 800c6e4:	460d      	mov	r5, r1
 800c6e6:	f7f3 fefb 	bl	80004e0 <__aeabi_f2d>
 800c6ea:	4602      	mov	r2, r0
 800c6ec:	460b      	mov	r3, r1
 800c6ee:	4620      	mov	r0, r4
 800c6f0:	4629      	mov	r1, r5
 800c6f2:	f7f3 ff4d 	bl	8000590 <__aeabi_dmul>
 800c6f6:	ed9a 0a84 	vldr	s0, [sl, #528]	@ 0x210
 800c6fa:	ed9a 9a19 	vldr	s18, [sl, #100]	@ 0x64
 800c6fe:	e9cd 0106 	strd	r0, r1, [sp, #24]
 800c702:	f001 fe65 	bl	800e3d0 <SPE_sin_H96e4298bd9675fbbcb46b0c1f68b039a5627ebc5_cb4a8a449b4ada864625ee5a4355578a3aaf08ed>
 800c706:	edda 6a39 	vldr	s13, [sl, #228]	@ 0xe4
 800c70a:	edda 8a3a 	vldr	s17, [sl, #232]	@ 0xe8
 800c70e:	ed9a 7a3b 	vldr	s14, [sl, #236]	@ 0xec
 800c712:	edda 7a38 	vldr	s15, [sl, #224]	@ 0xe0
 800c716:	f8da b1c0 	ldr.w	fp, [sl, #448]	@ 0x1c0
 800c71a:	e001      	b.n	800c720 <DoStep_H96e4298bd9675fbbcb46b0c1f68b039a5627ebc5_cb4a8a449b4ada864625ee5a4355578a3aaf08ed+0x32d0>
 800c71c:	3ff00000 	.word	0x3ff00000
 800c720:	ee27 7a26 	vmul.f32	s14, s14, s13
 800c724:	ee68 7aa7 	vmul.f32	s15, s17, s15
 800c728:	eeb0 8a40 	vmov.f32	s16, s0
 800c72c:	ee77 7a67 	vsub.f32	s15, s14, s15
 800c730:	ee17 0a90 	vmov	r0, s15
 800c734:	f7f3 fed4 	bl	80004e0 <__aeabi_f2d>
 800c738:	4bf2      	ldr	r3, [pc, #968]	@ (800cb04 <DoStep_H96e4298bd9675fbbcb46b0c1f68b039a5627ebc5_cb4a8a449b4ada864625ee5a4355578a3aaf08ed+0x36b4>)
 800c73a:	2200      	movs	r2, #0
 800c73c:	f7f3 fd72 	bl	8000224 <__adddf3>
 800c740:	4606      	mov	r6, r0
 800c742:	ee18 0a90 	vmov	r0, s17
 800c746:	460f      	mov	r7, r1
 800c748:	f7f3 feca 	bl	80004e0 <__aeabi_f2d>
 800c74c:	e9dd 2302 	ldrd	r2, r3, [sp, #8]
 800c750:	f101 4100 	add.w	r1, r1, #2147483648	@ 0x80000000
 800c754:	f7f3 ff1c 	bl	8000590 <__aeabi_dmul>
 800c758:	4602      	mov	r2, r0
 800c75a:	460b      	mov	r3, r1
 800c75c:	4630      	mov	r0, r6
 800c75e:	4639      	mov	r1, r7
 800c760:	f7f3 fd5e 	bl	8000220 <__aeabi_dsub>
 800c764:	4604      	mov	r4, r0
 800c766:	4658      	mov	r0, fp
 800c768:	460d      	mov	r5, r1
 800c76a:	f7f3 feb9 	bl	80004e0 <__aeabi_f2d>
 800c76e:	4602      	mov	r2, r0
 800c770:	460b      	mov	r3, r1
 800c772:	4620      	mov	r0, r4
 800c774:	4629      	mov	r1, r5
 800c776:	f7f3 ff0b 	bl	8000590 <__aeabi_dmul>
 800c77a:	ee68 7a09 	vmul.f32	s15, s16, s18
 800c77e:	4604      	mov	r4, r0
 800c780:	ee17 0a90 	vmov	r0, s15
 800c784:	460d      	mov	r5, r1
 800c786:	f7f3 feab 	bl	80004e0 <__aeabi_f2d>
 800c78a:	4602      	mov	r2, r0
 800c78c:	460b      	mov	r3, r1
 800c78e:	4620      	mov	r0, r4
 800c790:	4629      	mov	r1, r5
 800c792:	f7f3 fefd 	bl	8000590 <__aeabi_dmul>
 800c796:	e9dd 2306 	ldrd	r2, r3, [sp, #24]
 800c79a:	f7f3 fd43 	bl	8000224 <__adddf3>
 800c79e:	4604      	mov	r4, r0
 800c7a0:	f8da 0220 	ldr.w	r0, [sl, #544]	@ 0x220
 800c7a4:	460d      	mov	r5, r1
 800c7a6:	f7f3 fe9b 	bl	80004e0 <__aeabi_f2d>
 800c7aa:	4602      	mov	r2, r0
 800c7ac:	460b      	mov	r3, r1
 800c7ae:	4620      	mov	r0, r4
 800c7b0:	4629      	mov	r1, r5
 800c7b2:	f7f3 feed 	bl	8000590 <__aeabi_dmul>
 800c7b6:	e9dd 230c 	ldrd	r2, r3, [sp, #48]	@ 0x30
 800c7ba:	f7f3 fd33 	bl	8000224 <__adddf3>
 800c7be:	ee00 ba10 	vmov	s0, fp
 800c7c2:	4604      	mov	r4, r0
 800c7c4:	460d      	mov	r5, r1
 800c7c6:	f001 fde5 	bl	800e394 <SPE_ipowSquare_H96e4298bd9675fbbcb46b0c1f68b039a5627ebc5_cb4a8a449b4ada864625ee5a4355578a3aaf08ed>
 800c7ca:	ee10 0a10 	vmov	r0, s0
 800c7ce:	f7f3 fe87 	bl	80004e0 <__aeabi_f2d>
 800c7d2:	4602      	mov	r2, r0
 800c7d4:	460b      	mov	r3, r1
 800c7d6:	4620      	mov	r0, r4
 800c7d8:	4629      	mov	r1, r5
 800c7da:	f7f4 f803 	bl	80007e4 <__aeabi_ddiv>
 800c7de:	4606      	mov	r6, r0
 800c7e0:	f8da 00e8 	ldr.w	r0, [sl, #232]	@ 0xe8
 800c7e4:	460f      	mov	r7, r1
 800c7e6:	f7f3 fe7b 	bl	80004e0 <__aeabi_f2d>
 800c7ea:	e9dd 230a 	ldrd	r2, r3, [sp, #40]	@ 0x28
 800c7ee:	f101 4100 	add.w	r1, r1, #2147483648	@ 0x80000000
 800c7f2:	f7f3 fecd 	bl	8000590 <__aeabi_dmul>
 800c7f6:	4602      	mov	r2, r0
 800c7f8:	460b      	mov	r3, r1
 800c7fa:	4630      	mov	r0, r6
 800c7fc:	4639      	mov	r1, r7
 800c7fe:	f7f3 fd0f 	bl	8000220 <__aeabi_dsub>
 800c802:	4604      	mov	r4, r0
 800c804:	f8da 00ec 	ldr.w	r0, [sl, #236]	@ 0xec
 800c808:	460d      	mov	r5, r1
 800c80a:	f7f3 fe69 	bl	80004e0 <__aeabi_f2d>
 800c80e:	e9dd 2304 	ldrd	r2, r3, [sp, #16]
 800c812:	f101 4100 	add.w	r1, r1, #2147483648	@ 0x80000000
 800c816:	f7f3 febb 	bl	8000590 <__aeabi_dmul>
 800c81a:	4606      	mov	r6, r0
 800c81c:	460f      	mov	r7, r1
 800c81e:	4632      	mov	r2, r6
 800c820:	463b      	mov	r3, r7
 800c822:	4620      	mov	r0, r4
 800c824:	4629      	mov	r1, r5
 800c826:	f7f3 fcfb 	bl	8000220 <__aeabi_dsub>
 800c82a:	464b      	mov	r3, r9
 800c82c:	4642      	mov	r2, r8
 800c82e:	f7f3 fcf9 	bl	8000224 <__adddf3>
 800c832:	f7f4 f8bf 	bl	80009b4 <__aeabi_d2f>
 800c836:	ee07 0a90 	vmov	s15, r0
 800c83a:	9b08      	ldr	r3, [sp, #32]
 800c83c:	edda 8a19 	vldr	s17, [sl, #100]	@ 0x64
 800c840:	ed9a 8a84 	vldr	s16, [sl, #528]	@ 0x210
 800c844:	eef1 7a67 	vneg.f32	s15, s15
 800c848:	edcd 7a13 	vstr	s15, [sp, #76]	@ 0x4c
 800c84c:	2b00      	cmp	r3, #0
 800c84e:	f040 8739 	bne.w	800d6c4 <DoStep_H96e4298bd9675fbbcb46b0c1f68b039a5627ebc5_cb4a8a449b4ada864625ee5a4355578a3aaf08ed+0x4274>
 800c852:	f8da 01dc 	ldr.w	r0, [sl, #476]	@ 0x1dc
 800c856:	f7f3 fe43 	bl	80004e0 <__aeabi_f2d>
 800c85a:	eeb0 0a48 	vmov.f32	s0, s16
 800c85e:	e9cd 0102 	strd	r0, r1, [sp, #8]
 800c862:	f001 fdb5 	bl	800e3d0 <SPE_sin_H96e4298bd9675fbbcb46b0c1f68b039a5627ebc5_cb4a8a449b4ada864625ee5a4355578a3aaf08ed>
 800c866:	ed9a 6a3d 	vldr	s12, [sl, #244]	@ 0xf4
 800c86a:	edda 6a3c 	vldr	s13, [sl, #240]	@ 0xf0
 800c86e:	ed9a 7a3f 	vldr	s14, [sl, #252]	@ 0xfc
 800c872:	edda 7a3e 	vldr	s15, [sl, #248]	@ 0xf8
 800c876:	ee27 7a06 	vmul.f32	s14, s14, s12
 800c87a:	ee67 7aa6 	vmul.f32	s15, s15, s13
 800c87e:	eeb0 8a40 	vmov.f32	s16, s0
 800c882:	ee77 7a67 	vsub.f32	s15, s14, s15
 800c886:	ee17 0a90 	vmov	r0, s15
 800c88a:	f7f3 fe29 	bl	80004e0 <__aeabi_f2d>
 800c88e:	4b9d      	ldr	r3, [pc, #628]	@ (800cb04 <DoStep_H96e4298bd9675fbbcb46b0c1f68b039a5627ebc5_cb4a8a449b4ada864625ee5a4355578a3aaf08ed+0x36b4>)
 800c890:	2200      	movs	r2, #0
 800c892:	f7f3 fcc7 	bl	8000224 <__adddf3>
 800c896:	4604      	mov	r4, r0
 800c898:	f8da 01c0 	ldr.w	r0, [sl, #448]	@ 0x1c0
 800c89c:	460d      	mov	r5, r1
 800c89e:	f7f3 fe1f 	bl	80004e0 <__aeabi_f2d>
 800c8a2:	4602      	mov	r2, r0
 800c8a4:	460b      	mov	r3, r1
 800c8a6:	4620      	mov	r0, r4
 800c8a8:	4629      	mov	r1, r5
 800c8aa:	f7f3 fe71 	bl	8000590 <__aeabi_dmul>
 800c8ae:	ee68 7a88 	vmul.f32	s15, s17, s16
 800c8b2:	4604      	mov	r4, r0
 800c8b4:	ee17 0a90 	vmov	r0, s15
 800c8b8:	460d      	mov	r5, r1
 800c8ba:	f7f3 fe11 	bl	80004e0 <__aeabi_f2d>
 800c8be:	460b      	mov	r3, r1
 800c8c0:	4602      	mov	r2, r0
 800c8c2:	4629      	mov	r1, r5
 800c8c4:	4620      	mov	r0, r4
 800c8c6:	f7f3 fe63 	bl	8000590 <__aeabi_dmul>
 800c8ca:	ed9a 0a84 	vldr	s0, [sl, #528]	@ 0x210
 800c8ce:	edda 8a19 	vldr	s17, [sl, #100]	@ 0x64
 800c8d2:	4604      	mov	r4, r0
 800c8d4:	460d      	mov	r5, r1
 800c8d6:	f001 fd7d 	bl	800e3d4 <SPE_cos_H96e4298bd9675fbbcb46b0c1f68b039a5627ebc5_cb4a8a449b4ada864625ee5a4355578a3aaf08ed>
 800c8da:	ed9a 6a3c 	vldr	s12, [sl, #240]	@ 0xf0
 800c8de:	edda 6a3d 	vldr	s13, [sl, #244]	@ 0xf4
 800c8e2:	ed9a 7a3f 	vldr	s14, [sl, #252]	@ 0xfc
 800c8e6:	edda 7a3e 	vldr	s15, [sl, #248]	@ 0xf8
 800c8ea:	ee27 7a06 	vmul.f32	s14, s14, s12
 800c8ee:	ee67 7aa6 	vmul.f32	s15, s15, s13
 800c8f2:	eeb0 8a40 	vmov.f32	s16, s0
 800c8f6:	ee77 7a27 	vadd.f32	s15, s14, s15
 800c8fa:	ee17 0a90 	vmov	r0, s15
 800c8fe:	f7f3 fdef 	bl	80004e0 <__aeabi_f2d>
 800c902:	4602      	mov	r2, r0
 800c904:	f8da 01c0 	ldr.w	r0, [sl, #448]	@ 0x1c0
 800c908:	4616      	mov	r6, r2
 800c90a:	f101 4700 	add.w	r7, r1, #2147483648	@ 0x80000000
 800c90e:	f7f3 fde7 	bl	80004e0 <__aeabi_f2d>
 800c912:	4602      	mov	r2, r0
 800c914:	460b      	mov	r3, r1
 800c916:	4630      	mov	r0, r6
 800c918:	4639      	mov	r1, r7
 800c91a:	f7f3 fe39 	bl	8000590 <__aeabi_dmul>
 800c91e:	ee68 7a28 	vmul.f32	s15, s16, s17
 800c922:	4606      	mov	r6, r0
 800c924:	ee17 0a90 	vmov	r0, s15
 800c928:	460f      	mov	r7, r1
 800c92a:	f7f3 fdd9 	bl	80004e0 <__aeabi_f2d>
 800c92e:	4602      	mov	r2, r0
 800c930:	460b      	mov	r3, r1
 800c932:	4630      	mov	r0, r6
 800c934:	4639      	mov	r1, r7
 800c936:	f7f3 fe2b 	bl	8000590 <__aeabi_dmul>
 800c93a:	4602      	mov	r2, r0
 800c93c:	460b      	mov	r3, r1
 800c93e:	4620      	mov	r0, r4
 800c940:	4629      	mov	r1, r5
 800c942:	f7f3 fc6d 	bl	8000220 <__aeabi_dsub>
 800c946:	4604      	mov	r4, r0
 800c948:	f8da 021c 	ldr.w	r0, [sl, #540]	@ 0x21c
 800c94c:	460d      	mov	r5, r1
 800c94e:	f7f3 fdc7 	bl	80004e0 <__aeabi_f2d>
 800c952:	4602      	mov	r2, r0
 800c954:	460b      	mov	r3, r1
 800c956:	4620      	mov	r0, r4
 800c958:	4629      	mov	r1, r5
 800c95a:	f7f3 fe19 	bl	8000590 <__aeabi_dmul>
 800c95e:	ed9a 0a84 	vldr	s0, [sl, #528]	@ 0x210
 800c962:	edda 8a19 	vldr	s17, [sl, #100]	@ 0x64
 800c966:	4680      	mov	r8, r0
 800c968:	4689      	mov	r9, r1
 800c96a:	f001 fd33 	bl	800e3d4 <SPE_cos_H96e4298bd9675fbbcb46b0c1f68b039a5627ebc5_cb4a8a449b4ada864625ee5a4355578a3aaf08ed>
 800c96e:	ed9a 6a3d 	vldr	s12, [sl, #244]	@ 0xf4
 800c972:	edda 6a3c 	vldr	s13, [sl, #240]	@ 0xf0
 800c976:	ed9a 7a3f 	vldr	s14, [sl, #252]	@ 0xfc
 800c97a:	edda 7a3e 	vldr	s15, [sl, #248]	@ 0xf8
 800c97e:	ee27 7a06 	vmul.f32	s14, s14, s12
 800c982:	ee67 7aa6 	vmul.f32	s15, s15, s13
 800c986:	eeb0 8a40 	vmov.f32	s16, s0
 800c98a:	ee77 7a67 	vsub.f32	s15, s14, s15
 800c98e:	ee17 0a90 	vmov	r0, s15
 800c992:	f7f3 fda5 	bl	80004e0 <__aeabi_f2d>
 800c996:	4b5b      	ldr	r3, [pc, #364]	@ (800cb04 <DoStep_H96e4298bd9675fbbcb46b0c1f68b039a5627ebc5_cb4a8a449b4ada864625ee5a4355578a3aaf08ed+0x36b4>)
 800c998:	2200      	movs	r2, #0
 800c99a:	f7f3 fc43 	bl	8000224 <__adddf3>
 800c99e:	4604      	mov	r4, r0
 800c9a0:	f8da 01c0 	ldr.w	r0, [sl, #448]	@ 0x1c0
 800c9a4:	460d      	mov	r5, r1
 800c9a6:	f7f3 fd9b 	bl	80004e0 <__aeabi_f2d>
 800c9aa:	4602      	mov	r2, r0
 800c9ac:	460b      	mov	r3, r1
 800c9ae:	4620      	mov	r0, r4
 800c9b0:	4629      	mov	r1, r5
 800c9b2:	f7f3 fded 	bl	8000590 <__aeabi_dmul>
 800c9b6:	ee68 7a88 	vmul.f32	s15, s17, s16
 800c9ba:	4604      	mov	r4, r0
 800c9bc:	ee17 0a90 	vmov	r0, s15
 800c9c0:	460d      	mov	r5, r1
 800c9c2:	f7f3 fd8d 	bl	80004e0 <__aeabi_f2d>
 800c9c6:	460b      	mov	r3, r1
 800c9c8:	4602      	mov	r2, r0
 800c9ca:	4629      	mov	r1, r5
 800c9cc:	4620      	mov	r0, r4
 800c9ce:	f7f3 fddf 	bl	8000590 <__aeabi_dmul>
 800c9d2:	ed9a 0a84 	vldr	s0, [sl, #528]	@ 0x210
 800c9d6:	edda 8a19 	vldr	s17, [sl, #100]	@ 0x64
 800c9da:	4604      	mov	r4, r0
 800c9dc:	460d      	mov	r5, r1
 800c9de:	f001 fcf7 	bl	800e3d0 <SPE_sin_H96e4298bd9675fbbcb46b0c1f68b039a5627ebc5_cb4a8a449b4ada864625ee5a4355578a3aaf08ed>
 800c9e2:	ed9a 6a3c 	vldr	s12, [sl, #240]	@ 0xf0
 800c9e6:	edda 6a3d 	vldr	s13, [sl, #244]	@ 0xf4
 800c9ea:	ed9a 7a3f 	vldr	s14, [sl, #252]	@ 0xfc
 800c9ee:	edda 7a3e 	vldr	s15, [sl, #248]	@ 0xf8
 800c9f2:	f8da b1c0 	ldr.w	fp, [sl, #448]	@ 0x1c0
 800c9f6:	ee27 7a06 	vmul.f32	s14, s14, s12
 800c9fa:	ee67 7aa6 	vmul.f32	s15, s15, s13
 800c9fe:	eeb0 8a40 	vmov.f32	s16, s0
 800ca02:	ee77 7a27 	vadd.f32	s15, s14, s15
 800ca06:	ee17 0a90 	vmov	r0, s15
 800ca0a:	f7f3 fd69 	bl	80004e0 <__aeabi_f2d>
 800ca0e:	4602      	mov	r2, r0
 800ca10:	4658      	mov	r0, fp
 800ca12:	4616      	mov	r6, r2
 800ca14:	f101 4700 	add.w	r7, r1, #2147483648	@ 0x80000000
 800ca18:	f7f3 fd62 	bl	80004e0 <__aeabi_f2d>
 800ca1c:	4602      	mov	r2, r0
 800ca1e:	460b      	mov	r3, r1
 800ca20:	4630      	mov	r0, r6
 800ca22:	4639      	mov	r1, r7
 800ca24:	f7f3 fdb4 	bl	8000590 <__aeabi_dmul>
 800ca28:	ee68 7a88 	vmul.f32	s15, s17, s16
 800ca2c:	4606      	mov	r6, r0
 800ca2e:	ee17 0a90 	vmov	r0, s15
 800ca32:	460f      	mov	r7, r1
 800ca34:	f7f3 fd54 	bl	80004e0 <__aeabi_f2d>
 800ca38:	4602      	mov	r2, r0
 800ca3a:	460b      	mov	r3, r1
 800ca3c:	4630      	mov	r0, r6
 800ca3e:	4639      	mov	r1, r7
 800ca40:	f7f3 fda6 	bl	8000590 <__aeabi_dmul>
 800ca44:	4622      	mov	r2, r4
 800ca46:	462b      	mov	r3, r5
 800ca48:	f7f3 fbec 	bl	8000224 <__adddf3>
 800ca4c:	4604      	mov	r4, r0
 800ca4e:	f8da 0220 	ldr.w	r0, [sl, #544]	@ 0x220
 800ca52:	460d      	mov	r5, r1
 800ca54:	f7f3 fd44 	bl	80004e0 <__aeabi_f2d>
 800ca58:	4602      	mov	r2, r0
 800ca5a:	460b      	mov	r3, r1
 800ca5c:	4620      	mov	r0, r4
 800ca5e:	4629      	mov	r1, r5
 800ca60:	f7f3 fd96 	bl	8000590 <__aeabi_dmul>
 800ca64:	4642      	mov	r2, r8
 800ca66:	464b      	mov	r3, r9
 800ca68:	f7f3 fbdc 	bl	8000224 <__adddf3>
 800ca6c:	ee00 ba10 	vmov	s0, fp
 800ca70:	4604      	mov	r4, r0
 800ca72:	460d      	mov	r5, r1
 800ca74:	f001 fc8e 	bl	800e394 <SPE_ipowSquare_H96e4298bd9675fbbcb46b0c1f68b039a5627ebc5_cb4a8a449b4ada864625ee5a4355578a3aaf08ed>
 800ca78:	ee10 0a10 	vmov	r0, s0
 800ca7c:	f7f3 fd30 	bl	80004e0 <__aeabi_f2d>
 800ca80:	4602      	mov	r2, r0
 800ca82:	460b      	mov	r3, r1
 800ca84:	4620      	mov	r0, r4
 800ca86:	4629      	mov	r1, r5
 800ca88:	f7f3 feac 	bl	80007e4 <__aeabi_ddiv>
 800ca8c:	e9dd 2302 	ldrd	r2, r3, [sp, #8]
 800ca90:	f7f3 fbc6 	bl	8000220 <__aeabi_dsub>
 800ca94:	f7f3 ff8e 	bl	80009b4 <__aeabi_d2f>
 800ca98:	4603      	mov	r3, r0
 800ca9a:	ee07 3a90 	vmov	s15, r3
 800ca9e:	f8da 01d8 	ldr.w	r0, [sl, #472]	@ 0x1d8
 800caa2:	eef1 7a67 	vneg.f32	s15, s15
 800caa6:	edcd 7a14 	vstr	s15, [sp, #80]	@ 0x50
 800caaa:	f7f3 fd19 	bl	80004e0 <__aeabi_f2d>
 800caae:	ed9a 0a84 	vldr	s0, [sl, #528]	@ 0x210
 800cab2:	edda 8a19 	vldr	s17, [sl, #100]	@ 0x64
 800cab6:	4680      	mov	r8, r0
 800cab8:	f101 4900 	add.w	r9, r1, #2147483648	@ 0x80000000
 800cabc:	f001 fc88 	bl	800e3d0 <SPE_sin_H96e4298bd9675fbbcb46b0c1f68b039a5627ebc5_cb4a8a449b4ada864625ee5a4355578a3aaf08ed>
 800cac0:	ed9a 6a3c 	vldr	s12, [sl, #240]	@ 0xf0
 800cac4:	edda 6a3d 	vldr	s13, [sl, #244]	@ 0xf4
 800cac8:	ed9a 7a3f 	vldr	s14, [sl, #252]	@ 0xfc
 800cacc:	edda 7a3e 	vldr	s15, [sl, #248]	@ 0xf8
 800cad0:	ee27 7a06 	vmul.f32	s14, s14, s12
 800cad4:	ee67 7aa6 	vmul.f32	s15, s15, s13
 800cad8:	eeb0 8a40 	vmov.f32	s16, s0
 800cadc:	ee77 7a27 	vadd.f32	s15, s14, s15
 800cae0:	ee17 0a90 	vmov	r0, s15
 800cae4:	f7f3 fcfc 	bl	80004e0 <__aeabi_f2d>
 800cae8:	4604      	mov	r4, r0
 800caea:	f8da 01c0 	ldr.w	r0, [sl, #448]	@ 0x1c0
 800caee:	460d      	mov	r5, r1
 800caf0:	f7f3 fcf6 	bl	80004e0 <__aeabi_f2d>
 800caf4:	4602      	mov	r2, r0
 800caf6:	460b      	mov	r3, r1
 800caf8:	4620      	mov	r0, r4
 800cafa:	4629      	mov	r1, r5
 800cafc:	f7f3 fd48 	bl	8000590 <__aeabi_dmul>
 800cb00:	e002      	b.n	800cb08 <DoStep_H96e4298bd9675fbbcb46b0c1f68b039a5627ebc5_cb4a8a449b4ada864625ee5a4355578a3aaf08ed+0x36b8>
 800cb02:	bf00      	nop
 800cb04:	3ff00000 	.word	0x3ff00000
 800cb08:	ee68 7a88 	vmul.f32	s15, s17, s16
 800cb0c:	4604      	mov	r4, r0
 800cb0e:	ee17 0a90 	vmov	r0, s15
 800cb12:	460d      	mov	r5, r1
 800cb14:	f7f3 fce4 	bl	80004e0 <__aeabi_f2d>
 800cb18:	4602      	mov	r2, r0
 800cb1a:	460b      	mov	r3, r1
 800cb1c:	4620      	mov	r0, r4
 800cb1e:	4629      	mov	r1, r5
 800cb20:	f7f3 fd36 	bl	8000590 <__aeabi_dmul>
 800cb24:	ed9a 0a84 	vldr	s0, [sl, #528]	@ 0x210
 800cb28:	edda 8a19 	vldr	s17, [sl, #100]	@ 0x64
 800cb2c:	4604      	mov	r4, r0
 800cb2e:	460d      	mov	r5, r1
 800cb30:	f001 fc50 	bl	800e3d4 <SPE_cos_H96e4298bd9675fbbcb46b0c1f68b039a5627ebc5_cb4a8a449b4ada864625ee5a4355578a3aaf08ed>
 800cb34:	ed9a 6a3d 	vldr	s12, [sl, #244]	@ 0xf4
 800cb38:	edda 6a3c 	vldr	s13, [sl, #240]	@ 0xf0
 800cb3c:	ed9a 7a3f 	vldr	s14, [sl, #252]	@ 0xfc
 800cb40:	edda 7a3e 	vldr	s15, [sl, #248]	@ 0xf8
 800cb44:	ee27 7a06 	vmul.f32	s14, s14, s12
 800cb48:	ee67 7aa6 	vmul.f32	s15, s15, s13
 800cb4c:	eeb0 8a40 	vmov.f32	s16, s0
 800cb50:	ee77 7a67 	vsub.f32	s15, s14, s15
 800cb54:	ee17 0a90 	vmov	r0, s15
 800cb58:	f7f3 fcc2 	bl	80004e0 <__aeabi_f2d>
 800cb5c:	4bf1      	ldr	r3, [pc, #964]	@ (800cf24 <DoStep_H96e4298bd9675fbbcb46b0c1f68b039a5627ebc5_cb4a8a449b4ada864625ee5a4355578a3aaf08ed+0x3ad4>)
 800cb5e:	2200      	movs	r2, #0
 800cb60:	f7f3 fb60 	bl	8000224 <__adddf3>
 800cb64:	4606      	mov	r6, r0
 800cb66:	f8da 01c0 	ldr.w	r0, [sl, #448]	@ 0x1c0
 800cb6a:	460f      	mov	r7, r1
 800cb6c:	f7f3 fcb8 	bl	80004e0 <__aeabi_f2d>
 800cb70:	4602      	mov	r2, r0
 800cb72:	460b      	mov	r3, r1
 800cb74:	4630      	mov	r0, r6
 800cb76:	4639      	mov	r1, r7
 800cb78:	f7f3 fd0a 	bl	8000590 <__aeabi_dmul>
 800cb7c:	ee68 7a28 	vmul.f32	s15, s16, s17
 800cb80:	4606      	mov	r6, r0
 800cb82:	ee17 0a90 	vmov	r0, s15
 800cb86:	460f      	mov	r7, r1
 800cb88:	f7f3 fcaa 	bl	80004e0 <__aeabi_f2d>
 800cb8c:	4602      	mov	r2, r0
 800cb8e:	460b      	mov	r3, r1
 800cb90:	4630      	mov	r0, r6
 800cb92:	4639      	mov	r1, r7
 800cb94:	f7f3 fcfc 	bl	8000590 <__aeabi_dmul>
 800cb98:	4602      	mov	r2, r0
 800cb9a:	460b      	mov	r3, r1
 800cb9c:	4620      	mov	r0, r4
 800cb9e:	4629      	mov	r1, r5
 800cba0:	f7f3 fb3e 	bl	8000220 <__aeabi_dsub>
 800cba4:	4604      	mov	r4, r0
 800cba6:	f8da 021c 	ldr.w	r0, [sl, #540]	@ 0x21c
 800cbaa:	460d      	mov	r5, r1
 800cbac:	f7f3 fc98 	bl	80004e0 <__aeabi_f2d>
 800cbb0:	4602      	mov	r2, r0
 800cbb2:	460b      	mov	r3, r1
 800cbb4:	4620      	mov	r0, r4
 800cbb6:	4629      	mov	r1, r5
 800cbb8:	f7f3 fcea 	bl	8000590 <__aeabi_dmul>
 800cbbc:	ed9a 0a84 	vldr	s0, [sl, #528]	@ 0x210
 800cbc0:	edda 8a19 	vldr	s17, [sl, #100]	@ 0x64
 800cbc4:	e9cd 0102 	strd	r0, r1, [sp, #8]
 800cbc8:	f001 fc04 	bl	800e3d4 <SPE_cos_H96e4298bd9675fbbcb46b0c1f68b039a5627ebc5_cb4a8a449b4ada864625ee5a4355578a3aaf08ed>
 800cbcc:	ed9a 6a3c 	vldr	s12, [sl, #240]	@ 0xf0
 800cbd0:	edda 6a3d 	vldr	s13, [sl, #244]	@ 0xf4
 800cbd4:	ed9a 7a3f 	vldr	s14, [sl, #252]	@ 0xfc
 800cbd8:	edda 7a3e 	vldr	s15, [sl, #248]	@ 0xf8
 800cbdc:	ee27 7a06 	vmul.f32	s14, s14, s12
 800cbe0:	ee67 7aa6 	vmul.f32	s15, s15, s13
 800cbe4:	eeb0 8a40 	vmov.f32	s16, s0
 800cbe8:	ee77 7a27 	vadd.f32	s15, s14, s15
 800cbec:	ee17 0a90 	vmov	r0, s15
 800cbf0:	f7f3 fc76 	bl	80004e0 <__aeabi_f2d>
 800cbf4:	4604      	mov	r4, r0
 800cbf6:	f8da 01c0 	ldr.w	r0, [sl, #448]	@ 0x1c0
 800cbfa:	460d      	mov	r5, r1
 800cbfc:	f7f3 fc70 	bl	80004e0 <__aeabi_f2d>
 800cc00:	4602      	mov	r2, r0
 800cc02:	460b      	mov	r3, r1
 800cc04:	4620      	mov	r0, r4
 800cc06:	4629      	mov	r1, r5
 800cc08:	f7f3 fcc2 	bl	8000590 <__aeabi_dmul>
 800cc0c:	ee68 7a28 	vmul.f32	s15, s16, s17
 800cc10:	4604      	mov	r4, r0
 800cc12:	ee17 0a90 	vmov	r0, s15
 800cc16:	460d      	mov	r5, r1
 800cc18:	f7f3 fc62 	bl	80004e0 <__aeabi_f2d>
 800cc1c:	4602      	mov	r2, r0
 800cc1e:	460b      	mov	r3, r1
 800cc20:	4620      	mov	r0, r4
 800cc22:	4629      	mov	r1, r5
 800cc24:	f7f3 fcb4 	bl	8000590 <__aeabi_dmul>
 800cc28:	ed9a 0a84 	vldr	s0, [sl, #528]	@ 0x210
 800cc2c:	ed9a 8a19 	vldr	s16, [sl, #100]	@ 0x64
 800cc30:	e9cd 0104 	strd	r0, r1, [sp, #16]
 800cc34:	f001 fbcc 	bl	800e3d0 <SPE_sin_H96e4298bd9675fbbcb46b0c1f68b039a5627ebc5_cb4a8a449b4ada864625ee5a4355578a3aaf08ed>
 800cc38:	ee60 7a08 	vmul.f32	s15, s0, s16
 800cc3c:	ee17 0a90 	vmov	r0, s15
 800cc40:	f7f3 fc4e 	bl	80004e0 <__aeabi_f2d>
 800cc44:	f8da b1c0 	ldr.w	fp, [sl, #448]	@ 0x1c0
 800cc48:	4606      	mov	r6, r0
 800cc4a:	4658      	mov	r0, fp
 800cc4c:	460f      	mov	r7, r1
 800cc4e:	f7f3 fc47 	bl	80004e0 <__aeabi_f2d>
 800cc52:	ed9a 6a3d 	vldr	s12, [sl, #244]	@ 0xf4
 800cc56:	edda 6a3c 	vldr	s13, [sl, #240]	@ 0xf0
 800cc5a:	ed9a 7a3f 	vldr	s14, [sl, #252]	@ 0xfc
 800cc5e:	edda 7a3e 	vldr	s15, [sl, #248]	@ 0xf8
 800cc62:	ee27 7a06 	vmul.f32	s14, s14, s12
 800cc66:	ee67 7aa6 	vmul.f32	s15, s15, s13
 800cc6a:	4604      	mov	r4, r0
 800cc6c:	ee77 7a67 	vsub.f32	s15, s14, s15
 800cc70:	460d      	mov	r5, r1
 800cc72:	ee17 0a90 	vmov	r0, s15
 800cc76:	f7f3 fc33 	bl	80004e0 <__aeabi_f2d>
 800cc7a:	4baa      	ldr	r3, [pc, #680]	@ (800cf24 <DoStep_H96e4298bd9675fbbcb46b0c1f68b039a5627ebc5_cb4a8a449b4ada864625ee5a4355578a3aaf08ed+0x3ad4>)
 800cc7c:	2200      	movs	r2, #0
 800cc7e:	f7f3 fad1 	bl	8000224 <__adddf3>
 800cc82:	4622      	mov	r2, r4
 800cc84:	462b      	mov	r3, r5
 800cc86:	f7f3 fc83 	bl	8000590 <__aeabi_dmul>
 800cc8a:	4632      	mov	r2, r6
 800cc8c:	463b      	mov	r3, r7
 800cc8e:	f7f3 fc7f 	bl	8000590 <__aeabi_dmul>
 800cc92:	e9dd 2304 	ldrd	r2, r3, [sp, #16]
 800cc96:	f7f3 fac5 	bl	8000224 <__adddf3>
 800cc9a:	4604      	mov	r4, r0
 800cc9c:	f8da 0220 	ldr.w	r0, [sl, #544]	@ 0x220
 800cca0:	460d      	mov	r5, r1
 800cca2:	f7f3 fc1d 	bl	80004e0 <__aeabi_f2d>
 800cca6:	4602      	mov	r2, r0
 800cca8:	460b      	mov	r3, r1
 800ccaa:	4620      	mov	r0, r4
 800ccac:	4629      	mov	r1, r5
 800ccae:	f7f3 fc6f 	bl	8000590 <__aeabi_dmul>
 800ccb2:	e9dd 2302 	ldrd	r2, r3, [sp, #8]
 800ccb6:	f7f3 fab5 	bl	8000224 <__adddf3>
 800ccba:	ee00 ba10 	vmov	s0, fp
 800ccbe:	4604      	mov	r4, r0
 800ccc0:	460d      	mov	r5, r1
 800ccc2:	f001 fb67 	bl	800e394 <SPE_ipowSquare_H96e4298bd9675fbbcb46b0c1f68b039a5627ebc5_cb4a8a449b4ada864625ee5a4355578a3aaf08ed>
 800ccc6:	ee10 0a10 	vmov	r0, s0
 800ccca:	f7f3 fc09 	bl	80004e0 <__aeabi_f2d>
 800ccce:	4602      	mov	r2, r0
 800ccd0:	460b      	mov	r3, r1
 800ccd2:	4620      	mov	r0, r4
 800ccd4:	4629      	mov	r1, r5
 800ccd6:	f7f3 fd85 	bl	80007e4 <__aeabi_ddiv>
 800ccda:	4642      	mov	r2, r8
 800ccdc:	464b      	mov	r3, r9
 800ccde:	f7f3 faa1 	bl	8000224 <__adddf3>
 800cce2:	f7f3 fe67 	bl	80009b4 <__aeabi_d2f>
 800cce6:	2306      	movs	r3, #6
 800cce8:	ee07 0a90 	vmov	s15, r0
 800ccec:	9301      	str	r3, [sp, #4]
 800ccee:	ab1c      	add	r3, sp, #112	@ 0x70
 800ccf0:	9809      	ldr	r0, [sp, #36]	@ 0x24
 800ccf2:	9300      	str	r3, [sp, #0]
 800ccf4:	eef1 7a67 	vneg.f32	s15, s15
 800ccf8:	ab16      	add	r3, sp, #88	@ 0x58
 800ccfa:	aa10      	add	r2, sp, #64	@ 0x40
 800ccfc:	a922      	add	r1, sp, #136	@ 0x88
 800ccfe:	edcd 7a15 	vstr	s15, [sp, #84]	@ 0x54
 800cd02:	f001 fb91 	bl	800e428 <SPE_solveLinearEquations_H96e4298bd9675fbbcb46b0c1f68b039a5627ebc5_cb4a8a449b4ada864625ee5a4355578a3aaf08ed>
 800cd06:	4a88      	ldr	r2, [pc, #544]	@ (800cf28 <DoStep_H96e4298bd9675fbbcb46b0c1f68b039a5627ebc5_cb4a8a449b4ada864625ee5a4355578a3aaf08ed+0x3ad8>)
 800cd08:	f8da 3244 	ldr.w	r3, [sl, #580]	@ 0x244
 800cd0c:	6812      	ldr	r2, [r2, #0]
 800cd0e:	980e      	ldr	r0, [sp, #56]	@ 0x38
 800cd10:	ea03 0102 	and.w	r1, r3, r2
 800cd14:	4288      	cmp	r0, r1
 800cd16:	f001 82f5 	beq.w	800e304 <DoStep_H96e4298bd9675fbbcb46b0c1f68b039a5627ebc5_cb4a8a449b4ada864625ee5a4355578a3aaf08ed+0x4eb4>
 800cd1a:	404b      	eors	r3, r1
 800cd1c:	4313      	orrs	r3, r2
 800cd1e:	f8ca 3244 	str.w	r3, [sl, #580]	@ 0x244
 800cd22:	ed9a 0a84 	vldr	s0, [sl, #528]	@ 0x210
 800cd26:	edda 9a12 	vldr	s19, [sl, #72]	@ 0x48
 800cd2a:	f001 fb51 	bl	800e3d0 <SPE_sin_H96e4298bd9675fbbcb46b0c1f68b039a5627ebc5_cb4a8a449b4ada864625ee5a4355578a3aaf08ed>
 800cd2e:	edda 7a89 	vldr	s15, [sl, #548]	@ 0x224
 800cd32:	eeb0 8a40 	vmov.f32	s16, s0
 800cd36:	ed9a 0a84 	vldr	s0, [sl, #528]	@ 0x210
 800cd3a:	ee28 8a27 	vmul.f32	s16, s16, s15
 800cd3e:	f001 fb49 	bl	800e3d4 <SPE_cos_H96e4298bd9675fbbcb46b0c1f68b039a5627ebc5_cb4a8a449b4ada864625ee5a4355578a3aaf08ed>
 800cd42:	edda 7a8a 	vldr	s15, [sl, #552]	@ 0x228
 800cd46:	ed9a 9a12 	vldr	s18, [sl, #72]	@ 0x48
 800cd4a:	eef0 8a40 	vmov.f32	s17, s0
 800cd4e:	ed9a 0a84 	vldr	s0, [sl, #528]	@ 0x210
 800cd52:	ee68 8aa7 	vmul.f32	s17, s17, s15
 800cd56:	f001 fb3b 	bl	800e3d0 <SPE_sin_H96e4298bd9675fbbcb46b0c1f68b039a5627ebc5_cb4a8a449b4ada864625ee5a4355578a3aaf08ed>
 800cd5a:	edda 7a8a 	vldr	s15, [sl, #552]	@ 0x228
 800cd5e:	ee78 8a88 	vadd.f32	s17, s17, s16
 800cd62:	eeb0 8a40 	vmov.f32	s16, s0
 800cd66:	ed9a 0a84 	vldr	s0, [sl, #528]	@ 0x210
 800cd6a:	ee28 8a27 	vmul.f32	s16, s16, s15
 800cd6e:	f001 fb31 	bl	800e3d4 <SPE_cos_H96e4298bd9675fbbcb46b0c1f68b039a5627ebc5_cb4a8a449b4ada864625ee5a4355578a3aaf08ed>
 800cd72:	ed9a 5a5c 	vldr	s10, [sl, #368]	@ 0x170
 800cd76:	edda 7a89 	vldr	s15, [sl, #548]	@ 0x224
 800cd7a:	edda 6a59 	vldr	s13, [sl, #356]	@ 0x164
 800cd7e:	ed9a 7a8a 	vldr	s14, [sl, #552]	@ 0x228
 800cd82:	ed9a 6a5d 	vldr	s12, [sl, #372]	@ 0x174
 800cd86:	ed9a ba87 	vldr	s22, [sl, #540]	@ 0x21c
 800cd8a:	edda ba88 	vldr	s23, [sl, #544]	@ 0x220
 800cd8e:	ee67 5aa6 	vmul.f32	s11, s15, s13
 800cd92:	ee20 0a27 	vmul.f32	s0, s0, s15
 800cd96:	ee66 6a87 	vmul.f32	s13, s13, s14
 800cd9a:	ee67 7a85 	vmul.f32	s15, s15, s10
 800cd9e:	ee27 7a06 	vmul.f32	s14, s14, s12
 800cda2:	ee3b ba65 	vsub.f32	s22, s22, s11
 800cda6:	ee77 7aa6 	vadd.f32	s15, s15, s13
 800cdaa:	ee38 8a40 	vsub.f32	s16, s16, s0
 800cdae:	ed9a 0a84 	vldr	s0, [sl, #528]	@ 0x210
 800cdb2:	ee3b ba07 	vadd.f32	s22, s22, s14
 800cdb6:	ee7b bae7 	vsub.f32	s23, s23, s15
 800cdba:	ee68 8aa9 	vmul.f32	s17, s17, s19
 800cdbe:	edda 9a19 	vldr	s19, [sl, #100]	@ 0x64
 800cdc2:	f001 fb05 	bl	800e3d0 <SPE_sin_H96e4298bd9675fbbcb46b0c1f68b039a5627ebc5_cb4a8a449b4ada864625ee5a4355578a3aaf08ed>
 800cdc6:	ee28 8a09 	vmul.f32	s16, s16, s18
 800cdca:	eeb0 9a40 	vmov.f32	s18, s0
 800cdce:	ed9a 0a84 	vldr	s0, [sl, #528]	@ 0x210
 800cdd2:	f001 faff 	bl	800e3d4 <SPE_cos_H96e4298bd9675fbbcb46b0c1f68b039a5627ebc5_cb4a8a449b4ada864625ee5a4355578a3aaf08ed>
 800cdd6:	ee2b 9a09 	vmul.f32	s18, s22, s18
 800cdda:	ee2b aa80 	vmul.f32	s20, s23, s0
 800cdde:	ed9a 0a70 	vldr	s0, [sl, #448]	@ 0x1c0
 800cde2:	f001 fad7 	bl	800e394 <SPE_ipowSquare_H96e4298bd9675fbbcb46b0c1f68b039a5627ebc5_cb4a8a449b4ada864625ee5a4355578a3aaf08ed>
 800cde6:	ed9a 0a84 	vldr	s0, [sl, #528]	@ 0x210
 800cdea:	ee3a aa09 	vadd.f32	s20, s20, s18
 800cdee:	ed9a 9a19 	vldr	s18, [sl, #100]	@ 0x64
 800cdf2:	f001 faed 	bl	800e3d0 <SPE_sin_H96e4298bd9675fbbcb46b0c1f68b039a5627ebc5_cb4a8a449b4ada864625ee5a4355578a3aaf08ed>
 800cdf6:	ee2a aa29 	vmul.f32	s20, s20, s19
 800cdfa:	eef0 9a40 	vmov.f32	s19, s0
 800cdfe:	ed9a 0a84 	vldr	s0, [sl, #528]	@ 0x210
 800ce02:	f001 fae7 	bl	800e3d4 <SPE_cos_H96e4298bd9675fbbcb46b0c1f68b039a5627ebc5_cb4a8a449b4ada864625ee5a4355578a3aaf08ed>
 800ce06:	ee6b 9aa9 	vmul.f32	s19, s23, s19
 800ce0a:	ee6b 7a00 	vmul.f32	s15, s22, s0
 800ce0e:	ed9a 0a70 	vldr	s0, [sl, #448]	@ 0x1c0
 800ce12:	ee79 9ae7 	vsub.f32	s19, s19, s15
 800ce16:	f001 fabd 	bl	800e394 <SPE_ipowSquare_H96e4298bd9675fbbcb46b0c1f68b039a5627ebc5_cb4a8a449b4ada864625ee5a4355578a3aaf08ed>
 800ce1a:	eeb0 0a4a 	vmov.f32	s0, s20
 800ce1e:	f001 fab9 	bl	800e394 <SPE_ipowSquare_H96e4298bd9675fbbcb46b0c1f68b039a5627ebc5_cb4a8a449b4ada864625ee5a4355578a3aaf08ed>
 800ce22:	ee69 9a89 	vmul.f32	s19, s19, s18
 800ce26:	eeb0 9a40 	vmov.f32	s18, s0
 800ce2a:	eeb0 0a69 	vmov.f32	s0, s19
 800ce2e:	f001 fab1 	bl	800e394 <SPE_ipowSquare_H96e4298bd9675fbbcb46b0c1f68b039a5627ebc5_cb4a8a449b4ada864625ee5a4355578a3aaf08ed>
 800ce32:	ee39 0a00 	vadd.f32	s0, s18, s0
 800ce36:	f001 fabf 	bl	800e3b8 <SPE_sqrt_H96e4298bd9675fbbcb46b0c1f68b039a5627ebc5_cb4a8a449b4ada864625ee5a4355578a3aaf08ed>
 800ce3a:	edda ca7c 	vldr	s25, [sl, #496]	@ 0x1f0
 800ce3e:	ed9a 7a4e 	vldr	s14, [sl, #312]	@ 0x138
 800ce42:	ed9a da4c 	vldr	s26, [sl, #304]	@ 0x130
 800ce46:	ed9a ea4b 	vldr	s28, [sl, #300]	@ 0x12c
 800ce4a:	edda aa0f 	vldr	s21, [sl, #60]	@ 0x3c
 800ce4e:	ed8a 0a05 	vstr	s0, [sl, #20]
 800ce52:	ee70 6a6c 	vsub.f32	s13, s0, s25
 800ce56:	eeb0 ca40 	vmov.f32	s24, s0
 800ce5a:	eec6 7a87 	vdiv.f32	s15, s13, s14
 800ce5e:	ed9a 7a02 	vldr	s14, [sl, #8]
 800ce62:	edca 7a79 	vstr	s15, [sl, #484]	@ 0x1e4
 800ce66:	ee7a aa87 	vadd.f32	s21, s21, s14
 800ce6a:	ee8e 7a0d 	vdiv.f32	s14, s28, s26
 800ce6e:	ed9a 9a0d 	vldr	s18, [sl, #52]	@ 0x34
 800ce72:	edda da7d 	vldr	s27, [sl, #500]	@ 0x1f4
 800ce76:	ee17 0a10 	vmov	r0, s14
 800ce7a:	f7f3 fb31 	bl	80004e0 <__aeabi_f2d>
 800ce7e:	4602      	mov	r2, r0
 800ce80:	460b      	mov	r3, r1
 800ce82:	2000      	movs	r0, #0
 800ce84:	4927      	ldr	r1, [pc, #156]	@ (800cf24 <DoStep_H96e4298bd9675fbbcb46b0c1f68b039a5627ebc5_cb4a8a449b4ada864625ee5a4355578a3aaf08ed+0x3ad4>)
 800ce86:	f7f3 f9cb 	bl	8000220 <__aeabi_dsub>
 800ce8a:	4604      	mov	r4, r0
 800ce8c:	ee19 0a10 	vmov	r0, s18
 800ce90:	460d      	mov	r5, r1
 800ce92:	f7f3 fb25 	bl	80004e0 <__aeabi_f2d>
 800ce96:	4602      	mov	r2, r0
 800ce98:	460b      	mov	r3, r1
 800ce9a:	4620      	mov	r0, r4
 800ce9c:	4629      	mov	r1, r5
 800ce9e:	f7f3 fb77 	bl	8000590 <__aeabi_dmul>
 800cea2:	ee7a aaec 	vsub.f32	s21, s21, s25
 800cea6:	4604      	mov	r4, r0
 800cea8:	ee1a 0a90 	vmov	r0, s21
 800ceac:	460d      	mov	r5, r1
 800ceae:	f7f3 fb17 	bl	80004e0 <__aeabi_f2d>
 800ceb2:	4602      	mov	r2, r0
 800ceb4:	460b      	mov	r3, r1
 800ceb6:	4620      	mov	r0, r4
 800ceb8:	4629      	mov	r1, r5
 800ceba:	f7f3 fb69 	bl	8000590 <__aeabi_dmul>
 800cebe:	4604      	mov	r4, r0
 800cec0:	ee1d 0a90 	vmov	r0, s27
 800cec4:	460d      	mov	r5, r1
 800cec6:	f7f3 fb0b 	bl	80004e0 <__aeabi_f2d>
 800ceca:	4602      	mov	r2, r0
 800cecc:	460b      	mov	r3, r1
 800cece:	4620      	mov	r0, r4
 800ced0:	4629      	mov	r1, r5
 800ced2:	f7f3 f9a5 	bl	8000220 <__aeabi_dsub>
 800ced6:	4604      	mov	r4, r0
 800ced8:	ee1d 0a10 	vmov	r0, s26
 800cedc:	460d      	mov	r5, r1
 800cede:	f7f3 faff 	bl	80004e0 <__aeabi_f2d>
 800cee2:	ee29 9a0e 	vmul.f32	s18, s18, s28
 800cee6:	4602      	mov	r2, r0
 800cee8:	460b      	mov	r3, r1
 800ceea:	4620      	mov	r0, r4
 800ceec:	4629      	mov	r1, r5
 800ceee:	ee29 9a2a 	vmul.f32	s18, s18, s21
 800cef2:	f7f3 fc77 	bl	80007e4 <__aeabi_ddiv>
 800cef6:	f7f3 fd5d 	bl	80009b4 <__aeabi_d2f>
 800cefa:	eec9 7a0d 	vdiv.f32	s15, s18, s26
 800cefe:	f8ca 01e8 	str.w	r0, [sl, #488]	@ 0x1e8
 800cf02:	f8da 81ec 	ldr.w	r8, [sl, #492]	@ 0x1ec
 800cf06:	ed9a 7a28 	vldr	s14, [sl, #160]	@ 0xa0
 800cf0a:	ee77 7aad 	vadd.f32	s15, s15, s27
 800cf0e:	ee77 7a87 	vadd.f32	s15, s15, s14
 800cf12:	ee17 0a90 	vmov	r0, s15
 800cf16:	f7f3 fae3 	bl	80004e0 <__aeabi_f2d>
 800cf1a:	eecc 7a2c 	vdiv.f32	s15, s24, s25
 800cf1e:	4604      	mov	r4, r0
 800cf20:	460d      	mov	r5, r1
 800cf22:	e003      	b.n	800cf2c <DoStep_H96e4298bd9675fbbcb46b0c1f68b039a5627ebc5_cb4a8a449b4ada864625ee5a4355578a3aaf08ed+0x3adc>
 800cf24:	3ff00000 	.word	0x3ff00000
 800cf28:	0800f8b4 	.word	0x0800f8b4
 800cf2c:	ee17 0a90 	vmov	r0, s15
 800cf30:	f7f3 fad6 	bl	80004e0 <__aeabi_f2d>
 800cf34:	4bf0      	ldr	r3, [pc, #960]	@ (800d2f8 <DoStep_H96e4298bd9675fbbcb46b0c1f68b039a5627ebc5_cb4a8a449b4ada864625ee5a4355578a3aaf08ed+0x3ea8>)
 800cf36:	2200      	movs	r2, #0
 800cf38:	f7f3 f972 	bl	8000220 <__aeabi_dsub>
 800cf3c:	4606      	mov	r6, r0
 800cf3e:	f8da 0038 	ldr.w	r0, [sl, #56]	@ 0x38
 800cf42:	460f      	mov	r7, r1
 800cf44:	f7f3 facc 	bl	80004e0 <__aeabi_f2d>
 800cf48:	4602      	mov	r2, r0
 800cf4a:	460b      	mov	r3, r1
 800cf4c:	4630      	mov	r0, r6
 800cf4e:	4639      	mov	r1, r7
 800cf50:	f7f3 fb1e 	bl	8000590 <__aeabi_dmul>
 800cf54:	4be8      	ldr	r3, [pc, #928]	@ (800d2f8 <DoStep_H96e4298bd9675fbbcb46b0c1f68b039a5627ebc5_cb4a8a449b4ada864625ee5a4355578a3aaf08ed+0x3ea8>)
 800cf56:	2200      	movs	r2, #0
 800cf58:	f7f3 f964 	bl	8000224 <__adddf3>
 800cf5c:	4602      	mov	r2, r0
 800cf5e:	460b      	mov	r3, r1
 800cf60:	4620      	mov	r0, r4
 800cf62:	4629      	mov	r1, r5
 800cf64:	f7f3 fb14 	bl	8000590 <__aeabi_dmul>
 800cf68:	4604      	mov	r4, r0
 800cf6a:	4640      	mov	r0, r8
 800cf6c:	460d      	mov	r5, r1
 800cf6e:	f7f3 fab7 	bl	80004e0 <__aeabi_f2d>
 800cf72:	4602      	mov	r2, r0
 800cf74:	460b      	mov	r3, r1
 800cf76:	4620      	mov	r0, r4
 800cf78:	4629      	mov	r1, r5
 800cf7a:	f7f3 f951 	bl	8000220 <__aeabi_dsub>
 800cf7e:	4604      	mov	r4, r0
 800cf80:	f8da 0134 	ldr.w	r0, [sl, #308]	@ 0x134
 800cf84:	460d      	mov	r5, r1
 800cf86:	f7f3 faab 	bl	80004e0 <__aeabi_f2d>
 800cf8a:	4602      	mov	r2, r0
 800cf8c:	460b      	mov	r3, r1
 800cf8e:	4620      	mov	r0, r4
 800cf90:	4629      	mov	r1, r5
 800cf92:	f7f3 fc27 	bl	80007e4 <__aeabi_ddiv>
 800cf96:	f7f3 fd0d 	bl	80009b4 <__aeabi_d2f>
 800cf9a:	edda 0a10 	vldr	s1, [sl, #64]	@ 0x40
 800cf9e:	f8ca 01e0 	str.w	r0, [sl, #480]	@ 0x1e0
 800cfa2:	ee00 8a10 	vmov	s0, r8
 800cfa6:	9809      	ldr	r0, [sp, #36]	@ 0x24
 800cfa8:	f001 f9e2 	bl	800e370 <SPE_greater_H96e4298bd9675fbbcb46b0c1f68b039a5627ebc5_cb4a8a449b4ada864625ee5a4355578a3aaf08ed>
 800cfac:	2800      	cmp	r0, #0
 800cfae:	f001 81bd 	beq.w	800e32c <DoStep_H96e4298bd9675fbbcb46b0c1f68b039a5627ebc5_cb4a8a449b4ada864625ee5a4355578a3aaf08ed+0x4edc>
 800cfb2:	edda 7a10 	vldr	s15, [sl, #64]	@ 0x40
 800cfb6:	ed9a 9a5a 	vldr	s18, [sl, #360]	@ 0x168
 800cfba:	edda ca55 	vldr	s25, [sl, #340]	@ 0x154
 800cfbe:	ed9a fa5c 	vldr	s30, [sl, #368]	@ 0x170
 800cfc2:	edda aa5e 	vldr	s21, [sl, #376]	@ 0x178
 800cfc6:	ed9a ea53 	vldr	s28, [sl, #332]	@ 0x14c
 800cfca:	ed9a 6a1a 	vldr	s12, [sl, #104]	@ 0x68
 800cfce:	edda fa57 	vldr	s31, [sl, #348]	@ 0x15c
 800cfd2:	edda da89 	vldr	s27, [sl, #548]	@ 0x224
 800cfd6:	ed9a ca86 	vldr	s24, [sl, #536]	@ 0x218
 800cfda:	ee7a aac9 	vsub.f32	s21, s21, s18
 800cfde:	ee2c 7a8f 	vmul.f32	s14, s25, s30
 800cfe2:	ee67 7a86 	vmul.f32	s15, s15, s12
 800cfe6:	ee27 7a2a 	vmul.f32	s14, s14, s21
 800cfea:	ee8f 6a8e 	vdiv.f32	s12, s31, s28
 800cfee:	eec7 6a0e 	vdiv.f32	s13, s14, s28
 800cff2:	ed9a 7a58 	vldr	s14, [sl, #352]	@ 0x160
 800cff6:	eec7 ea87 	vdiv.f32	s29, s15, s14
 800cffa:	ee86 da89 	vdiv.f32	s26, s13, s18
 800cffe:	ee16 0a10 	vmov	r0, s12
 800d002:	f7f3 fa6d 	bl	80004e0 <__aeabi_f2d>
 800d006:	4602      	mov	r2, r0
 800d008:	460b      	mov	r3, r1
 800d00a:	2000      	movs	r0, #0
 800d00c:	49ba      	ldr	r1, [pc, #744]	@ (800d2f8 <DoStep_H96e4298bd9675fbbcb46b0c1f68b039a5627ebc5_cb4a8a449b4ada864625ee5a4355578a3aaf08ed+0x3ea8>)
 800d00e:	f7f3 f907 	bl	8000220 <__aeabi_dsub>
 800d012:	4604      	mov	r4, r0
 800d014:	ee1e 0a90 	vmov	r0, s29
 800d018:	460d      	mov	r5, r1
 800d01a:	f7f3 fa61 	bl	80004e0 <__aeabi_f2d>
 800d01e:	ee7a aacd 	vsub.f32	s21, s21, s26
 800d022:	4602      	mov	r2, r0
 800d024:	460b      	mov	r3, r1
 800d026:	ee6a aaad 	vmul.f32	s21, s21, s27
 800d02a:	4620      	mov	r0, r4
 800d02c:	4629      	mov	r1, r5
 800d02e:	f7f3 faaf 	bl	8000590 <__aeabi_dmul>
 800d032:	ee7a 7a8c 	vadd.f32	s15, s21, s24
 800d036:	4604      	mov	r4, r0
 800d038:	ee17 0a90 	vmov	r0, s15
 800d03c:	460d      	mov	r5, r1
 800d03e:	f7f3 fa4f 	bl	80004e0 <__aeabi_f2d>
 800d042:	4602      	mov	r2, r0
 800d044:	460b      	mov	r3, r1
 800d046:	4620      	mov	r0, r4
 800d048:	4629      	mov	r1, r5
 800d04a:	f7f3 f8e9 	bl	8000220 <__aeabi_dsub>
 800d04e:	4604      	mov	r4, r0
 800d050:	ee1e 0a10 	vmov	r0, s28
 800d054:	460d      	mov	r5, r1
 800d056:	f7f3 fa43 	bl	80004e0 <__aeabi_f2d>
 800d05a:	ee6e eaaf 	vmul.f32	s29, s29, s31
 800d05e:	4602      	mov	r2, r0
 800d060:	460b      	mov	r3, r1
 800d062:	4620      	mov	r0, r4
 800d064:	4629      	mov	r1, r5
 800d066:	f7f3 fbbd 	bl	80007e4 <__aeabi_ddiv>
 800d06a:	f7f3 fca3 	bl	80009b4 <__aeabi_d2f>
 800d06e:	eece 5a8e 	vdiv.f32	s11, s29, s28
 800d072:	4603      	mov	r3, r0
 800d074:	f8ca 3200 	str.w	r3, [sl, #512]	@ 0x200
 800d078:	f8da 00a8 	ldr.w	r0, [sl, #168]	@ 0xa8
 800d07c:	edda aa8a 	vldr	s21, [sl, #552]	@ 0x228
 800d080:	ed9a 7a59 	vldr	s14, [sl, #356]	@ 0x164
 800d084:	edda 7a88 	vldr	s15, [sl, #544]	@ 0x220
 800d088:	ed9a 5a17 	vldr	s10, [sl, #92]	@ 0x5c
 800d08c:	ed9a 6a24 	vldr	s12, [sl, #144]	@ 0x90
 800d090:	ee67 6a2a 	vmul.f32	s13, s14, s21
 800d094:	ee39 9a4f 	vsub.f32	s18, s18, s30
 800d098:	ee2d 7a87 	vmul.f32	s14, s27, s14
 800d09c:	ee39 9a0d 	vadd.f32	s18, s18, s26
 800d0a0:	ee76 6aab 	vadd.f32	s13, s13, s23
 800d0a4:	ee37 7a0b 	vadd.f32	s14, s14, s22
 800d0a8:	ee29 9a2d 	vmul.f32	s18, s18, s27
 800d0ac:	ee66 6aaa 	vmul.f32	s13, s13, s21
 800d0b0:	ee7c 7a67 	vsub.f32	s15, s24, s15
 800d0b4:	ee27 7a2d 	vmul.f32	s14, s14, s27
 800d0b8:	ee26 6a05 	vmul.f32	s12, s12, s10
 800d0bc:	ee77 7ac9 	vsub.f32	s15, s15, s18
 800d0c0:	ee36 7a87 	vadd.f32	s14, s13, s14
 800d0c4:	ee77 7aa5 	vadd.f32	s15, s15, s11
 800d0c8:	ee36 7a47 	vsub.f32	s14, s12, s14
 800d0cc:	ed9a 6a51 	vldr	s12, [sl, #324]	@ 0x144
 800d0d0:	ed9a 9a8b 	vldr	s18, [sl, #556]	@ 0x22c
 800d0d4:	eec7 6aac 	vdiv.f32	s13, s15, s25
 800d0d8:	eec7 7a06 	vdiv.f32	s15, s14, s12
 800d0dc:	edca 6a82 	vstr	s13, [sl, #520]	@ 0x208
 800d0e0:	edca 7a83 	vstr	s15, [sl, #524]	@ 0x20c
 800d0e4:	f7f3 f9fc 	bl	80004e0 <__aeabi_f2d>
 800d0e8:	4604      	mov	r4, r0
 800d0ea:	ee19 0a10 	vmov	r0, s18
 800d0ee:	460d      	mov	r5, r1
 800d0f0:	f7f3 f9f6 	bl	80004e0 <__aeabi_f2d>
 800d0f4:	4b80      	ldr	r3, [pc, #512]	@ (800d2f8 <DoStep_H96e4298bd9675fbbcb46b0c1f68b039a5627ebc5_cb4a8a449b4ada864625ee5a4355578a3aaf08ed+0x3ea8>)
 800d0f6:	2200      	movs	r2, #0
 800d0f8:	f7f3 f892 	bl	8000220 <__aeabi_dsub>
 800d0fc:	4602      	mov	r2, r0
 800d0fe:	460b      	mov	r3, r1
 800d100:	4620      	mov	r0, r4
 800d102:	4629      	mov	r1, r5
 800d104:	f7f3 fa44 	bl	8000590 <__aeabi_dmul>
 800d108:	f7f3 fc54 	bl	80009b4 <__aeabi_d2f>
 800d10c:	edda 5a5b 	vldr	s11, [sl, #364]	@ 0x16c
 800d110:	edda 4a56 	vldr	s9, [sl, #344]	@ 0x158
 800d114:	ed9a 7a5d 	vldr	s14, [sl, #372]	@ 0x174
 800d118:	edda 7a5f 	vldr	s15, [sl, #380]	@ 0x17c
 800d11c:	ed9a 4a54 	vldr	s8, [sl, #336]	@ 0x150
 800d120:	ed9a 3a85 	vldr	s6, [sl, #532]	@ 0x214
 800d124:	edda 3a87 	vldr	s7, [sl, #540]	@ 0x21c
 800d128:	f8ca 01f8 	str.w	r0, [sl, #504]	@ 0x1f8
 800d12c:	ee64 6a87 	vmul.f32	s13, s9, s14
 800d130:	ee77 7ae5 	vsub.f32	s15, s15, s11
 800d134:	eeb7 6a00 	vmov.f32	s12, #112	@ 0x3f800000  1.0
 800d138:	ee66 6aa7 	vmul.f32	s13, s13, s15
 800d13c:	ee39 9a46 	vsub.f32	s18, s18, s12
 800d140:	eec6 2a84 	vdiv.f32	s5, s13, s8
 800d144:	ed9a 6a45 	vldr	s12, [sl, #276]	@ 0x114
 800d148:	edda 6a73 	vldr	s13, [sl, #460]	@ 0x1cc
 800d14c:	eddf 0a6b 	vldr	s1, [pc, #428]	@ 800d2fc <DoStep_H96e4298bd9675fbbcb46b0c1f68b039a5627ebc5_cb4a8a449b4ada864625ee5a4355578a3aaf08ed+0x3eac>
 800d150:	ed9a 0a68 	vldr	s0, [sl, #416]	@ 0x1a0
 800d154:	ee82 5aa5 	vdiv.f32	s10, s5, s11
 800d158:	ee35 7ac7 	vsub.f32	s14, s11, s14
 800d15c:	ee29 9a06 	vmul.f32	s18, s18, s12
 800d160:	ee77 7ac5 	vsub.f32	s15, s15, s10
 800d164:	ee37 7a05 	vadd.f32	s14, s14, s10
 800d168:	ed9a 6a74 	vldr	s12, [sl, #464]	@ 0x1d0
 800d16c:	ee29 9a26 	vmul.f32	s18, s18, s13
 800d170:	edda 6a09 	vldr	s13, [sl, #36]	@ 0x24
 800d174:	ee68 5a29 	vmul.f32	s11, s16, s19
 800d178:	ee73 3a63 	vsub.f32	s7, s6, s7
 800d17c:	ee26 6a26 	vmul.f32	s12, s12, s13
 800d180:	ee67 7aaa 	vmul.f32	s15, s15, s21
 800d184:	ee68 6a8a 	vmul.f32	s13, s17, s20
 800d188:	ee27 7a2a 	vmul.f32	s14, s14, s21
 800d18c:	ee76 6aa5 	vadd.f32	s13, s13, s11
 800d190:	ee77 7ac3 	vsub.f32	s15, s15, s6
 800d194:	ee37 7a23 	vadd.f32	s14, s14, s7
 800d198:	ee39 9a06 	vadd.f32	s18, s18, s12
 800d19c:	ed9a 6a0c 	vldr	s12, [sl, #48]	@ 0x30
 800d1a0:	ed8a 9a07 	vstr	s18, [sl, #28]
 800d1a4:	ee26 9a86 	vmul.f32	s18, s13, s12
 800d1a8:	eec7 6a84 	vdiv.f32	s13, s15, s8
 800d1ac:	eec7 7a24 	vdiv.f32	s15, s14, s9
 800d1b0:	edca 6a7f 	vstr	s13, [sl, #508]	@ 0x1fc
 800d1b4:	edca 7a81 	vstr	s15, [sl, #516]	@ 0x204
 800d1b8:	f001 f8f0 	bl	800e39c <SPE_rmax_H96e4298bd9675fbbcb46b0c1f68b039a5627ebc5_cb4a8a449b4ada864625ee5a4355578a3aaf08ed>
 800d1bc:	ee89 7a00 	vdiv.f32	s14, s18, s0
 800d1c0:	ee28 8a0a 	vmul.f32	s16, s16, s20
 800d1c4:	ee68 8aa9 	vmul.f32	s17, s17, s19
 800d1c8:	edda 7a0c 	vldr	s15, [sl, #48]	@ 0x30
 800d1cc:	eddf 0a4b 	vldr	s1, [pc, #300]	@ 800d2fc <DoStep_H96e4298bd9675fbbcb46b0c1f68b039a5627ebc5_cb4a8a449b4ada864625ee5a4355578a3aaf08ed+0x3eac>
 800d1d0:	ed9a 0a68 	vldr	s0, [sl, #416]	@ 0x1a0
 800d1d4:	ed8a 7a03 	vstr	s14, [sl, #12]
 800d1d8:	ee38 8a68 	vsub.f32	s16, s16, s17
 800d1dc:	ee27 8ac8 	vnmul.f32	s16, s15, s16
 800d1e0:	f001 f8dc 	bl	800e39c <SPE_rmax_H96e4298bd9675fbbcb46b0c1f68b039a5627ebc5_cb4a8a449b4ada864625ee5a4355578a3aaf08ed>
 800d1e4:	eec8 7a00 	vdiv.f32	s15, s16, s0
 800d1e8:	2201      	movs	r2, #1
 800d1ea:	f8da 3244 	ldr.w	r3, [sl, #580]	@ 0x244
 800d1ee:	f88a 2240 	strb.w	r2, [sl, #576]	@ 0x240
 800d1f2:	9a0e      	ldr	r2, [sp, #56]	@ 0x38
 800d1f4:	4313      	orrs	r3, r2
 800d1f6:	f8ca 3244 	str.w	r3, [sl, #580]	@ 0x244
 800d1fa:	edca 7a04 	vstr	s15, [sl, #16]
 800d1fe:	b047      	add	sp, #284	@ 0x11c
 800d200:	ecbd 8b10 	vpop	{d8-d15}
 800d204:	e8bd 8ff0 	ldmia.w	sp!, {r4, r5, r6, r7, r8, r9, sl, fp, pc}
 800d208:	ed9f 0a3c 	vldr	s0, [pc, #240]	@ 800d2fc <DoStep_H96e4298bd9675fbbcb46b0c1f68b039a5627ebc5_cb4a8a449b4ada864625ee5a4355578a3aaf08ed+0x3eac>
 800d20c:	f7fc b9b7 	b.w	800957e <DoStep_H96e4298bd9675fbbcb46b0c1f68b039a5627ebc5_cb4a8a449b4ada864625ee5a4355578a3aaf08ed+0x12e>
 800d210:	ed9f 0a3a 	vldr	s0, [pc, #232]	@ 800d2fc <DoStep_H96e4298bd9675fbbcb46b0c1f68b039a5627ebc5_cb4a8a449b4ada864625ee5a4355578a3aaf08ed+0x3eac>
 800d214:	f7fc b99e 	b.w	8009554 <DoStep_H96e4298bd9675fbbcb46b0c1f68b039a5627ebc5_cb4a8a449b4ada864625ee5a4355578a3aaf08ed+0x104>
 800d218:	2200      	movs	r2, #0
 800d21a:	2300      	movs	r3, #0
 800d21c:	f7f3 f9b8 	bl	8000590 <__aeabi_dmul>
 800d220:	4602      	mov	r2, r0
 800d222:	460b      	mov	r3, r1
 800d224:	e9dd 0102 	ldrd	r0, r1, [sp, #8]
 800d228:	f7f2 fffa 	bl	8000220 <__aeabi_dsub>
 800d22c:	ee28 aa0a 	vmul.f32	s20, s16, s20
 800d230:	4632      	mov	r2, r6
 800d232:	463b      	mov	r3, r7
 800d234:	ee68 8aaa 	vmul.f32	s17, s17, s21
 800d238:	f7f3 f9aa 	bl	8000590 <__aeabi_dmul>
 800d23c:	ee7a 7a28 	vadd.f32	s15, s20, s17
 800d240:	4604      	mov	r4, r0
 800d242:	ee17 0a90 	vmov	r0, s15
 800d246:	460d      	mov	r5, r1
 800d248:	f7f3 f94a 	bl	80004e0 <__aeabi_f2d>
 800d24c:	ed9f 7b24 	vldr	d7, [pc, #144]	@ 800d2e0 <DoStep_H96e4298bd9675fbbcb46b0c1f68b039a5627ebc5_cb4a8a449b4ada864625ee5a4355578a3aaf08ed+0x3e90>
 800d250:	4606      	mov	r6, r0
 800d252:	ed8d 7b06 	vstr	d7, [sp, #24]
 800d256:	ed8d 7b02 	vstr	d7, [sp, #8]
 800d25a:	f101 4700 	add.w	r7, r1, #2147483648	@ 0x80000000
 800d25e:	f7fc bd4b 	b.w	8009cf8 <DoStep_H96e4298bd9675fbbcb46b0c1f68b039a5627ebc5_cb4a8a449b4ada864625ee5a4355578a3aaf08ed+0x8a8>
 800d262:	a321      	add	r3, pc, #132	@ (adr r3, 800d2e8 <DoStep_H96e4298bd9675fbbcb46b0c1f68b039a5627ebc5_cb4a8a449b4ada864625ee5a4355578a3aaf08ed+0x3e98>)
 800d264:	e9d3 2300 	ldrd	r2, r3, [r3]
 800d268:	ed9f 7b21 	vldr	d7, [pc, #132]	@ 800d2f0 <DoStep_H96e4298bd9675fbbcb46b0c1f68b039a5627ebc5_cb4a8a449b4ada864625ee5a4355578a3aaf08ed+0x3ea0>
 800d26c:	e9cd 2306 	strd	r2, r3, [sp, #24]
 800d270:	ed8d 7b02 	vstr	d7, [sp, #8]
 800d274:	f7fc bd52 	b.w	8009d1c <DoStep_H96e4298bd9675fbbcb46b0c1f68b039a5627ebc5_cb4a8a449b4ada864625ee5a4355578a3aaf08ed+0x8cc>
 800d278:	2200      	movs	r2, #0
 800d27a:	2300      	movs	r3, #0
 800d27c:	f7f3 f988 	bl	8000590 <__aeabi_dmul>
 800d280:	4622      	mov	r2, r4
 800d282:	462b      	mov	r3, r5
 800d284:	f7f3 f984 	bl	8000590 <__aeabi_dmul>
 800d288:	eeb0 0a68 	vmov.f32	s0, s17
 800d28c:	e9cd 010c 	strd	r0, r1, [sp, #48]	@ 0x30
 800d290:	f001 f8a0 	bl	800e3d4 <SPE_cos_H96e4298bd9675fbbcb46b0c1f68b039a5627ebc5_cb4a8a449b4ada864625ee5a4355578a3aaf08ed>
 800d294:	ee68 7a00 	vmul.f32	s15, s16, s0
 800d298:	2600      	movs	r6, #0
 800d29a:	ee17 0a90 	vmov	r0, s15
 800d29e:	f7f3 f91f 	bl	80004e0 <__aeabi_f2d>
 800d2a2:	f8da b1c0 	ldr.w	fp, [sl, #448]	@ 0x1c0
 800d2a6:	4680      	mov	r8, r0
 800d2a8:	4658      	mov	r0, fp
 800d2aa:	4689      	mov	r9, r1
 800d2ac:	f7f3 f918 	bl	80004e0 <__aeabi_f2d>
 800d2b0:	2700      	movs	r7, #0
 800d2b2:	e9dd 2302 	ldrd	r2, r3, [sp, #8]
 800d2b6:	4604      	mov	r4, r0
 800d2b8:	460d      	mov	r5, r1
 800d2ba:	f7fc be5f 	b.w	8009f7c <DoStep_H96e4298bd9675fbbcb46b0c1f68b039a5627ebc5_cb4a8a449b4ada864625ee5a4355578a3aaf08ed+0xb2c>
 800d2be:	4620      	mov	r0, r4
 800d2c0:	4629      	mov	r1, r5
 800d2c2:	2200      	movs	r2, #0
 800d2c4:	2300      	movs	r3, #0
 800d2c6:	f7f3 f963 	bl	8000590 <__aeabi_dmul>
 800d2ca:	2600      	movs	r6, #0
 800d2cc:	e9dd 2302 	ldrd	r2, r3, [sp, #8]
 800d2d0:	4604      	mov	r4, r0
 800d2d2:	460d      	mov	r5, r1
 800d2d4:	2700      	movs	r7, #0
 800d2d6:	f7fc bd9f 	b.w	8009e18 <DoStep_H96e4298bd9675fbbcb46b0c1f68b039a5627ebc5_cb4a8a449b4ada864625ee5a4355578a3aaf08ed+0x9c8>
 800d2da:	bf00      	nop
 800d2dc:	f3af 8000 	nop.w
	...
 800d2ec:	c0a15800 	.word	0xc0a15800
 800d2f0:	00000000 	.word	0x00000000
 800d2f4:	40a15800 	.word	0x40a15800
 800d2f8:	3ff00000 	.word	0x3ff00000
 800d2fc:	00000000 	.word	0x00000000
 800d300:	2200      	movs	r2, #0
 800d302:	2300      	movs	r3, #0
 800d304:	f7f3 f944 	bl	8000590 <__aeabi_dmul>
 800d308:	4622      	mov	r2, r4
 800d30a:	462b      	mov	r3, r5
 800d30c:	f7f3 f940 	bl	8000590 <__aeabi_dmul>
 800d310:	eeb0 0a68 	vmov.f32	s0, s17
 800d314:	4680      	mov	r8, r0
 800d316:	4689      	mov	r9, r1
 800d318:	f001 f85a 	bl	800e3d0 <SPE_sin_H96e4298bd9675fbbcb46b0c1f68b039a5627ebc5_cb4a8a449b4ada864625ee5a4355578a3aaf08ed>
 800d31c:	ee68 7a00 	vmul.f32	s15, s16, s0
 800d320:	ee17 0a90 	vmov	r0, s15
 800d324:	f7f3 f8dc 	bl	80004e0 <__aeabi_f2d>
 800d328:	f8da b1c0 	ldr.w	fp, [sl, #448]	@ 0x1c0
 800d32c:	4606      	mov	r6, r0
 800d32e:	4658      	mov	r0, fp
 800d330:	460f      	mov	r7, r1
 800d332:	f7f3 f8d5 	bl	80004e0 <__aeabi_f2d>
 800d336:	4604      	mov	r4, r0
 800d338:	460d      	mov	r5, r1
 800d33a:	2000      	movs	r0, #0
 800d33c:	2100      	movs	r1, #0
 800d33e:	f7fe bdde 	b.w	800befe <DoStep_H96e4298bd9675fbbcb46b0c1f68b039a5627ebc5_cb4a8a449b4ada864625ee5a4355578a3aaf08ed+0x2aae>
 800d342:	2200      	movs	r2, #0
 800d344:	2300      	movs	r3, #0
 800d346:	f7f3 f923 	bl	8000590 <__aeabi_dmul>
 800d34a:	4622      	mov	r2, r4
 800d34c:	462b      	mov	r3, r5
 800d34e:	f7f3 f91f 	bl	8000590 <__aeabi_dmul>
 800d352:	eeb0 0a68 	vmov.f32	s0, s17
 800d356:	4680      	mov	r8, r0
 800d358:	4689      	mov	r9, r1
 800d35a:	f001 f83b 	bl	800e3d4 <SPE_cos_H96e4298bd9675fbbcb46b0c1f68b039a5627ebc5_cb4a8a449b4ada864625ee5a4355578a3aaf08ed>
 800d35e:	ee68 7a00 	vmul.f32	s15, s16, s0
 800d362:	ee17 0a90 	vmov	r0, s15
 800d366:	f7f3 f8bb 	bl	80004e0 <__aeabi_f2d>
 800d36a:	f8da b1c0 	ldr.w	fp, [sl, #448]	@ 0x1c0
 800d36e:	4606      	mov	r6, r0
 800d370:	4658      	mov	r0, fp
 800d372:	460f      	mov	r7, r1
 800d374:	f7f3 f8b4 	bl	80004e0 <__aeabi_f2d>
 800d378:	4604      	mov	r4, r0
 800d37a:	460d      	mov	r5, r1
 800d37c:	2000      	movs	r0, #0
 800d37e:	2100      	movs	r1, #0
 800d380:	f7fe bd2c 	b.w	800bddc <DoStep_H96e4298bd9675fbbcb46b0c1f68b039a5627ebc5_cb4a8a449b4ada864625ee5a4355578a3aaf08ed+0x298c>
 800d384:	4630      	mov	r0, r6
 800d386:	4639      	mov	r1, r7
 800d388:	2200      	movs	r2, #0
 800d38a:	2300      	movs	r3, #0
 800d38c:	f7f3 f900 	bl	8000590 <__aeabi_dmul>
 800d390:	4602      	mov	r2, r0
 800d392:	460b      	mov	r3, r1
 800d394:	4620      	mov	r0, r4
 800d396:	4629      	mov	r1, r5
 800d398:	4614      	mov	r4, r2
 800d39a:	461d      	mov	r5, r3
 800d39c:	2200      	movs	r2, #0
 800d39e:	2300      	movs	r3, #0
 800d3a0:	f7f3 f8f6 	bl	8000590 <__aeabi_dmul>
 800d3a4:	4602      	mov	r2, r0
 800d3a6:	460b      	mov	r3, r1
 800d3a8:	4620      	mov	r0, r4
 800d3aa:	4629      	mov	r1, r5
 800d3ac:	f7f2 ff3a 	bl	8000224 <__adddf3>
 800d3b0:	eeb0 0a6a 	vmov.f32	s0, s21
 800d3b4:	4604      	mov	r4, r0
 800d3b6:	460d      	mov	r5, r1
 800d3b8:	f001 f80a 	bl	800e3d0 <SPE_sin_H96e4298bd9675fbbcb46b0c1f68b039a5627ebc5_cb4a8a449b4ada864625ee5a4355578a3aaf08ed>
 800d3bc:	ee6a 7a00 	vmul.f32	s15, s20, s0
 800d3c0:	ee17 0a90 	vmov	r0, s15
 800d3c4:	f7f3 f88c 	bl	80004e0 <__aeabi_f2d>
 800d3c8:	4622      	mov	r2, r4
 800d3ca:	462b      	mov	r3, r5
 800d3cc:	f7f3 f8e0 	bl	8000590 <__aeabi_dmul>
 800d3d0:	ed9a 8a70 	vldr	s16, [sl, #448]	@ 0x1c0
 800d3d4:	edda 7a44 	vldr	s15, [sl, #272]	@ 0x110
 800d3d8:	ee68 7a27 	vmul.f32	s15, s16, s15
 800d3dc:	4680      	mov	r8, r0
 800d3de:	ee17 0a90 	vmov	r0, s15
 800d3e2:	4689      	mov	r9, r1
 800d3e4:	f7f3 f87c 	bl	80004e0 <__aeabi_f2d>
 800d3e8:	2200      	movs	r2, #0
 800d3ea:	2300      	movs	r3, #0
 800d3ec:	f7f3 f8d0 	bl	8000590 <__aeabi_dmul>
 800d3f0:	edda 7a43 	vldr	s15, [sl, #268]	@ 0x10c
 800d3f4:	ee68 7a27 	vmul.f32	s15, s16, s15
 800d3f8:	4604      	mov	r4, r0
 800d3fa:	ee17 0a90 	vmov	r0, s15
 800d3fe:	460d      	mov	r5, r1
 800d400:	f7f3 f86e 	bl	80004e0 <__aeabi_f2d>
 800d404:	4606      	mov	r6, r0
 800d406:	460f      	mov	r7, r1
 800d408:	2000      	movs	r0, #0
 800d40a:	2100      	movs	r1, #0
 800d40c:	f7fe bc60 	b.w	800bcd0 <DoStep_H96e4298bd9675fbbcb46b0c1f68b039a5627ebc5_cb4a8a449b4ada864625ee5a4355578a3aaf08ed+0x2880>
 800d410:	2200      	movs	r2, #0
 800d412:	2300      	movs	r3, #0
 800d414:	f7f3 f8bc 	bl	8000590 <__aeabi_dmul>
 800d418:	4622      	mov	r2, r4
 800d41a:	462b      	mov	r3, r5
 800d41c:	f7f3 f8b8 	bl	8000590 <__aeabi_dmul>
 800d420:	eeb0 0a68 	vmov.f32	s0, s17
 800d424:	4680      	mov	r8, r0
 800d426:	4689      	mov	r9, r1
 800d428:	f000 ffd2 	bl	800e3d0 <SPE_sin_H96e4298bd9675fbbcb46b0c1f68b039a5627ebc5_cb4a8a449b4ada864625ee5a4355578a3aaf08ed>
 800d42c:	ee68 7a00 	vmul.f32	s15, s16, s0
 800d430:	ee17 0a90 	vmov	r0, s15
 800d434:	f7f3 f854 	bl	80004e0 <__aeabi_f2d>
 800d438:	f8da b1c0 	ldr.w	fp, [sl, #448]	@ 0x1c0
 800d43c:	4606      	mov	r6, r0
 800d43e:	4658      	mov	r0, fp
 800d440:	460f      	mov	r7, r1
 800d442:	f7f3 f84d 	bl	80004e0 <__aeabi_f2d>
 800d446:	4604      	mov	r4, r0
 800d448:	460d      	mov	r5, r1
 800d44a:	2000      	movs	r0, #0
 800d44c:	2100      	movs	r1, #0
 800d44e:	f7fe bb70 	b.w	800bb32 <DoStep_H96e4298bd9675fbbcb46b0c1f68b039a5627ebc5_cb4a8a449b4ada864625ee5a4355578a3aaf08ed+0x26e2>
 800d452:	2200      	movs	r2, #0
 800d454:	2300      	movs	r3, #0
 800d456:	f7f3 f89b 	bl	8000590 <__aeabi_dmul>
 800d45a:	4622      	mov	r2, r4
 800d45c:	462b      	mov	r3, r5
 800d45e:	f7f3 f897 	bl	8000590 <__aeabi_dmul>
 800d462:	eeb0 0a68 	vmov.f32	s0, s17
 800d466:	4680      	mov	r8, r0
 800d468:	4689      	mov	r9, r1
 800d46a:	f000 ffb3 	bl	800e3d4 <SPE_cos_H96e4298bd9675fbbcb46b0c1f68b039a5627ebc5_cb4a8a449b4ada864625ee5a4355578a3aaf08ed>
 800d46e:	ee68 7a00 	vmul.f32	s15, s16, s0
 800d472:	ee17 0a90 	vmov	r0, s15
 800d476:	f7f3 f833 	bl	80004e0 <__aeabi_f2d>
 800d47a:	f8da b1c0 	ldr.w	fp, [sl, #448]	@ 0x1c0
 800d47e:	4606      	mov	r6, r0
 800d480:	4658      	mov	r0, fp
 800d482:	460f      	mov	r7, r1
 800d484:	f7f3 f82c 	bl	80004e0 <__aeabi_f2d>
 800d488:	4604      	mov	r4, r0
 800d48a:	460d      	mov	r5, r1
 800d48c:	2000      	movs	r0, #0
 800d48e:	2100      	movs	r1, #0
 800d490:	f7fe babe 	b.w	800ba10 <DoStep_H96e4298bd9675fbbcb46b0c1f68b039a5627ebc5_cb4a8a449b4ada864625ee5a4355578a3aaf08ed+0x25c0>
 800d494:	2200      	movs	r2, #0
 800d496:	2300      	movs	r3, #0
 800d498:	f7f3 f87a 	bl	8000590 <__aeabi_dmul>
 800d49c:	4622      	mov	r2, r4
 800d49e:	462b      	mov	r3, r5
 800d4a0:	f7f3 f876 	bl	8000590 <__aeabi_dmul>
 800d4a4:	eeb0 0a48 	vmov.f32	s0, s16
 800d4a8:	4604      	mov	r4, r0
 800d4aa:	460d      	mov	r5, r1
 800d4ac:	f000 ff90 	bl	800e3d0 <SPE_sin_H96e4298bd9675fbbcb46b0c1f68b039a5627ebc5_cb4a8a449b4ada864625ee5a4355578a3aaf08ed>
 800d4b0:	eeb0 8a40 	vmov.f32	s16, s0
 800d4b4:	ed9a 0a70 	vldr	s0, [sl, #448]	@ 0x1c0
 800d4b8:	ee10 0a10 	vmov	r0, s0
 800d4bc:	ed8d 0a0a 	vstr	s0, [sp, #40]	@ 0x28
 800d4c0:	f7f3 f80e 	bl	80004e0 <__aeabi_f2d>
 800d4c4:	2200      	movs	r2, #0
 800d4c6:	2300      	movs	r3, #0
 800d4c8:	f7f3 f862 	bl	8000590 <__aeabi_dmul>
 800d4cc:	ee68 7a88 	vmul.f32	s15, s17, s16
 800d4d0:	4606      	mov	r6, r0
 800d4d2:	ee17 0a90 	vmov	r0, s15
 800d4d6:	460f      	mov	r7, r1
 800d4d8:	f7f3 f802 	bl	80004e0 <__aeabi_f2d>
 800d4dc:	4602      	mov	r2, r0
 800d4de:	460b      	mov	r3, r1
 800d4e0:	4630      	mov	r0, r6
 800d4e2:	4639      	mov	r1, r7
 800d4e4:	f7f3 f854 	bl	8000590 <__aeabi_dmul>
 800d4e8:	4622      	mov	r2, r4
 800d4ea:	462b      	mov	r3, r5
 800d4ec:	f7f2 fe9a 	bl	8000224 <__adddf3>
 800d4f0:	4604      	mov	r4, r0
 800d4f2:	f8da 0170 	ldr.w	r0, [sl, #368]	@ 0x170
 800d4f6:	460d      	mov	r5, r1
 800d4f8:	f7f2 fff2 	bl	80004e0 <__aeabi_f2d>
 800d4fc:	4602      	mov	r2, r0
 800d4fe:	460b      	mov	r3, r1
 800d500:	4620      	mov	r0, r4
 800d502:	4629      	mov	r1, r5
 800d504:	f7f3 f844 	bl	8000590 <__aeabi_dmul>
 800d508:	ed9d 0a0a 	vldr	s0, [sp, #40]	@ 0x28
 800d50c:	4604      	mov	r4, r0
 800d50e:	460d      	mov	r5, r1
 800d510:	f000 ff40 	bl	800e394 <SPE_ipowSquare_H96e4298bd9675fbbcb46b0c1f68b039a5627ebc5_cb4a8a449b4ada864625ee5a4355578a3aaf08ed>
 800d514:	ee10 0a10 	vmov	r0, s0
 800d518:	f7f2 ffe2 	bl	80004e0 <__aeabi_f2d>
 800d51c:	4602      	mov	r2, r0
 800d51e:	460b      	mov	r3, r1
 800d520:	4620      	mov	r0, r4
 800d522:	4629      	mov	r1, r5
 800d524:	f7f3 f95e 	bl	80007e4 <__aeabi_ddiv>
 800d528:	4642      	mov	r2, r8
 800d52a:	464b      	mov	r3, r9
 800d52c:	f7f2 fe7a 	bl	8000224 <__adddf3>
 800d530:	f7f3 fa40 	bl	80009b4 <__aeabi_d2f>
 800d534:	ee07 0a90 	vmov	s15, r0
 800d538:	ed9a 7a44 	vldr	s14, [sl, #272]	@ 0x110
 800d53c:	ed9a 8a70 	vldr	s16, [sl, #448]	@ 0x1c0
 800d540:	eef1 7a67 	vneg.f32	s15, s15
 800d544:	edcd 7a3f 	vstr	s15, [sp, #252]	@ 0xfc
 800d548:	ee68 7a07 	vmul.f32	s15, s16, s14
 800d54c:	2600      	movs	r6, #0
 800d54e:	ee17 0a90 	vmov	r0, s15
 800d552:	9640      	str	r6, [sp, #256]	@ 0x100
 800d554:	9641      	str	r6, [sp, #260]	@ 0x104
 800d556:	f7f2 ffc3 	bl	80004e0 <__aeabi_f2d>
 800d55a:	2200      	movs	r2, #0
 800d55c:	2300      	movs	r3, #0
 800d55e:	f7f3 f817 	bl	8000590 <__aeabi_dmul>
 800d562:	edda 7a43 	vldr	s15, [sl, #268]	@ 0x10c
 800d566:	ee68 7a27 	vmul.f32	s15, s16, s15
 800d56a:	4604      	mov	r4, r0
 800d56c:	ee17 0a90 	vmov	r0, s15
 800d570:	460d      	mov	r5, r1
 800d572:	f7f2 ffb5 	bl	80004e0 <__aeabi_f2d>
 800d576:	f04f 537e 	mov.w	r3, #1065353216	@ 0x3f800000
 800d57a:	9343      	str	r3, [sp, #268]	@ 0x10c
 800d57c:	2200      	movs	r2, #0
 800d57e:	2300      	movs	r3, #0
 800d580:	9642      	str	r6, [sp, #264]	@ 0x108
 800d582:	f7f3 f805 	bl	8000590 <__aeabi_dmul>
 800d586:	4602      	mov	r2, r0
 800d588:	460b      	mov	r3, r1
 800d58a:	4620      	mov	r0, r4
 800d58c:	4629      	mov	r1, r5
 800d58e:	f7f2 fe47 	bl	8000220 <__aeabi_dsub>
 800d592:	ed9a 0a84 	vldr	s0, [sl, #528]	@ 0x210
 800d596:	ed9a 8a12 	vldr	s16, [sl, #72]	@ 0x48
 800d59a:	4604      	mov	r4, r0
 800d59c:	460d      	mov	r5, r1
 800d59e:	f000 ff17 	bl	800e3d0 <SPE_sin_H96e4298bd9675fbbcb46b0c1f68b039a5627ebc5_cb4a8a449b4ada864625ee5a4355578a3aaf08ed>
 800d5a2:	ee68 7a00 	vmul.f32	s15, s16, s0
 800d5a6:	ee17 0a90 	vmov	r0, s15
 800d5aa:	f7f2 ff99 	bl	80004e0 <__aeabi_f2d>
 800d5ae:	4622      	mov	r2, r4
 800d5b0:	462b      	mov	r3, r5
 800d5b2:	f7f2 ffed 	bl	8000590 <__aeabi_dmul>
 800d5b6:	ed9a 8a70 	vldr	s16, [sl, #448]	@ 0x1c0
 800d5ba:	edda 7a43 	vldr	s15, [sl, #268]	@ 0x10c
 800d5be:	ee68 7a27 	vmul.f32	s15, s16, s15
 800d5c2:	4680      	mov	r8, r0
 800d5c4:	ee17 0a90 	vmov	r0, s15
 800d5c8:	4689      	mov	r9, r1
 800d5ca:	f7f2 ff89 	bl	80004e0 <__aeabi_f2d>
 800d5ce:	2200      	movs	r2, #0
 800d5d0:	2300      	movs	r3, #0
 800d5d2:	f7f2 ffdd 	bl	8000590 <__aeabi_dmul>
 800d5d6:	edda 7a44 	vldr	s15, [sl, #272]	@ 0x110
 800d5da:	ee68 7a27 	vmul.f32	s15, s16, s15
 800d5de:	4606      	mov	r6, r0
 800d5e0:	ee17 0a90 	vmov	r0, s15
 800d5e4:	460f      	mov	r7, r1
 800d5e6:	f7f2 ff7b 	bl	80004e0 <__aeabi_f2d>
 800d5ea:	4604      	mov	r4, r0
 800d5ec:	460d      	mov	r5, r1
 800d5ee:	2000      	movs	r0, #0
 800d5f0:	2100      	movs	r1, #0
 800d5f2:	f7fe b987 	b.w	800b904 <DoStep_H96e4298bd9675fbbcb46b0c1f68b039a5627ebc5_cb4a8a449b4ada864625ee5a4355578a3aaf08ed+0x24b4>
 800d5f6:	2200      	movs	r2, #0
 800d5f8:	2300      	movs	r3, #0
 800d5fa:	f7f2 ffc9 	bl	8000590 <__aeabi_dmul>
 800d5fe:	4622      	mov	r2, r4
 800d600:	462b      	mov	r3, r5
 800d602:	f7f2 ffc5 	bl	8000590 <__aeabi_dmul>
 800d606:	eeb0 0a68 	vmov.f32	s0, s17
 800d60a:	4680      	mov	r8, r0
 800d60c:	4689      	mov	r9, r1
 800d60e:	f000 fee1 	bl	800e3d4 <SPE_cos_H96e4298bd9675fbbcb46b0c1f68b039a5627ebc5_cb4a8a449b4ada864625ee5a4355578a3aaf08ed>
 800d612:	ee68 7a00 	vmul.f32	s15, s16, s0
 800d616:	ee17 0a90 	vmov	r0, s15
 800d61a:	f7f2 ff61 	bl	80004e0 <__aeabi_f2d>
 800d61e:	f8da b1c0 	ldr.w	fp, [sl, #448]	@ 0x1c0
 800d622:	4606      	mov	r6, r0
 800d624:	4658      	mov	r0, fp
 800d626:	460f      	mov	r7, r1
 800d628:	f7f2 ff5a 	bl	80004e0 <__aeabi_f2d>
 800d62c:	4604      	mov	r4, r0
 800d62e:	460d      	mov	r5, r1
 800d630:	2000      	movs	r0, #0
 800d632:	2100      	movs	r1, #0
 800d634:	f7fd bfea 	b.w	800b60c <DoStep_H96e4298bd9675fbbcb46b0c1f68b039a5627ebc5_cb4a8a449b4ada864625ee5a4355578a3aaf08ed+0x21bc>
 800d638:	4630      	mov	r0, r6
 800d63a:	4639      	mov	r1, r7
 800d63c:	2200      	movs	r2, #0
 800d63e:	2300      	movs	r3, #0
 800d640:	f7f2 ffa6 	bl	8000590 <__aeabi_dmul>
 800d644:	4602      	mov	r2, r0
 800d646:	460b      	mov	r3, r1
 800d648:	4620      	mov	r0, r4
 800d64a:	4629      	mov	r1, r5
 800d64c:	4614      	mov	r4, r2
 800d64e:	461d      	mov	r5, r3
 800d650:	2200      	movs	r2, #0
 800d652:	2300      	movs	r3, #0
 800d654:	f7f2 ff9c 	bl	8000590 <__aeabi_dmul>
 800d658:	4602      	mov	r2, r0
 800d65a:	460b      	mov	r3, r1
 800d65c:	4620      	mov	r0, r4
 800d65e:	4629      	mov	r1, r5
 800d660:	f7f2 fde0 	bl	8000224 <__adddf3>
 800d664:	eeb0 0a6a 	vmov.f32	s0, s21
 800d668:	4604      	mov	r4, r0
 800d66a:	460d      	mov	r5, r1
 800d66c:	f000 feb0 	bl	800e3d0 <SPE_sin_H96e4298bd9675fbbcb46b0c1f68b039a5627ebc5_cb4a8a449b4ada864625ee5a4355578a3aaf08ed>
 800d670:	ee6a 7a00 	vmul.f32	s15, s20, s0
 800d674:	ee17 0a90 	vmov	r0, s15
 800d678:	f7f2 ff32 	bl	80004e0 <__aeabi_f2d>
 800d67c:	4622      	mov	r2, r4
 800d67e:	462b      	mov	r3, r5
 800d680:	f7f2 ff86 	bl	8000590 <__aeabi_dmul>
 800d684:	ed9a 8a70 	vldr	s16, [sl, #448]	@ 0x1c0
 800d688:	edda 7a44 	vldr	s15, [sl, #272]	@ 0x110
 800d68c:	ee68 7a27 	vmul.f32	s15, s16, s15
 800d690:	4680      	mov	r8, r0
 800d692:	ee17 0a90 	vmov	r0, s15
 800d696:	4689      	mov	r9, r1
 800d698:	f7f2 ff22 	bl	80004e0 <__aeabi_f2d>
 800d69c:	2200      	movs	r2, #0
 800d69e:	2300      	movs	r3, #0
 800d6a0:	f7f2 ff76 	bl	8000590 <__aeabi_dmul>
 800d6a4:	edda 7a43 	vldr	s15, [sl, #268]	@ 0x10c
 800d6a8:	ee68 7a27 	vmul.f32	s15, s16, s15
 800d6ac:	4604      	mov	r4, r0
 800d6ae:	ee17 0a90 	vmov	r0, s15
 800d6b2:	460d      	mov	r5, r1
 800d6b4:	f7f2 ff14 	bl	80004e0 <__aeabi_f2d>
 800d6b8:	4606      	mov	r6, r0
 800d6ba:	460f      	mov	r7, r1
 800d6bc:	2000      	movs	r0, #0
 800d6be:	2100      	movs	r1, #0
 800d6c0:	f7fd bf1c 	b.w	800b4fc <DoStep_H96e4298bd9675fbbcb46b0c1f68b039a5627ebc5_cb4a8a449b4ada864625ee5a4355578a3aaf08ed+0x20ac>
 800d6c4:	eeb0 0a48 	vmov.f32	s0, s16
 800d6c8:	f000 fe82 	bl	800e3d0 <SPE_sin_H96e4298bd9675fbbcb46b0c1f68b039a5627ebc5_cb4a8a449b4ada864625ee5a4355578a3aaf08ed>
 800d6cc:	f8da 01c0 	ldr.w	r0, [sl, #448]	@ 0x1c0
 800d6d0:	eeb0 8a40 	vmov.f32	s16, s0
 800d6d4:	f7f2 ff04 	bl	80004e0 <__aeabi_f2d>
 800d6d8:	2200      	movs	r2, #0
 800d6da:	2300      	movs	r3, #0
 800d6dc:	f7f2 ff58 	bl	8000590 <__aeabi_dmul>
 800d6e0:	ee68 7a88 	vmul.f32	s15, s17, s16
 800d6e4:	4604      	mov	r4, r0
 800d6e6:	ee17 0a90 	vmov	r0, s15
 800d6ea:	460d      	mov	r5, r1
 800d6ec:	f7f2 fef8 	bl	80004e0 <__aeabi_f2d>
 800d6f0:	4602      	mov	r2, r0
 800d6f2:	460b      	mov	r3, r1
 800d6f4:	4620      	mov	r0, r4
 800d6f6:	4629      	mov	r1, r5
 800d6f8:	f7f2 ff4a 	bl	8000590 <__aeabi_dmul>
 800d6fc:	ed9a 0a84 	vldr	s0, [sl, #528]	@ 0x210
 800d700:	edda 8a19 	vldr	s17, [sl, #100]	@ 0x64
 800d704:	4604      	mov	r4, r0
 800d706:	460d      	mov	r5, r1
 800d708:	f000 fe64 	bl	800e3d4 <SPE_cos_H96e4298bd9675fbbcb46b0c1f68b039a5627ebc5_cb4a8a449b4ada864625ee5a4355578a3aaf08ed>
 800d70c:	f8da 01c0 	ldr.w	r0, [sl, #448]	@ 0x1c0
 800d710:	eeb0 8a40 	vmov.f32	s16, s0
 800d714:	f7f2 fee4 	bl	80004e0 <__aeabi_f2d>
 800d718:	2200      	movs	r2, #0
 800d71a:	2300      	movs	r3, #0
 800d71c:	f7f2 ff38 	bl	8000590 <__aeabi_dmul>
 800d720:	ee68 7a28 	vmul.f32	s15, s16, s17
 800d724:	4606      	mov	r6, r0
 800d726:	ee17 0a90 	vmov	r0, s15
 800d72a:	460f      	mov	r7, r1
 800d72c:	f7f2 fed8 	bl	80004e0 <__aeabi_f2d>
 800d730:	4602      	mov	r2, r0
 800d732:	460b      	mov	r3, r1
 800d734:	4630      	mov	r0, r6
 800d736:	4639      	mov	r1, r7
 800d738:	f7f2 ff2a 	bl	8000590 <__aeabi_dmul>
 800d73c:	4602      	mov	r2, r0
 800d73e:	460b      	mov	r3, r1
 800d740:	4620      	mov	r0, r4
 800d742:	4629      	mov	r1, r5
 800d744:	f7f2 fd6c 	bl	8000220 <__aeabi_dsub>
 800d748:	4604      	mov	r4, r0
 800d74a:	f8da 021c 	ldr.w	r0, [sl, #540]	@ 0x21c
 800d74e:	460d      	mov	r5, r1
 800d750:	f7f2 fec6 	bl	80004e0 <__aeabi_f2d>
 800d754:	4602      	mov	r2, r0
 800d756:	460b      	mov	r3, r1
 800d758:	4620      	mov	r0, r4
 800d75a:	4629      	mov	r1, r5
 800d75c:	f7f2 ff18 	bl	8000590 <__aeabi_dmul>
 800d760:	ed9a 0a84 	vldr	s0, [sl, #528]	@ 0x210
 800d764:	edda 8a19 	vldr	s17, [sl, #100]	@ 0x64
 800d768:	4604      	mov	r4, r0
 800d76a:	460d      	mov	r5, r1
 800d76c:	f000 fe32 	bl	800e3d4 <SPE_cos_H96e4298bd9675fbbcb46b0c1f68b039a5627ebc5_cb4a8a449b4ada864625ee5a4355578a3aaf08ed>
 800d770:	f8da 01c0 	ldr.w	r0, [sl, #448]	@ 0x1c0
 800d774:	eeb0 8a40 	vmov.f32	s16, s0
 800d778:	f7f2 feb2 	bl	80004e0 <__aeabi_f2d>
 800d77c:	2200      	movs	r2, #0
 800d77e:	2300      	movs	r3, #0
 800d780:	f7f2 ff06 	bl	8000590 <__aeabi_dmul>
 800d784:	ee68 7a28 	vmul.f32	s15, s16, s17
 800d788:	4606      	mov	r6, r0
 800d78a:	ee17 0a90 	vmov	r0, s15
 800d78e:	460f      	mov	r7, r1
 800d790:	f7f2 fea6 	bl	80004e0 <__aeabi_f2d>
 800d794:	4602      	mov	r2, r0
 800d796:	460b      	mov	r3, r1
 800d798:	4630      	mov	r0, r6
 800d79a:	4639      	mov	r1, r7
 800d79c:	f7f2 fef8 	bl	8000590 <__aeabi_dmul>
 800d7a0:	ed9a 0a84 	vldr	s0, [sl, #528]	@ 0x210
 800d7a4:	ed9a 8a19 	vldr	s16, [sl, #100]	@ 0x64
 800d7a8:	4606      	mov	r6, r0
 800d7aa:	460f      	mov	r7, r1
 800d7ac:	f000 fe10 	bl	800e3d0 <SPE_sin_H96e4298bd9675fbbcb46b0c1f68b039a5627ebc5_cb4a8a449b4ada864625ee5a4355578a3aaf08ed>
 800d7b0:	ee68 7a00 	vmul.f32	s15, s16, s0
 800d7b4:	f8da b1c0 	ldr.w	fp, [sl, #448]	@ 0x1c0
 800d7b8:	ee17 0a90 	vmov	r0, s15
 800d7bc:	f7f2 fe90 	bl	80004e0 <__aeabi_f2d>
 800d7c0:	4680      	mov	r8, r0
 800d7c2:	4658      	mov	r0, fp
 800d7c4:	4689      	mov	r9, r1
 800d7c6:	f7f2 fe8b 	bl	80004e0 <__aeabi_f2d>
 800d7ca:	2200      	movs	r2, #0
 800d7cc:	2300      	movs	r3, #0
 800d7ce:	f7f2 fedf 	bl	8000590 <__aeabi_dmul>
 800d7d2:	4602      	mov	r2, r0
 800d7d4:	460b      	mov	r3, r1
 800d7d6:	4640      	mov	r0, r8
 800d7d8:	4649      	mov	r1, r9
 800d7da:	f7f2 fed9 	bl	8000590 <__aeabi_dmul>
 800d7de:	4632      	mov	r2, r6
 800d7e0:	463b      	mov	r3, r7
 800d7e2:	f7f2 fd1f 	bl	8000224 <__adddf3>
 800d7e6:	4606      	mov	r6, r0
 800d7e8:	f8da 0220 	ldr.w	r0, [sl, #544]	@ 0x220
 800d7ec:	460f      	mov	r7, r1
 800d7ee:	f7f2 fe77 	bl	80004e0 <__aeabi_f2d>
 800d7f2:	4602      	mov	r2, r0
 800d7f4:	460b      	mov	r3, r1
 800d7f6:	4630      	mov	r0, r6
 800d7f8:	4639      	mov	r1, r7
 800d7fa:	f7f2 fec9 	bl	8000590 <__aeabi_dmul>
 800d7fe:	4622      	mov	r2, r4
 800d800:	462b      	mov	r3, r5
 800d802:	f7f2 fd0f 	bl	8000224 <__adddf3>
 800d806:	ee00 ba10 	vmov	s0, fp
 800d80a:	4604      	mov	r4, r0
 800d80c:	460d      	mov	r5, r1
 800d80e:	f000 fdc1 	bl	800e394 <SPE_ipowSquare_H96e4298bd9675fbbcb46b0c1f68b039a5627ebc5_cb4a8a449b4ada864625ee5a4355578a3aaf08ed>
 800d812:	ee10 0a10 	vmov	r0, s0
 800d816:	f7f2 fe63 	bl	80004e0 <__aeabi_f2d>
 800d81a:	4602      	mov	r2, r0
 800d81c:	460b      	mov	r3, r1
 800d81e:	4620      	mov	r0, r4
 800d820:	4629      	mov	r1, r5
 800d822:	f7f2 ffdf 	bl	80007e4 <__aeabi_ddiv>
 800d826:	2200      	movs	r2, #0
 800d828:	2300      	movs	r3, #0
 800d82a:	f7f2 fcfb 	bl	8000224 <__adddf3>
 800d82e:	f7f3 f8c1 	bl	80009b4 <__aeabi_d2f>
 800d832:	ee07 0a90 	vmov	s15, r0
 800d836:	ed9a 0a84 	vldr	s0, [sl, #528]	@ 0x210
 800d83a:	edda 8a19 	vldr	s17, [sl, #100]	@ 0x64
 800d83e:	eef1 7a67 	vneg.f32	s15, s15
 800d842:	edcd 7a14 	vstr	s15, [sp, #80]	@ 0x50
 800d846:	f000 fdc3 	bl	800e3d0 <SPE_sin_H96e4298bd9675fbbcb46b0c1f68b039a5627ebc5_cb4a8a449b4ada864625ee5a4355578a3aaf08ed>
 800d84a:	f8da 01c0 	ldr.w	r0, [sl, #448]	@ 0x1c0
 800d84e:	eeb0 8a40 	vmov.f32	s16, s0
 800d852:	f7f2 fe45 	bl	80004e0 <__aeabi_f2d>
 800d856:	2200      	movs	r2, #0
 800d858:	2300      	movs	r3, #0
 800d85a:	f7f2 fe99 	bl	8000590 <__aeabi_dmul>
 800d85e:	ee68 7a88 	vmul.f32	s15, s17, s16
 800d862:	4604      	mov	r4, r0
 800d864:	ee17 0a90 	vmov	r0, s15
 800d868:	460d      	mov	r5, r1
 800d86a:	f7f2 fe39 	bl	80004e0 <__aeabi_f2d>
 800d86e:	4602      	mov	r2, r0
 800d870:	460b      	mov	r3, r1
 800d872:	4620      	mov	r0, r4
 800d874:	4629      	mov	r1, r5
 800d876:	f7f2 fe8b 	bl	8000590 <__aeabi_dmul>
 800d87a:	ed9a 0a84 	vldr	s0, [sl, #528]	@ 0x210
 800d87e:	edda 8a19 	vldr	s17, [sl, #100]	@ 0x64
 800d882:	4604      	mov	r4, r0
 800d884:	460d      	mov	r5, r1
 800d886:	f000 fda5 	bl	800e3d4 <SPE_cos_H96e4298bd9675fbbcb46b0c1f68b039a5627ebc5_cb4a8a449b4ada864625ee5a4355578a3aaf08ed>
 800d88a:	f8da 01c0 	ldr.w	r0, [sl, #448]	@ 0x1c0
 800d88e:	eeb0 8a40 	vmov.f32	s16, s0
 800d892:	f7f2 fe25 	bl	80004e0 <__aeabi_f2d>
 800d896:	2200      	movs	r2, #0
 800d898:	2300      	movs	r3, #0
 800d89a:	f7f2 fe79 	bl	8000590 <__aeabi_dmul>
 800d89e:	ee68 7a88 	vmul.f32	s15, s17, s16
 800d8a2:	4606      	mov	r6, r0
 800d8a4:	ee17 0a90 	vmov	r0, s15
 800d8a8:	460f      	mov	r7, r1
 800d8aa:	f7f2 fe19 	bl	80004e0 <__aeabi_f2d>
 800d8ae:	4602      	mov	r2, r0
 800d8b0:	460b      	mov	r3, r1
 800d8b2:	4630      	mov	r0, r6
 800d8b4:	4639      	mov	r1, r7
 800d8b6:	f7f2 fe6b 	bl	8000590 <__aeabi_dmul>
 800d8ba:	4602      	mov	r2, r0
 800d8bc:	460b      	mov	r3, r1
 800d8be:	4620      	mov	r0, r4
 800d8c0:	4629      	mov	r1, r5
 800d8c2:	f7f2 fcad 	bl	8000220 <__aeabi_dsub>
 800d8c6:	4604      	mov	r4, r0
 800d8c8:	f8da 021c 	ldr.w	r0, [sl, #540]	@ 0x21c
 800d8cc:	460d      	mov	r5, r1
 800d8ce:	f7f2 fe07 	bl	80004e0 <__aeabi_f2d>
 800d8d2:	4602      	mov	r2, r0
 800d8d4:	460b      	mov	r3, r1
 800d8d6:	4620      	mov	r0, r4
 800d8d8:	4629      	mov	r1, r5
 800d8da:	f7f2 fe59 	bl	8000590 <__aeabi_dmul>
 800d8de:	ed9a 0a84 	vldr	s0, [sl, #528]	@ 0x210
 800d8e2:	edda 8a19 	vldr	s17, [sl, #100]	@ 0x64
 800d8e6:	e9cd 0102 	strd	r0, r1, [sp, #8]
 800d8ea:	f000 fd73 	bl	800e3d4 <SPE_cos_H96e4298bd9675fbbcb46b0c1f68b039a5627ebc5_cb4a8a449b4ada864625ee5a4355578a3aaf08ed>
 800d8ee:	f8da 01c0 	ldr.w	r0, [sl, #448]	@ 0x1c0
 800d8f2:	eeb0 8a40 	vmov.f32	s16, s0
 800d8f6:	f7f2 fdf3 	bl	80004e0 <__aeabi_f2d>
 800d8fa:	2200      	movs	r2, #0
 800d8fc:	2300      	movs	r3, #0
 800d8fe:	f7f2 fe47 	bl	8000590 <__aeabi_dmul>
 800d902:	ee68 7a28 	vmul.f32	s15, s16, s17
 800d906:	4604      	mov	r4, r0
 800d908:	ee17 0a90 	vmov	r0, s15
 800d90c:	460d      	mov	r5, r1
 800d90e:	f7f2 fde7 	bl	80004e0 <__aeabi_f2d>
 800d912:	4602      	mov	r2, r0
 800d914:	460b      	mov	r3, r1
 800d916:	4620      	mov	r0, r4
 800d918:	4629      	mov	r1, r5
 800d91a:	f7f2 fe39 	bl	8000590 <__aeabi_dmul>
 800d91e:	ed9a 0a84 	vldr	s0, [sl, #528]	@ 0x210
 800d922:	ed9a 8a19 	vldr	s16, [sl, #100]	@ 0x64
 800d926:	e9cd 0104 	strd	r0, r1, [sp, #16]
 800d92a:	f000 fd51 	bl	800e3d0 <SPE_sin_H96e4298bd9675fbbcb46b0c1f68b039a5627ebc5_cb4a8a449b4ada864625ee5a4355578a3aaf08ed>
 800d92e:	ee60 7a08 	vmul.f32	s15, s0, s16
 800d932:	f04f 0800 	mov.w	r8, #0
 800d936:	ee17 0a90 	vmov	r0, s15
 800d93a:	f7f2 fdd1 	bl	80004e0 <__aeabi_f2d>
 800d93e:	f8da b1c0 	ldr.w	fp, [sl, #448]	@ 0x1c0
 800d942:	4606      	mov	r6, r0
 800d944:	4658      	mov	r0, fp
 800d946:	460f      	mov	r7, r1
 800d948:	f7f2 fdca 	bl	80004e0 <__aeabi_f2d>
 800d94c:	f04f 0900 	mov.w	r9, #0
 800d950:	4604      	mov	r4, r0
 800d952:	460d      	mov	r5, r1
 800d954:	4640      	mov	r0, r8
 800d956:	4649      	mov	r1, r9
 800d958:	f7ff b993 	b.w	800cc82 <DoStep_H96e4298bd9675fbbcb46b0c1f68b039a5627ebc5_cb4a8a449b4ada864625ee5a4355578a3aaf08ed+0x3832>
 800d95c:	eeb0 0a48 	vmov.f32	s0, s16
 800d960:	f000 fd36 	bl	800e3d0 <SPE_sin_H96e4298bd9675fbbcb46b0c1f68b039a5627ebc5_cb4a8a449b4ada864625ee5a4355578a3aaf08ed>
 800d964:	f8da 01c0 	ldr.w	r0, [sl, #448]	@ 0x1c0
 800d968:	eeb0 8a40 	vmov.f32	s16, s0
 800d96c:	f7f2 fdb8 	bl	80004e0 <__aeabi_f2d>
 800d970:	2200      	movs	r2, #0
 800d972:	2300      	movs	r3, #0
 800d974:	f7f2 fe0c 	bl	8000590 <__aeabi_dmul>
 800d978:	ee68 7a88 	vmul.f32	s15, s17, s16
 800d97c:	4604      	mov	r4, r0
 800d97e:	ee17 0a90 	vmov	r0, s15
 800d982:	460d      	mov	r5, r1
 800d984:	f7f2 fdac 	bl	80004e0 <__aeabi_f2d>
 800d988:	4602      	mov	r2, r0
 800d98a:	460b      	mov	r3, r1
 800d98c:	4620      	mov	r0, r4
 800d98e:	4629      	mov	r1, r5
 800d990:	f7f2 fdfe 	bl	8000590 <__aeabi_dmul>
 800d994:	ed9a 0a84 	vldr	s0, [sl, #528]	@ 0x210
 800d998:	edda 8a19 	vldr	s17, [sl, #100]	@ 0x64
 800d99c:	4604      	mov	r4, r0
 800d99e:	460d      	mov	r5, r1
 800d9a0:	f000 fd18 	bl	800e3d4 <SPE_cos_H96e4298bd9675fbbcb46b0c1f68b039a5627ebc5_cb4a8a449b4ada864625ee5a4355578a3aaf08ed>
 800d9a4:	e9dd 2302 	ldrd	r2, r3, [sp, #8]
 800d9a8:	2000      	movs	r0, #0
 800d9aa:	2100      	movs	r1, #0
 800d9ac:	eeb0 8a40 	vmov.f32	s16, s0
 800d9b0:	f7f2 fc36 	bl	8000220 <__aeabi_dsub>
 800d9b4:	4680      	mov	r8, r0
 800d9b6:	4689      	mov	r9, r1
 800d9b8:	f8da 01c0 	ldr.w	r0, [sl, #448]	@ 0x1c0
 800d9bc:	f7f2 fd90 	bl	80004e0 <__aeabi_f2d>
 800d9c0:	4642      	mov	r2, r8
 800d9c2:	464b      	mov	r3, r9
 800d9c4:	f7f2 fde4 	bl	8000590 <__aeabi_dmul>
 800d9c8:	ee68 7a88 	vmul.f32	s15, s17, s16
 800d9cc:	4606      	mov	r6, r0
 800d9ce:	ee17 0a90 	vmov	r0, s15
 800d9d2:	460f      	mov	r7, r1
 800d9d4:	f7f2 fd84 	bl	80004e0 <__aeabi_f2d>
 800d9d8:	4602      	mov	r2, r0
 800d9da:	460b      	mov	r3, r1
 800d9dc:	4630      	mov	r0, r6
 800d9de:	4639      	mov	r1, r7
 800d9e0:	f7f2 fdd6 	bl	8000590 <__aeabi_dmul>
 800d9e4:	4602      	mov	r2, r0
 800d9e6:	460b      	mov	r3, r1
 800d9e8:	4620      	mov	r0, r4
 800d9ea:	4629      	mov	r1, r5
 800d9ec:	f7f2 fc18 	bl	8000220 <__aeabi_dsub>
 800d9f0:	4604      	mov	r4, r0
 800d9f2:	f8da 021c 	ldr.w	r0, [sl, #540]	@ 0x21c
 800d9f6:	460d      	mov	r5, r1
 800d9f8:	f7f2 fd72 	bl	80004e0 <__aeabi_f2d>
 800d9fc:	4602      	mov	r2, r0
 800d9fe:	460b      	mov	r3, r1
 800da00:	4620      	mov	r0, r4
 800da02:	4629      	mov	r1, r5
 800da04:	f7f2 fdc4 	bl	8000590 <__aeabi_dmul>
 800da08:	ed9a 0a84 	vldr	s0, [sl, #528]	@ 0x210
 800da0c:	edda 8a19 	vldr	s17, [sl, #100]	@ 0x64
 800da10:	e9cd 0102 	strd	r0, r1, [sp, #8]
 800da14:	f000 fcde 	bl	800e3d4 <SPE_cos_H96e4298bd9675fbbcb46b0c1f68b039a5627ebc5_cb4a8a449b4ada864625ee5a4355578a3aaf08ed>
 800da18:	f8da 01c0 	ldr.w	r0, [sl, #448]	@ 0x1c0
 800da1c:	eeb0 8a40 	vmov.f32	s16, s0
 800da20:	f7f2 fd5e 	bl	80004e0 <__aeabi_f2d>
 800da24:	2200      	movs	r2, #0
 800da26:	2300      	movs	r3, #0
 800da28:	f7f2 fdb2 	bl	8000590 <__aeabi_dmul>
 800da2c:	ee68 7a88 	vmul.f32	s15, s17, s16
 800da30:	4604      	mov	r4, r0
 800da32:	ee17 0a90 	vmov	r0, s15
 800da36:	460d      	mov	r5, r1
 800da38:	f7f2 fd52 	bl	80004e0 <__aeabi_f2d>
 800da3c:	4602      	mov	r2, r0
 800da3e:	460b      	mov	r3, r1
 800da40:	4620      	mov	r0, r4
 800da42:	4629      	mov	r1, r5
 800da44:	f7f2 fda4 	bl	8000590 <__aeabi_dmul>
 800da48:	ed9a 0a84 	vldr	s0, [sl, #528]	@ 0x210
 800da4c:	ed9a 8a19 	vldr	s16, [sl, #100]	@ 0x64
 800da50:	4606      	mov	r6, r0
 800da52:	460f      	mov	r7, r1
 800da54:	f000 fcbc 	bl	800e3d0 <SPE_sin_H96e4298bd9675fbbcb46b0c1f68b039a5627ebc5_cb4a8a449b4ada864625ee5a4355578a3aaf08ed>
 800da58:	ee60 7a08 	vmul.f32	s15, s0, s16
 800da5c:	f8da b1c0 	ldr.w	fp, [sl, #448]	@ 0x1c0
 800da60:	ee17 0a90 	vmov	r0, s15
 800da64:	f7f2 fd3c 	bl	80004e0 <__aeabi_f2d>
 800da68:	4604      	mov	r4, r0
 800da6a:	4658      	mov	r0, fp
 800da6c:	460d      	mov	r5, r1
 800da6e:	f7f2 fd37 	bl	80004e0 <__aeabi_f2d>
 800da72:	4642      	mov	r2, r8
 800da74:	464b      	mov	r3, r9
 800da76:	f7f2 fd8b 	bl	8000590 <__aeabi_dmul>
 800da7a:	4602      	mov	r2, r0
 800da7c:	460b      	mov	r3, r1
 800da7e:	4620      	mov	r0, r4
 800da80:	4629      	mov	r1, r5
 800da82:	f7f2 fd85 	bl	8000590 <__aeabi_dmul>
 800da86:	4632      	mov	r2, r6
 800da88:	463b      	mov	r3, r7
 800da8a:	f7f2 fbcb 	bl	8000224 <__adddf3>
 800da8e:	4604      	mov	r4, r0
 800da90:	f8da 0220 	ldr.w	r0, [sl, #544]	@ 0x220
 800da94:	460d      	mov	r5, r1
 800da96:	f7f2 fd23 	bl	80004e0 <__aeabi_f2d>
 800da9a:	4602      	mov	r2, r0
 800da9c:	460b      	mov	r3, r1
 800da9e:	4620      	mov	r0, r4
 800daa0:	4629      	mov	r1, r5
 800daa2:	f7f2 fd75 	bl	8000590 <__aeabi_dmul>
 800daa6:	e9dd 2302 	ldrd	r2, r3, [sp, #8]
 800daaa:	f7f2 fbbb 	bl	8000224 <__adddf3>
 800daae:	ee00 ba10 	vmov	s0, fp
 800dab2:	4604      	mov	r4, r0
 800dab4:	460d      	mov	r5, r1
 800dab6:	f000 fc6d 	bl	800e394 <SPE_ipowSquare_H96e4298bd9675fbbcb46b0c1f68b039a5627ebc5_cb4a8a449b4ada864625ee5a4355578a3aaf08ed>
 800daba:	ee19 0a10 	vmov	r0, s18
 800dabe:	ee10 6a10 	vmov	r6, s0
 800dac2:	f7f2 fd0d 	bl	80004e0 <__aeabi_f2d>
 800dac6:	4680      	mov	r8, r0
 800dac8:	ee19 0a90 	vmov	r0, s19
 800dacc:	4689      	mov	r9, r1
 800dace:	f7f2 fd07 	bl	80004e0 <__aeabi_f2d>
 800dad2:	4602      	mov	r2, r0
 800dad4:	4630      	mov	r0, r6
 800dad6:	460f      	mov	r7, r1
 800dad8:	4616      	mov	r6, r2
 800dada:	f7f2 fd01 	bl	80004e0 <__aeabi_f2d>
 800dade:	4602      	mov	r2, r0
 800dae0:	460b      	mov	r3, r1
 800dae2:	4620      	mov	r0, r4
 800dae4:	4629      	mov	r1, r5
 800dae6:	f7f2 fe7d 	bl	80007e4 <__aeabi_ddiv>
 800daea:	4642      	mov	r2, r8
 800daec:	464b      	mov	r3, r9
 800daee:	e9cd 8902 	strd	r8, r9, [sp, #8]
 800daf2:	f7f2 fb95 	bl	8000220 <__aeabi_dsub>
 800daf6:	2200      	movs	r2, #0
 800daf8:	4604      	mov	r4, r0
 800dafa:	460d      	mov	r5, r1
 800dafc:	2300      	movs	r3, #0
 800dafe:	4630      	mov	r0, r6
 800db00:	4639      	mov	r1, r7
 800db02:	f7f2 fd45 	bl	8000590 <__aeabi_dmul>
 800db06:	4602      	mov	r2, r0
 800db08:	460b      	mov	r3, r1
 800db0a:	4620      	mov	r0, r4
 800db0c:	4629      	mov	r1, r5
 800db0e:	f7f2 fb87 	bl	8000220 <__aeabi_dsub>
 800db12:	2200      	movs	r2, #0
 800db14:	2300      	movs	r3, #0
 800db16:	f7f2 fb85 	bl	8000224 <__adddf3>
 800db1a:	f7f2 ff4b 	bl	80009b4 <__aeabi_d2f>
 800db1e:	ee07 0a90 	vmov	s15, r0
 800db22:	ed9a 0a84 	vldr	s0, [sl, #528]	@ 0x210
 800db26:	edda 8a19 	vldr	s17, [sl, #100]	@ 0x64
 800db2a:	eef1 7a67 	vneg.f32	s15, s15
 800db2e:	edcd 7a12 	vstr	s15, [sp, #72]	@ 0x48
 800db32:	f000 fc4d 	bl	800e3d0 <SPE_sin_H96e4298bd9675fbbcb46b0c1f68b039a5627ebc5_cb4a8a449b4ada864625ee5a4355578a3aaf08ed>
 800db36:	e9dd 2306 	ldrd	r2, r3, [sp, #24]
 800db3a:	2000      	movs	r0, #0
 800db3c:	2100      	movs	r1, #0
 800db3e:	eeb0 8a40 	vmov.f32	s16, s0
 800db42:	f7f2 fb6d 	bl	8000220 <__aeabi_dsub>
 800db46:	4680      	mov	r8, r0
 800db48:	4689      	mov	r9, r1
 800db4a:	f8da 01c0 	ldr.w	r0, [sl, #448]	@ 0x1c0
 800db4e:	f7f2 fcc7 	bl	80004e0 <__aeabi_f2d>
 800db52:	4642      	mov	r2, r8
 800db54:	464b      	mov	r3, r9
 800db56:	f7f2 fd1b 	bl	8000590 <__aeabi_dmul>
 800db5a:	ee68 7a88 	vmul.f32	s15, s17, s16
 800db5e:	4604      	mov	r4, r0
 800db60:	ee17 0a90 	vmov	r0, s15
 800db64:	460d      	mov	r5, r1
 800db66:	f7f2 fcbb 	bl	80004e0 <__aeabi_f2d>
 800db6a:	4602      	mov	r2, r0
 800db6c:	460b      	mov	r3, r1
 800db6e:	4620      	mov	r0, r4
 800db70:	4629      	mov	r1, r5
 800db72:	f7f2 fd0d 	bl	8000590 <__aeabi_dmul>
 800db76:	ed9a 0a84 	vldr	s0, [sl, #528]	@ 0x210
 800db7a:	edda 8a19 	vldr	s17, [sl, #100]	@ 0x64
 800db7e:	4604      	mov	r4, r0
 800db80:	460d      	mov	r5, r1
 800db82:	f000 fc27 	bl	800e3d4 <SPE_cos_H96e4298bd9675fbbcb46b0c1f68b039a5627ebc5_cb4a8a449b4ada864625ee5a4355578a3aaf08ed>
 800db86:	f8da 01c0 	ldr.w	r0, [sl, #448]	@ 0x1c0
 800db8a:	eeb0 8a40 	vmov.f32	s16, s0
 800db8e:	f7f2 fca7 	bl	80004e0 <__aeabi_f2d>
 800db92:	2200      	movs	r2, #0
 800db94:	2300      	movs	r3, #0
 800db96:	f7f2 fcfb 	bl	8000590 <__aeabi_dmul>
 800db9a:	ee68 7a28 	vmul.f32	s15, s16, s17
 800db9e:	e9cd 0104 	strd	r0, r1, [sp, #16]
 800dba2:	ee17 0a90 	vmov	r0, s15
 800dba6:	f7f2 fc9b 	bl	80004e0 <__aeabi_f2d>
 800dbaa:	4602      	mov	r2, r0
 800dbac:	460b      	mov	r3, r1
 800dbae:	e9dd 0104 	ldrd	r0, r1, [sp, #16]
 800dbb2:	f7f2 fced 	bl	8000590 <__aeabi_dmul>
 800dbb6:	4602      	mov	r2, r0
 800dbb8:	460b      	mov	r3, r1
 800dbba:	4620      	mov	r0, r4
 800dbbc:	4629      	mov	r1, r5
 800dbbe:	f7f2 fb2f 	bl	8000220 <__aeabi_dsub>
 800dbc2:	4604      	mov	r4, r0
 800dbc4:	f8da 021c 	ldr.w	r0, [sl, #540]	@ 0x21c
 800dbc8:	460d      	mov	r5, r1
 800dbca:	f7f2 fc89 	bl	80004e0 <__aeabi_f2d>
 800dbce:	4602      	mov	r2, r0
 800dbd0:	460b      	mov	r3, r1
 800dbd2:	4620      	mov	r0, r4
 800dbd4:	4629      	mov	r1, r5
 800dbd6:	f7f2 fcdb 	bl	8000590 <__aeabi_dmul>
 800dbda:	ed9a 0a84 	vldr	s0, [sl, #528]	@ 0x210
 800dbde:	edda 8a19 	vldr	s17, [sl, #100]	@ 0x64
 800dbe2:	e9cd 0104 	strd	r0, r1, [sp, #16]
 800dbe6:	f000 fbf5 	bl	800e3d4 <SPE_cos_H96e4298bd9675fbbcb46b0c1f68b039a5627ebc5_cb4a8a449b4ada864625ee5a4355578a3aaf08ed>
 800dbea:	f8da 01c0 	ldr.w	r0, [sl, #448]	@ 0x1c0
 800dbee:	eeb0 8a40 	vmov.f32	s16, s0
 800dbf2:	f7f2 fc75 	bl	80004e0 <__aeabi_f2d>
 800dbf6:	4642      	mov	r2, r8
 800dbf8:	464b      	mov	r3, r9
 800dbfa:	f7f2 fcc9 	bl	8000590 <__aeabi_dmul>
 800dbfe:	ee68 7a28 	vmul.f32	s15, s16, s17
 800dc02:	4604      	mov	r4, r0
 800dc04:	ee17 0a90 	vmov	r0, s15
 800dc08:	460d      	mov	r5, r1
 800dc0a:	f7f2 fc69 	bl	80004e0 <__aeabi_f2d>
 800dc0e:	4602      	mov	r2, r0
 800dc10:	460b      	mov	r3, r1
 800dc12:	4620      	mov	r0, r4
 800dc14:	4629      	mov	r1, r5
 800dc16:	f7f2 fcbb 	bl	8000590 <__aeabi_dmul>
 800dc1a:	ed9a 0a84 	vldr	s0, [sl, #528]	@ 0x210
 800dc1e:	ed9a 8a19 	vldr	s16, [sl, #100]	@ 0x64
 800dc22:	4604      	mov	r4, r0
 800dc24:	460d      	mov	r5, r1
 800dc26:	f000 fbd3 	bl	800e3d0 <SPE_sin_H96e4298bd9675fbbcb46b0c1f68b039a5627ebc5_cb4a8a449b4ada864625ee5a4355578a3aaf08ed>
 800dc2a:	ee60 7a08 	vmul.f32	s15, s0, s16
 800dc2e:	f8da b1c0 	ldr.w	fp, [sl, #448]	@ 0x1c0
 800dc32:	ee17 0a90 	vmov	r0, s15
 800dc36:	f7f2 fc53 	bl	80004e0 <__aeabi_f2d>
 800dc3a:	4680      	mov	r8, r0
 800dc3c:	4658      	mov	r0, fp
 800dc3e:	4689      	mov	r9, r1
 800dc40:	f7f2 fc4e 	bl	80004e0 <__aeabi_f2d>
 800dc44:	2200      	movs	r2, #0
 800dc46:	2300      	movs	r3, #0
 800dc48:	f7f2 fca2 	bl	8000590 <__aeabi_dmul>
 800dc4c:	4602      	mov	r2, r0
 800dc4e:	460b      	mov	r3, r1
 800dc50:	4640      	mov	r0, r8
 800dc52:	4649      	mov	r1, r9
 800dc54:	f7f2 fc9c 	bl	8000590 <__aeabi_dmul>
 800dc58:	4622      	mov	r2, r4
 800dc5a:	462b      	mov	r3, r5
 800dc5c:	f7f2 fae2 	bl	8000224 <__adddf3>
 800dc60:	4604      	mov	r4, r0
 800dc62:	f8da 0220 	ldr.w	r0, [sl, #544]	@ 0x220
 800dc66:	460d      	mov	r5, r1
 800dc68:	f7f2 fc3a 	bl	80004e0 <__aeabi_f2d>
 800dc6c:	4602      	mov	r2, r0
 800dc6e:	460b      	mov	r3, r1
 800dc70:	4620      	mov	r0, r4
 800dc72:	4629      	mov	r1, r5
 800dc74:	f7f2 fc8c 	bl	8000590 <__aeabi_dmul>
 800dc78:	e9dd 2304 	ldrd	r2, r3, [sp, #16]
 800dc7c:	f7f2 fad2 	bl	8000224 <__adddf3>
 800dc80:	ee00 ba10 	vmov	s0, fp
 800dc84:	4604      	mov	r4, r0
 800dc86:	460d      	mov	r5, r1
 800dc88:	f000 fb84 	bl	800e394 <SPE_ipowSquare_H96e4298bd9675fbbcb46b0c1f68b039a5627ebc5_cb4a8a449b4ada864625ee5a4355578a3aaf08ed>
 800dc8c:	ee10 0a10 	vmov	r0, s0
 800dc90:	f7f2 fc26 	bl	80004e0 <__aeabi_f2d>
 800dc94:	4602      	mov	r2, r0
 800dc96:	460b      	mov	r3, r1
 800dc98:	4620      	mov	r0, r4
 800dc9a:	4629      	mov	r1, r5
 800dc9c:	f7f2 fda2 	bl	80007e4 <__aeabi_ddiv>
 800dca0:	2200      	movs	r2, #0
 800dca2:	4604      	mov	r4, r0
 800dca4:	460d      	mov	r5, r1
 800dca6:	2300      	movs	r3, #0
 800dca8:	e9dd 0102 	ldrd	r0, r1, [sp, #8]
 800dcac:	f7f2 fc70 	bl	8000590 <__aeabi_dmul>
 800dcb0:	4602      	mov	r2, r0
 800dcb2:	460b      	mov	r3, r1
 800dcb4:	4620      	mov	r0, r4
 800dcb6:	4629      	mov	r1, r5
 800dcb8:	f7f2 fab2 	bl	8000220 <__aeabi_dsub>
 800dcbc:	f04f 0800 	mov.w	r8, #0
 800dcc0:	4604      	mov	r4, r0
 800dcc2:	460d      	mov	r5, r1
 800dcc4:	f04f 0900 	mov.w	r9, #0
 800dcc8:	f7fe bda9 	b.w	800c81e <DoStep_H96e4298bd9675fbbcb46b0c1f68b039a5627ebc5_cb4a8a449b4ada864625ee5a4355578a3aaf08ed+0x33ce>
 800dccc:	2200      	movs	r2, #0
 800dcce:	2300      	movs	r3, #0
 800dcd0:	f7f2 fc5e 	bl	8000590 <__aeabi_dmul>
 800dcd4:	4622      	mov	r2, r4
 800dcd6:	462b      	mov	r3, r5
 800dcd8:	f7f2 fc5a 	bl	8000590 <__aeabi_dmul>
 800dcdc:	eeb0 0a48 	vmov.f32	s0, s16
 800dce0:	4604      	mov	r4, r0
 800dce2:	460d      	mov	r5, r1
 800dce4:	f000 fb74 	bl	800e3d0 <SPE_sin_H96e4298bd9675fbbcb46b0c1f68b039a5627ebc5_cb4a8a449b4ada864625ee5a4355578a3aaf08ed>
 800dce8:	e9dd 2302 	ldrd	r2, r3, [sp, #8]
 800dcec:	2000      	movs	r0, #0
 800dcee:	2100      	movs	r1, #0
 800dcf0:	eeb0 8a40 	vmov.f32	s16, s0
 800dcf4:	f7f2 fa94 	bl	8000220 <__aeabi_dsub>
 800dcf8:	f8da 81c0 	ldr.w	r8, [sl, #448]	@ 0x1c0
 800dcfc:	4606      	mov	r6, r0
 800dcfe:	4640      	mov	r0, r8
 800dd00:	460f      	mov	r7, r1
 800dd02:	f7f2 fbed 	bl	80004e0 <__aeabi_f2d>
 800dd06:	4602      	mov	r2, r0
 800dd08:	460b      	mov	r3, r1
 800dd0a:	4630      	mov	r0, r6
 800dd0c:	4639      	mov	r1, r7
 800dd0e:	f7f2 fc3f 	bl	8000590 <__aeabi_dmul>
 800dd12:	ee68 7a88 	vmul.f32	s15, s17, s16
 800dd16:	4606      	mov	r6, r0
 800dd18:	ee17 0a90 	vmov	r0, s15
 800dd1c:	460f      	mov	r7, r1
 800dd1e:	f7f2 fbdf 	bl	80004e0 <__aeabi_f2d>
 800dd22:	4602      	mov	r2, r0
 800dd24:	460b      	mov	r3, r1
 800dd26:	4630      	mov	r0, r6
 800dd28:	4639      	mov	r1, r7
 800dd2a:	f7f2 fc31 	bl	8000590 <__aeabi_dmul>
 800dd2e:	4622      	mov	r2, r4
 800dd30:	462b      	mov	r3, r5
 800dd32:	f7f2 fa77 	bl	8000224 <__adddf3>
 800dd36:	4604      	mov	r4, r0
 800dd38:	f8da 0170 	ldr.w	r0, [sl, #368]	@ 0x170
 800dd3c:	460d      	mov	r5, r1
 800dd3e:	f7f2 fbcf 	bl	80004e0 <__aeabi_f2d>
 800dd42:	4602      	mov	r2, r0
 800dd44:	460b      	mov	r3, r1
 800dd46:	4620      	mov	r0, r4
 800dd48:	4629      	mov	r1, r5
 800dd4a:	f7f2 fc21 	bl	8000590 <__aeabi_dmul>
 800dd4e:	ee00 8a10 	vmov	s0, r8
 800dd52:	4604      	mov	r4, r0
 800dd54:	460d      	mov	r5, r1
 800dd56:	f000 fb1d 	bl	800e394 <SPE_ipowSquare_H96e4298bd9675fbbcb46b0c1f68b039a5627ebc5_cb4a8a449b4ada864625ee5a4355578a3aaf08ed>
 800dd5a:	ee10 0a10 	vmov	r0, s0
 800dd5e:	f7f2 fbbf 	bl	80004e0 <__aeabi_f2d>
 800dd62:	4602      	mov	r2, r0
 800dd64:	460b      	mov	r3, r1
 800dd66:	4620      	mov	r0, r4
 800dd68:	4629      	mov	r1, r5
 800dd6a:	f7f2 fd3b 	bl	80007e4 <__aeabi_ddiv>
 800dd6e:	e9dd 230a 	ldrd	r2, r3, [sp, #40]	@ 0x28
 800dd72:	f7f2 fa57 	bl	8000224 <__adddf3>
 800dd76:	f7f2 fe1d 	bl	80009b4 <__aeabi_d2f>
 800dd7a:	f04f 4300 	mov.w	r3, #2147483648	@ 0x80000000
 800dd7e:	ee07 0a90 	vmov	s15, r0
 800dd82:	9335      	str	r3, [sp, #212]	@ 0xd4
 800dd84:	9336      	str	r3, [sp, #216]	@ 0xd8
 800dd86:	4be4      	ldr	r3, [pc, #912]	@ (800e118 <DoStep_H96e4298bd9675fbbcb46b0c1f68b039a5627ebc5_cb4a8a449b4ada864625ee5a4355578a3aaf08ed+0x4cc8>)
 800dd88:	9334      	str	r3, [sp, #208]	@ 0xd0
 800dd8a:	eef1 7a67 	vneg.f32	s15, s15
 800dd8e:	9337      	str	r3, [sp, #220]	@ 0xdc
 800dd90:	2000      	movs	r0, #0
 800dd92:	e9dd 2306 	ldrd	r2, r3, [sp, #24]
 800dd96:	2100      	movs	r1, #0
 800dd98:	ed9a 8a70 	vldr	s16, [sl, #448]	@ 0x1c0
 800dd9c:	edcd 7a33 	vstr	s15, [sp, #204]	@ 0xcc
 800dda0:	f7f2 fa3e 	bl	8000220 <__aeabi_dsub>
 800dda4:	edda 7a44 	vldr	s15, [sl, #272]	@ 0x110
 800dda8:	ee68 7a27 	vmul.f32	s15, s16, s15
 800ddac:	4604      	mov	r4, r0
 800ddae:	460d      	mov	r5, r1
 800ddb0:	ee17 0a90 	vmov	r0, s15
 800ddb4:	f7f2 fb94 	bl	80004e0 <__aeabi_f2d>
 800ddb8:	4622      	mov	r2, r4
 800ddba:	462b      	mov	r3, r5
 800ddbc:	f7f2 fbe8 	bl	8000590 <__aeabi_dmul>
 800ddc0:	edda 7a43 	vldr	s15, [sl, #268]	@ 0x10c
 800ddc4:	ee68 7a27 	vmul.f32	s15, s16, s15
 800ddc8:	4606      	mov	r6, r0
 800ddca:	ee17 0a90 	vmov	r0, s15
 800ddce:	460f      	mov	r7, r1
 800ddd0:	f7f2 fb86 	bl	80004e0 <__aeabi_f2d>
 800ddd4:	2200      	movs	r2, #0
 800ddd6:	2300      	movs	r3, #0
 800ddd8:	f7f2 fbda 	bl	8000590 <__aeabi_dmul>
 800dddc:	4602      	mov	r2, r0
 800ddde:	460b      	mov	r3, r1
 800dde0:	4630      	mov	r0, r6
 800dde2:	4639      	mov	r1, r7
 800dde4:	f7f2 fa1c 	bl	8000220 <__aeabi_dsub>
 800dde8:	ed9a 0a84 	vldr	s0, [sl, #528]	@ 0x210
 800ddec:	ed9a 8a12 	vldr	s16, [sl, #72]	@ 0x48
 800ddf0:	4606      	mov	r6, r0
 800ddf2:	460f      	mov	r7, r1
 800ddf4:	f000 faec 	bl	800e3d0 <SPE_sin_H96e4298bd9675fbbcb46b0c1f68b039a5627ebc5_cb4a8a449b4ada864625ee5a4355578a3aaf08ed>
 800ddf8:	ee68 7a00 	vmul.f32	s15, s16, s0
 800ddfc:	ee17 0a90 	vmov	r0, s15
 800de00:	f7f2 fb6e 	bl	80004e0 <__aeabi_f2d>
 800de04:	4632      	mov	r2, r6
 800de06:	463b      	mov	r3, r7
 800de08:	f7f2 fbc2 	bl	8000590 <__aeabi_dmul>
 800de0c:	ed9a 8a70 	vldr	s16, [sl, #448]	@ 0x1c0
 800de10:	edda 7a43 	vldr	s15, [sl, #268]	@ 0x10c
 800de14:	ee68 7a27 	vmul.f32	s15, s16, s15
 800de18:	4606      	mov	r6, r0
 800de1a:	ee17 0a90 	vmov	r0, s15
 800de1e:	460f      	mov	r7, r1
 800de20:	f7f2 fb5e 	bl	80004e0 <__aeabi_f2d>
 800de24:	4622      	mov	r2, r4
 800de26:	462b      	mov	r3, r5
 800de28:	f7f2 fbb2 	bl	8000590 <__aeabi_dmul>
 800de2c:	edda 7a44 	vldr	s15, [sl, #272]	@ 0x110
 800de30:	ee68 7a27 	vmul.f32	s15, s16, s15
 800de34:	4680      	mov	r8, r0
 800de36:	ee17 0a90 	vmov	r0, s15
 800de3a:	4689      	mov	r9, r1
 800de3c:	f7f2 fb50 	bl	80004e0 <__aeabi_f2d>
 800de40:	4604      	mov	r4, r0
 800de42:	460d      	mov	r5, r1
 800de44:	2000      	movs	r0, #0
 800de46:	2100      	movs	r1, #0
 800de48:	f7fc bcf8 	b.w	800a83c <DoStep_H96e4298bd9675fbbcb46b0c1f68b039a5627ebc5_cb4a8a449b4ada864625ee5a4355578a3aaf08ed+0x13ec>
 800de4c:	2200      	movs	r2, #0
 800de4e:	2300      	movs	r3, #0
 800de50:	f7f2 fb9e 	bl	8000590 <__aeabi_dmul>
 800de54:	4622      	mov	r2, r4
 800de56:	462b      	mov	r3, r5
 800de58:	f7f2 fb9a 	bl	8000590 <__aeabi_dmul>
 800de5c:	eeb0 0a68 	vmov.f32	s0, s17
 800de60:	e9cd 010c 	strd	r0, r1, [sp, #48]	@ 0x30
 800de64:	f000 fab6 	bl	800e3d4 <SPE_cos_H96e4298bd9675fbbcb46b0c1f68b039a5627ebc5_cb4a8a449b4ada864625ee5a4355578a3aaf08ed>
 800de68:	ee68 7a00 	vmul.f32	s15, s16, s0
 800de6c:	2600      	movs	r6, #0
 800de6e:	ee17 0a90 	vmov	r0, s15
 800de72:	f7f2 fb35 	bl	80004e0 <__aeabi_f2d>
 800de76:	f8da b1c0 	ldr.w	fp, [sl, #448]	@ 0x1c0
 800de7a:	4680      	mov	r8, r0
 800de7c:	4658      	mov	r0, fp
 800de7e:	4689      	mov	r9, r1
 800de80:	f7f2 fb2e 	bl	80004e0 <__aeabi_f2d>
 800de84:	2700      	movs	r7, #0
 800de86:	e9dd 2302 	ldrd	r2, r3, [sp, #8]
 800de8a:	4604      	mov	r4, r0
 800de8c:	460d      	mov	r5, r1
 800de8e:	f7fc baf0 	b.w	800a472 <DoStep_H96e4298bd9675fbbcb46b0c1f68b039a5627ebc5_cb4a8a449b4ada864625ee5a4355578a3aaf08ed+0x1022>
 800de92:	e9dd 2302 	ldrd	r2, r3, [sp, #8]
 800de96:	2000      	movs	r0, #0
 800de98:	2100      	movs	r1, #0
 800de9a:	f7f2 f9c1 	bl	8000220 <__aeabi_dsub>
 800de9e:	2200      	movs	r2, #0
 800dea0:	4604      	mov	r4, r0
 800dea2:	460d      	mov	r5, r1
 800dea4:	4640      	mov	r0, r8
 800dea6:	4649      	mov	r1, r9
 800dea8:	2300      	movs	r3, #0
 800deaa:	f7f2 fb71 	bl	8000590 <__aeabi_dmul>
 800deae:	4602      	mov	r2, r0
 800deb0:	460b      	mov	r3, r1
 800deb2:	4630      	mov	r0, r6
 800deb4:	4639      	mov	r1, r7
 800deb6:	4616      	mov	r6, r2
 800deb8:	461f      	mov	r7, r3
 800deba:	4622      	mov	r2, r4
 800debc:	462b      	mov	r3, r5
 800debe:	f7f2 fb67 	bl	8000590 <__aeabi_dmul>
 800dec2:	4602      	mov	r2, r0
 800dec4:	460b      	mov	r3, r1
 800dec6:	4630      	mov	r0, r6
 800dec8:	4639      	mov	r1, r7
 800deca:	f7f2 f9ab 	bl	8000224 <__adddf3>
 800dece:	eeb0 0a6a 	vmov.f32	s0, s21
 800ded2:	4606      	mov	r6, r0
 800ded4:	460f      	mov	r7, r1
 800ded6:	f000 fa7b 	bl	800e3d0 <SPE_sin_H96e4298bd9675fbbcb46b0c1f68b039a5627ebc5_cb4a8a449b4ada864625ee5a4355578a3aaf08ed>
 800deda:	ee6a 7a00 	vmul.f32	s15, s20, s0
 800dede:	ee17 0a90 	vmov	r0, s15
 800dee2:	f7f2 fafd 	bl	80004e0 <__aeabi_f2d>
 800dee6:	4632      	mov	r2, r6
 800dee8:	463b      	mov	r3, r7
 800deea:	f7f2 fb51 	bl	8000590 <__aeabi_dmul>
 800deee:	ed9a 8a70 	vldr	s16, [sl, #448]	@ 0x1c0
 800def2:	edda 7a44 	vldr	s15, [sl, #272]	@ 0x110
 800def6:	ee68 7a27 	vmul.f32	s15, s16, s15
 800defa:	e9cd 010a 	strd	r0, r1, [sp, #40]	@ 0x28
 800defe:	ee17 0a90 	vmov	r0, s15
 800df02:	f7f2 faed 	bl	80004e0 <__aeabi_f2d>
 800df06:	2200      	movs	r2, #0
 800df08:	2300      	movs	r3, #0
 800df0a:	f7f2 fb41 	bl	8000590 <__aeabi_dmul>
 800df0e:	edda 7a43 	vldr	s15, [sl, #268]	@ 0x10c
 800df12:	ee68 7a27 	vmul.f32	s15, s16, s15
 800df16:	4680      	mov	r8, r0
 800df18:	ee17 0a90 	vmov	r0, s15
 800df1c:	4689      	mov	r9, r1
 800df1e:	f7f2 fadf 	bl	80004e0 <__aeabi_f2d>
 800df22:	4606      	mov	r6, r0
 800df24:	460f      	mov	r7, r1
 800df26:	f7fc b9fb 	b.w	800a320 <DoStep_H96e4298bd9675fbbcb46b0c1f68b039a5627ebc5_cb4a8a449b4ada864625ee5a4355578a3aaf08ed+0xed0>
 800df2a:	2200      	movs	r2, #0
 800df2c:	2300      	movs	r3, #0
 800df2e:	f7f2 fb2f 	bl	8000590 <__aeabi_dmul>
 800df32:	4622      	mov	r2, r4
 800df34:	462b      	mov	r3, r5
 800df36:	f7f2 fb2b 	bl	8000590 <__aeabi_dmul>
 800df3a:	eeb0 0a68 	vmov.f32	s0, s17
 800df3e:	e9cd 010c 	strd	r0, r1, [sp, #48]	@ 0x30
 800df42:	f000 fa45 	bl	800e3d0 <SPE_sin_H96e4298bd9675fbbcb46b0c1f68b039a5627ebc5_cb4a8a449b4ada864625ee5a4355578a3aaf08ed>
 800df46:	ee68 7a00 	vmul.f32	s15, s16, s0
 800df4a:	2600      	movs	r6, #0
 800df4c:	ee17 0a90 	vmov	r0, s15
 800df50:	f7f2 fac6 	bl	80004e0 <__aeabi_f2d>
 800df54:	f8da b1c0 	ldr.w	fp, [sl, #448]	@ 0x1c0
 800df58:	4680      	mov	r8, r0
 800df5a:	4658      	mov	r0, fp
 800df5c:	4689      	mov	r9, r1
 800df5e:	f7f2 fabf 	bl	80004e0 <__aeabi_f2d>
 800df62:	2700      	movs	r7, #0
 800df64:	e9dd 2302 	ldrd	r2, r3, [sp, #8]
 800df68:	4604      	mov	r4, r0
 800df6a:	460d      	mov	r5, r1
 800df6c:	f7fc b8bb 	b.w	800a0e6 <DoStep_H96e4298bd9675fbbcb46b0c1f68b039a5627ebc5_cb4a8a449b4ada864625ee5a4355578a3aaf08ed+0xc96>
 800df70:	2200      	movs	r2, #0
 800df72:	2300      	movs	r3, #0
 800df74:	f7f2 fb0c 	bl	8000590 <__aeabi_dmul>
 800df78:	4622      	mov	r2, r4
 800df7a:	462b      	mov	r3, r5
 800df7c:	f7f2 fb08 	bl	8000590 <__aeabi_dmul>
 800df80:	eeb0 0a68 	vmov.f32	s0, s17
 800df84:	4680      	mov	r8, r0
 800df86:	4689      	mov	r9, r1
 800df88:	f000 fa22 	bl	800e3d0 <SPE_sin_H96e4298bd9675fbbcb46b0c1f68b039a5627ebc5_cb4a8a449b4ada864625ee5a4355578a3aaf08ed>
 800df8c:	ee68 7a00 	vmul.f32	s15, s16, s0
 800df90:	ee17 0a90 	vmov	r0, s15
 800df94:	f7f2 faa4 	bl	80004e0 <__aeabi_f2d>
 800df98:	f8da b1c0 	ldr.w	fp, [sl, #448]	@ 0x1c0
 800df9c:	4606      	mov	r6, r0
 800df9e:	4658      	mov	r0, fp
 800dfa0:	460f      	mov	r7, r1
 800dfa2:	f7f2 fa9d 	bl	80004e0 <__aeabi_f2d>
 800dfa6:	4604      	mov	r4, r0
 800dfa8:	460d      	mov	r5, r1
 800dfaa:	2000      	movs	r0, #0
 800dfac:	2100      	movs	r1, #0
 800dfae:	f7fd b9d2 	b.w	800b356 <DoStep_H96e4298bd9675fbbcb46b0c1f68b039a5627ebc5_cb4a8a449b4ada864625ee5a4355578a3aaf08ed+0x1f06>
 800dfb2:	2200      	movs	r2, #0
 800dfb4:	2300      	movs	r3, #0
 800dfb6:	f7f2 faeb 	bl	8000590 <__aeabi_dmul>
 800dfba:	4622      	mov	r2, r4
 800dfbc:	462b      	mov	r3, r5
 800dfbe:	f7f2 fae7 	bl	8000590 <__aeabi_dmul>
 800dfc2:	eeb0 0a68 	vmov.f32	s0, s17
 800dfc6:	4680      	mov	r8, r0
 800dfc8:	4689      	mov	r9, r1
 800dfca:	f000 fa03 	bl	800e3d4 <SPE_cos_H96e4298bd9675fbbcb46b0c1f68b039a5627ebc5_cb4a8a449b4ada864625ee5a4355578a3aaf08ed>
 800dfce:	ee68 7a00 	vmul.f32	s15, s16, s0
 800dfd2:	ee17 0a90 	vmov	r0, s15
 800dfd6:	f7f2 fa83 	bl	80004e0 <__aeabi_f2d>
 800dfda:	f8da b1c0 	ldr.w	fp, [sl, #448]	@ 0x1c0
 800dfde:	4606      	mov	r6, r0
 800dfe0:	4658      	mov	r0, fp
 800dfe2:	460f      	mov	r7, r1
 800dfe4:	f7f2 fa7c 	bl	80004e0 <__aeabi_f2d>
 800dfe8:	4604      	mov	r4, r0
 800dfea:	460d      	mov	r5, r1
 800dfec:	2000      	movs	r0, #0
 800dfee:	2100      	movs	r1, #0
 800dff0:	f7fd b91e 	b.w	800b230 <DoStep_H96e4298bd9675fbbcb46b0c1f68b039a5627ebc5_cb4a8a449b4ada864625ee5a4355578a3aaf08ed+0x1de0>
 800dff4:	edda 8a3f 	vldr	s17, [sl, #252]	@ 0xfc
 800dff8:	ed9a 8a3e 	vldr	s16, [sl, #248]	@ 0xf8
 800dffc:	ed9a ba3d 	vldr	s22, [sl, #244]	@ 0xf4
 800e000:	ed8d 8a3d 	vstr	s16, [sp, #244]	@ 0xf4
 800e004:	ee18 0a90 	vmov	r0, s17
 800e008:	f7f2 fa6a 	bl	80004e0 <__aeabi_f2d>
 800e00c:	edda ba3c 	vldr	s23, [sl, #240]	@ 0xf0
 800e010:	f101 4100 	add.w	r1, r1, #2147483648	@ 0x80000000
 800e014:	f7f2 fcce 	bl	80009b4 <__aeabi_d2f>
 800e018:	ee28 7a8b 	vmul.f32	s14, s17, s22
 800e01c:	ee68 7a2b 	vmul.f32	s15, s16, s23
 800e020:	903c      	str	r0, [sp, #240]	@ 0xf0
 800e022:	ee77 7a67 	vsub.f32	s15, s14, s15
 800e026:	ee28 8a0b 	vmul.f32	s16, s16, s22
 800e02a:	ee17 0a90 	vmov	r0, s15
 800e02e:	f7f2 fa57 	bl	80004e0 <__aeabi_f2d>
 800e032:	4b3a      	ldr	r3, [pc, #232]	@ (800e11c <DoStep_H96e4298bd9675fbbcb46b0c1f68b039a5627ebc5_cb4a8a449b4ada864625ee5a4355578a3aaf08ed+0x4ccc>)
 800e034:	2200      	movs	r2, #0
 800e036:	f7f2 f8f5 	bl	8000224 <__adddf3>
 800e03a:	ee68 8aab 	vmul.f32	s17, s17, s23
 800e03e:	4632      	mov	r2, r6
 800e040:	463b      	mov	r3, r7
 800e042:	f7f2 faa5 	bl	8000590 <__aeabi_dmul>
 800e046:	ee78 7a88 	vadd.f32	s15, s17, s16
 800e04a:	4606      	mov	r6, r0
 800e04c:	ee17 0a90 	vmov	r0, s15
 800e050:	460f      	mov	r7, r1
 800e052:	f7f2 fa45 	bl	80004e0 <__aeabi_f2d>
 800e056:	4622      	mov	r2, r4
 800e058:	462b      	mov	r3, r5
 800e05a:	f101 4100 	add.w	r1, r1, #2147483648	@ 0x80000000
 800e05e:	f7f2 fa97 	bl	8000590 <__aeabi_dmul>
 800e062:	4602      	mov	r2, r0
 800e064:	460b      	mov	r3, r1
 800e066:	4630      	mov	r0, r6
 800e068:	4639      	mov	r1, r7
 800e06a:	f7f2 f8d9 	bl	8000220 <__aeabi_dsub>
 800e06e:	eeb0 0a6a 	vmov.f32	s0, s21
 800e072:	4604      	mov	r4, r0
 800e074:	460d      	mov	r5, r1
 800e076:	f000 f9ab 	bl	800e3d0 <SPE_sin_H96e4298bd9675fbbcb46b0c1f68b039a5627ebc5_cb4a8a449b4ada864625ee5a4355578a3aaf08ed>
 800e07a:	ee6a 7a00 	vmul.f32	s15, s20, s0
 800e07e:	ee17 0a90 	vmov	r0, s15
 800e082:	f7f2 fa2d 	bl	80004e0 <__aeabi_f2d>
 800e086:	4622      	mov	r2, r4
 800e088:	462b      	mov	r3, r5
 800e08a:	f7f2 fa81 	bl	8000590 <__aeabi_dmul>
 800e08e:	edda 8a3f 	vldr	s17, [sl, #252]	@ 0xfc
 800e092:	ed9a 8a3d 	vldr	s16, [sl, #244]	@ 0xf4
 800e096:	ed9a aa3e 	vldr	s20, [sl, #248]	@ 0xf8
 800e09a:	edda aa3c 	vldr	s21, [sl, #240]	@ 0xf0
 800e09e:	ed9a ba70 	vldr	s22, [sl, #448]	@ 0x1c0
 800e0a2:	ee28 7a88 	vmul.f32	s14, s17, s16
 800e0a6:	ee6a 7a2a 	vmul.f32	s15, s20, s21
 800e0aa:	4680      	mov	r8, r0
 800e0ac:	ee77 7a67 	vsub.f32	s15, s14, s15
 800e0b0:	4689      	mov	r9, r1
 800e0b2:	ee17 0a90 	vmov	r0, s15
 800e0b6:	f7f2 fa13 	bl	80004e0 <__aeabi_f2d>
 800e0ba:	4b18      	ldr	r3, [pc, #96]	@ (800e11c <DoStep_H96e4298bd9675fbbcb46b0c1f68b039a5627ebc5_cb4a8a449b4ada864625ee5a4355578a3aaf08ed+0x4ccc>)
 800e0bc:	2200      	movs	r2, #0
 800e0be:	f7f2 f8b1 	bl	8000224 <__adddf3>
 800e0c2:	edda 7a43 	vldr	s15, [sl, #268]	@ 0x10c
 800e0c6:	ee6b 7a27 	vmul.f32	s15, s22, s15
 800e0ca:	4604      	mov	r4, r0
 800e0cc:	ee17 0a90 	vmov	r0, s15
 800e0d0:	460d      	mov	r5, r1
 800e0d2:	f7f2 fa05 	bl	80004e0 <__aeabi_f2d>
 800e0d6:	4602      	mov	r2, r0
 800e0d8:	460b      	mov	r3, r1
 800e0da:	4620      	mov	r0, r4
 800e0dc:	4629      	mov	r1, r5
 800e0de:	f7f2 fa57 	bl	8000590 <__aeabi_dmul>
 800e0e2:	edda 7a44 	vldr	s15, [sl, #272]	@ 0x110
 800e0e6:	ee6b 7a27 	vmul.f32	s15, s22, s15
 800e0ea:	ee68 8aaa 	vmul.f32	s17, s17, s21
 800e0ee:	ee28 8a0a 	vmul.f32	s16, s16, s20
 800e0f2:	4604      	mov	r4, r0
 800e0f4:	ee17 0a90 	vmov	r0, s15
 800e0f8:	460d      	mov	r5, r1
 800e0fa:	f7f2 f9f1 	bl	80004e0 <__aeabi_f2d>
 800e0fe:	ee78 7a88 	vadd.f32	s15, s17, s16
 800e102:	4606      	mov	r6, r0
 800e104:	ee17 0a90 	vmov	r0, s15
 800e108:	460f      	mov	r7, r1
 800e10a:	f7f2 f9e9 	bl	80004e0 <__aeabi_f2d>
 800e10e:	f101 4100 	add.w	r1, r1, #2147483648	@ 0x80000000
 800e112:	f7fd b804 	b.w	800b11e <DoStep_H96e4298bd9675fbbcb46b0c1f68b039a5627ebc5_cb4a8a449b4ada864625ee5a4355578a3aaf08ed+0x1cce>
 800e116:	bf00      	nop
 800e118:	bf800000 	.word	0xbf800000
 800e11c:	3ff00000 	.word	0x3ff00000
 800e120:	e9dd 2306 	ldrd	r2, r3, [sp, #24]
 800e124:	2000      	movs	r0, #0
 800e126:	2100      	movs	r1, #0
 800e128:	f7f2 f87a 	bl	8000220 <__aeabi_dsub>
 800e12c:	4622      	mov	r2, r4
 800e12e:	462b      	mov	r3, r5
 800e130:	f7f2 fa2e 	bl	8000590 <__aeabi_dmul>
 800e134:	4642      	mov	r2, r8
 800e136:	464b      	mov	r3, r9
 800e138:	f7f2 fa2a 	bl	8000590 <__aeabi_dmul>
 800e13c:	eeb0 0a68 	vmov.f32	s0, s17
 800e140:	e9cd 010c 	strd	r0, r1, [sp, #48]	@ 0x30
 800e144:	f000 f944 	bl	800e3d0 <SPE_sin_H96e4298bd9675fbbcb46b0c1f68b039a5627ebc5_cb4a8a449b4ada864625ee5a4355578a3aaf08ed>
 800e148:	ee68 7a00 	vmul.f32	s15, s16, s0
 800e14c:	2600      	movs	r6, #0
 800e14e:	ee17 0a90 	vmov	r0, s15
 800e152:	f7f2 f9c5 	bl	80004e0 <__aeabi_f2d>
 800e156:	f8da b1c0 	ldr.w	fp, [sl, #448]	@ 0x1c0
 800e15a:	4680      	mov	r8, r0
 800e15c:	4658      	mov	r0, fp
 800e15e:	4689      	mov	r9, r1
 800e160:	f7f2 f9be 	bl	80004e0 <__aeabi_f2d>
 800e164:	2700      	movs	r7, #0
 800e166:	4604      	mov	r4, r0
 800e168:	460d      	mov	r5, r1
 800e16a:	4630      	mov	r0, r6
 800e16c:	4639      	mov	r1, r7
 800e16e:	f7fc bf2d 	b.w	800afcc <DoStep_H96e4298bd9675fbbcb46b0c1f68b039a5627ebc5_cb4a8a449b4ada864625ee5a4355578a3aaf08ed+0x1b7c>
 800e172:	e9dd 2306 	ldrd	r2, r3, [sp, #24]
 800e176:	2000      	movs	r0, #0
 800e178:	2100      	movs	r1, #0
 800e17a:	f7f2 f851 	bl	8000220 <__aeabi_dsub>
 800e17e:	4622      	mov	r2, r4
 800e180:	462b      	mov	r3, r5
 800e182:	f7f2 fa05 	bl	8000590 <__aeabi_dmul>
 800e186:	4642      	mov	r2, r8
 800e188:	464b      	mov	r3, r9
 800e18a:	f7f2 fa01 	bl	8000590 <__aeabi_dmul>
 800e18e:	eeb0 0a68 	vmov.f32	s0, s17
 800e192:	e9cd 010c 	strd	r0, r1, [sp, #48]	@ 0x30
 800e196:	f000 f91d 	bl	800e3d4 <SPE_cos_H96e4298bd9675fbbcb46b0c1f68b039a5627ebc5_cb4a8a449b4ada864625ee5a4355578a3aaf08ed>
 800e19a:	ee68 7a00 	vmul.f32	s15, s16, s0
 800e19e:	2600      	movs	r6, #0
 800e1a0:	ee17 0a90 	vmov	r0, s15
 800e1a4:	f7f2 f99c 	bl	80004e0 <__aeabi_f2d>
 800e1a8:	f8da b1c0 	ldr.w	fp, [sl, #448]	@ 0x1c0
 800e1ac:	4680      	mov	r8, r0
 800e1ae:	4658      	mov	r0, fp
 800e1b0:	4689      	mov	r9, r1
 800e1b2:	f7f2 f995 	bl	80004e0 <__aeabi_f2d>
 800e1b6:	2700      	movs	r7, #0
 800e1b8:	4604      	mov	r4, r0
 800e1ba:	460d      	mov	r5, r1
 800e1bc:	4630      	mov	r0, r6
 800e1be:	4639      	mov	r1, r7
 800e1c0:	f7fc be4f 	b.w	800ae62 <DoStep_H96e4298bd9675fbbcb46b0c1f68b039a5627ebc5_cb4a8a449b4ada864625ee5a4355578a3aaf08ed+0x1a12>
 800e1c4:	e9dd 2306 	ldrd	r2, r3, [sp, #24]
 800e1c8:	2000      	movs	r0, #0
 800e1ca:	2100      	movs	r1, #0
 800e1cc:	f7f2 f828 	bl	8000220 <__aeabi_dsub>
 800e1d0:	4606      	mov	r6, r0
 800e1d2:	460f      	mov	r7, r1
 800e1d4:	4640      	mov	r0, r8
 800e1d6:	4649      	mov	r1, r9
 800e1d8:	4632      	mov	r2, r6
 800e1da:	463b      	mov	r3, r7
 800e1dc:	f7f2 f9d8 	bl	8000590 <__aeabi_dmul>
 800e1e0:	4602      	mov	r2, r0
 800e1e2:	460b      	mov	r3, r1
 800e1e4:	4620      	mov	r0, r4
 800e1e6:	4629      	mov	r1, r5
 800e1e8:	4614      	mov	r4, r2
 800e1ea:	461d      	mov	r5, r3
 800e1ec:	2200      	movs	r2, #0
 800e1ee:	2300      	movs	r3, #0
 800e1f0:	f7f2 f9ce 	bl	8000590 <__aeabi_dmul>
 800e1f4:	4602      	mov	r2, r0
 800e1f6:	460b      	mov	r3, r1
 800e1f8:	4620      	mov	r0, r4
 800e1fa:	4629      	mov	r1, r5
 800e1fc:	f7f2 f812 	bl	8000224 <__adddf3>
 800e200:	eeb0 0a6a 	vmov.f32	s0, s21
 800e204:	4604      	mov	r4, r0
 800e206:	460d      	mov	r5, r1
 800e208:	f000 f8e2 	bl	800e3d0 <SPE_sin_H96e4298bd9675fbbcb46b0c1f68b039a5627ebc5_cb4a8a449b4ada864625ee5a4355578a3aaf08ed>
 800e20c:	ee6a 7a00 	vmul.f32	s15, s20, s0
 800e210:	ee17 0a90 	vmov	r0, s15
 800e214:	f7f2 f964 	bl	80004e0 <__aeabi_f2d>
 800e218:	4622      	mov	r2, r4
 800e21a:	462b      	mov	r3, r5
 800e21c:	f7f2 f9b8 	bl	8000590 <__aeabi_dmul>
 800e220:	ed9a 8a70 	vldr	s16, [sl, #448]	@ 0x1c0
 800e224:	edda 7a44 	vldr	s15, [sl, #272]	@ 0x110
 800e228:	ee68 7a27 	vmul.f32	s15, s16, s15
 800e22c:	e9cd 010a 	strd	r0, r1, [sp, #40]	@ 0x28
 800e230:	ee17 0a90 	vmov	r0, s15
 800e234:	f7f2 f954 	bl	80004e0 <__aeabi_f2d>
 800e238:	4632      	mov	r2, r6
 800e23a:	463b      	mov	r3, r7
 800e23c:	f7f2 f9a8 	bl	8000590 <__aeabi_dmul>
 800e240:	edda 7a43 	vldr	s15, [sl, #268]	@ 0x10c
 800e244:	ee68 7a27 	vmul.f32	s15, s16, s15
 800e248:	4680      	mov	r8, r0
 800e24a:	ee17 0a90 	vmov	r0, s15
 800e24e:	4689      	mov	r9, r1
 800e250:	f7f2 f946 	bl	80004e0 <__aeabi_f2d>
 800e254:	4604      	mov	r4, r0
 800e256:	460d      	mov	r5, r1
 800e258:	2000      	movs	r0, #0
 800e25a:	2100      	movs	r1, #0
 800e25c:	f7fc bd64 	b.w	800ad28 <DoStep_H96e4298bd9675fbbcb46b0c1f68b039a5627ebc5_cb4a8a449b4ada864625ee5a4355578a3aaf08ed+0x18d8>
 800e260:	e9dd 2306 	ldrd	r2, r3, [sp, #24]
 800e264:	2000      	movs	r0, #0
 800e266:	2100      	movs	r1, #0
 800e268:	f7f1 ffda 	bl	8000220 <__aeabi_dsub>
 800e26c:	4622      	mov	r2, r4
 800e26e:	462b      	mov	r3, r5
 800e270:	f7f2 f98e 	bl	8000590 <__aeabi_dmul>
 800e274:	4642      	mov	r2, r8
 800e276:	464b      	mov	r3, r9
 800e278:	f7f2 f98a 	bl	8000590 <__aeabi_dmul>
 800e27c:	eeb0 0a68 	vmov.f32	s0, s17
 800e280:	e9cd 010c 	strd	r0, r1, [sp, #48]	@ 0x30
 800e284:	f000 f8a4 	bl	800e3d0 <SPE_sin_H96e4298bd9675fbbcb46b0c1f68b039a5627ebc5_cb4a8a449b4ada864625ee5a4355578a3aaf08ed>
 800e288:	ee68 7a00 	vmul.f32	s15, s16, s0
 800e28c:	2600      	movs	r6, #0
 800e28e:	ee17 0a90 	vmov	r0, s15
 800e292:	f7f2 f925 	bl	80004e0 <__aeabi_f2d>
 800e296:	f8da b1c0 	ldr.w	fp, [sl, #448]	@ 0x1c0
 800e29a:	4680      	mov	r8, r0
 800e29c:	4658      	mov	r0, fp
 800e29e:	4689      	mov	r9, r1
 800e2a0:	f7f2 f91e 	bl	80004e0 <__aeabi_f2d>
 800e2a4:	2700      	movs	r7, #0
 800e2a6:	4604      	mov	r4, r0
 800e2a8:	460d      	mov	r5, r1
 800e2aa:	4630      	mov	r0, r6
 800e2ac:	4639      	mov	r1, r7
 800e2ae:	f7fc bc17 	b.w	800aae0 <DoStep_H96e4298bd9675fbbcb46b0c1f68b039a5627ebc5_cb4a8a449b4ada864625ee5a4355578a3aaf08ed+0x1690>
 800e2b2:	e9dd 2306 	ldrd	r2, r3, [sp, #24]
 800e2b6:	2000      	movs	r0, #0
 800e2b8:	2100      	movs	r1, #0
 800e2ba:	f7f1 ffb1 	bl	8000220 <__aeabi_dsub>
 800e2be:	4622      	mov	r2, r4
 800e2c0:	462b      	mov	r3, r5
 800e2c2:	f7f2 f965 	bl	8000590 <__aeabi_dmul>
 800e2c6:	4642      	mov	r2, r8
 800e2c8:	464b      	mov	r3, r9
 800e2ca:	f7f2 f961 	bl	8000590 <__aeabi_dmul>
 800e2ce:	eeb0 0a68 	vmov.f32	s0, s17
 800e2d2:	e9cd 010c 	strd	r0, r1, [sp, #48]	@ 0x30
 800e2d6:	f000 f87d 	bl	800e3d4 <SPE_cos_H96e4298bd9675fbbcb46b0c1f68b039a5627ebc5_cb4a8a449b4ada864625ee5a4355578a3aaf08ed>
 800e2da:	ee68 7a00 	vmul.f32	s15, s16, s0
 800e2de:	2600      	movs	r6, #0
 800e2e0:	ee17 0a90 	vmov	r0, s15
 800e2e4:	f7f2 f8fc 	bl	80004e0 <__aeabi_f2d>
 800e2e8:	f8da b1c0 	ldr.w	fp, [sl, #448]	@ 0x1c0
 800e2ec:	4680      	mov	r8, r0
 800e2ee:	4658      	mov	r0, fp
 800e2f0:	4689      	mov	r9, r1
 800e2f2:	f7f2 f8f5 	bl	80004e0 <__aeabi_f2d>
 800e2f6:	2700      	movs	r7, #0
 800e2f8:	4604      	mov	r4, r0
 800e2fa:	460d      	mov	r5, r1
 800e2fc:	4630      	mov	r0, r6
 800e2fe:	4639      	mov	r1, r7
 800e300:	f7fc bb39 	b.w	800a976 <DoStep_H96e4298bd9675fbbcb46b0c1f68b039a5627ebc5_cb4a8a449b4ada864625ee5a4355578a3aaf08ed+0x1526>
 800e304:	9a10      	ldr	r2, [sp, #64]	@ 0x40
 800e306:	9b11      	ldr	r3, [sp, #68]	@ 0x44
 800e308:	f8ca 2238 	str.w	r2, [sl, #568]	@ 0x238
 800e30c:	f8ca 323c 	str.w	r3, [sl, #572]	@ 0x23c
 800e310:	9a12      	ldr	r2, [sp, #72]	@ 0x48
 800e312:	9b13      	ldr	r3, [sp, #76]	@ 0x4c
 800e314:	f8ca 2234 	str.w	r2, [sl, #564]	@ 0x234
 800e318:	f8ca 3230 	str.w	r3, [sl, #560]	@ 0x230
 800e31c:	9a14      	ldr	r2, [sp, #80]	@ 0x50
 800e31e:	9b15      	ldr	r3, [sp, #84]	@ 0x54
 800e320:	f8ca 2228 	str.w	r2, [sl, #552]	@ 0x228
 800e324:	f8ca 3224 	str.w	r3, [sl, #548]	@ 0x224
 800e328:	f7fe bcfb 	b.w	800cd22 <DoStep_H96e4298bd9675fbbcb46b0c1f68b039a5627ebc5_cb4a8a449b4ada864625ee5a4355578a3aaf08ed+0x38d2>
 800e32c:	edda 0a11 	vldr	s1, [sl, #68]	@ 0x44
 800e330:	ed9a 0a7b 	vldr	s0, [sl, #492]	@ 0x1ec
 800e334:	9809      	ldr	r0, [sp, #36]	@ 0x24
 800e336:	f000 f809 	bl	800e34c <SPE_less_H96e4298bd9675fbbcb46b0c1f68b039a5627ebc5_cb4a8a449b4ada864625ee5a4355578a3aaf08ed>
 800e33a:	b118      	cbz	r0, 800e344 <DoStep_H96e4298bd9675fbbcb46b0c1f68b039a5627ebc5_cb4a8a449b4ada864625ee5a4355578a3aaf08ed+0x4ef4>
 800e33c:	edda 7a11 	vldr	s15, [sl, #68]	@ 0x44
 800e340:	f7fe be39 	b.w	800cfb6 <DoStep_H96e4298bd9675fbbcb46b0c1f68b039a5627ebc5_cb4a8a449b4ada864625ee5a4355578a3aaf08ed+0x3b66>
 800e344:	edda 7a7b 	vldr	s15, [sl, #492]	@ 0x1ec
 800e348:	f7fe be35 	b.w	800cfb6 <DoStep_H96e4298bd9675fbbcb46b0c1f68b039a5627ebc5_cb4a8a449b4ada864625ee5a4355578a3aaf08ed+0x3b66>

0800e34c <SPE_less_H96e4298bd9675fbbcb46b0c1f68b039a5627ebc5_cb4a8a449b4ada864625ee5a4355578a3aaf08ed>:
 800e34c:	eeb4 0a60 	vcmp.f32	s0, s1
 800e350:	eef1 fa10 	vmrs	APSR_nzcv, fpscr
 800e354:	d607      	bvs.n	800e366 <SPE_less_H96e4298bd9675fbbcb46b0c1f68b039a5627ebc5_cb4a8a449b4ada864625ee5a4355578a3aaf08ed+0x1a>
 800e356:	eeb4 0a60 	vcmp.f32	s0, s1
 800e35a:	eef1 fa10 	vmrs	APSR_nzcv, fpscr
 800e35e:	bf4c      	ite	mi
 800e360:	2001      	movmi	r0, #1
 800e362:	2000      	movpl	r0, #0
 800e364:	4770      	bx	lr
 800e366:	6803      	ldr	r3, [r0, #0]
 800e368:	f043 0304 	orr.w	r3, r3, #4
 800e36c:	6003      	str	r3, [r0, #0]
 800e36e:	e7f2      	b.n	800e356 <SPE_less_H96e4298bd9675fbbcb46b0c1f68b039a5627ebc5_cb4a8a449b4ada864625ee5a4355578a3aaf08ed+0xa>

0800e370 <SPE_greater_H96e4298bd9675fbbcb46b0c1f68b039a5627ebc5_cb4a8a449b4ada864625ee5a4355578a3aaf08ed>:
 800e370:	eeb4 0a60 	vcmp.f32	s0, s1
 800e374:	eef1 fa10 	vmrs	APSR_nzcv, fpscr
 800e378:	d607      	bvs.n	800e38a <SPE_greater_H96e4298bd9675fbbcb46b0c1f68b039a5627ebc5_cb4a8a449b4ada864625ee5a4355578a3aaf08ed+0x1a>
 800e37a:	eeb4 0a60 	vcmp.f32	s0, s1
 800e37e:	eef1 fa10 	vmrs	APSR_nzcv, fpscr
 800e382:	bfcc      	ite	gt
 800e384:	2001      	movgt	r0, #1
 800e386:	2000      	movle	r0, #0
 800e388:	4770      	bx	lr
 800e38a:	6803      	ldr	r3, [r0, #0]
 800e38c:	f043 0304 	orr.w	r3, r3, #4
 800e390:	6003      	str	r3, [r0, #0]
 800e392:	e7f2      	b.n	800e37a <SPE_greater_H96e4298bd9675fbbcb46b0c1f68b039a5627ebc5_cb4a8a449b4ada864625ee5a4355578a3aaf08ed+0xa>

0800e394 <SPE_ipowSquare_H96e4298bd9675fbbcb46b0c1f68b039a5627ebc5_cb4a8a449b4ada864625ee5a4355578a3aaf08ed>:
 800e394:	ee20 0a00 	vmul.f32	s0, s0, s0
 800e398:	4770      	bx	lr
 800e39a:	bf00      	nop

0800e39c <SPE_rmax_H96e4298bd9675fbbcb46b0c1f68b039a5627ebc5_cb4a8a449b4ada864625ee5a4355578a3aaf08ed>:
 800e39c:	eeb4 0a40 	vcmp.f32	s0, s0
 800e3a0:	eef1 fa10 	vmrs	APSR_nzcv, fpscr
 800e3a4:	d606      	bvs.n	800e3b4 <SPE_rmax_H96e4298bd9675fbbcb46b0c1f68b039a5627ebc5_cb4a8a449b4ada864625ee5a4355578a3aaf08ed+0x18>
 800e3a6:	eeb4 0ae0 	vcmpe.f32	s0, s1
 800e3aa:	eef1 fa10 	vmrs	APSR_nzcv, fpscr
 800e3ae:	bfd8      	it	le
 800e3b0:	eeb0 0a60 	vmovle.f32	s0, s1
 800e3b4:	4770      	bx	lr
 800e3b6:	bf00      	nop

0800e3b8 <SPE_sqrt_H96e4298bd9675fbbcb46b0c1f68b039a5627ebc5_cb4a8a449b4ada864625ee5a4355578a3aaf08ed>:
 800e3b8:	eeb5 0a40 	vcmp.f32	s0, #0.0
 800e3bc:	eef1 fa10 	vmrs	APSR_nzcv, fpscr
 800e3c0:	eef0 7a40 	vmov.f32	s15, s0
 800e3c4:	d402      	bmi.n	800e3cc <SPE_sqrt_H96e4298bd9675fbbcb46b0c1f68b039a5627ebc5_cb4a8a449b4ada864625ee5a4355578a3aaf08ed+0x14>
 800e3c6:	eeb1 0ae7 	vsqrt.f32	s0, s15
 800e3ca:	4770      	bx	lr
 800e3cc:	f000 ba30 	b.w	800e830 <sqrtf>

0800e3d0 <SPE_sin_H96e4298bd9675fbbcb46b0c1f68b039a5627ebc5_cb4a8a449b4ada864625ee5a4355578a3aaf08ed>:
 800e3d0:	f000 bb62 	b.w	800ea98 <sinf>

0800e3d4 <SPE_cos_H96e4298bd9675fbbcb46b0c1f68b039a5627ebc5_cb4a8a449b4ada864625ee5a4355578a3aaf08ed>:
 800e3d4:	f000 bb20 	b.w	800ea18 <cosf>

0800e3d8 <SPE_atan2_H96e4298bd9675fbbcb46b0c1f68b039a5627ebc5_cb4a8a449b4ada864625ee5a4355578a3aaf08ed>:
 800e3d8:	eddf 7a10 	vldr	s15, [pc, #64]	@ 800e41c <SPE_atan2_H96e4298bd9675fbbcb46b0c1f68b039a5627ebc5_cb4a8a449b4ada864625ee5a4355578a3aaf08ed+0x44>
 800e3dc:	eeb4 0a67 	vcmp.f32	s0, s15
 800e3e0:	eef1 fa10 	vmrs	APSR_nzcv, fpscr
 800e3e4:	d117      	bne.n	800e416 <SPE_atan2_H96e4298bd9675fbbcb46b0c1f68b039a5627ebc5_cb4a8a449b4ada864625ee5a4355578a3aaf08ed+0x3e>
 800e3e6:	eef4 0a67 	vcmp.f32	s1, s15
 800e3ea:	eef1 fa10 	vmrs	APSR_nzcv, fpscr
 800e3ee:	d812      	bhi.n	800e416 <SPE_atan2_H96e4298bd9675fbbcb46b0c1f68b039a5627ebc5_cb4a8a449b4ada864625ee5a4355578a3aaf08ed+0x3e>
 800e3f0:	4a0b      	ldr	r2, [pc, #44]	@ (800e420 <SPE_atan2_H96e4298bd9675fbbcb46b0c1f68b039a5627ebc5_cb4a8a449b4ada864625ee5a4355578a3aaf08ed+0x48>)
 800e3f2:	4b0c      	ldr	r3, [pc, #48]	@ (800e424 <SPE_atan2_H96e4298bd9675fbbcb46b0c1f68b039a5627ebc5_cb4a8a449b4ada864625ee5a4355578a3aaf08ed+0x4c>)
 800e3f4:	7811      	ldrb	r1, [r2, #0]
 800e3f6:	ed93 0a00 	vldr	s0, [r3]
 800e3fa:	b971      	cbnz	r1, 800e41a <SPE_atan2_H96e4298bd9675fbbcb46b0c1f68b039a5627ebc5_cb4a8a449b4ada864625ee5a4355578a3aaf08ed+0x42>
 800e3fc:	eeb7 7a00 	vmov.f32	s14, #112	@ 0x3f800000  1.0
 800e400:	ee30 7a47 	vsub.f32	s14, s0, s14
 800e404:	2101      	movs	r1, #1
 800e406:	ee77 7a27 	vadd.f32	s15, s14, s15
 800e40a:	7011      	strb	r1, [r2, #0]
 800e40c:	ee87 0a27 	vdiv.f32	s0, s14, s15
 800e410:	ed83 0a00 	vstr	s0, [r3]
 800e414:	4770      	bx	lr
 800e416:	f000 ba09 	b.w	800e82c <atan2f>
 800e41a:	4770      	bx	lr
 800e41c:	00000000 	.word	0x00000000
 800e420:	200004c0 	.word	0x200004c0
 800e424:	2000000c 	.word	0x2000000c

0800e428 <SPE_solveLinearEquations_H96e4298bd9675fbbcb46b0c1f68b039a5627ebc5_cb4a8a449b4ada864625ee5a4355578a3aaf08ed>:
 800e428:	e92d 4ff0 	stmdb	sp!, {r4, r5, r6, r7, r8, r9, sl, fp, lr}
 800e42c:	b08d      	sub	sp, #52	@ 0x34
 800e42e:	9c17      	ldr	r4, [sp, #92]	@ 0x5c
 800e430:	b3c4      	cbz	r4, 800e4a4 <SPE_solveLinearEquations_H96e4298bd9675fbbcb46b0c1f68b039a5627ebc5_cb4a8a449b4ada864625ee5a4355578a3aaf08ed+0x7c>
 800e432:	468a      	mov	sl, r1
 800e434:	4699      	mov	r9, r3
 800e436:	4611      	mov	r1, r2
 800e438:	2300      	movs	r3, #0
 800e43a:	e002      	b.n	800e442 <SPE_solveLinearEquations_H96e4298bd9675fbbcb46b0c1f68b039a5627ebc5_cb4a8a449b4ada864625ee5a4355578a3aaf08ed+0x1a>
 800e43c:	3301      	adds	r3, #1
 800e43e:	429c      	cmp	r4, r3
 800e440:	d037      	beq.n	800e4b2 <SPE_solveLinearEquations_H96e4298bd9675fbbcb46b0c1f68b039a5627ebc5_cb4a8a449b4ada864625ee5a4355578a3aaf08ed+0x8a>
 800e442:	ecf1 7a01 	vldmia	r1!, {s15}
 800e446:	eef4 7a67 	vcmp.f32	s15, s15
 800e44a:	eef1 fa10 	vmrs	APSR_nzcv, fpscr
 800e44e:	d7f5      	bvc.n	800e43c <SPE_solveLinearEquations_H96e4298bd9675fbbcb46b0c1f68b039a5627ebc5_cb4a8a449b4ada864625ee5a4355578a3aaf08ed+0x14>
 800e450:	429c      	cmp	r4, r3
 800e452:	d02e      	beq.n	800e4b2 <SPE_solveLinearEquations_H96e4298bd9675fbbcb46b0c1f68b039a5627ebc5_cb4a8a449b4ada864625ee5a4355578a3aaf08ed+0x8a>
 800e454:	49c2      	ldr	r1, [pc, #776]	@ (800e760 <SPE_solveLinearEquations_H96e4298bd9675fbbcb46b0c1f68b039a5627ebc5_cb4a8a449b4ada864625ee5a4355578a3aaf08ed+0x338>)
 800e456:	4dc3      	ldr	r5, [pc, #780]	@ (800e764 <SPE_solveLinearEquations_H96e4298bd9675fbbcb46b0c1f68b039a5627ebc5_cb4a8a449b4ada864625ee5a4355578a3aaf08ed+0x33c>)
 800e458:	780b      	ldrb	r3, [r1, #0]
 800e45a:	edd5 7a00 	vldr	s15, [r5]
 800e45e:	2b00      	cmp	r3, #0
 800e460:	f040 8196 	bne.w	800e790 <SPE_solveLinearEquations_H96e4298bd9675fbbcb46b0c1f68b039a5627ebc5_cb4a8a449b4ada864625ee5a4355578a3aaf08ed+0x368>
 800e464:	eeb7 7a00 	vmov.f32	s14, #112	@ 0x3f800000  1.0
 800e468:	ee37 7ac7 	vsub.f32	s14, s15, s14
 800e46c:	eddf 6abe 	vldr	s13, [pc, #760]	@ 800e768 <SPE_solveLinearEquations_H96e4298bd9675fbbcb46b0c1f68b039a5627ebc5_cb4a8a449b4ada864625ee5a4355578a3aaf08ed+0x340>
 800e470:	ee77 6a26 	vadd.f32	s13, s14, s13
 800e474:	2c01      	cmp	r4, #1
 800e476:	eec7 7a26 	vdiv.f32	s15, s14, s13
 800e47a:	edc2 7a00 	vstr	s15, [r2]
 800e47e:	f000 80b4 	beq.w	800e5ea <SPE_solveLinearEquations_H96e4298bd9675fbbcb46b0c1f68b039a5627ebc5_cb4a8a449b4ada864625ee5a4355578a3aaf08ed+0x1c2>
 800e482:	2c02      	cmp	r4, #2
 800e484:	edc2 7a01 	vstr	s15, [r2, #4]
 800e488:	f000 80af 	beq.w	800e5ea <SPE_solveLinearEquations_H96e4298bd9675fbbcb46b0c1f68b039a5627ebc5_cb4a8a449b4ada864625ee5a4355578a3aaf08ed+0x1c2>
 800e48c:	2601      	movs	r6, #1
 800e48e:	2302      	movs	r3, #2
 800e490:	eb02 0283 	add.w	r2, r2, r3, lsl #2
 800e494:	3301      	adds	r3, #1
 800e496:	429c      	cmp	r4, r3
 800e498:	ece2 7a01 	vstmia	r2!, {s15}
 800e49c:	d8fa      	bhi.n	800e494 <SPE_solveLinearEquations_H96e4298bd9675fbbcb46b0c1f68b039a5627ebc5_cb4a8a449b4ada864625ee5a4355578a3aaf08ed+0x6c>
 800e49e:	2e00      	cmp	r6, #0
 800e4a0:	f040 80a3 	bne.w	800e5ea <SPE_solveLinearEquations_H96e4298bd9675fbbcb46b0c1f68b039a5627ebc5_cb4a8a449b4ada864625ee5a4355578a3aaf08ed+0x1c2>
 800e4a4:	6803      	ldr	r3, [r0, #0]
 800e4a6:	f043 0308 	orr.w	r3, r3, #8
 800e4aa:	6003      	str	r3, [r0, #0]
 800e4ac:	b00d      	add	sp, #52	@ 0x34
 800e4ae:	e8bd 8ff0 	ldmia.w	sp!, {r4, r5, r6, r7, r8, r9, sl, fp, pc}
 800e4b2:	fb04 f504 	mul.w	r5, r4, r4
 800e4b6:	b1ad      	cbz	r5, 800e4e4 <SPE_solveLinearEquations_H96e4298bd9675fbbcb46b0c1f68b039a5627ebc5_cb4a8a449b4ada864625ee5a4355578a3aaf08ed+0xbc>
 800e4b8:	4651      	mov	r1, sl
 800e4ba:	ecf1 7a01 	vldmia	r1!, {s15}
 800e4be:	eef4 7a67 	vcmp.f32	s15, s15
 800e4c2:	eef1 fa10 	vmrs	APSR_nzcv, fpscr
 800e4c6:	f04f 0300 	mov.w	r3, #0
 800e4ca:	d609      	bvs.n	800e4e0 <SPE_solveLinearEquations_H96e4298bd9675fbbcb46b0c1f68b039a5627ebc5_cb4a8a449b4ada864625ee5a4355578a3aaf08ed+0xb8>
 800e4cc:	3301      	adds	r3, #1
 800e4ce:	42ab      	cmp	r3, r5
 800e4d0:	d008      	beq.n	800e4e4 <SPE_solveLinearEquations_H96e4298bd9675fbbcb46b0c1f68b039a5627ebc5_cb4a8a449b4ada864625ee5a4355578a3aaf08ed+0xbc>
 800e4d2:	ecf1 7a01 	vldmia	r1!, {s15}
 800e4d6:	eef4 7a67 	vcmp.f32	s15, s15
 800e4da:	eef1 fa10 	vmrs	APSR_nzcv, fpscr
 800e4de:	d7f5      	bvc.n	800e4cc <SPE_solveLinearEquations_H96e4298bd9675fbbcb46b0c1f68b039a5627ebc5_cb4a8a449b4ada864625ee5a4355578a3aaf08ed+0xa4>
 800e4e0:	42ab      	cmp	r3, r5
 800e4e2:	d1b7      	bne.n	800e454 <SPE_solveLinearEquations_H96e4298bd9675fbbcb46b0c1f68b039a5627ebc5_cb4a8a449b4ada864625ee5a4355578a3aaf08ed+0x2c>
 800e4e4:	f1a9 0704 	sub.w	r7, r9, #4
 800e4e8:	463b      	mov	r3, r7
 800e4ea:	463e      	mov	r6, r7
 800e4ec:	2100      	movs	r1, #0
 800e4ee:	f846 1f04 	str.w	r1, [r6, #4]!
 800e4f2:	460d      	mov	r5, r1
 800e4f4:	3101      	adds	r1, #1
 800e4f6:	428c      	cmp	r4, r1
 800e4f8:	d1f9      	bne.n	800e4ee <SPE_solveLinearEquations_H96e4298bd9675fbbcb46b0c1f68b039a5627ebc5_cb4a8a449b4ada864625ee5a4355578a3aaf08ed+0xc6>
 800e4fa:	2c01      	cmp	r4, #1
 800e4fc:	9309      	str	r3, [sp, #36]	@ 0x24
 800e4fe:	f000 8156 	beq.w	800e7ae <SPE_solveLinearEquations_H96e4298bd9675fbbcb46b0c1f68b039a5627ebc5_cb4a8a449b4ada864625ee5a4355578a3aaf08ed+0x386>
 800e502:	f105 0c02 	add.w	ip, r5, #2
 800e506:	ea4f 068c 	mov.w	r6, ip, lsl #2
 800e50a:	9603      	str	r6, [sp, #12]
 800e50c:	3604      	adds	r6, #4
 800e50e:	eb0a 0306 	add.w	r3, sl, r6
 800e512:	9302      	str	r3, [sp, #8]
 800e514:	2300      	movs	r3, #0
 800e516:	9304      	str	r3, [sp, #16]
 800e518:	9b03      	ldr	r3, [sp, #12]
 800e51a:	9201      	str	r2, [sp, #4]
 800e51c:	f1c3 0304 	rsb	r3, r3, #4
 800e520:	9305      	str	r3, [sp, #20]
 800e522:	9b03      	ldr	r3, [sp, #12]
 800e524:	9a05      	ldr	r2, [sp, #20]
 800e526:	f8cd a01c 	str.w	sl, [sp, #28]
 800e52a:	f1a3 0e04 	sub.w	lr, r3, #4
 800e52e:	eb0a 03c4 	add.w	r3, sl, r4, lsl #3
 800e532:	9308      	str	r3, [sp, #32]
 800e534:	e9cd 7c0a 	strd	r7, ip, [sp, #40]	@ 0x28
 800e538:	9b03      	ldr	r3, [sp, #12]
 800e53a:	9106      	str	r1, [sp, #24]
 800e53c:	f10a 0608 	add.w	r6, sl, #8
 800e540:	f04f 0800 	mov.w	r8, #0
 800e544:	469b      	mov	fp, r3
 800e546:	46ca      	mov	sl, r9
 800e548:	4641      	mov	r1, r8
 800e54a:	ed56 6a02 	vldr	s13, [r6, #-8]
 800e54e:	42a9      	cmp	r1, r5
 800e550:	eeb0 7ae6 	vabs.f32	s14, s13
 800e554:	f108 0801 	add.w	r8, r8, #1
 800e558:	f000 8122 	beq.w	800e7a0 <SPE_solveLinearEquations_H96e4298bd9675fbbcb46b0c1f68b039a5627ebc5_cb4a8a449b4ada864625ee5a4355578a3aaf08ed+0x378>
 800e55c:	9b02      	ldr	r3, [sp, #8]
 800e55e:	4647      	mov	r7, r8
 800e560:	f1a3 0c08 	sub.w	ip, r3, #8
 800e564:	460b      	mov	r3, r1
 800e566:	e000      	b.n	800e56a <SPE_solveLinearEquations_H96e4298bd9675fbbcb46b0c1f68b039a5627ebc5_cb4a8a449b4ada864625ee5a4355578a3aaf08ed+0x142>
 800e568:	464f      	mov	r7, r9
 800e56a:	eddc 7a00 	vldr	s15, [ip]
 800e56e:	eef0 7ae7 	vabs.f32	s15, s15
 800e572:	eef4 7a47 	vcmp.f32	s15, s14
 800e576:	eef1 fa10 	vmrs	APSR_nzcv, fpscr
 800e57a:	bfc8      	it	gt
 800e57c:	463b      	movgt	r3, r7
 800e57e:	bfc8      	it	gt
 800e580:	eeb0 7a67 	vmovgt.f32	s14, s15
 800e584:	42bd      	cmp	r5, r7
 800e586:	f107 0901 	add.w	r9, r7, #1
 800e58a:	44f4      	add	ip, lr
 800e58c:	d1ec      	bne.n	800e568 <SPE_solveLinearEquations_H96e4298bd9675fbbcb46b0c1f68b039a5627ebc5_cb4a8a449b4ada864625ee5a4355578a3aaf08ed+0x140>
 800e58e:	4299      	cmp	r1, r3
 800e590:	d030      	beq.n	800e5f4 <SPE_solveLinearEquations_H96e4298bd9675fbbcb46b0c1f68b039a5627ebc5_cb4a8a449b4ada864625ee5a4355578a3aaf08ed+0x1cc>
 800e592:	f85a 7021 	ldr.w	r7, [sl, r1, lsl #2]
 800e596:	f85a c023 	ldr.w	ip, [sl, r3, lsl #2]
 800e59a:	f84a 7023 	str.w	r7, [sl, r3, lsl #2]
 800e59e:	9f06      	ldr	r7, [sp, #24]
 800e5a0:	f84a c021 	str.w	ip, [sl, r1, lsl #2]
 800e5a4:	fb07 f303 	mul.w	r3, r7, r3
 800e5a8:	eb07 0903 	add.w	r9, r7, r3
 800e5ac:	9f07      	ldr	r7, [sp, #28]
 800e5ae:	eb07 0383 	add.w	r3, r7, r3, lsl #2
 800e5b2:	9305      	str	r3, [sp, #20]
 800e5b4:	9b04      	ldr	r3, [sp, #16]
 800e5b6:	eb07 0989 	add.w	r9, r7, r9, lsl #2
 800e5ba:	ea4f 0c83 	mov.w	ip, r3, lsl #2
 800e5be:	eb07 0783 	add.w	r7, r7, r3, lsl #2
 800e5c2:	9b05      	ldr	r3, [sp, #20]
 800e5c4:	ed97 7a00 	vldr	s14, [r7]
 800e5c8:	edd3 7a00 	vldr	s15, [r3]
 800e5cc:	eca3 7a01 	vstmia	r3!, {s14}
 800e5d0:	454b      	cmp	r3, r9
 800e5d2:	ece7 7a01 	vstmia	r7!, {s15}
 800e5d6:	d1f5      	bne.n	800e5c4 <SPE_solveLinearEquations_H96e4298bd9675fbbcb46b0c1f68b039a5627ebc5_cb4a8a449b4ada864625ee5a4355578a3aaf08ed+0x19c>
 800e5d8:	ed56 6a02 	vldr	s13, [r6, #-8]
 800e5dc:	eef5 6a40 	vcmp.f32	s13, #0.0
 800e5e0:	eef1 fa10 	vmrs	APSR_nzcv, fpscr
 800e5e4:	d10e      	bne.n	800e604 <SPE_solveLinearEquations_H96e4298bd9675fbbcb46b0c1f68b039a5627ebc5_cb4a8a449b4ada864625ee5a4355578a3aaf08ed+0x1dc>
 800e5e6:	9a01      	ldr	r2, [sp, #4]
 800e5e8:	e734      	b.n	800e454 <SPE_solveLinearEquations_H96e4298bd9675fbbcb46b0c1f68b039a5627ebc5_cb4a8a449b4ada864625ee5a4355578a3aaf08ed+0x2c>
 800e5ea:	2301      	movs	r3, #1
 800e5ec:	edc5 7a00 	vstr	s15, [r5]
 800e5f0:	700b      	strb	r3, [r1, #0]
 800e5f2:	e757      	b.n	800e4a4 <SPE_solveLinearEquations_H96e4298bd9675fbbcb46b0c1f68b039a5627ebc5_cb4a8a449b4ada864625ee5a4355578a3aaf08ed+0x7c>
 800e5f4:	eef5 6a40 	vcmp.f32	s13, #0.0
 800e5f8:	eef1 fa10 	vmrs	APSR_nzcv, fpscr
 800e5fc:	d0f3      	beq.n	800e5e6 <SPE_solveLinearEquations_H96e4298bd9675fbbcb46b0c1f68b039a5627ebc5_cb4a8a449b4ada864625ee5a4355578a3aaf08ed+0x1be>
 800e5fe:	9b04      	ldr	r3, [sp, #16]
 800e600:	ea4f 0c83 	mov.w	ip, r3, lsl #2
 800e604:	9b08      	ldr	r3, [sp, #32]
 800e606:	9f02      	ldr	r7, [sp, #8]
 800e608:	9105      	str	r1, [sp, #20]
 800e60a:	449c      	add	ip, r3
 800e60c:	46c1      	mov	r9, r8
 800e60e:	ed17 7a02 	vldr	s14, [r7, #-8]
 800e612:	eec7 7a26 	vdiv.f32	s15, s14, s13
 800e616:	19d3      	adds	r3, r2, r7
 800e618:	445b      	add	r3, fp
 800e61a:	45a8      	cmp	r8, r5
 800e61c:	ed47 7a02 	vstr	s15, [r7, #-8]
 800e620:	ed16 7a01 	vldr	s14, [r6, #-4]
 800e624:	ee67 7a87 	vmul.f32	s15, s15, s14
 800e628:	ed13 7a02 	vldr	s14, [r3, #-8]
 800e62c:	ee77 7a67 	vsub.f32	s15, s14, s15
 800e630:	ed43 7a02 	vstr	s15, [r3, #-8]
 800e634:	d01a      	beq.n	800e66c <SPE_solveLinearEquations_H96e4298bd9675fbbcb46b0c1f68b039a5627ebc5_cb4a8a449b4ada864625ee5a4355578a3aaf08ed+0x244>
 800e636:	4631      	mov	r1, r6
 800e638:	463b      	mov	r3, r7
 800e63a:	ecb1 7a01 	vldmia	r1!, {s14}
 800e63e:	ed57 6a02 	vldr	s13, [r7, #-8]
 800e642:	edd3 7a00 	vldr	s15, [r3]
 800e646:	ee27 7a26 	vmul.f32	s14, s14, s13
 800e64a:	ee77 7ac7 	vsub.f32	s15, s15, s14
 800e64e:	ece3 7a01 	vstmia	r3!, {s15}
 800e652:	459c      	cmp	ip, r3
 800e654:	d1f1      	bne.n	800e63a <SPE_solveLinearEquations_H96e4298bd9675fbbcb46b0c1f68b039a5627ebc5_cb4a8a449b4ada864625ee5a4355578a3aaf08ed+0x212>
 800e656:	454d      	cmp	r5, r9
 800e658:	4477      	add	r7, lr
 800e65a:	44f4      	add	ip, lr
 800e65c:	f109 0301 	add.w	r3, r9, #1
 800e660:	f000 8084 	beq.w	800e76c <SPE_solveLinearEquations_H96e4298bd9675fbbcb46b0c1f68b039a5627ebc5_cb4a8a449b4ada864625ee5a4355578a3aaf08ed+0x344>
 800e664:	ed56 6a02 	vldr	s13, [r6, #-8]
 800e668:	4699      	mov	r9, r3
 800e66a:	e7d0      	b.n	800e60e <SPE_solveLinearEquations_H96e4298bd9675fbbcb46b0c1f68b039a5627ebc5_cb4a8a449b4ada864625ee5a4355578a3aaf08ed+0x1e6>
 800e66c:	454d      	cmp	r5, r9
 800e66e:	4477      	add	r7, lr
 800e670:	44f4      	add	ip, lr
 800e672:	f109 0301 	add.w	r3, r9, #1
 800e676:	d1f5      	bne.n	800e664 <SPE_solveLinearEquations_H96e4298bd9675fbbcb46b0c1f68b039a5627ebc5_cb4a8a449b4ada864625ee5a4355578a3aaf08ed+0x23c>
 800e678:	e9dd 1a06 	ldrd	r1, sl, [sp, #24]
 800e67c:	f06f 4640 	mvn.w	r6, #3221225472	@ 0xc0000000
 800e680:	fb01 6601 	mla	r6, r1, r1, r6
 800e684:	eb0a 0686 	add.w	r6, sl, r6, lsl #2
 800e688:	edd6 7a00 	vldr	s15, [r6]
 800e68c:	9a01      	ldr	r2, [sp, #4]
 800e68e:	eef5 7a40 	vcmp.f32	s15, #0.0
 800e692:	eef1 fa10 	vmrs	APSR_nzcv, fpscr
 800e696:	e9dd 7c0a 	ldrd	r7, ip, [sp, #40]	@ 0x28
 800e69a:	f43f aedb 	beq.w	800e454 <SPE_solveLinearEquations_H96e4298bd9675fbbcb46b0c1f68b039a5627ebc5_cb4a8a449b4ada864625ee5a4355578a3aaf08ed+0x2c>
 800e69e:	9e16      	ldr	r6, [sp, #88]	@ 0x58
 800e6a0:	9b09      	ldr	r3, [sp, #36]	@ 0x24
 800e6a2:	eb07 0781 	add.w	r7, r7, r1, lsl #2
 800e6a6:	0088      	lsls	r0, r1, #2
 800e6a8:	f853 4f04 	ldr.w	r4, [r3, #4]!
 800e6ac:	eb02 0484 	add.w	r4, r2, r4, lsl #2
 800e6b0:	429f      	cmp	r7, r3
 800e6b2:	6824      	ldr	r4, [r4, #0]
 800e6b4:	f846 4b04 	str.w	r4, [r6], #4
 800e6b8:	d1f6      	bne.n	800e6a8 <SPE_solveLinearEquations_H96e4298bd9675fbbcb46b0c1f68b039a5627ebc5_cb4a8a449b4ada864625ee5a4355578a3aaf08ed+0x280>
 800e6ba:	9b16      	ldr	r3, [sp, #88]	@ 0x58
 800e6bc:	681b      	ldr	r3, [r3, #0]
 800e6be:	6013      	str	r3, [r2, #0]
 800e6c0:	2d00      	cmp	r5, #0
 800e6c2:	d07f      	beq.n	800e7c4 <SPE_solveLinearEquations_H96e4298bd9675fbbcb46b0c1f68b039a5627ebc5_cb4a8a449b4ada864625ee5a4355578a3aaf08ed+0x39c>
 800e6c4:	9b16      	ldr	r3, [sp, #88]	@ 0x58
 800e6c6:	f100 0804 	add.w	r8, r0, #4
 800e6ca:	f103 0904 	add.w	r9, r3, #4
 800e6ce:	4410      	add	r0, r2
 800e6d0:	f102 0e04 	add.w	lr, r2, #4
 800e6d4:	eb0a 0608 	add.w	r6, sl, r8
 800e6d8:	460f      	mov	r7, r1
 800e6da:	ed9f 7a23 	vldr	s14, [pc, #140]	@ 800e768 <SPE_solveLinearEquations_H96e4298bd9675fbbcb46b0c1f68b039a5627ebc5_cb4a8a449b4ada864625ee5a4355578a3aaf08ed+0x340>
 800e6de:	eb0a 0387 	add.w	r3, sl, r7, lsl #2
 800e6e2:	4614      	mov	r4, r2
 800e6e4:	ecf3 6a01 	vldmia	r3!, {s13}
 800e6e8:	ecf4 7a01 	vldmia	r4!, {s15}
 800e6ec:	ee67 7aa6 	vmul.f32	s15, s15, s13
 800e6f0:	429e      	cmp	r6, r3
 800e6f2:	ee37 7a27 	vadd.f32	s14, s14, s15
 800e6f6:	d1f5      	bne.n	800e6e4 <SPE_solveLinearEquations_H96e4298bd9675fbbcb46b0c1f68b039a5627ebc5_cb4a8a449b4ada864625ee5a4355578a3aaf08ed+0x2bc>
 800e6f8:	ecf9 7a01 	vldmia	r9!, {s15}
 800e6fc:	ee77 7ac7 	vsub.f32	s15, s15, s14
 800e700:	440f      	add	r7, r1
 800e702:	ecee 7a01 	vstmia	lr!, {s15}
 800e706:	4570      	cmp	r0, lr
 800e708:	4446      	add	r6, r8
 800e70a:	d1e6      	bne.n	800e6da <SPE_solveLinearEquations_H96e4298bd9675fbbcb46b0c1f68b039a5627ebc5_cb4a8a449b4ada864625ee5a4355578a3aaf08ed+0x2b2>
 800e70c:	fb05 f40c 	mul.w	r4, r5, ip
 800e710:	43c9      	mvns	r1, r1
 800e712:	3401      	adds	r4, #1
 800e714:	008f      	lsls	r7, r1, #2
 800e716:	eb0a 0484 	add.w	r4, sl, r4, lsl #2
 800e71a:	4629      	mov	r1, r5
 800e71c:	4606      	mov	r6, r0
 800e71e:	428d      	cmp	r5, r1
 800e720:	ed9f 7a11 	vldr	s14, [pc, #68]	@ 800e768 <SPE_solveLinearEquations_H96e4298bd9675fbbcb46b0c1f68b039a5627ebc5_cb4a8a449b4ada864625ee5a4355578a3aaf08ed+0x340>
 800e724:	d00b      	beq.n	800e73e <SPE_solveLinearEquations_H96e4298bd9675fbbcb46b0c1f68b039a5627ebc5_cb4a8a449b4ada864625ee5a4355578a3aaf08ed+0x316>
 800e726:	4633      	mov	r3, r6
 800e728:	4622      	mov	r2, r4
 800e72a:	ecf3 6a01 	vldmia	r3!, {s13}
 800e72e:	ecf2 7a01 	vldmia	r2!, {s15}
 800e732:	ee67 7aa6 	vmul.f32	s15, s15, s13
 800e736:	4283      	cmp	r3, r0
 800e738:	ee37 7a27 	vadd.f32	s14, s14, s15
 800e73c:	d1f5      	bne.n	800e72a <SPE_solveLinearEquations_H96e4298bd9675fbbcb46b0c1f68b039a5627ebc5_cb4a8a449b4ada864625ee5a4355578a3aaf08ed+0x302>
 800e73e:	ed76 7a01 	vldmdb	r6!, {s15}
 800e742:	ed54 6a01 	vldr	s13, [r4, #-4]
 800e746:	ee77 7ac7 	vsub.f32	s15, s15, s14
 800e74a:	3901      	subs	r1, #1
 800e74c:	ee87 7aa6 	vdiv.f32	s14, s15, s13
 800e750:	1c4b      	adds	r3, r1, #1
 800e752:	443c      	add	r4, r7
 800e754:	ed86 7a00 	vstr	s14, [r6]
 800e758:	d1e1      	bne.n	800e71e <SPE_solveLinearEquations_H96e4298bd9675fbbcb46b0c1f68b039a5627ebc5_cb4a8a449b4ada864625ee5a4355578a3aaf08ed+0x2f6>
 800e75a:	b00d      	add	sp, #52	@ 0x34
 800e75c:	e8bd 8ff0 	ldmia.w	sp!, {r4, r5, r6, r7, r8, r9, sl, fp, pc}
 800e760:	200004c0 	.word	0x200004c0
 800e764:	2000000c 	.word	0x2000000c
 800e768:	00000000 	.word	0x00000000
 800e76c:	9905      	ldr	r1, [sp, #20]
 800e76e:	9b03      	ldr	r3, [sp, #12]
 800e770:	9f04      	ldr	r7, [sp, #16]
 800e772:	441e      	add	r6, r3
 800e774:	9b06      	ldr	r3, [sp, #24]
 800e776:	441f      	add	r7, r3
 800e778:	9704      	str	r7, [sp, #16]
 800e77a:	e9dd 7302 	ldrd	r7, r3, [sp, #8]
 800e77e:	42a9      	cmp	r1, r5
 800e780:	441f      	add	r7, r3
 800e782:	9702      	str	r7, [sp, #8]
 800e784:	eba2 0203 	sub.w	r2, r2, r3
 800e788:	449b      	add	fp, r3
 800e78a:	f43f af2c 	beq.w	800e5e6 <SPE_solveLinearEquations_H96e4298bd9675fbbcb46b0c1f68b039a5627ebc5_cb4a8a449b4ada864625ee5a4355578a3aaf08ed+0x1be>
 800e78e:	e6db      	b.n	800e548 <SPE_solveLinearEquations_H96e4298bd9675fbbcb46b0c1f68b039a5627ebc5_cb4a8a449b4ada864625ee5a4355578a3aaf08ed+0x120>
 800e790:	2c01      	cmp	r4, #1
 800e792:	edc2 7a00 	vstr	s15, [r2]
 800e796:	f43f ae85 	beq.w	800e4a4 <SPE_solveLinearEquations_H96e4298bd9675fbbcb46b0c1f68b039a5627ebc5_cb4a8a449b4ada864625ee5a4355578a3aaf08ed+0x7c>
 800e79a:	2600      	movs	r6, #0
 800e79c:	2301      	movs	r3, #1
 800e79e:	e677      	b.n	800e490 <SPE_solveLinearEquations_H96e4298bd9675fbbcb46b0c1f68b039a5627ebc5_cb4a8a449b4ada864625ee5a4355578a3aaf08ed+0x68>
 800e7a0:	eef5 6a40 	vcmp.f32	s13, #0.0
 800e7a4:	eef1 fa10 	vmrs	APSR_nzcv, fpscr
 800e7a8:	f43f af1d 	beq.w	800e5e6 <SPE_solveLinearEquations_H96e4298bd9675fbbcb46b0c1f68b039a5627ebc5_cb4a8a449b4ada864625ee5a4355578a3aaf08ed+0x1be>
 800e7ac:	e7df      	b.n	800e76e <SPE_solveLinearEquations_H96e4298bd9675fbbcb46b0c1f68b039a5627ebc5_cb4a8a449b4ada864625ee5a4355578a3aaf08ed+0x346>
 800e7ae:	edda 7a00 	vldr	s15, [sl]
 800e7b2:	eef5 7a40 	vcmp.f32	s15, #0.0
 800e7b6:	eef1 fa10 	vmrs	APSR_nzcv, fpscr
 800e7ba:	f43f ae4b 	beq.w	800e454 <SPE_solveLinearEquations_H96e4298bd9675fbbcb46b0c1f68b039a5627ebc5_cb4a8a449b4ada864625ee5a4355578a3aaf08ed+0x2c>
 800e7be:	f105 0c02 	add.w	ip, r5, #2
 800e7c2:	e76c      	b.n	800e69e <SPE_solveLinearEquations_H96e4298bd9675fbbcb46b0c1f68b039a5627ebc5_cb4a8a449b4ada864625ee5a4355578a3aaf08ed+0x276>
 800e7c4:	4410      	add	r0, r2
 800e7c6:	e7a1      	b.n	800e70c <SPE_solveLinearEquations_H96e4298bd9675fbbcb46b0c1f68b039a5627ebc5_cb4a8a449b4ada864625ee5a4355578a3aaf08ed+0x2e4>

0800e7c8 <memset>:
 800e7c8:	4402      	add	r2, r0
 800e7ca:	4603      	mov	r3, r0
 800e7cc:	4293      	cmp	r3, r2
 800e7ce:	d100      	bne.n	800e7d2 <memset+0xa>
 800e7d0:	4770      	bx	lr
 800e7d2:	f803 1b01 	strb.w	r1, [r3], #1
 800e7d6:	e7f9      	b.n	800e7cc <memset+0x4>

0800e7d8 <__errno>:
 800e7d8:	4b01      	ldr	r3, [pc, #4]	@ (800e7e0 <__errno+0x8>)
 800e7da:	6818      	ldr	r0, [r3, #0]
 800e7dc:	4770      	bx	lr
 800e7de:	bf00      	nop
 800e7e0:	20000010 	.word	0x20000010

0800e7e4 <__libc_init_array>:
 800e7e4:	b570      	push	{r4, r5, r6, lr}
 800e7e6:	4b0d      	ldr	r3, [pc, #52]	@ (800e81c <__libc_init_array+0x38>)
 800e7e8:	4d0d      	ldr	r5, [pc, #52]	@ (800e820 <__libc_init_array+0x3c>)
 800e7ea:	1b5b      	subs	r3, r3, r5
 800e7ec:	109c      	asrs	r4, r3, #2
 800e7ee:	2600      	movs	r6, #0
 800e7f0:	42a6      	cmp	r6, r4
 800e7f2:	d109      	bne.n	800e808 <__libc_init_array+0x24>
 800e7f4:	f001 f832 	bl	800f85c <_init>
 800e7f8:	4d0a      	ldr	r5, [pc, #40]	@ (800e824 <__libc_init_array+0x40>)
 800e7fa:	4b0b      	ldr	r3, [pc, #44]	@ (800e828 <__libc_init_array+0x44>)
 800e7fc:	1b5b      	subs	r3, r3, r5
 800e7fe:	109c      	asrs	r4, r3, #2
 800e800:	2600      	movs	r6, #0
 800e802:	42a6      	cmp	r6, r4
 800e804:	d105      	bne.n	800e812 <__libc_init_array+0x2e>
 800e806:	bd70      	pop	{r4, r5, r6, pc}
 800e808:	f855 3b04 	ldr.w	r3, [r5], #4
 800e80c:	4798      	blx	r3
 800e80e:	3601      	adds	r6, #1
 800e810:	e7ee      	b.n	800e7f0 <__libc_init_array+0xc>
 800e812:	f855 3b04 	ldr.w	r3, [r5], #4
 800e816:	4798      	blx	r3
 800e818:	3601      	adds	r6, #1
 800e81a:	e7f2      	b.n	800e802 <__libc_init_array+0x1e>
 800e81c:	0800fccc 	.word	0x0800fccc
 800e820:	0800fccc 	.word	0x0800fccc
 800e824:	0800fccc 	.word	0x0800fccc
 800e828:	0800fcd0 	.word	0x0800fcd0

0800e82c <atan2f>:
 800e82c:	f000 ba86 	b.w	800ed3c <__ieee754_atan2f>

0800e830 <sqrtf>:
 800e830:	b508      	push	{r3, lr}
 800e832:	ed2d 8b02 	vpush	{d8}
 800e836:	eeb0 8a40 	vmov.f32	s16, s0
 800e83a:	f000 f967 	bl	800eb0c <__ieee754_sqrtf>
 800e83e:	eeb4 8a48 	vcmp.f32	s16, s16
 800e842:	eef1 fa10 	vmrs	APSR_nzcv, fpscr
 800e846:	d606      	bvs.n	800e856 <sqrtf+0x26>
 800e848:	eddf 8a09 	vldr	s17, [pc, #36]	@ 800e870 <sqrtf+0x40>
 800e84c:	eeb4 8ae8 	vcmpe.f32	s16, s17
 800e850:	eef1 fa10 	vmrs	APSR_nzcv, fpscr
 800e854:	d402      	bmi.n	800e85c <sqrtf+0x2c>
 800e856:	ecbd 8b02 	vpop	{d8}
 800e85a:	bd08      	pop	{r3, pc}
 800e85c:	f7ff ffbc 	bl	800e7d8 <__errno>
 800e860:	ee88 0aa8 	vdiv.f32	s0, s17, s17
 800e864:	ecbd 8b02 	vpop	{d8}
 800e868:	2321      	movs	r3, #33	@ 0x21
 800e86a:	6003      	str	r3, [r0, #0]
 800e86c:	bd08      	pop	{r3, pc}
 800e86e:	bf00      	nop
 800e870:	00000000 	.word	0x00000000

0800e874 <atanf>:
 800e874:	b538      	push	{r3, r4, r5, lr}
 800e876:	ee10 5a10 	vmov	r5, s0
 800e87a:	f025 4400 	bic.w	r4, r5, #2147483648	@ 0x80000000
 800e87e:	f1b4 4fa1 	cmp.w	r4, #1350565888	@ 0x50800000
 800e882:	eef0 7a40 	vmov.f32	s15, s0
 800e886:	d307      	bcc.n	800e898 <atanf+0x24>
 800e888:	f1b4 4fff 	cmp.w	r4, #2139095040	@ 0x7f800000
 800e88c:	d855      	bhi.n	800e93a <atanf+0xc6>
 800e88e:	2d00      	cmp	r5, #0
 800e890:	dd77      	ble.n	800e982 <atanf+0x10e>
 800e892:	ed9f 0a4e 	vldr	s0, [pc, #312]	@ 800e9cc <atanf+0x158>
 800e896:	bd38      	pop	{r3, r4, r5, pc}
 800e898:	4b4d      	ldr	r3, [pc, #308]	@ (800e9d0 <atanf+0x15c>)
 800e89a:	429c      	cmp	r4, r3
 800e89c:	d85c      	bhi.n	800e958 <atanf+0xe4>
 800e89e:	f1b4 5f44 	cmp.w	r4, #822083584	@ 0x31000000
 800e8a2:	d34d      	bcc.n	800e940 <atanf+0xcc>
 800e8a4:	f04f 33ff 	mov.w	r3, #4294967295
 800e8a8:	ee27 6aa7 	vmul.f32	s12, s15, s15
 800e8ac:	ed9f 5a49 	vldr	s10, [pc, #292]	@ 800e9d4 <atanf+0x160>
 800e8b0:	ed9f 7a49 	vldr	s14, [pc, #292]	@ 800e9d8 <atanf+0x164>
 800e8b4:	eddf 5a49 	vldr	s11, [pc, #292]	@ 800e9dc <atanf+0x168>
 800e8b8:	eddf 4a49 	vldr	s9, [pc, #292]	@ 800e9e0 <atanf+0x16c>
 800e8bc:	ee66 6a06 	vmul.f32	s13, s12, s12
 800e8c0:	1c5a      	adds	r2, r3, #1
 800e8c2:	eea6 7a85 	vfma.f32	s14, s13, s10
 800e8c6:	eee6 4aa5 	vfma.f32	s9, s13, s11
 800e8ca:	ed9f 5a46 	vldr	s10, [pc, #280]	@ 800e9e4 <atanf+0x170>
 800e8ce:	eddf 5a46 	vldr	s11, [pc, #280]	@ 800e9e8 <atanf+0x174>
 800e8d2:	eea7 5a26 	vfma.f32	s10, s14, s13
 800e8d6:	eee4 5aa6 	vfma.f32	s11, s9, s13
 800e8da:	ed9f 7a44 	vldr	s14, [pc, #272]	@ 800e9ec <atanf+0x178>
 800e8de:	eddf 4a44 	vldr	s9, [pc, #272]	@ 800e9f0 <atanf+0x17c>
 800e8e2:	eea5 7a26 	vfma.f32	s14, s10, s13
 800e8e6:	eee5 4aa6 	vfma.f32	s9, s11, s13
 800e8ea:	ed9f 5a42 	vldr	s10, [pc, #264]	@ 800e9f4 <atanf+0x180>
 800e8ee:	eddf 5a42 	vldr	s11, [pc, #264]	@ 800e9f8 <atanf+0x184>
 800e8f2:	eea7 5a26 	vfma.f32	s10, s14, s13
 800e8f6:	ed9f 7a41 	vldr	s14, [pc, #260]	@ 800e9fc <atanf+0x188>
 800e8fa:	eea4 7aa6 	vfma.f32	s14, s9, s13
 800e8fe:	eee5 5a26 	vfma.f32	s11, s10, s13
 800e902:	ee27 7a26 	vmul.f32	s14, s14, s13
 800e906:	eea5 7a86 	vfma.f32	s14, s11, s12
 800e90a:	ee27 7a87 	vmul.f32	s14, s15, s14
 800e90e:	d03b      	beq.n	800e988 <atanf+0x114>
 800e910:	493b      	ldr	r1, [pc, #236]	@ (800ea00 <atanf+0x18c>)
 800e912:	4a3c      	ldr	r2, [pc, #240]	@ (800ea04 <atanf+0x190>)
 800e914:	eb01 0183 	add.w	r1, r1, r3, lsl #2
 800e918:	edd1 6a00 	vldr	s13, [r1]
 800e91c:	ee37 7a66 	vsub.f32	s14, s14, s13
 800e920:	eb02 0383 	add.w	r3, r2, r3, lsl #2
 800e924:	edd3 6a00 	vldr	s13, [r3]
 800e928:	ee37 7a67 	vsub.f32	s14, s14, s15
 800e92c:	2d00      	cmp	r5, #0
 800e92e:	ee36 0ac7 	vsub.f32	s0, s13, s14
 800e932:	dab0      	bge.n	800e896 <atanf+0x22>
 800e934:	eeb1 0a40 	vneg.f32	s0, s0
 800e938:	bd38      	pop	{r3, r4, r5, pc}
 800e93a:	ee30 0a00 	vadd.f32	s0, s0, s0
 800e93e:	bd38      	pop	{r3, r4, r5, pc}
 800e940:	ed9f 7a31 	vldr	s14, [pc, #196]	@ 800ea08 <atanf+0x194>
 800e944:	ee30 7a07 	vadd.f32	s14, s0, s14
 800e948:	eef7 6a00 	vmov.f32	s13, #112	@ 0x3f800000  1.0
 800e94c:	eeb4 7ae6 	vcmpe.f32	s14, s13
 800e950:	eef1 fa10 	vmrs	APSR_nzcv, fpscr
 800e954:	dda6      	ble.n	800e8a4 <atanf+0x30>
 800e956:	bd38      	pop	{r3, r4, r5, pc}
 800e958:	f000 f896 	bl	800ea88 <fabsf>
 800e95c:	4b2b      	ldr	r3, [pc, #172]	@ (800ea0c <atanf+0x198>)
 800e95e:	429c      	cmp	r4, r3
 800e960:	d815      	bhi.n	800e98e <atanf+0x11a>
 800e962:	f5a3 03d0 	sub.w	r3, r3, #6815744	@ 0x680000
 800e966:	429c      	cmp	r4, r3
 800e968:	d826      	bhi.n	800e9b8 <atanf+0x144>
 800e96a:	eef0 7a00 	vmov.f32	s15, #0	@ 0x40000000  2.0
 800e96e:	eebf 7a00 	vmov.f32	s14, #240	@ 0xbf800000 -1.0
 800e972:	eea0 7a27 	vfma.f32	s14, s0, s15
 800e976:	2300      	movs	r3, #0
 800e978:	ee30 0a27 	vadd.f32	s0, s0, s15
 800e97c:	eec7 7a00 	vdiv.f32	s15, s14, s0
 800e980:	e792      	b.n	800e8a8 <atanf+0x34>
 800e982:	ed9f 0a23 	vldr	s0, [pc, #140]	@ 800ea10 <atanf+0x19c>
 800e986:	bd38      	pop	{r3, r4, r5, pc}
 800e988:	ee37 0ac7 	vsub.f32	s0, s15, s14
 800e98c:	bd38      	pop	{r3, r4, r5, pc}
 800e98e:	4b21      	ldr	r3, [pc, #132]	@ (800ea14 <atanf+0x1a0>)
 800e990:	429c      	cmp	r4, r3
 800e992:	d80b      	bhi.n	800e9ac <atanf+0x138>
 800e994:	eef7 7a08 	vmov.f32	s15, #120	@ 0x3fc00000  1.5
 800e998:	eeb7 7a00 	vmov.f32	s14, #112	@ 0x3f800000  1.0
 800e99c:	eea0 7a27 	vfma.f32	s14, s0, s15
 800e9a0:	2302      	movs	r3, #2
 800e9a2:	ee30 0a67 	vsub.f32	s0, s0, s15
 800e9a6:	eec0 7a07 	vdiv.f32	s15, s0, s14
 800e9aa:	e77d      	b.n	800e8a8 <atanf+0x34>
 800e9ac:	eebf 7a00 	vmov.f32	s14, #240	@ 0xbf800000 -1.0
 800e9b0:	eec7 7a00 	vdiv.f32	s15, s14, s0
 800e9b4:	2303      	movs	r3, #3
 800e9b6:	e777      	b.n	800e8a8 <atanf+0x34>
 800e9b8:	eef7 7a00 	vmov.f32	s15, #112	@ 0x3f800000  1.0
 800e9bc:	ee30 7a67 	vsub.f32	s14, s0, s15
 800e9c0:	ee30 0a27 	vadd.f32	s0, s0, s15
 800e9c4:	2301      	movs	r3, #1
 800e9c6:	eec7 7a00 	vdiv.f32	s15, s14, s0
 800e9ca:	e76d      	b.n	800e8a8 <atanf+0x34>
 800e9cc:	3fc90fdb 	.word	0x3fc90fdb
 800e9d0:	3edfffff 	.word	0x3edfffff
 800e9d4:	3c8569d7 	.word	0x3c8569d7
 800e9d8:	3d4bda59 	.word	0x3d4bda59
 800e9dc:	bd15a221 	.word	0xbd15a221
 800e9e0:	bd6ef16b 	.word	0xbd6ef16b
 800e9e4:	3d886b35 	.word	0x3d886b35
 800e9e8:	bd9d8795 	.word	0xbd9d8795
 800e9ec:	3dba2e6e 	.word	0x3dba2e6e
 800e9f0:	bde38e38 	.word	0xbde38e38
 800e9f4:	3e124925 	.word	0x3e124925
 800e9f8:	3eaaaaab 	.word	0x3eaaaaab
 800e9fc:	be4ccccd 	.word	0xbe4ccccd
 800ea00:	0800f8bc 	.word	0x0800f8bc
 800ea04:	0800f8cc 	.word	0x0800f8cc
 800ea08:	7149f2ca 	.word	0x7149f2ca
 800ea0c:	3f97ffff 	.word	0x3f97ffff
 800ea10:	bfc90fdb 	.word	0xbfc90fdb
 800ea14:	401bffff 	.word	0x401bffff

0800ea18 <cosf>:
 800ea18:	ee10 3a10 	vmov	r3, s0
 800ea1c:	4918      	ldr	r1, [pc, #96]	@ (800ea80 <cosf+0x68>)
 800ea1e:	f023 4200 	bic.w	r2, r3, #2147483648	@ 0x80000000
 800ea22:	428a      	cmp	r2, r1
 800ea24:	d919      	bls.n	800ea5a <cosf+0x42>
 800ea26:	f1b2 4fff 	cmp.w	r2, #2139095040	@ 0x7f800000
 800ea2a:	d302      	bcc.n	800ea32 <cosf+0x1a>
 800ea2c:	ee30 0a40 	vsub.f32	s0, s0, s0
 800ea30:	4770      	bx	lr
 800ea32:	b500      	push	{lr}
 800ea34:	b083      	sub	sp, #12
 800ea36:	4668      	mov	r0, sp
 800ea38:	f000 fa26 	bl	800ee88 <__ieee754_rem_pio2f>
 800ea3c:	f000 0003 	and.w	r0, r0, #3
 800ea40:	2801      	cmp	r0, #1
 800ea42:	ed9d 0a00 	vldr	s0, [sp]
 800ea46:	eddd 0a01 	vldr	s1, [sp, #4]
 800ea4a:	d00f      	beq.n	800ea6c <cosf+0x54>
 800ea4c:	2802      	cmp	r0, #2
 800ea4e:	d008      	beq.n	800ea62 <cosf+0x4a>
 800ea50:	b988      	cbnz	r0, 800ea76 <cosf+0x5e>
 800ea52:	f000 f8a9 	bl	800eba8 <__kernel_cosf>
 800ea56:	b003      	add	sp, #12
 800ea58:	bd00      	pop	{pc}
 800ea5a:	eddf 0a0a 	vldr	s1, [pc, #40]	@ 800ea84 <cosf+0x6c>
 800ea5e:	f000 b8a3 	b.w	800eba8 <__kernel_cosf>
 800ea62:	f000 f8a1 	bl	800eba8 <__kernel_cosf>
 800ea66:	eeb1 0a40 	vneg.f32	s0, s0
 800ea6a:	e7f4      	b.n	800ea56 <cosf+0x3e>
 800ea6c:	f000 f91e 	bl	800ecac <__kernel_sinf>
 800ea70:	eeb1 0a40 	vneg.f32	s0, s0
 800ea74:	e7ef      	b.n	800ea56 <cosf+0x3e>
 800ea76:	2001      	movs	r0, #1
 800ea78:	f000 f918 	bl	800ecac <__kernel_sinf>
 800ea7c:	e7eb      	b.n	800ea56 <cosf+0x3e>
 800ea7e:	bf00      	nop
 800ea80:	3f490fd8 	.word	0x3f490fd8
 800ea84:	00000000 	.word	0x00000000

0800ea88 <fabsf>:
 800ea88:	ee10 3a10 	vmov	r3, s0
 800ea8c:	f023 4300 	bic.w	r3, r3, #2147483648	@ 0x80000000
 800ea90:	ee00 3a10 	vmov	s0, r3
 800ea94:	4770      	bx	lr
 800ea96:	bf00      	nop

0800ea98 <sinf>:
 800ea98:	ee10 3a10 	vmov	r3, s0
 800ea9c:	4919      	ldr	r1, [pc, #100]	@ (800eb04 <sinf+0x6c>)
 800ea9e:	f023 4200 	bic.w	r2, r3, #2147483648	@ 0x80000000
 800eaa2:	428a      	cmp	r2, r1
 800eaa4:	d91a      	bls.n	800eadc <sinf+0x44>
 800eaa6:	f1b2 4fff 	cmp.w	r2, #2139095040	@ 0x7f800000
 800eaaa:	d302      	bcc.n	800eab2 <sinf+0x1a>
 800eaac:	ee30 0a40 	vsub.f32	s0, s0, s0
 800eab0:	4770      	bx	lr
 800eab2:	b500      	push	{lr}
 800eab4:	b083      	sub	sp, #12
 800eab6:	4668      	mov	r0, sp
 800eab8:	f000 f9e6 	bl	800ee88 <__ieee754_rem_pio2f>
 800eabc:	f000 0003 	and.w	r0, r0, #3
 800eac0:	2801      	cmp	r0, #1
 800eac2:	ed9d 0a00 	vldr	s0, [sp]
 800eac6:	eddd 0a01 	vldr	s1, [sp, #4]
 800eaca:	d012      	beq.n	800eaf2 <sinf+0x5a>
 800eacc:	2802      	cmp	r0, #2
 800eace:	d00a      	beq.n	800eae6 <sinf+0x4e>
 800ead0:	b990      	cbnz	r0, 800eaf8 <sinf+0x60>
 800ead2:	2001      	movs	r0, #1
 800ead4:	f000 f8ea 	bl	800ecac <__kernel_sinf>
 800ead8:	b003      	add	sp, #12
 800eada:	bd00      	pop	{pc}
 800eadc:	eddf 0a0a 	vldr	s1, [pc, #40]	@ 800eb08 <sinf+0x70>
 800eae0:	2000      	movs	r0, #0
 800eae2:	f000 b8e3 	b.w	800ecac <__kernel_sinf>
 800eae6:	2001      	movs	r0, #1
 800eae8:	f000 f8e0 	bl	800ecac <__kernel_sinf>
 800eaec:	eeb1 0a40 	vneg.f32	s0, s0
 800eaf0:	e7f2      	b.n	800ead8 <sinf+0x40>
 800eaf2:	f000 f859 	bl	800eba8 <__kernel_cosf>
 800eaf6:	e7ef      	b.n	800ead8 <sinf+0x40>
 800eaf8:	f000 f856 	bl	800eba8 <__kernel_cosf>
 800eafc:	eeb1 0a40 	vneg.f32	s0, s0
 800eb00:	e7ea      	b.n	800ead8 <sinf+0x40>
 800eb02:	bf00      	nop
 800eb04:	3f490fd8 	.word	0x3f490fd8
 800eb08:	00000000 	.word	0x00000000

0800eb0c <__ieee754_sqrtf>:
 800eb0c:	eeb1 0ac0 	vsqrt.f32	s0, s0
 800eb10:	4770      	bx	lr
 800eb12:	bf00      	nop

0800eb14 <floorf>:
 800eb14:	ee10 2a10 	vmov	r2, s0
 800eb18:	f3c2 53c7 	ubfx	r3, r2, #23, #8
 800eb1c:	3b7f      	subs	r3, #127	@ 0x7f
 800eb1e:	2b16      	cmp	r3, #22
 800eb20:	f022 4100 	bic.w	r1, r2, #2147483648	@ 0x80000000
 800eb24:	dc1b      	bgt.n	800eb5e <floorf+0x4a>
 800eb26:	2b00      	cmp	r3, #0
 800eb28:	4610      	mov	r0, r2
 800eb2a:	db1e      	blt.n	800eb6a <floorf+0x56>
 800eb2c:	491a      	ldr	r1, [pc, #104]	@ (800eb98 <floorf+0x84>)
 800eb2e:	4119      	asrs	r1, r3
 800eb30:	420a      	tst	r2, r1
 800eb32:	d023      	beq.n	800eb7c <floorf+0x68>
 800eb34:	eddf 7a19 	vldr	s15, [pc, #100]	@ 800eb9c <floorf+0x88>
 800eb38:	ee70 7a27 	vadd.f32	s15, s0, s15
 800eb3c:	eef5 7ac0 	vcmpe.f32	s15, #0.0
 800eb40:	eef1 fa10 	vmrs	APSR_nzcv, fpscr
 800eb44:	dd1a      	ble.n	800eb7c <floorf+0x68>
 800eb46:	2a00      	cmp	r2, #0
 800eb48:	da04      	bge.n	800eb54 <floorf+0x40>
 800eb4a:	f44f 0200 	mov.w	r2, #8388608	@ 0x800000
 800eb4e:	fa42 f303 	asr.w	r3, r2, r3
 800eb52:	4418      	add	r0, r3
 800eb54:	ea20 0301 	bic.w	r3, r0, r1
 800eb58:	ee00 3a10 	vmov	s0, r3
 800eb5c:	4770      	bx	lr
 800eb5e:	f1b1 4fff 	cmp.w	r1, #2139095040	@ 0x7f800000
 800eb62:	d30b      	bcc.n	800eb7c <floorf+0x68>
 800eb64:	ee30 0a00 	vadd.f32	s0, s0, s0
 800eb68:	4770      	bx	lr
 800eb6a:	eddf 7a0c 	vldr	s15, [pc, #48]	@ 800eb9c <floorf+0x88>
 800eb6e:	ee70 7a27 	vadd.f32	s15, s0, s15
 800eb72:	eef5 7ac0 	vcmpe.f32	s15, #0.0
 800eb76:	eef1 fa10 	vmrs	APSR_nzcv, fpscr
 800eb7a:	dc00      	bgt.n	800eb7e <floorf+0x6a>
 800eb7c:	4770      	bx	lr
 800eb7e:	2a00      	cmp	r2, #0
 800eb80:	db02      	blt.n	800eb88 <floorf+0x74>
 800eb82:	ed9f 0a07 	vldr	s0, [pc, #28]	@ 800eba0 <floorf+0x8c>
 800eb86:	4770      	bx	lr
 800eb88:	b911      	cbnz	r1, 800eb90 <floorf+0x7c>
 800eb8a:	ed9f 0a06 	vldr	s0, [pc, #24]	@ 800eba4 <floorf+0x90>
 800eb8e:	4770      	bx	lr
 800eb90:	eebf 0a00 	vmov.f32	s0, #240	@ 0xbf800000 -1.0
 800eb94:	e7f2      	b.n	800eb7c <floorf+0x68>
 800eb96:	bf00      	nop
 800eb98:	007fffff 	.word	0x007fffff
 800eb9c:	7149f2ca 	.word	0x7149f2ca
 800eba0:	00000000 	.word	0x00000000
 800eba4:	80000000 	.word	0x80000000

0800eba8 <__kernel_cosf>:
 800eba8:	ee10 3a10 	vmov	r3, s0
 800ebac:	f023 4300 	bic.w	r3, r3, #2147483648	@ 0x80000000
 800ebb0:	f1b3 5f48 	cmp.w	r3, #838860800	@ 0x32000000
 800ebb4:	d22c      	bcs.n	800ec10 <__kernel_cosf+0x68>
 800ebb6:	eefd 7ac0 	vcvt.s32.f32	s15, s0
 800ebba:	ee17 3a90 	vmov	r3, s15
 800ebbe:	2b00      	cmp	r3, #0
 800ebc0:	d060      	beq.n	800ec84 <__kernel_cosf+0xdc>
 800ebc2:	ee60 7a00 	vmul.f32	s15, s0, s0
 800ebc6:	ed9f 7a31 	vldr	s14, [pc, #196]	@ 800ec8c <__kernel_cosf+0xe4>
 800ebca:	ed9f 5a31 	vldr	s10, [pc, #196]	@ 800ec90 <__kernel_cosf+0xe8>
 800ebce:	eddf 5a31 	vldr	s11, [pc, #196]	@ 800ec94 <__kernel_cosf+0xec>
 800ebd2:	ed9f 6a31 	vldr	s12, [pc, #196]	@ 800ec98 <__kernel_cosf+0xf0>
 800ebd6:	eddf 6a31 	vldr	s13, [pc, #196]	@ 800ec9c <__kernel_cosf+0xf4>
 800ebda:	eea7 5a87 	vfma.f32	s10, s15, s14
 800ebde:	ed9f 7a30 	vldr	s14, [pc, #192]	@ 800eca0 <__kernel_cosf+0xf8>
 800ebe2:	eee7 5a85 	vfma.f32	s11, s15, s10
 800ebe6:	eea7 6aa5 	vfma.f32	s12, s15, s11
 800ebea:	eea7 7a86 	vfma.f32	s14, s15, s12
 800ebee:	eee7 6a87 	vfma.f32	s13, s15, s14
 800ebf2:	ee67 6aa6 	vmul.f32	s13, s15, s13
 800ebf6:	ee60 0ac0 	vnmul.f32	s1, s1, s0
 800ebfa:	eeb6 7a00 	vmov.f32	s14, #96	@ 0x3f000000  0.5
 800ebfe:	eee7 0aa6 	vfma.f32	s1, s15, s13
 800ec02:	eeb7 0a00 	vmov.f32	s0, #112	@ 0x3f800000  1.0
 800ec06:	eed7 0a87 	vfnms.f32	s1, s15, s14
 800ec0a:	ee30 0a60 	vsub.f32	s0, s0, s1
 800ec0e:	4770      	bx	lr
 800ec10:	ee60 7a00 	vmul.f32	s15, s0, s0
 800ec14:	ed9f 7a1d 	vldr	s14, [pc, #116]	@ 800ec8c <__kernel_cosf+0xe4>
 800ec18:	ed9f 5a1d 	vldr	s10, [pc, #116]	@ 800ec90 <__kernel_cosf+0xe8>
 800ec1c:	eddf 5a1d 	vldr	s11, [pc, #116]	@ 800ec94 <__kernel_cosf+0xec>
 800ec20:	ed9f 6a1d 	vldr	s12, [pc, #116]	@ 800ec98 <__kernel_cosf+0xf0>
 800ec24:	eddf 6a1d 	vldr	s13, [pc, #116]	@ 800ec9c <__kernel_cosf+0xf4>
 800ec28:	4a1e      	ldr	r2, [pc, #120]	@ (800eca4 <__kernel_cosf+0xfc>)
 800ec2a:	eea7 5a87 	vfma.f32	s10, s15, s14
 800ec2e:	4293      	cmp	r3, r2
 800ec30:	ed9f 7a1b 	vldr	s14, [pc, #108]	@ 800eca0 <__kernel_cosf+0xf8>
 800ec34:	eee5 5a27 	vfma.f32	s11, s10, s15
 800ec38:	eea5 6aa7 	vfma.f32	s12, s11, s15
 800ec3c:	eea6 7a27 	vfma.f32	s14, s12, s15
 800ec40:	eee7 6a27 	vfma.f32	s13, s14, s15
 800ec44:	ee66 6aa7 	vmul.f32	s13, s13, s15
 800ec48:	d9d5      	bls.n	800ebf6 <__kernel_cosf+0x4e>
 800ec4a:	4a17      	ldr	r2, [pc, #92]	@ (800eca8 <__kernel_cosf+0x100>)
 800ec4c:	4293      	cmp	r3, r2
 800ec4e:	d814      	bhi.n	800ec7a <__kernel_cosf+0xd2>
 800ec50:	f103 437f 	add.w	r3, r3, #4278190080	@ 0xff000000
 800ec54:	ee07 3a10 	vmov	s14, r3
 800ec58:	eeb7 6a00 	vmov.f32	s12, #112	@ 0x3f800000  1.0
 800ec5c:	ee36 6a47 	vsub.f32	s12, s12, s14
 800ec60:	ee60 0ac0 	vnmul.f32	s1, s1, s0
 800ec64:	eef6 5a00 	vmov.f32	s11, #96	@ 0x3f000000  0.5
 800ec68:	ee97 7aa5 	vfnms.f32	s14, s15, s11
 800ec6c:	eee7 0aa6 	vfma.f32	s1, s15, s13
 800ec70:	ee37 7a60 	vsub.f32	s14, s14, s1
 800ec74:	ee36 0a47 	vsub.f32	s0, s12, s14
 800ec78:	4770      	bx	lr
 800ec7a:	eeb6 6a07 	vmov.f32	s12, #103	@ 0x3f380000  0.7187500
 800ec7e:	eeb5 7a02 	vmov.f32	s14, #82	@ 0x3e900000  0.2812500
 800ec82:	e7ed      	b.n	800ec60 <__kernel_cosf+0xb8>
 800ec84:	eeb7 0a00 	vmov.f32	s0, #112	@ 0x3f800000  1.0
 800ec88:	4770      	bx	lr
 800ec8a:	bf00      	nop
 800ec8c:	ad47d74e 	.word	0xad47d74e
 800ec90:	310f74f6 	.word	0x310f74f6
 800ec94:	b493f27c 	.word	0xb493f27c
 800ec98:	37d00d01 	.word	0x37d00d01
 800ec9c:	3d2aaaab 	.word	0x3d2aaaab
 800eca0:	bab60b61 	.word	0xbab60b61
 800eca4:	3e999999 	.word	0x3e999999
 800eca8:	3f480000 	.word	0x3f480000

0800ecac <__kernel_sinf>:
 800ecac:	ee10 3a10 	vmov	r3, s0
 800ecb0:	f023 4300 	bic.w	r3, r3, #2147483648	@ 0x80000000
 800ecb4:	f1b3 5f48 	cmp.w	r3, #838860800	@ 0x32000000
 800ecb8:	d204      	bcs.n	800ecc4 <__kernel_sinf+0x18>
 800ecba:	eefd 7ac0 	vcvt.s32.f32	s15, s0
 800ecbe:	ee17 3a90 	vmov	r3, s15
 800ecc2:	b35b      	cbz	r3, 800ed1c <__kernel_sinf+0x70>
 800ecc4:	ee60 7a00 	vmul.f32	s15, s0, s0
 800ecc8:	ed9f 7a15 	vldr	s14, [pc, #84]	@ 800ed20 <__kernel_sinf+0x74>
 800eccc:	eddf 5a15 	vldr	s11, [pc, #84]	@ 800ed24 <__kernel_sinf+0x78>
 800ecd0:	ed9f 6a15 	vldr	s12, [pc, #84]	@ 800ed28 <__kernel_sinf+0x7c>
 800ecd4:	eddf 6a15 	vldr	s13, [pc, #84]	@ 800ed2c <__kernel_sinf+0x80>
 800ecd8:	eee7 5a87 	vfma.f32	s11, s15, s14
 800ecdc:	ed9f 7a14 	vldr	s14, [pc, #80]	@ 800ed30 <__kernel_sinf+0x84>
 800ece0:	eea5 6aa7 	vfma.f32	s12, s11, s15
 800ece4:	ee20 5a27 	vmul.f32	s10, s0, s15
 800ece8:	eee6 6a27 	vfma.f32	s13, s12, s15
 800ecec:	eea6 7aa7 	vfma.f32	s14, s13, s15
 800ecf0:	b930      	cbnz	r0, 800ed00 <__kernel_sinf+0x54>
 800ecf2:	eddf 6a10 	vldr	s13, [pc, #64]	@ 800ed34 <__kernel_sinf+0x88>
 800ecf6:	eee7 6a87 	vfma.f32	s13, s15, s14
 800ecfa:	eea6 0a85 	vfma.f32	s0, s13, s10
 800ecfe:	4770      	bx	lr
 800ed00:	ee27 7a45 	vnmul.f32	s14, s14, s10
 800ed04:	eef6 6a00 	vmov.f32	s13, #96	@ 0x3f000000  0.5
 800ed08:	eea0 7aa6 	vfma.f32	s14, s1, s13
 800ed0c:	eddf 6a0a 	vldr	s13, [pc, #40]	@ 800ed38 <__kernel_sinf+0x8c>
 800ed10:	eed7 0a27 	vfnms.f32	s1, s14, s15
 800ed14:	eee5 0a26 	vfma.f32	s1, s10, s13
 800ed18:	ee30 0a60 	vsub.f32	s0, s0, s1
 800ed1c:	4770      	bx	lr
 800ed1e:	bf00      	nop
 800ed20:	2f2ec9d3 	.word	0x2f2ec9d3
 800ed24:	b2d72f34 	.word	0xb2d72f34
 800ed28:	3638ef1b 	.word	0x3638ef1b
 800ed2c:	b9500d01 	.word	0xb9500d01
 800ed30:	3c088889 	.word	0x3c088889
 800ed34:	be2aaaab 	.word	0xbe2aaaab
 800ed38:	3e2aaaab 	.word	0x3e2aaaab

0800ed3c <__ieee754_atan2f>:
 800ed3c:	b510      	push	{r4, lr}
 800ed3e:	b082      	sub	sp, #8
 800ed40:	edcd 0a01 	vstr	s1, [sp, #4]
 800ed44:	9b01      	ldr	r3, [sp, #4]
 800ed46:	f023 4200 	bic.w	r2, r3, #2147483648	@ 0x80000000
 800ed4a:	f1b2 4fff 	cmp.w	r2, #2139095040	@ 0x7f800000
 800ed4e:	eef0 7a40 	vmov.f32	s15, s0
 800ed52:	d830      	bhi.n	800edb6 <__ieee754_atan2f+0x7a>
 800ed54:	ee10 0a10 	vmov	r0, s0
 800ed58:	f020 4100 	bic.w	r1, r0, #2147483648	@ 0x80000000
 800ed5c:	f1b1 4fff 	cmp.w	r1, #2139095040	@ 0x7f800000
 800ed60:	d829      	bhi.n	800edb6 <__ieee754_atan2f+0x7a>
 800ed62:	f1b3 5f7e 	cmp.w	r3, #1065353216	@ 0x3f800000
 800ed66:	d03e      	beq.n	800ede6 <__ieee754_atan2f+0xaa>
 800ed68:	179c      	asrs	r4, r3, #30
 800ed6a:	f004 0402 	and.w	r4, r4, #2
 800ed6e:	ea44 74d0 	orr.w	r4, r4, r0, lsr #31
 800ed72:	b331      	cbz	r1, 800edc2 <__ieee754_atan2f+0x86>
 800ed74:	b37a      	cbz	r2, 800edd6 <__ieee754_atan2f+0x9a>
 800ed76:	f1b2 4fff 	cmp.w	r2, #2139095040	@ 0x7f800000
 800ed7a:	d03f      	beq.n	800edfc <__ieee754_atan2f+0xc0>
 800ed7c:	f1b1 4fff 	cmp.w	r1, #2139095040	@ 0x7f800000
 800ed80:	d029      	beq.n	800edd6 <__ieee754_atan2f+0x9a>
 800ed82:	1a89      	subs	r1, r1, r2
 800ed84:	f1b1 5ff4 	cmp.w	r1, #511705088	@ 0x1e800000
 800ed88:	ea4f 52e1 	mov.w	r2, r1, asr #23
 800ed8c:	da33      	bge.n	800edf6 <__ieee754_atan2f+0xba>
 800ed8e:	2b00      	cmp	r3, #0
 800ed90:	da41      	bge.n	800ee16 <__ieee754_atan2f+0xda>
 800ed92:	323c      	adds	r2, #60	@ 0x3c
 800ed94:	da3f      	bge.n	800ee16 <__ieee754_atan2f+0xda>
 800ed96:	ed9f 0a33 	vldr	s0, [pc, #204]	@ 800ee64 <__ieee754_atan2f+0x128>
 800ed9a:	2c01      	cmp	r4, #1
 800ed9c:	d04d      	beq.n	800ee3a <__ieee754_atan2f+0xfe>
 800ed9e:	2c02      	cmp	r4, #2
 800eda0:	d042      	beq.n	800ee28 <__ieee754_atan2f+0xec>
 800eda2:	b164      	cbz	r4, 800edbe <__ieee754_atan2f+0x82>
 800eda4:	ed9f 7a30 	vldr	s14, [pc, #192]	@ 800ee68 <__ieee754_atan2f+0x12c>
 800eda8:	eddf 7a30 	vldr	s15, [pc, #192]	@ 800ee6c <__ieee754_atan2f+0x130>
 800edac:	ee30 0a07 	vadd.f32	s0, s0, s14
 800edb0:	ee30 0a67 	vsub.f32	s0, s0, s15
 800edb4:	e003      	b.n	800edbe <__ieee754_atan2f+0x82>
 800edb6:	ed9d 7a01 	vldr	s14, [sp, #4]
 800edba:	ee37 0a27 	vadd.f32	s0, s14, s15
 800edbe:	b002      	add	sp, #8
 800edc0:	bd10      	pop	{r4, pc}
 800edc2:	2c02      	cmp	r4, #2
 800edc4:	d00c      	beq.n	800ede0 <__ieee754_atan2f+0xa4>
 800edc6:	ed9f 7a2a 	vldr	s14, [pc, #168]	@ 800ee70 <__ieee754_atan2f+0x134>
 800edca:	2c03      	cmp	r4, #3
 800edcc:	bf08      	it	eq
 800edce:	eeb0 0a47 	vmoveq.f32	s0, s14
 800edd2:	b002      	add	sp, #8
 800edd4:	bd10      	pop	{r4, pc}
 800edd6:	2800      	cmp	r0, #0
 800edd8:	db0a      	blt.n	800edf0 <__ieee754_atan2f+0xb4>
 800edda:	ed9f 0a26 	vldr	s0, [pc, #152]	@ 800ee74 <__ieee754_atan2f+0x138>
 800edde:	e7ee      	b.n	800edbe <__ieee754_atan2f+0x82>
 800ede0:	ed9f 0a22 	vldr	s0, [pc, #136]	@ 800ee6c <__ieee754_atan2f+0x130>
 800ede4:	e7eb      	b.n	800edbe <__ieee754_atan2f+0x82>
 800ede6:	b002      	add	sp, #8
 800ede8:	e8bd 4010 	ldmia.w	sp!, {r4, lr}
 800edec:	f7ff bd42 	b.w	800e874 <atanf>
 800edf0:	ed9f 0a21 	vldr	s0, [pc, #132]	@ 800ee78 <__ieee754_atan2f+0x13c>
 800edf4:	e7e3      	b.n	800edbe <__ieee754_atan2f+0x82>
 800edf6:	ed9f 0a1f 	vldr	s0, [pc, #124]	@ 800ee74 <__ieee754_atan2f+0x138>
 800edfa:	e7ce      	b.n	800ed9a <__ieee754_atan2f+0x5e>
 800edfc:	f1b1 4fff 	cmp.w	r1, #2139095040	@ 0x7f800000
 800ee00:	f104 34ff 	add.w	r4, r4, #4294967295
 800ee04:	d020      	beq.n	800ee48 <__ieee754_atan2f+0x10c>
 800ee06:	2c02      	cmp	r4, #2
 800ee08:	d826      	bhi.n	800ee58 <__ieee754_atan2f+0x11c>
 800ee0a:	4b1c      	ldr	r3, [pc, #112]	@ (800ee7c <__ieee754_atan2f+0x140>)
 800ee0c:	eb03 0384 	add.w	r3, r3, r4, lsl #2
 800ee10:	ed93 0a00 	vldr	s0, [r3]
 800ee14:	e7d3      	b.n	800edbe <__ieee754_atan2f+0x82>
 800ee16:	ed9d 7a01 	vldr	s14, [sp, #4]
 800ee1a:	ee87 0a87 	vdiv.f32	s0, s15, s14
 800ee1e:	f7ff fe33 	bl	800ea88 <fabsf>
 800ee22:	f7ff fd27 	bl	800e874 <atanf>
 800ee26:	e7b8      	b.n	800ed9a <__ieee754_atan2f+0x5e>
 800ee28:	ed9f 7a0f 	vldr	s14, [pc, #60]	@ 800ee68 <__ieee754_atan2f+0x12c>
 800ee2c:	eddf 7a0f 	vldr	s15, [pc, #60]	@ 800ee6c <__ieee754_atan2f+0x130>
 800ee30:	ee30 0a07 	vadd.f32	s0, s0, s14
 800ee34:	ee37 0ac0 	vsub.f32	s0, s15, s0
 800ee38:	e7c1      	b.n	800edbe <__ieee754_atan2f+0x82>
 800ee3a:	ee10 3a10 	vmov	r3, s0
 800ee3e:	f103 4300 	add.w	r3, r3, #2147483648	@ 0x80000000
 800ee42:	ee00 3a10 	vmov	s0, r3
 800ee46:	e7ba      	b.n	800edbe <__ieee754_atan2f+0x82>
 800ee48:	2c02      	cmp	r4, #2
 800ee4a:	d808      	bhi.n	800ee5e <__ieee754_atan2f+0x122>
 800ee4c:	4b0c      	ldr	r3, [pc, #48]	@ (800ee80 <__ieee754_atan2f+0x144>)
 800ee4e:	eb03 0384 	add.w	r3, r3, r4, lsl #2
 800ee52:	ed93 0a00 	vldr	s0, [r3]
 800ee56:	e7b2      	b.n	800edbe <__ieee754_atan2f+0x82>
 800ee58:	ed9f 0a02 	vldr	s0, [pc, #8]	@ 800ee64 <__ieee754_atan2f+0x128>
 800ee5c:	e7af      	b.n	800edbe <__ieee754_atan2f+0x82>
 800ee5e:	ed9f 0a09 	vldr	s0, [pc, #36]	@ 800ee84 <__ieee754_atan2f+0x148>
 800ee62:	e7ac      	b.n	800edbe <__ieee754_atan2f+0x82>
 800ee64:	00000000 	.word	0x00000000
 800ee68:	33bbbd2e 	.word	0x33bbbd2e
 800ee6c:	40490fdb 	.word	0x40490fdb
 800ee70:	c0490fdb 	.word	0xc0490fdb
 800ee74:	3fc90fdb 	.word	0x3fc90fdb
 800ee78:	bfc90fdb 	.word	0xbfc90fdb
 800ee7c:	0800f8dc 	.word	0x0800f8dc
 800ee80:	0800f8e8 	.word	0x0800f8e8
 800ee84:	3f490fdb 	.word	0x3f490fdb

0800ee88 <__ieee754_rem_pio2f>:
 800ee88:	b570      	push	{r4, r5, r6, lr}
 800ee8a:	ee10 3a10 	vmov	r3, s0
 800ee8e:	4a8b      	ldr	r2, [pc, #556]	@ (800f0bc <__ieee754_rem_pio2f+0x234>)
 800ee90:	f023 4400 	bic.w	r4, r3, #2147483648	@ 0x80000000
 800ee94:	4294      	cmp	r4, r2
 800ee96:	b086      	sub	sp, #24
 800ee98:	4605      	mov	r5, r0
 800ee9a:	d971      	bls.n	800ef80 <__ieee754_rem_pio2f+0xf8>
 800ee9c:	4a88      	ldr	r2, [pc, #544]	@ (800f0c0 <__ieee754_rem_pio2f+0x238>)
 800ee9e:	4294      	cmp	r4, r2
 800eea0:	461e      	mov	r6, r3
 800eea2:	d824      	bhi.n	800eeee <__ieee754_rem_pio2f+0x66>
 800eea4:	f023 4200 	bic.w	r2, r3, #2147483648	@ 0x80000000
 800eea8:	2b00      	cmp	r3, #0
 800eeaa:	eddf 7a86 	vldr	s15, [pc, #536]	@ 800f0c4 <__ieee754_rem_pio2f+0x23c>
 800eeae:	4986      	ldr	r1, [pc, #536]	@ (800f0c8 <__ieee754_rem_pio2f+0x240>)
 800eeb0:	f022 020f 	bic.w	r2, r2, #15
 800eeb4:	eeb0 7a40 	vmov.f32	s14, s0
 800eeb8:	f340 80e6 	ble.w	800f088 <__ieee754_rem_pio2f+0x200>
 800eebc:	428a      	cmp	r2, r1
 800eebe:	ee70 7a67 	vsub.f32	s15, s0, s15
 800eec2:	bf09      	itett	eq
 800eec4:	ed9f 7a81 	vldreq	s14, [pc, #516]	@ 800f0cc <__ieee754_rem_pio2f+0x244>
 800eec8:	eddf 6a81 	vldrne	s13, [pc, #516]	@ 800f0d0 <__ieee754_rem_pio2f+0x248>
 800eecc:	eddf 6a81 	vldreq	s13, [pc, #516]	@ 800f0d4 <__ieee754_rem_pio2f+0x24c>
 800eed0:	ee77 7ac7 	vsubeq.f32	s15, s15, s14
 800eed4:	ee37 7ae6 	vsub.f32	s14, s15, s13
 800eed8:	ee77 7ac7 	vsub.f32	s15, s15, s14
 800eedc:	ed80 7a00 	vstr	s14, [r0]
 800eee0:	ee77 7ae6 	vsub.f32	s15, s15, s13
 800eee4:	edc0 7a01 	vstr	s15, [r0, #4]
 800eee8:	2001      	movs	r0, #1
 800eeea:	b006      	add	sp, #24
 800eeec:	bd70      	pop	{r4, r5, r6, pc}
 800eeee:	4a7a      	ldr	r2, [pc, #488]	@ (800f0d8 <__ieee754_rem_pio2f+0x250>)
 800eef0:	4294      	cmp	r4, r2
 800eef2:	d953      	bls.n	800ef9c <__ieee754_rem_pio2f+0x114>
 800eef4:	f1b4 4fff 	cmp.w	r4, #2139095040	@ 0x7f800000
 800eef8:	d249      	bcs.n	800ef8e <__ieee754_rem_pio2f+0x106>
 800eefa:	15e2      	asrs	r2, r4, #23
 800eefc:	3a86      	subs	r2, #134	@ 0x86
 800eefe:	eba4 53c2 	sub.w	r3, r4, r2, lsl #23
 800ef02:	ee07 3a90 	vmov	s15, r3
 800ef06:	eebd 7ae7 	vcvt.s32.f32	s14, s15
 800ef0a:	eddf 6a74 	vldr	s13, [pc, #464]	@ 800f0dc <__ieee754_rem_pio2f+0x254>
 800ef0e:	eeb8 7ac7 	vcvt.f32.s32	s14, s14
 800ef12:	ee77 7ac7 	vsub.f32	s15, s15, s14
 800ef16:	ed8d 7a03 	vstr	s14, [sp, #12]
 800ef1a:	ee67 7aa6 	vmul.f32	s15, s15, s13
 800ef1e:	eebd 7ae7 	vcvt.s32.f32	s14, s15
 800ef22:	eeb8 7ac7 	vcvt.f32.s32	s14, s14
 800ef26:	ee77 7ac7 	vsub.f32	s15, s15, s14
 800ef2a:	ed8d 7a04 	vstr	s14, [sp, #16]
 800ef2e:	ee67 7aa6 	vmul.f32	s15, s15, s13
 800ef32:	eef5 7a40 	vcmp.f32	s15, #0.0
 800ef36:	eef1 fa10 	vmrs	APSR_nzcv, fpscr
 800ef3a:	edcd 7a05 	vstr	s15, [sp, #20]
 800ef3e:	f040 808e 	bne.w	800f05e <__ieee754_rem_pio2f+0x1d6>
 800ef42:	eeb5 7a40 	vcmp.f32	s14, #0.0
 800ef46:	eef1 fa10 	vmrs	APSR_nzcv, fpscr
 800ef4a:	f040 808a 	bne.w	800f062 <__ieee754_rem_pio2f+0x1da>
 800ef4e:	2301      	movs	r3, #1
 800ef50:	4963      	ldr	r1, [pc, #396]	@ (800f0e0 <__ieee754_rem_pio2f+0x258>)
 800ef52:	9101      	str	r1, [sp, #4]
 800ef54:	2102      	movs	r1, #2
 800ef56:	9100      	str	r1, [sp, #0]
 800ef58:	a803      	add	r0, sp, #12
 800ef5a:	4629      	mov	r1, r5
 800ef5c:	f000 f938 	bl	800f1d0 <__kernel_rem_pio2f>
 800ef60:	2e00      	cmp	r6, #0
 800ef62:	dac2      	bge.n	800eeea <__ieee754_rem_pio2f+0x62>
 800ef64:	ed95 7a00 	vldr	s14, [r5]
 800ef68:	edd5 7a01 	vldr	s15, [r5, #4]
 800ef6c:	eeb1 7a47 	vneg.f32	s14, s14
 800ef70:	eef1 7a67 	vneg.f32	s15, s15
 800ef74:	ed85 7a00 	vstr	s14, [r5]
 800ef78:	edc5 7a01 	vstr	s15, [r5, #4]
 800ef7c:	4240      	negs	r0, r0
 800ef7e:	e7b4      	b.n	800eeea <__ieee754_rem_pio2f+0x62>
 800ef80:	2200      	movs	r2, #0
 800ef82:	ed85 0a00 	vstr	s0, [r5]
 800ef86:	6042      	str	r2, [r0, #4]
 800ef88:	2000      	movs	r0, #0
 800ef8a:	b006      	add	sp, #24
 800ef8c:	bd70      	pop	{r4, r5, r6, pc}
 800ef8e:	ee70 7a40 	vsub.f32	s15, s0, s0
 800ef92:	edc0 7a01 	vstr	s15, [r0, #4]
 800ef96:	edc0 7a00 	vstr	s15, [r0]
 800ef9a:	e7f5      	b.n	800ef88 <__ieee754_rem_pio2f+0x100>
 800ef9c:	f7ff fd74 	bl	800ea88 <fabsf>
 800efa0:	ed9f 7a50 	vldr	s14, [pc, #320]	@ 800f0e4 <__ieee754_rem_pio2f+0x25c>
 800efa4:	ed9f 6a47 	vldr	s12, [pc, #284]	@ 800f0c4 <__ieee754_rem_pio2f+0x23c>
 800efa8:	eef6 7a00 	vmov.f32	s15, #96	@ 0x3f000000  0.5
 800efac:	eee0 7a07 	vfma.f32	s15, s0, s14
 800efb0:	ed9f 7a47 	vldr	s14, [pc, #284]	@ 800f0d0 <__ieee754_rem_pio2f+0x248>
 800efb4:	eefd 7ae7 	vcvt.s32.f32	s15, s15
 800efb8:	eef8 6ae7 	vcvt.f32.s32	s13, s15
 800efbc:	ee17 0a90 	vmov	r0, s15
 800efc0:	eea6 0ac6 	vfms.f32	s0, s13, s12
 800efc4:	281f      	cmp	r0, #31
 800efc6:	ee66 7a87 	vmul.f32	s15, s13, s14
 800efca:	eeb1 6a66 	vneg.f32	s12, s13
 800efce:	ee30 7a67 	vsub.f32	s14, s0, s15
 800efd2:	dc1e      	bgt.n	800f012 <__ieee754_rem_pio2f+0x18a>
 800efd4:	4a44      	ldr	r2, [pc, #272]	@ (800f0e8 <__ieee754_rem_pio2f+0x260>)
 800efd6:	1e41      	subs	r1, r0, #1
 800efd8:	f026 4300 	bic.w	r3, r6, #2147483648	@ 0x80000000
 800efdc:	f852 2021 	ldr.w	r2, [r2, r1, lsl #2]
 800efe0:	f023 03ff 	bic.w	r3, r3, #255	@ 0xff
 800efe4:	4293      	cmp	r3, r2
 800efe6:	d014      	beq.n	800f012 <__ieee754_rem_pio2f+0x18a>
 800efe8:	ed85 7a00 	vstr	s14, [r5]
 800efec:	ee30 0a47 	vsub.f32	s0, s0, s14
 800eff0:	2e00      	cmp	r6, #0
 800eff2:	ee30 0a67 	vsub.f32	s0, s0, s15
 800eff6:	ed85 0a01 	vstr	s0, [r5, #4]
 800effa:	f6bf af76 	bge.w	800eeea <__ieee754_rem_pio2f+0x62>
 800effe:	eeb1 7a47 	vneg.f32	s14, s14
 800f002:	eeb1 0a40 	vneg.f32	s0, s0
 800f006:	ed85 7a00 	vstr	s14, [r5]
 800f00a:	ed85 0a01 	vstr	s0, [r5, #4]
 800f00e:	4240      	negs	r0, r0
 800f010:	e76b      	b.n	800eeea <__ieee754_rem_pio2f+0x62>
 800f012:	ee17 3a10 	vmov	r3, s14
 800f016:	f3c3 53c7 	ubfx	r3, r3, #23, #8
 800f01a:	ebc3 53d4 	rsb	r3, r3, r4, lsr #23
 800f01e:	2b08      	cmp	r3, #8
 800f020:	ea4f 52e4 	mov.w	r2, r4, asr #23
 800f024:	dde0      	ble.n	800efe8 <__ieee754_rem_pio2f+0x160>
 800f026:	ed9f 7a29 	vldr	s14, [pc, #164]	@ 800f0cc <__ieee754_rem_pio2f+0x244>
 800f02a:	ed9f 5a2a 	vldr	s10, [pc, #168]	@ 800f0d4 <__ieee754_rem_pio2f+0x24c>
 800f02e:	eef0 5a40 	vmov.f32	s11, s0
 800f032:	eee6 5a07 	vfma.f32	s11, s12, s14
 800f036:	ee70 7a65 	vsub.f32	s15, s0, s11
 800f03a:	eee6 7a07 	vfma.f32	s15, s12, s14
 800f03e:	eed6 7a85 	vfnms.f32	s15, s13, s10
 800f042:	ee35 7ae7 	vsub.f32	s14, s11, s15
 800f046:	ee17 3a10 	vmov	r3, s14
 800f04a:	f3c3 53c7 	ubfx	r3, r3, #23, #8
 800f04e:	1ad2      	subs	r2, r2, r3
 800f050:	2a19      	cmp	r2, #25
 800f052:	dc08      	bgt.n	800f066 <__ieee754_rem_pio2f+0x1de>
 800f054:	eeb0 0a65 	vmov.f32	s0, s11
 800f058:	ed85 7a00 	vstr	s14, [r5]
 800f05c:	e7c6      	b.n	800efec <__ieee754_rem_pio2f+0x164>
 800f05e:	2303      	movs	r3, #3
 800f060:	e776      	b.n	800ef50 <__ieee754_rem_pio2f+0xc8>
 800f062:	2302      	movs	r3, #2
 800f064:	e774      	b.n	800ef50 <__ieee754_rem_pio2f+0xc8>
 800f066:	ed9f 7a21 	vldr	s14, [pc, #132]	@ 800f0ec <__ieee754_rem_pio2f+0x264>
 800f06a:	ed9f 5a21 	vldr	s10, [pc, #132]	@ 800f0f0 <__ieee754_rem_pio2f+0x268>
 800f06e:	eeb0 0a65 	vmov.f32	s0, s11
 800f072:	eea6 0a07 	vfma.f32	s0, s12, s14
 800f076:	ee75 7ac0 	vsub.f32	s15, s11, s0
 800f07a:	eee6 7a07 	vfma.f32	s15, s12, s14
 800f07e:	eed6 7a85 	vfnms.f32	s15, s13, s10
 800f082:	ee30 7a67 	vsub.f32	s14, s0, s15
 800f086:	e7af      	b.n	800efe8 <__ieee754_rem_pio2f+0x160>
 800f088:	428a      	cmp	r2, r1
 800f08a:	ee70 7a27 	vadd.f32	s15, s0, s15
 800f08e:	bf09      	itett	eq
 800f090:	ed9f 7a0e 	vldreq	s14, [pc, #56]	@ 800f0cc <__ieee754_rem_pio2f+0x244>
 800f094:	eddf 6a0e 	vldrne	s13, [pc, #56]	@ 800f0d0 <__ieee754_rem_pio2f+0x248>
 800f098:	eddf 6a0e 	vldreq	s13, [pc, #56]	@ 800f0d4 <__ieee754_rem_pio2f+0x24c>
 800f09c:	ee77 7a87 	vaddeq.f32	s15, s15, s14
 800f0a0:	ee37 7aa6 	vadd.f32	s14, s15, s13
 800f0a4:	ee77 7ac7 	vsub.f32	s15, s15, s14
 800f0a8:	ed80 7a00 	vstr	s14, [r0]
 800f0ac:	ee77 7aa6 	vadd.f32	s15, s15, s13
 800f0b0:	edc0 7a01 	vstr	s15, [r0, #4]
 800f0b4:	f04f 30ff 	mov.w	r0, #4294967295
 800f0b8:	e717      	b.n	800eeea <__ieee754_rem_pio2f+0x62>
 800f0ba:	bf00      	nop
 800f0bc:	3f490fd8 	.word	0x3f490fd8
 800f0c0:	4016cbe3 	.word	0x4016cbe3
 800f0c4:	3fc90f80 	.word	0x3fc90f80
 800f0c8:	3fc90fd0 	.word	0x3fc90fd0
 800f0cc:	37354400 	.word	0x37354400
 800f0d0:	37354443 	.word	0x37354443
 800f0d4:	2e85a308 	.word	0x2e85a308
 800f0d8:	43490f80 	.word	0x43490f80
 800f0dc:	43800000 	.word	0x43800000
 800f0e0:	0800f974 	.word	0x0800f974
 800f0e4:	3f22f984 	.word	0x3f22f984
 800f0e8:	0800f8f4 	.word	0x0800f8f4
 800f0ec:	2e85a300 	.word	0x2e85a300
 800f0f0:	248d3132 	.word	0x248d3132

0800f0f4 <scalbnf>:
 800f0f4:	ee10 3a10 	vmov	r3, s0
 800f0f8:	f033 4100 	bics.w	r1, r3, #2147483648	@ 0x80000000
 800f0fc:	461a      	mov	r2, r3
 800f0fe:	d025      	beq.n	800f14c <scalbnf+0x58>
 800f100:	f1b1 4fff 	cmp.w	r1, #2139095040	@ 0x7f800000
 800f104:	d21f      	bcs.n	800f146 <scalbnf+0x52>
 800f106:	f013 4fff 	tst.w	r3, #2139095040	@ 0x7f800000
 800f10a:	d120      	bne.n	800f14e <scalbnf+0x5a>
 800f10c:	eddf 7a29 	vldr	s15, [pc, #164]	@ 800f1b4 <scalbnf+0xc0>
 800f110:	4a29      	ldr	r2, [pc, #164]	@ (800f1b8 <scalbnf+0xc4>)
 800f112:	ee60 7a27 	vmul.f32	s15, s0, s15
 800f116:	4290      	cmp	r0, r2
 800f118:	ee17 3a90 	vmov	r3, s15
 800f11c:	db31      	blt.n	800f182 <scalbnf+0x8e>
 800f11e:	f24c 3c50 	movw	ip, #50000	@ 0xc350
 800f122:	f3c3 51c7 	ubfx	r1, r3, #23, #8
 800f126:	4560      	cmp	r0, ip
 800f128:	461a      	mov	r2, r3
 800f12a:	f1a1 0119 	sub.w	r1, r1, #25
 800f12e:	dd14      	ble.n	800f15a <scalbnf+0x66>
 800f130:	2b00      	cmp	r3, #0
 800f132:	eddf 7a22 	vldr	s15, [pc, #136]	@ 800f1bc <scalbnf+0xc8>
 800f136:	ed9f 0a21 	vldr	s0, [pc, #132]	@ 800f1bc <scalbnf+0xc8>
 800f13a:	bfb8      	it	lt
 800f13c:	eddf 7a20 	vldrlt	s15, [pc, #128]	@ 800f1c0 <scalbnf+0xcc>
 800f140:	ee27 0a80 	vmul.f32	s0, s15, s0
 800f144:	4770      	bx	lr
 800f146:	ee30 0a00 	vadd.f32	s0, s0, s0
 800f14a:	4770      	bx	lr
 800f14c:	4770      	bx	lr
 800f14e:	f24c 3c50 	movw	ip, #50000	@ 0xc350
 800f152:	4560      	cmp	r0, ip
 800f154:	ea4f 51d1 	mov.w	r1, r1, lsr #23
 800f158:	dcea      	bgt.n	800f130 <scalbnf+0x3c>
 800f15a:	4401      	add	r1, r0
 800f15c:	29fe      	cmp	r1, #254	@ 0xfe
 800f15e:	dce7      	bgt.n	800f130 <scalbnf+0x3c>
 800f160:	2900      	cmp	r1, #0
 800f162:	dc15      	bgt.n	800f190 <scalbnf+0x9c>
 800f164:	f111 0f16 	cmn.w	r1, #22
 800f168:	db19      	blt.n	800f19e <scalbnf+0xaa>
 800f16a:	3119      	adds	r1, #25
 800f16c:	f022 42ff 	bic.w	r2, r2, #2139095040	@ 0x7f800000
 800f170:	ea42 52c1 	orr.w	r2, r2, r1, lsl #23
 800f174:	ee07 2a90 	vmov	s15, r2
 800f178:	ed9f 0a12 	vldr	s0, [pc, #72]	@ 800f1c4 <scalbnf+0xd0>
 800f17c:	ee27 0a80 	vmul.f32	s0, s15, s0
 800f180:	4770      	bx	lr
 800f182:	eddf 7a11 	vldr	s15, [pc, #68]	@ 800f1c8 <scalbnf+0xd4>
 800f186:	ee07 3a10 	vmov	s14, r3
 800f18a:	ee27 0a27 	vmul.f32	s0, s14, s15
 800f18e:	4770      	bx	lr
 800f190:	f022 42ff 	bic.w	r2, r2, #2139095040	@ 0x7f800000
 800f194:	ea42 53c1 	orr.w	r3, r2, r1, lsl #23
 800f198:	ee00 3a10 	vmov	s0, r3
 800f19c:	4770      	bx	lr
 800f19e:	2b00      	cmp	r3, #0
 800f1a0:	eddf 7a09 	vldr	s15, [pc, #36]	@ 800f1c8 <scalbnf+0xd4>
 800f1a4:	ed9f 0a08 	vldr	s0, [pc, #32]	@ 800f1c8 <scalbnf+0xd4>
 800f1a8:	bfb8      	it	lt
 800f1aa:	eddf 7a08 	vldrlt	s15, [pc, #32]	@ 800f1cc <scalbnf+0xd8>
 800f1ae:	ee27 0a80 	vmul.f32	s0, s15, s0
 800f1b2:	4770      	bx	lr
 800f1b4:	4c000000 	.word	0x4c000000
 800f1b8:	ffff3cb0 	.word	0xffff3cb0
 800f1bc:	7149f2ca 	.word	0x7149f2ca
 800f1c0:	f149f2ca 	.word	0xf149f2ca
 800f1c4:	33000000 	.word	0x33000000
 800f1c8:	0da24260 	.word	0x0da24260
 800f1cc:	8da24260 	.word	0x8da24260

0800f1d0 <__kernel_rem_pio2f>:
 800f1d0:	e92d 4ff0 	stmdb	sp!, {r4, r5, r6, r7, r8, r9, sl, fp, lr}
 800f1d4:	ed2d 8b04 	vpush	{d8-d9}
 800f1d8:	b0db      	sub	sp, #364	@ 0x16c
 800f1da:	461c      	mov	r4, r3
 800f1dc:	4694      	mov	ip, r2
 800f1de:	9303      	str	r3, [sp, #12]
 800f1e0:	460a      	mov	r2, r1
 800f1e2:	4bba      	ldr	r3, [pc, #744]	@ (800f4cc <__kernel_rem_pio2f+0x2fc>)
 800f1e4:	9968      	ldr	r1, [sp, #416]	@ 0x1a0
 800f1e6:	f11c 0f04 	cmn.w	ip, #4
 800f1ea:	f853 7021 	ldr.w	r7, [r3, r1, lsl #2]
 800f1ee:	4682      	mov	sl, r0
 800f1f0:	f104 39ff 	add.w	r9, r4, #4294967295
 800f1f4:	f2c0 8256 	blt.w	800f6a4 <__kernel_rem_pio2f+0x4d4>
 800f1f8:	f1bc 0303 	subs.w	r3, ip, #3
 800f1fc:	bf48      	it	mi
 800f1fe:	f10c 0304 	addmi.w	r3, ip, #4
 800f202:	10db      	asrs	r3, r3, #3
 800f204:	9302      	str	r3, [sp, #8]
 800f206:	3301      	adds	r3, #1
 800f208:	ea4f 0ec3 	mov.w	lr, r3, lsl #3
 800f20c:	ebac 030e 	sub.w	r3, ip, lr
 800f210:	9305      	str	r3, [sp, #20]
 800f212:	9b02      	ldr	r3, [sp, #8]
 800f214:	eb17 0009 	adds.w	r0, r7, r9
 800f218:	eba3 0309 	sub.w	r3, r3, r9
 800f21c:	d416      	bmi.n	800f24c <__kernel_rem_pio2f+0x7c>
 800f21e:	3001      	adds	r0, #1
 800f220:	ed9f 7aab 	vldr	s14, [pc, #684]	@ 800f4d0 <__kernel_rem_pio2f+0x300>
 800f224:	9c69      	ldr	r4, [sp, #420]	@ 0x1a4
 800f226:	4418      	add	r0, r3
 800f228:	a91e      	add	r1, sp, #120	@ 0x78
 800f22a:	2b00      	cmp	r3, #0
 800f22c:	bfa4      	itt	ge
 800f22e:	f854 5023 	ldrge.w	r5, [r4, r3, lsl #2]
 800f232:	ee07 5a90 	vmovge	s15, r5
 800f236:	f103 0301 	add.w	r3, r3, #1
 800f23a:	bfac      	ite	ge
 800f23c:	eef8 7ae7 	vcvtge.f32.s32	s15, s15
 800f240:	eef0 7a47 	vmovlt.f32	s15, s14
 800f244:	4283      	cmp	r3, r0
 800f246:	ece1 7a01 	vstmia	r1!, {s15}
 800f24a:	d1ee      	bne.n	800f22a <__kernel_rem_pio2f+0x5a>
 800f24c:	2f00      	cmp	r7, #0
 800f24e:	f2c0 82e2 	blt.w	800f816 <__kernel_rem_pio2f+0x646>
 800f252:	9903      	ldr	r1, [sp, #12]
 800f254:	a81e      	add	r0, sp, #120	@ 0x78
 800f256:	eb00 0081 	add.w	r0, r0, r1, lsl #2
 800f25a:	ea4f 0881 	mov.w	r8, r1, lsl #2
 800f25e:	187e      	adds	r6, r7, r1
 800f260:	2300      	movs	r3, #0
 800f262:	ad46      	add	r5, sp, #280	@ 0x118
 800f264:	464c      	mov	r4, r9
 800f266:	eb0a 0181 	add.w	r1, sl, r1, lsl #2
 800f26a:	f1b9 0f00 	cmp.w	r9, #0
 800f26e:	f280 80c8 	bge.w	800f402 <__kernel_rem_pio2f+0x232>
 800f272:	3401      	adds	r4, #1
 800f274:	42b4      	cmp	r4, r6
 800f276:	f845 3b04 	str.w	r3, [r5], #4
 800f27a:	f100 0004 	add.w	r0, r0, #4
 800f27e:	d1f4      	bne.n	800f26a <__kernel_rem_pio2f+0x9a>
 800f280:	f10d 0b28 	add.w	fp, sp, #40	@ 0x28
 800f284:	eb0b 0387 	add.w	r3, fp, r7, lsl #2
 800f288:	e9cd 2e06 	strd	r2, lr, [sp, #24]
 800f28c:	3b04      	subs	r3, #4
 800f28e:	ed9f 9a92 	vldr	s18, [pc, #584]	@ 800f4d8 <__kernel_rem_pio2f+0x308>
 800f292:	eddf 8a90 	vldr	s17, [pc, #576]	@ 800f4d4 <__kernel_rem_pio2f+0x304>
 800f296:	9805      	ldr	r0, [sp, #20]
 800f298:	9304      	str	r3, [sp, #16]
 800f29a:	eb0a 0408 	add.w	r4, sl, r8
 800f29e:	ae46      	add	r6, sp, #280	@ 0x118
 800f2a0:	eb0b 0887 	add.w	r8, fp, r7, lsl #2
 800f2a4:	9700      	str	r7, [sp, #0]
 800f2a6:	f8cd c020 	str.w	ip, [sp, #32]
 800f2aa:	eb0d 0387 	add.w	r3, sp, r7, lsl #2
 800f2ae:	2f00      	cmp	r7, #0
 800f2b0:	ed93 0a46 	vldr	s0, [r3, #280]	@ 0x118
 800f2b4:	ea4f 0587 	mov.w	r5, r7, lsl #2
 800f2b8:	dd15      	ble.n	800f2e6 <__kernel_rem_pio2f+0x116>
 800f2ba:	1973      	adds	r3, r6, r5
 800f2bc:	465a      	mov	r2, fp
 800f2be:	ee60 7a09 	vmul.f32	s15, s0, s18
 800f2c2:	eeb0 7a40 	vmov.f32	s14, s0
 800f2c6:	eefd 7ae7 	vcvt.s32.f32	s15, s15
 800f2ca:	ed73 6a01 	vldmdb	r3!, {s13}
 800f2ce:	eef8 7ae7 	vcvt.f32.s32	s15, s15
 800f2d2:	42b3      	cmp	r3, r6
 800f2d4:	eea7 7ae8 	vfms.f32	s14, s15, s17
 800f2d8:	ee37 0aa6 	vadd.f32	s0, s15, s13
 800f2dc:	eebd 7ac7 	vcvt.s32.f32	s14, s14
 800f2e0:	eca2 7a01 	vstmia	r2!, {s14}
 800f2e4:	d1eb      	bne.n	800f2be <__kernel_rem_pio2f+0xee>
 800f2e6:	9001      	str	r0, [sp, #4]
 800f2e8:	f7ff ff04 	bl	800f0f4 <scalbnf>
 800f2ec:	eef4 7a00 	vmov.f32	s15, #64	@ 0x3e000000  0.125
 800f2f0:	eeb0 8a40 	vmov.f32	s16, s0
 800f2f4:	ee20 0a27 	vmul.f32	s0, s0, s15
 800f2f8:	f7ff fc0c 	bl	800eb14 <floorf>
 800f2fc:	eef2 7a00 	vmov.f32	s15, #32	@ 0x41000000  8.0
 800f300:	eea0 8a67 	vfms.f32	s16, s0, s15
 800f304:	9801      	ldr	r0, [sp, #4]
 800f306:	2800      	cmp	r0, #0
 800f308:	eefd 9ac8 	vcvt.s32.f32	s19, s16
 800f30c:	eef8 7ae9 	vcvt.f32.s32	s15, s19
 800f310:	ee38 8a67 	vsub.f32	s16, s16, s15
 800f314:	f340 8082 	ble.w	800f41c <__kernel_rem_pio2f+0x24c>
 800f318:	1e79      	subs	r1, r7, #1
 800f31a:	f1c0 0308 	rsb	r3, r0, #8
 800f31e:	f85b e021 	ldr.w	lr, [fp, r1, lsl #2]
 800f322:	fa4e fc03 	asr.w	ip, lr, r3
 800f326:	fa0c f303 	lsl.w	r3, ip, r3
 800f32a:	ebae 0e03 	sub.w	lr, lr, r3
 800f32e:	f1c0 0207 	rsb	r2, r0, #7
 800f332:	ee19 3a90 	vmov	r3, s19
 800f336:	fa4e f202 	asr.w	r2, lr, r2
 800f33a:	4463      	add	r3, ip
 800f33c:	2a00      	cmp	r2, #0
 800f33e:	ee09 3a90 	vmov	s19, r3
 800f342:	f84b e021 	str.w	lr, [fp, r1, lsl #2]
 800f346:	f300 80af 	bgt.w	800f4a8 <__kernel_rem_pio2f+0x2d8>
 800f34a:	eeb5 8a40 	vcmp.f32	s16, #0.0
 800f34e:	eef1 fa10 	vmrs	APSR_nzcv, fpscr
 800f352:	d174      	bne.n	800f43e <__kernel_rem_pio2f+0x26e>
 800f354:	9b00      	ldr	r3, [sp, #0]
 800f356:	429f      	cmp	r7, r3
 800f358:	dd0a      	ble.n	800f370 <__kernel_rem_pio2f+0x1a0>
 800f35a:	445d      	add	r5, fp
 800f35c:	2300      	movs	r3, #0
 800f35e:	f855 1d04 	ldr.w	r1, [r5, #-4]!
 800f362:	4545      	cmp	r5, r8
 800f364:	ea43 0301 	orr.w	r3, r3, r1
 800f368:	d1f9      	bne.n	800f35e <__kernel_rem_pio2f+0x18e>
 800f36a:	2b00      	cmp	r3, #0
 800f36c:	f040 8102 	bne.w	800f574 <__kernel_rem_pio2f+0x3a4>
 800f370:	9b00      	ldr	r3, [sp, #0]
 800f372:	3b01      	subs	r3, #1
 800f374:	f85b 2023 	ldr.w	r2, [fp, r3, lsl #2]
 800f378:	1c7b      	adds	r3, r7, #1
 800f37a:	469c      	mov	ip, r3
 800f37c:	2a00      	cmp	r2, #0
 800f37e:	f040 80f7 	bne.w	800f570 <__kernel_rem_pio2f+0x3a0>
 800f382:	9a04      	ldr	r2, [sp, #16]
 800f384:	2101      	movs	r1, #1
 800f386:	f852 5d04 	ldr.w	r5, [r2, #-4]!
 800f38a:	3101      	adds	r1, #1
 800f38c:	2d00      	cmp	r5, #0
 800f38e:	d0fa      	beq.n	800f386 <__kernel_rem_pio2f+0x1b6>
 800f390:	4439      	add	r1, r7
 800f392:	9d02      	ldr	r5, [sp, #8]
 800f394:	9a03      	ldr	r2, [sp, #12]
 800f396:	eb05 0e03 	add.w	lr, r5, r3
 800f39a:	f10e 4e80 	add.w	lr, lr, #1073741824	@ 0x40000000
 800f39e:	9d69      	ldr	r5, [sp, #420]	@ 0x1a4
 800f3a0:	f10e 3eff 	add.w	lr, lr, #4294967295
 800f3a4:	443a      	add	r2, r7
 800f3a6:	eb05 0e8e 	add.w	lr, r5, lr, lsl #2
 800f3aa:	ad1e      	add	r5, sp, #120	@ 0x78
 800f3ac:	eb06 0783 	add.w	r7, r6, r3, lsl #2
 800f3b0:	eb05 0582 	add.w	r5, r5, r2, lsl #2
 800f3b4:	edde 7a01 	vldr	s15, [lr, #4]
 800f3b8:	eef8 7ae7 	vcvt.f32.s32	s15, s15
 800f3bc:	f1b9 0f00 	cmp.w	r9, #0
 800f3c0:	f10e 0e04 	add.w	lr, lr, #4
 800f3c4:	ece5 7a01 	vstmia	r5!, {s15}
 800f3c8:	eddf 7a41 	vldr	s15, [pc, #260]	@ 800f4d0 <__kernel_rem_pio2f+0x300>
 800f3cc:	db09      	blt.n	800f3e2 <__kernel_rem_pio2f+0x212>
 800f3ce:	462a      	mov	r2, r5
 800f3d0:	4653      	mov	r3, sl
 800f3d2:	ecf3 6a01 	vldmia	r3!, {s13}
 800f3d6:	ed32 7a01 	vldmdb	r2!, {s14}
 800f3da:	42a3      	cmp	r3, r4
 800f3dc:	eee6 7a87 	vfma.f32	s15, s13, s14
 800f3e0:	d1f7      	bne.n	800f3d2 <__kernel_rem_pio2f+0x202>
 800f3e2:	f10c 0c01 	add.w	ip, ip, #1
 800f3e6:	458c      	cmp	ip, r1
 800f3e8:	ece7 7a01 	vstmia	r7!, {s15}
 800f3ec:	dde2      	ble.n	800f3b4 <__kernel_rem_pio2f+0x1e4>
 800f3ee:	460f      	mov	r7, r1
 800f3f0:	e75b      	b.n	800f2aa <__kernel_rem_pio2f+0xda>
 800f3f2:	3401      	adds	r4, #1
 800f3f4:	42b4      	cmp	r4, r6
 800f3f6:	ece5 7a01 	vstmia	r5!, {s15}
 800f3fa:	f100 0004 	add.w	r0, r0, #4
 800f3fe:	f43f af3f 	beq.w	800f280 <__kernel_rem_pio2f+0xb0>
 800f402:	eddf 7a33 	vldr	s15, [pc, #204]	@ 800f4d0 <__kernel_rem_pio2f+0x300>
 800f406:	4683      	mov	fp, r0
 800f408:	4653      	mov	r3, sl
 800f40a:	ecf3 6a01 	vldmia	r3!, {s13}
 800f40e:	ed3b 7a01 	vldmdb	fp!, {s14}
 800f412:	428b      	cmp	r3, r1
 800f414:	eee6 7a87 	vfma.f32	s15, s13, s14
 800f418:	d1f7      	bne.n	800f40a <__kernel_rem_pio2f+0x23a>
 800f41a:	e7ea      	b.n	800f3f2 <__kernel_rem_pio2f+0x222>
 800f41c:	f000 8091 	beq.w	800f542 <__kernel_rem_pio2f+0x372>
 800f420:	eef6 7a00 	vmov.f32	s15, #96	@ 0x3f000000  0.5
 800f424:	eeb4 8ae7 	vcmpe.f32	s16, s15
 800f428:	eef1 fa10 	vmrs	APSR_nzcv, fpscr
 800f42c:	f280 8129 	bge.w	800f682 <__kernel_rem_pio2f+0x4b2>
 800f430:	eeb5 8a40 	vcmp.f32	s16, #0.0
 800f434:	eef1 fa10 	vmrs	APSR_nzcv, fpscr
 800f438:	f04f 0200 	mov.w	r2, #0
 800f43c:	d08a      	beq.n	800f354 <__kernel_rem_pio2f+0x184>
 800f43e:	4692      	mov	sl, r2
 800f440:	e9dd 2e06 	ldrd	r2, lr, [sp, #24]
 800f444:	f8dd c020 	ldr.w	ip, [sp, #32]
 800f448:	9701      	str	r7, [sp, #4]
 800f44a:	ebae 000c 	sub.w	r0, lr, ip
 800f44e:	eeb0 0a48 	vmov.f32	s0, s16
 800f452:	9f00      	ldr	r7, [sp, #0]
 800f454:	9200      	str	r2, [sp, #0]
 800f456:	f7ff fe4d 	bl	800f0f4 <scalbnf>
 800f45a:	eddf 6a1e 	vldr	s13, [pc, #120]	@ 800f4d4 <__kernel_rem_pio2f+0x304>
 800f45e:	eeb4 0ae6 	vcmpe.f32	s0, s13
 800f462:	eef1 fa10 	vmrs	APSR_nzcv, fpscr
 800f466:	e9dd 2300 	ldrd	r2, r3, [sp]
 800f46a:	eef0 7a40 	vmov.f32	s15, s0
 800f46e:	f2c0 819c 	blt.w	800f7aa <__kernel_rem_pio2f+0x5da>
 800f472:	ed9f 7a19 	vldr	s14, [pc, #100]	@ 800f4d8 <__kernel_rem_pio2f+0x308>
 800f476:	9905      	ldr	r1, [sp, #20]
 800f478:	ee20 7a07 	vmul.f32	s14, s0, s14
 800f47c:	3108      	adds	r1, #8
 800f47e:	eebd 7ac7 	vcvt.s32.f32	s14, s14
 800f482:	9105      	str	r1, [sp, #20]
 800f484:	eeb8 7ac7 	vcvt.f32.s32	s14, s14
 800f488:	1c5c      	adds	r4, r3, #1
 800f48a:	eee7 7a66 	vfms.f32	s15, s14, s13
 800f48e:	eebd 7ac7 	vcvt.s32.f32	s14, s14
 800f492:	eefd 7ae7 	vcvt.s32.f32	s15, s15
 800f496:	ee17 1a90 	vmov	r1, s15
 800f49a:	f84b 1023 	str.w	r1, [fp, r3, lsl #2]
 800f49e:	ee17 3a10 	vmov	r3, s14
 800f4a2:	f84b 3024 	str.w	r3, [fp, r4, lsl #2]
 800f4a6:	e07e      	b.n	800f5a6 <__kernel_rem_pio2f+0x3d6>
 800f4a8:	3301      	adds	r3, #1
 800f4aa:	2f00      	cmp	r7, #0
 800f4ac:	ee09 3a90 	vmov	s19, r3
 800f4b0:	f340 819d 	ble.w	800f7ee <__kernel_rem_pio2f+0x61e>
 800f4b4:	4659      	mov	r1, fp
 800f4b6:	f04f 0e00 	mov.w	lr, #0
 800f4ba:	f851 3b04 	ldr.w	r3, [r1], #4
 800f4be:	2b00      	cmp	r3, #0
 800f4c0:	d039      	beq.n	800f536 <__kernel_rem_pio2f+0x366>
 800f4c2:	f5c3 7380 	rsb	r3, r3, #256	@ 0x100
 800f4c6:	f841 3c04 	str.w	r3, [r1, #-4]
 800f4ca:	e00c      	b.n	800f4e6 <__kernel_rem_pio2f+0x316>
 800f4cc:	0800fcb8 	.word	0x0800fcb8
 800f4d0:	00000000 	.word	0x00000000
 800f4d4:	43800000 	.word	0x43800000
 800f4d8:	3b800000 	.word	0x3b800000
 800f4dc:	680b      	ldr	r3, [r1, #0]
 800f4de:	f1c3 03ff 	rsb	r3, r3, #255	@ 0xff
 800f4e2:	f841 3b04 	str.w	r3, [r1], #4
 800f4e6:	f10e 0e01 	add.w	lr, lr, #1
 800f4ea:	4577      	cmp	r7, lr
 800f4ec:	dcf6      	bgt.n	800f4dc <__kernel_rem_pio2f+0x30c>
 800f4ee:	2301      	movs	r3, #1
 800f4f0:	469e      	mov	lr, r3
 800f4f2:	2800      	cmp	r0, #0
 800f4f4:	dd0b      	ble.n	800f50e <__kernel_rem_pio2f+0x33e>
 800f4f6:	2801      	cmp	r0, #1
 800f4f8:	f000 80bb 	beq.w	800f672 <__kernel_rem_pio2f+0x4a2>
 800f4fc:	2802      	cmp	r0, #2
 800f4fe:	d106      	bne.n	800f50e <__kernel_rem_pio2f+0x33e>
 800f500:	1e79      	subs	r1, r7, #1
 800f502:	f85b 3021 	ldr.w	r3, [fp, r1, lsl #2]
 800f506:	f003 0c3f 	and.w	ip, r3, #63	@ 0x3f
 800f50a:	f84b c021 	str.w	ip, [fp, r1, lsl #2]
 800f50e:	2a02      	cmp	r2, #2
 800f510:	f47f af1b 	bne.w	800f34a <__kernel_rem_pio2f+0x17a>
 800f514:	eeb7 0a00 	vmov.f32	s0, #112	@ 0x3f800000  1.0
 800f518:	4673      	mov	r3, lr
 800f51a:	ee30 8a48 	vsub.f32	s16, s0, s16
 800f51e:	2b00      	cmp	r3, #0
 800f520:	f43f af13 	beq.w	800f34a <__kernel_rem_pio2f+0x17a>
 800f524:	9209      	str	r2, [sp, #36]	@ 0x24
 800f526:	9001      	str	r0, [sp, #4]
 800f528:	f7ff fde4 	bl	800f0f4 <scalbnf>
 800f52c:	9801      	ldr	r0, [sp, #4]
 800f52e:	9a09      	ldr	r2, [sp, #36]	@ 0x24
 800f530:	ee38 8a40 	vsub.f32	s16, s16, s0
 800f534:	e709      	b.n	800f34a <__kernel_rem_pio2f+0x17a>
 800f536:	f10e 0e01 	add.w	lr, lr, #1
 800f53a:	4577      	cmp	r7, lr
 800f53c:	dcbd      	bgt.n	800f4ba <__kernel_rem_pio2f+0x2ea>
 800f53e:	469e      	mov	lr, r3
 800f540:	e7d7      	b.n	800f4f2 <__kernel_rem_pio2f+0x322>
 800f542:	1e7b      	subs	r3, r7, #1
 800f544:	f85b 2023 	ldr.w	r2, [fp, r3, lsl #2]
 800f548:	11d2      	asrs	r2, r2, #7
 800f54a:	2a00      	cmp	r2, #0
 800f54c:	f77f aefd 	ble.w	800f34a <__kernel_rem_pio2f+0x17a>
 800f550:	ee19 3a90 	vmov	r3, s19
 800f554:	2f00      	cmp	r7, #0
 800f556:	f103 0301 	add.w	r3, r3, #1
 800f55a:	ee09 3a90 	vmov	s19, r3
 800f55e:	dca9      	bgt.n	800f4b4 <__kernel_rem_pio2f+0x2e4>
 800f560:	2a02      	cmp	r2, #2
 800f562:	f47f aef2 	bne.w	800f34a <__kernel_rem_pio2f+0x17a>
 800f566:	eef7 7a00 	vmov.f32	s15, #112	@ 0x3f800000  1.0
 800f56a:	ee37 8ac8 	vsub.f32	s16, s15, s16
 800f56e:	e6ec      	b.n	800f34a <__kernel_rem_pio2f+0x17a>
 800f570:	4619      	mov	r1, r3
 800f572:	e70e      	b.n	800f392 <__kernel_rem_pio2f+0x1c2>
 800f574:	463b      	mov	r3, r7
 800f576:	4692      	mov	sl, r2
 800f578:	e9dd 1205 	ldrd	r1, r2, [sp, #20]
 800f57c:	1e5c      	subs	r4, r3, #1
 800f57e:	f1a1 0008 	sub.w	r0, r1, #8
 800f582:	f85b 1024 	ldr.w	r1, [fp, r4, lsl #2]
 800f586:	9f00      	ldr	r7, [sp, #0]
 800f588:	9005      	str	r0, [sp, #20]
 800f58a:	b961      	cbnz	r1, 800f5a6 <__kernel_rem_pio2f+0x3d6>
 800f58c:	f103 4380 	add.w	r3, r3, #1073741824	@ 0x40000000
 800f590:	3b01      	subs	r3, #1
 800f592:	eb0b 0383 	add.w	r3, fp, r3, lsl #2
 800f596:	4601      	mov	r1, r0
 800f598:	f853 0d04 	ldr.w	r0, [r3, #-4]!
 800f59c:	3c01      	subs	r4, #1
 800f59e:	3908      	subs	r1, #8
 800f5a0:	2800      	cmp	r0, #0
 800f5a2:	d0f9      	beq.n	800f598 <__kernel_rem_pio2f+0x3c8>
 800f5a4:	9105      	str	r1, [sp, #20]
 800f5a6:	9805      	ldr	r0, [sp, #20]
 800f5a8:	9200      	str	r2, [sp, #0]
 800f5aa:	eeb7 0a00 	vmov.f32	s0, #112	@ 0x3f800000  1.0
 800f5ae:	f7ff fda1 	bl	800f0f4 <scalbnf>
 800f5b2:	2c00      	cmp	r4, #0
 800f5b4:	9a00      	ldr	r2, [sp, #0]
 800f5b6:	eeb0 7a40 	vmov.f32	s14, s0
 800f5ba:	f2c0 8122 	blt.w	800f802 <__kernel_rem_pio2f+0x632>
 800f5be:	1c60      	adds	r0, r4, #1
 800f5c0:	ad46      	add	r5, sp, #280	@ 0x118
 800f5c2:	ed5f 6a3b 	vldr	s13, [pc, #-236]	@ 800f4d8 <__kernel_rem_pio2f+0x308>
 800f5c6:	0081      	lsls	r1, r0, #2
 800f5c8:	eb0b 0380 	add.w	r3, fp, r0, lsl #2
 800f5cc:	eb05 0080 	add.w	r0, r5, r0, lsl #2
 800f5d0:	ed73 7a01 	vldmdb	r3!, {s15}
 800f5d4:	eef8 7ae7 	vcvt.f32.s32	s15, s15
 800f5d8:	455b      	cmp	r3, fp
 800f5da:	ee67 7a87 	vmul.f32	s15, s15, s14
 800f5de:	ee27 7a26 	vmul.f32	s14, s14, s13
 800f5e2:	ed60 7a01 	vstmdb	r0!, {s15}
 800f5e6:	d1f3      	bne.n	800f5d0 <__kernel_rem_pio2f+0x400>
 800f5e8:	f10d 08c8 	add.w	r8, sp, #200	@ 0xc8
 800f5ec:	1f0e      	subs	r6, r1, #4
 800f5ee:	442e      	add	r6, r5
 800f5f0:	46c6      	mov	lr, r8
 800f5f2:	46a4      	mov	ip, r4
 800f5f4:	2500      	movs	r5, #0
 800f5f6:	2f00      	cmp	r7, #0
 800f5f8:	db7d      	blt.n	800f6f6 <__kernel_rem_pio2f+0x526>
 800f5fa:	f8df 925c 	ldr.w	r9, [pc, #604]	@ 800f858 <__kernel_rem_pio2f+0x688>
 800f5fe:	eddf 7a95 	vldr	s15, [pc, #596]	@ 800f854 <__kernel_rem_pio2f+0x684>
 800f602:	4630      	mov	r0, r6
 800f604:	2300      	movs	r3, #0
 800f606:	e007      	b.n	800f618 <__kernel_rem_pio2f+0x448>
 800f608:	ecf9 6a01 	vldmia	r9!, {s13}
 800f60c:	ecb0 7a01 	vldmia	r0!, {s14}
 800f610:	429f      	cmp	r7, r3
 800f612:	eee6 7a87 	vfma.f32	s15, s13, s14
 800f616:	db03      	blt.n	800f620 <__kernel_rem_pio2f+0x450>
 800f618:	429d      	cmp	r5, r3
 800f61a:	f103 0301 	add.w	r3, r3, #1
 800f61e:	daf3      	bge.n	800f608 <__kernel_rem_pio2f+0x438>
 800f620:	f10c 3cff 	add.w	ip, ip, #4294967295
 800f624:	f1bc 3fff 	cmp.w	ip, #4294967295
 800f628:	ecee 7a01 	vstmia	lr!, {s15}
 800f62c:	f105 0501 	add.w	r5, r5, #1
 800f630:	f1a6 0604 	sub.w	r6, r6, #4
 800f634:	d1e1      	bne.n	800f5fa <__kernel_rem_pio2f+0x42a>
 800f636:	9b68      	ldr	r3, [sp, #416]	@ 0x1a0
 800f638:	2b02      	cmp	r3, #2
 800f63a:	dc6a      	bgt.n	800f712 <__kernel_rem_pio2f+0x542>
 800f63c:	2b00      	cmp	r3, #0
 800f63e:	dc36      	bgt.n	800f6ae <__kernel_rem_pio2f+0x4de>
 800f640:	d10e      	bne.n	800f660 <__kernel_rem_pio2f+0x490>
 800f642:	eddf 7a84 	vldr	s15, [pc, #528]	@ 800f854 <__kernel_rem_pio2f+0x684>
 800f646:	4441      	add	r1, r8
 800f648:	ed31 7a01 	vldmdb	r1!, {s14}
 800f64c:	4588      	cmp	r8, r1
 800f64e:	ee77 7a87 	vadd.f32	s15, s15, s14
 800f652:	d1f9      	bne.n	800f648 <__kernel_rem_pio2f+0x478>
 800f654:	4653      	mov	r3, sl
 800f656:	2b00      	cmp	r3, #0
 800f658:	f040 80c6 	bne.w	800f7e8 <__kernel_rem_pio2f+0x618>
 800f65c:	edc2 7a00 	vstr	s15, [r2]
 800f660:	ee19 3a90 	vmov	r3, s19
 800f664:	f003 0007 	and.w	r0, r3, #7
 800f668:	b05b      	add	sp, #364	@ 0x16c
 800f66a:	ecbd 8b04 	vpop	{d8-d9}
 800f66e:	e8bd 8ff0 	ldmia.w	sp!, {r4, r5, r6, r7, r8, r9, sl, fp, pc}
 800f672:	1e79      	subs	r1, r7, #1
 800f674:	f85b 3021 	ldr.w	r3, [fp, r1, lsl #2]
 800f678:	f003 0c7f 	and.w	ip, r3, #127	@ 0x7f
 800f67c:	f84b c021 	str.w	ip, [fp, r1, lsl #2]
 800f680:	e745      	b.n	800f50e <__kernel_rem_pio2f+0x33e>
 800f682:	ee19 3a90 	vmov	r3, s19
 800f686:	2f00      	cmp	r7, #0
 800f688:	f103 0301 	add.w	r3, r3, #1
 800f68c:	ee09 3a90 	vmov	s19, r3
 800f690:	bfc8      	it	gt
 800f692:	2202      	movgt	r2, #2
 800f694:	f73f af0e 	bgt.w	800f4b4 <__kernel_rem_pio2f+0x2e4>
 800f698:	eef7 7a00 	vmov.f32	s15, #112	@ 0x3f800000  1.0
 800f69c:	ee37 8ac8 	vsub.f32	s16, s15, s16
 800f6a0:	2202      	movs	r2, #2
 800f6a2:	e652      	b.n	800f34a <__kernel_rem_pio2f+0x17a>
 800f6a4:	2300      	movs	r3, #0
 800f6a6:	f04f 0e08 	mov.w	lr, #8
 800f6aa:	9302      	str	r3, [sp, #8]
 800f6ac:	e5ae      	b.n	800f20c <__kernel_rem_pio2f+0x3c>
 800f6ae:	eddd 7a32 	vldr	s15, [sp, #200]	@ 0xc8
 800f6b2:	ed9f 7a68 	vldr	s14, [pc, #416]	@ 800f854 <__kernel_rem_pio2f+0x684>
 800f6b6:	4441      	add	r1, r8
 800f6b8:	ed71 6a01 	vldmdb	r1!, {s13}
 800f6bc:	4588      	cmp	r8, r1
 800f6be:	ee37 7a26 	vadd.f32	s14, s14, s13
 800f6c2:	d1f9      	bne.n	800f6b8 <__kernel_rem_pio2f+0x4e8>
 800f6c4:	4653      	mov	r3, sl
 800f6c6:	2b00      	cmp	r3, #0
 800f6c8:	f040 8084 	bne.w	800f7d4 <__kernel_rem_pio2f+0x604>
 800f6cc:	ee77 7ac7 	vsub.f32	s15, s15, s14
 800f6d0:	ed82 7a00 	vstr	s14, [r2]
 800f6d4:	b164      	cbz	r4, 800f6f0 <__kernel_rem_pio2f+0x520>
 800f6d6:	a933      	add	r1, sp, #204	@ 0xcc
 800f6d8:	2301      	movs	r3, #1
 800f6da:	ecb1 7a01 	vldmia	r1!, {s14}
 800f6de:	3301      	adds	r3, #1
 800f6e0:	429c      	cmp	r4, r3
 800f6e2:	ee77 7a87 	vadd.f32	s15, s15, s14
 800f6e6:	daf8      	bge.n	800f6da <__kernel_rem_pio2f+0x50a>
 800f6e8:	4653      	mov	r3, sl
 800f6ea:	b10b      	cbz	r3, 800f6f0 <__kernel_rem_pio2f+0x520>
 800f6ec:	eef1 7a67 	vneg.f32	s15, s15
 800f6f0:	edc2 7a01 	vstr	s15, [r2, #4]
 800f6f4:	e7b4      	b.n	800f660 <__kernel_rem_pio2f+0x490>
 800f6f6:	f10c 3cff 	add.w	ip, ip, #4294967295
 800f6fa:	2300      	movs	r3, #0
 800f6fc:	f1bc 3fff 	cmp.w	ip, #4294967295
 800f700:	f84e 3b04 	str.w	r3, [lr], #4
 800f704:	f105 0501 	add.w	r5, r5, #1
 800f708:	f1a6 0604 	sub.w	r6, r6, #4
 800f70c:	f47f af73 	bne.w	800f5f6 <__kernel_rem_pio2f+0x426>
 800f710:	e791      	b.n	800f636 <__kernel_rem_pio2f+0x466>
 800f712:	9b68      	ldr	r3, [sp, #416]	@ 0x1a0
 800f714:	2b03      	cmp	r3, #3
 800f716:	d1a3      	bne.n	800f660 <__kernel_rem_pio2f+0x490>
 800f718:	2c00      	cmp	r4, #0
 800f71a:	f000 808c 	beq.w	800f836 <__kernel_rem_pio2f+0x666>
 800f71e:	eb08 0584 	add.w	r5, r8, r4, lsl #2
 800f722:	ed95 7a00 	vldr	s14, [r5]
 800f726:	00a0      	lsls	r0, r4, #2
 800f728:	462b      	mov	r3, r5
 800f72a:	4629      	mov	r1, r5
 800f72c:	ed71 7a01 	vldmdb	r1!, {s15}
 800f730:	eef0 6a47 	vmov.f32	s13, s14
 800f734:	ee37 7a27 	vadd.f32	s14, s14, s15
 800f738:	4588      	cmp	r8, r1
 800f73a:	ee77 7ac7 	vsub.f32	s15, s15, s14
 800f73e:	ed81 7a00 	vstr	s14, [r1]
 800f742:	ee77 7aa6 	vadd.f32	s15, s15, s13
 800f746:	edc1 7a01 	vstr	s15, [r1, #4]
 800f74a:	d1ef      	bne.n	800f72c <__kernel_rem_pio2f+0x55c>
 800f74c:	2c01      	cmp	r4, #1
 800f74e:	d072      	beq.n	800f836 <__kernel_rem_pio2f+0x666>
 800f750:	ed95 7a00 	vldr	s14, [r5]
 800f754:	f108 0104 	add.w	r1, r8, #4
 800f758:	ed73 7a01 	vldmdb	r3!, {s15}
 800f75c:	eef0 6a47 	vmov.f32	s13, s14
 800f760:	ee37 7a27 	vadd.f32	s14, s14, s15
 800f764:	4299      	cmp	r1, r3
 800f766:	ee77 7ac7 	vsub.f32	s15, s15, s14
 800f76a:	ed83 7a00 	vstr	s14, [r3]
 800f76e:	ee77 7aa6 	vadd.f32	s15, s15, s13
 800f772:	edc3 7a01 	vstr	s15, [r3, #4]
 800f776:	d1ef      	bne.n	800f758 <__kernel_rem_pio2f+0x588>
 800f778:	1d03      	adds	r3, r0, #4
 800f77a:	eddf 7a36 	vldr	s15, [pc, #216]	@ 800f854 <__kernel_rem_pio2f+0x684>
 800f77e:	4443      	add	r3, r8
 800f780:	f108 0808 	add.w	r8, r8, #8
 800f784:	ed33 7a01 	vldmdb	r3!, {s14}
 800f788:	4598      	cmp	r8, r3
 800f78a:	ee77 7a87 	vadd.f32	s15, s15, s14
 800f78e:	d1f9      	bne.n	800f784 <__kernel_rem_pio2f+0x5b4>
 800f790:	4653      	mov	r3, sl
 800f792:	eddd 6a32 	vldr	s13, [sp, #200]	@ 0xc8
 800f796:	ed9d 7a33 	vldr	s14, [sp, #204]	@ 0xcc
 800f79a:	b973      	cbnz	r3, 800f7ba <__kernel_rem_pio2f+0x5ea>
 800f79c:	edc2 6a00 	vstr	s13, [r2]
 800f7a0:	ed82 7a01 	vstr	s14, [r2, #4]
 800f7a4:	edc2 7a02 	vstr	s15, [r2, #8]
 800f7a8:	e75a      	b.n	800f660 <__kernel_rem_pio2f+0x490>
 800f7aa:	eefd 7ac0 	vcvt.s32.f32	s15, s0
 800f7ae:	461c      	mov	r4, r3
 800f7b0:	ee17 1a90 	vmov	r1, s15
 800f7b4:	f84b 1023 	str.w	r1, [fp, r3, lsl #2]
 800f7b8:	e6f5      	b.n	800f5a6 <__kernel_rem_pio2f+0x3d6>
 800f7ba:	eef1 6a66 	vneg.f32	s13, s13
 800f7be:	eeb1 7a47 	vneg.f32	s14, s14
 800f7c2:	eef1 7a67 	vneg.f32	s15, s15
 800f7c6:	edc2 6a00 	vstr	s13, [r2]
 800f7ca:	ed82 7a01 	vstr	s14, [r2, #4]
 800f7ce:	edc2 7a02 	vstr	s15, [r2, #8]
 800f7d2:	e745      	b.n	800f660 <__kernel_rem_pio2f+0x490>
 800f7d4:	eef1 6a47 	vneg.f32	s13, s14
 800f7d8:	ee77 7ac7 	vsub.f32	s15, s15, s14
 800f7dc:	edc2 6a00 	vstr	s13, [r2]
 800f7e0:	2c00      	cmp	r4, #0
 800f7e2:	f47f af78 	bne.w	800f6d6 <__kernel_rem_pio2f+0x506>
 800f7e6:	e781      	b.n	800f6ec <__kernel_rem_pio2f+0x51c>
 800f7e8:	eef1 7a67 	vneg.f32	s15, s15
 800f7ec:	e736      	b.n	800f65c <__kernel_rem_pio2f+0x48c>
 800f7ee:	2801      	cmp	r0, #1
 800f7f0:	d015      	beq.n	800f81e <__kernel_rem_pio2f+0x64e>
 800f7f2:	2802      	cmp	r0, #2
 800f7f4:	f47f aeb4 	bne.w	800f560 <__kernel_rem_pio2f+0x390>
 800f7f8:	f00e 033f 	and.w	r3, lr, #63	@ 0x3f
 800f7fc:	f84b 3021 	str.w	r3, [fp, r1, lsl #2]
 800f800:	e6ae      	b.n	800f560 <__kernel_rem_pio2f+0x390>
 800f802:	9b68      	ldr	r3, [sp, #416]	@ 0x1a0
 800f804:	2b02      	cmp	r3, #2
 800f806:	dc12      	bgt.n	800f82e <__kernel_rem_pio2f+0x65e>
 800f808:	2b00      	cmp	r3, #0
 800f80a:	dc17      	bgt.n	800f83c <__kernel_rem_pio2f+0x66c>
 800f80c:	f47f af28 	bne.w	800f660 <__kernel_rem_pio2f+0x490>
 800f810:	eddf 7a10 	vldr	s15, [pc, #64]	@ 800f854 <__kernel_rem_pio2f+0x684>
 800f814:	e71e      	b.n	800f654 <__kernel_rem_pio2f+0x484>
 800f816:	9b03      	ldr	r3, [sp, #12]
 800f818:	ea4f 0883 	mov.w	r8, r3, lsl #2
 800f81c:	e530      	b.n	800f280 <__kernel_rem_pio2f+0xb0>
 800f81e:	f00e 037f 	and.w	r3, lr, #127	@ 0x7f
 800f822:	2a02      	cmp	r2, #2
 800f824:	f84b 3021 	str.w	r3, [fp, r1, lsl #2]
 800f828:	f47f ad8f 	bne.w	800f34a <__kernel_rem_pio2f+0x17a>
 800f82c:	e69b      	b.n	800f566 <__kernel_rem_pio2f+0x396>
 800f82e:	9b68      	ldr	r3, [sp, #416]	@ 0x1a0
 800f830:	2b03      	cmp	r3, #3
 800f832:	f47f af15 	bne.w	800f660 <__kernel_rem_pio2f+0x490>
 800f836:	eddf 7a07 	vldr	s15, [pc, #28]	@ 800f854 <__kernel_rem_pio2f+0x684>
 800f83a:	e7a9      	b.n	800f790 <__kernel_rem_pio2f+0x5c0>
 800f83c:	4653      	mov	r3, sl
 800f83e:	eddd 7a32 	vldr	s15, [sp, #200]	@ 0xc8
 800f842:	b11b      	cbz	r3, 800f84c <__kernel_rem_pio2f+0x67c>
 800f844:	f04f 4300 	mov.w	r3, #2147483648	@ 0x80000000
 800f848:	6013      	str	r3, [r2, #0]
 800f84a:	e74f      	b.n	800f6ec <__kernel_rem_pio2f+0x51c>
 800f84c:	2300      	movs	r3, #0
 800f84e:	6013      	str	r3, [r2, #0]
 800f850:	e74e      	b.n	800f6f0 <__kernel_rem_pio2f+0x520>
 800f852:	bf00      	nop
 800f854:	00000000 	.word	0x00000000
 800f858:	0800fc8c 	.word	0x0800fc8c

0800f85c <_init>:
 800f85c:	b5f8      	push	{r3, r4, r5, r6, r7, lr}
 800f85e:	bf00      	nop
 800f860:	bcf8      	pop	{r3, r4, r5, r6, r7}
 800f862:	bc08      	pop	{r3}
 800f864:	469e      	mov	lr, r3
 800f866:	4770      	bx	lr

0800f868 <_fini>:
 800f868:	b5f8      	push	{r3, r4, r5, r6, r7, lr}
 800f86a:	bf00      	nop
 800f86c:	bcf8      	pop	{r3, r4, r5, r6, r7}
 800f86e:	bc08      	pop	{r3}
 800f870:	469e      	mov	lr, r3
 800f872:	4770      	bx	lr
