
PSSTypeIISimpleHPF_L476R.elf:     file format elf32-littlearm

Sections:
Idx Name          Size      VMA       LMA       File off  Algn
  0 .isr_vector   00000188  08000000  08000000  00001000  2**0
                  CONTENTS, ALLOC, LOAD, READONLY, DATA
  1 .text         00003ca8  08000188  08000188  00001188  2**3
                  CONTENTS, ALLOC, LOAD, READONLY, CODE
  2 .rodata       0000005c  08003e30  08003e30  00004e30  2**2
                  CONTENTS, ALLOC, LOAD, READONLY, DATA
  3 .ARM.extab    00000000  08003e8c  08003e8c  00005010  2**0
                  CONTENTS, READONLY
  4 .ARM          00000008  08003e8c  08003e8c  00004e8c  2**2
                  CONTENTS, ALLOC, LOAD, READONLY, DATA
  5 .preinit_array 00000000  08003e94  08003e94  00005010  2**0
                  CONTENTS, ALLOC, LOAD, DATA
  6 .init_array   00000004  08003e94  08003e94  00004e94  2**2
                  CONTENTS, ALLOC, LOAD, READONLY, DATA
  7 .fini_array   00000004  08003e98  08003e98  00004e98  2**2
                  CONTENTS, ALLOC, LOAD, READONLY, DATA
  8 .data         00000010  20000000  08003e9c  00005000  2**2
                  CONTENTS, ALLOC, LOAD, DATA
  9 .bss          00000244  20000010  08003eac  00005010  2**3
                  ALLOC
 10 ._user_heap_stack 00000604  20000254  08003eac  00005254  2**0
                  ALLOC
 11 .ARM.attributes 00000030  00000000  00000000  00005010  2**0
                  CONTENTS, READONLY
 12 .comment      00000043  00000000  00000000  00005040  2**0
                  CONTENTS, READONLY
 13 .debug_frame  000000ac  00000000  00000000  00005084  2**2
                  CONTENTS, READONLY, DEBUGGING, OCTETS

Disassembly of section .text:

08000188 <__do_global_dtors_aux>:
 8000188:	b510      	push	{r4, lr}
 800018a:	4c05      	ldr	r4, [pc, #20]	@ (80001a0 <__do_global_dtors_aux+0x18>)
 800018c:	7823      	ldrb	r3, [r4, #0]
 800018e:	b933      	cbnz	r3, 800019e <__do_global_dtors_aux+0x16>
 8000190:	4b04      	ldr	r3, [pc, #16]	@ (80001a4 <__do_global_dtors_aux+0x1c>)
 8000192:	b113      	cbz	r3, 800019a <__do_global_dtors_aux+0x12>
 8000194:	4804      	ldr	r0, [pc, #16]	@ (80001a8 <__do_global_dtors_aux+0x20>)
 8000196:	f3af 8000 	nop.w
 800019a:	2301      	movs	r3, #1
 800019c:	7023      	strb	r3, [r4, #0]
 800019e:	bd10      	pop	{r4, pc}
 80001a0:	20000010 	.word	0x20000010
 80001a4:	00000000 	.word	0x00000000
 80001a8:	08003e18 	.word	0x08003e18

080001ac <frame_dummy>:
 80001ac:	b508      	push	{r3, lr}
 80001ae:	4b03      	ldr	r3, [pc, #12]	@ (80001bc <frame_dummy+0x10>)
 80001b0:	b11b      	cbz	r3, 80001ba <frame_dummy+0xe>
 80001b2:	4903      	ldr	r1, [pc, #12]	@ (80001c0 <frame_dummy+0x14>)
 80001b4:	4803      	ldr	r0, [pc, #12]	@ (80001c4 <frame_dummy+0x18>)
 80001b6:	f3af 8000 	nop.w
 80001ba:	bd08      	pop	{r3, pc}
 80001bc:	00000000 	.word	0x00000000
 80001c0:	20000014 	.word	0x20000014
 80001c4:	08003e18 	.word	0x08003e18

080001c8 <__aeabi_uldivmod>:
 80001c8:	b953      	cbnz	r3, 80001e0 <__aeabi_uldivmod+0x18>
 80001ca:	b94a      	cbnz	r2, 80001e0 <__aeabi_uldivmod+0x18>
 80001cc:	2900      	cmp	r1, #0
 80001ce:	bf08      	it	eq
 80001d0:	2800      	cmpeq	r0, #0
 80001d2:	bf1c      	itt	ne
 80001d4:	f04f 31ff 	movne.w	r1, #4294967295
 80001d8:	f04f 30ff 	movne.w	r0, #4294967295
 80001dc:	f000 b988 	b.w	80004f0 <__aeabi_idiv0>
 80001e0:	f1ad 0c08 	sub.w	ip, sp, #8
 80001e4:	e96d ce04 	strd	ip, lr, [sp, #-16]!
 80001e8:	f000 f806 	bl	80001f8 <__udivmoddi4>
 80001ec:	f8dd e004 	ldr.w	lr, [sp, #4]
 80001f0:	e9dd 2302 	ldrd	r2, r3, [sp, #8]
 80001f4:	b004      	add	sp, #16
 80001f6:	4770      	bx	lr

080001f8 <__udivmoddi4>:
 80001f8:	e92d 47f0 	stmdb	sp!, {r4, r5, r6, r7, r8, r9, sl, lr}
 80001fc:	9d08      	ldr	r5, [sp, #32]
 80001fe:	460f      	mov	r7, r1
 8000200:	4604      	mov	r4, r0
 8000202:	468c      	mov	ip, r1
 8000204:	2b00      	cmp	r3, #0
 8000206:	d148      	bne.n	800029a <__udivmoddi4+0xa2>
 8000208:	428a      	cmp	r2, r1
 800020a:	4616      	mov	r6, r2
 800020c:	d961      	bls.n	80002d2 <__udivmoddi4+0xda>
 800020e:	fab2 f382 	clz	r3, r2
 8000212:	b14b      	cbz	r3, 8000228 <__udivmoddi4+0x30>
 8000214:	f1c3 0220 	rsb	r2, r3, #32
 8000218:	fa01 fc03 	lsl.w	ip, r1, r3
 800021c:	fa20 f202 	lsr.w	r2, r0, r2
 8000220:	409e      	lsls	r6, r3
 8000222:	ea42 0c0c 	orr.w	ip, r2, ip
 8000226:	409c      	lsls	r4, r3
 8000228:	ea4f 4e16 	mov.w	lr, r6, lsr #16
 800022c:	b2b7      	uxth	r7, r6
 800022e:	fbbc f1fe 	udiv	r1, ip, lr
 8000232:	0c22      	lsrs	r2, r4, #16
 8000234:	fb0e cc11 	mls	ip, lr, r1, ip
 8000238:	ea42 420c 	orr.w	r2, r2, ip, lsl #16
 800023c:	fb01 f007 	mul.w	r0, r1, r7
 8000240:	4290      	cmp	r0, r2
 8000242:	d909      	bls.n	8000258 <__udivmoddi4+0x60>
 8000244:	18b2      	adds	r2, r6, r2
 8000246:	f101 3cff 	add.w	ip, r1, #4294967295
 800024a:	f080 80ee 	bcs.w	800042a <__udivmoddi4+0x232>
 800024e:	4290      	cmp	r0, r2
 8000250:	f240 80eb 	bls.w	800042a <__udivmoddi4+0x232>
 8000254:	3902      	subs	r1, #2
 8000256:	4432      	add	r2, r6
 8000258:	1a12      	subs	r2, r2, r0
 800025a:	b2a4      	uxth	r4, r4
 800025c:	fbb2 f0fe 	udiv	r0, r2, lr
 8000260:	fb0e 2210 	mls	r2, lr, r0, r2
 8000264:	ea44 4402 	orr.w	r4, r4, r2, lsl #16
 8000268:	fb00 f707 	mul.w	r7, r0, r7
 800026c:	42a7      	cmp	r7, r4
 800026e:	d909      	bls.n	8000284 <__udivmoddi4+0x8c>
 8000270:	1934      	adds	r4, r6, r4
 8000272:	f100 32ff 	add.w	r2, r0, #4294967295
 8000276:	f080 80da 	bcs.w	800042e <__udivmoddi4+0x236>
 800027a:	42a7      	cmp	r7, r4
 800027c:	f240 80d7 	bls.w	800042e <__udivmoddi4+0x236>
 8000280:	4434      	add	r4, r6
 8000282:	3802      	subs	r0, #2
 8000284:	ea40 4001 	orr.w	r0, r0, r1, lsl #16
 8000288:	1be4      	subs	r4, r4, r7
 800028a:	2100      	movs	r1, #0
 800028c:	b11d      	cbz	r5, 8000296 <__udivmoddi4+0x9e>
 800028e:	40dc      	lsrs	r4, r3
 8000290:	2300      	movs	r3, #0
 8000292:	e9c5 4300 	strd	r4, r3, [r5]
 8000296:	e8bd 87f0 	ldmia.w	sp!, {r4, r5, r6, r7, r8, r9, sl, pc}
 800029a:	428b      	cmp	r3, r1
 800029c:	d906      	bls.n	80002ac <__udivmoddi4+0xb4>
 800029e:	b10d      	cbz	r5, 80002a4 <__udivmoddi4+0xac>
 80002a0:	e9c5 0100 	strd	r0, r1, [r5]
 80002a4:	2100      	movs	r1, #0
 80002a6:	4608      	mov	r0, r1
 80002a8:	e8bd 87f0 	ldmia.w	sp!, {r4, r5, r6, r7, r8, r9, sl, pc}
 80002ac:	fab3 f183 	clz	r1, r3
 80002b0:	2900      	cmp	r1, #0
 80002b2:	d148      	bne.n	8000346 <__udivmoddi4+0x14e>
 80002b4:	42bb      	cmp	r3, r7
 80002b6:	d302      	bcc.n	80002be <__udivmoddi4+0xc6>
 80002b8:	4282      	cmp	r2, r0
 80002ba:	f200 8107 	bhi.w	80004cc <__udivmoddi4+0x2d4>
 80002be:	1a84      	subs	r4, r0, r2
 80002c0:	eb67 0203 	sbc.w	r2, r7, r3
 80002c4:	2001      	movs	r0, #1
 80002c6:	4694      	mov	ip, r2
 80002c8:	2d00      	cmp	r5, #0
 80002ca:	d0e4      	beq.n	8000296 <__udivmoddi4+0x9e>
 80002cc:	e9c5 4c00 	strd	r4, ip, [r5]
 80002d0:	e7e1      	b.n	8000296 <__udivmoddi4+0x9e>
 80002d2:	2a00      	cmp	r2, #0
 80002d4:	f000 8092 	beq.w	80003fc <__udivmoddi4+0x204>
 80002d8:	fab2 f382 	clz	r3, r2
 80002dc:	2b00      	cmp	r3, #0
 80002de:	f040 80a8 	bne.w	8000432 <__udivmoddi4+0x23a>
 80002e2:	1a8a      	subs	r2, r1, r2
 80002e4:	ea4f 4e16 	mov.w	lr, r6, lsr #16
 80002e8:	fa1f fc86 	uxth.w	ip, r6
 80002ec:	2101      	movs	r1, #1
 80002ee:	0c20      	lsrs	r0, r4, #16
 80002f0:	fbb2 f7fe 	udiv	r7, r2, lr
 80002f4:	fb0e 2217 	mls	r2, lr, r7, r2
 80002f8:	ea40 4202 	orr.w	r2, r0, r2, lsl #16
 80002fc:	fb0c f007 	mul.w	r0, ip, r7
 8000300:	4290      	cmp	r0, r2
 8000302:	d907      	bls.n	8000314 <__udivmoddi4+0x11c>
 8000304:	18b2      	adds	r2, r6, r2
 8000306:	f107 38ff 	add.w	r8, r7, #4294967295
 800030a:	d202      	bcs.n	8000312 <__udivmoddi4+0x11a>
 800030c:	4290      	cmp	r0, r2
 800030e:	f200 80e2 	bhi.w	80004d6 <__udivmoddi4+0x2de>
 8000312:	4647      	mov	r7, r8
 8000314:	1a12      	subs	r2, r2, r0
 8000316:	b2a4      	uxth	r4, r4
 8000318:	fbb2 f0fe 	udiv	r0, r2, lr
 800031c:	fb0e 2210 	mls	r2, lr, r0, r2
 8000320:	ea44 4402 	orr.w	r4, r4, r2, lsl #16
 8000324:	fb0c fc00 	mul.w	ip, ip, r0
 8000328:	45a4      	cmp	ip, r4
 800032a:	d907      	bls.n	800033c <__udivmoddi4+0x144>
 800032c:	1934      	adds	r4, r6, r4
 800032e:	f100 32ff 	add.w	r2, r0, #4294967295
 8000332:	d202      	bcs.n	800033a <__udivmoddi4+0x142>
 8000334:	45a4      	cmp	ip, r4
 8000336:	f200 80cb 	bhi.w	80004d0 <__udivmoddi4+0x2d8>
 800033a:	4610      	mov	r0, r2
 800033c:	eba4 040c 	sub.w	r4, r4, ip
 8000340:	ea40 4007 	orr.w	r0, r0, r7, lsl #16
 8000344:	e7a2      	b.n	800028c <__udivmoddi4+0x94>
 8000346:	f1c1 0620 	rsb	r6, r1, #32
 800034a:	408b      	lsls	r3, r1
 800034c:	fa22 fc06 	lsr.w	ip, r2, r6
 8000350:	ea4c 0c03 	orr.w	ip, ip, r3
 8000354:	fa07 f401 	lsl.w	r4, r7, r1
 8000358:	fa20 f306 	lsr.w	r3, r0, r6
 800035c:	40f7      	lsrs	r7, r6
 800035e:	ea4f 491c 	mov.w	r9, ip, lsr #16
 8000362:	4323      	orrs	r3, r4
 8000364:	fa00 f801 	lsl.w	r8, r0, r1
 8000368:	fa1f fe8c 	uxth.w	lr, ip
 800036c:	fbb7 f0f9 	udiv	r0, r7, r9
 8000370:	0c1c      	lsrs	r4, r3, #16
 8000372:	fb09 7710 	mls	r7, r9, r0, r7
 8000376:	ea44 4407 	orr.w	r4, r4, r7, lsl #16
 800037a:	fb00 f70e 	mul.w	r7, r0, lr
 800037e:	42a7      	cmp	r7, r4
 8000380:	fa02 f201 	lsl.w	r2, r2, r1
 8000384:	d90a      	bls.n	800039c <__udivmoddi4+0x1a4>
 8000386:	eb1c 0404 	adds.w	r4, ip, r4
 800038a:	f100 3aff 	add.w	sl, r0, #4294967295
 800038e:	f080 809b 	bcs.w	80004c8 <__udivmoddi4+0x2d0>
 8000392:	42a7      	cmp	r7, r4
 8000394:	f240 8098 	bls.w	80004c8 <__udivmoddi4+0x2d0>
 8000398:	3802      	subs	r0, #2
 800039a:	4464      	add	r4, ip
 800039c:	1be4      	subs	r4, r4, r7
 800039e:	b29f      	uxth	r7, r3
 80003a0:	fbb4 f3f9 	udiv	r3, r4, r9
 80003a4:	fb09 4413 	mls	r4, r9, r3, r4
 80003a8:	ea47 4404 	orr.w	r4, r7, r4, lsl #16
 80003ac:	fb03 fe0e 	mul.w	lr, r3, lr
 80003b0:	45a6      	cmp	lr, r4
 80003b2:	d909      	bls.n	80003c8 <__udivmoddi4+0x1d0>
 80003b4:	eb1c 0404 	adds.w	r4, ip, r4
 80003b8:	f103 37ff 	add.w	r7, r3, #4294967295
 80003bc:	f080 8082 	bcs.w	80004c4 <__udivmoddi4+0x2cc>
 80003c0:	45a6      	cmp	lr, r4
 80003c2:	d97f      	bls.n	80004c4 <__udivmoddi4+0x2cc>
 80003c4:	3b02      	subs	r3, #2
 80003c6:	4464      	add	r4, ip
 80003c8:	ea43 4000 	orr.w	r0, r3, r0, lsl #16
 80003cc:	eba4 040e 	sub.w	r4, r4, lr
 80003d0:	fba0 e702 	umull	lr, r7, r0, r2
 80003d4:	42bc      	cmp	r4, r7
 80003d6:	4673      	mov	r3, lr
 80003d8:	46b9      	mov	r9, r7
 80003da:	d363      	bcc.n	80004a4 <__udivmoddi4+0x2ac>
 80003dc:	d060      	beq.n	80004a0 <__udivmoddi4+0x2a8>
 80003de:	b15d      	cbz	r5, 80003f8 <__udivmoddi4+0x200>
 80003e0:	ebb8 0203 	subs.w	r2, r8, r3
 80003e4:	eb64 0409 	sbc.w	r4, r4, r9
 80003e8:	fa04 f606 	lsl.w	r6, r4, r6
 80003ec:	fa22 f301 	lsr.w	r3, r2, r1
 80003f0:	431e      	orrs	r6, r3
 80003f2:	40cc      	lsrs	r4, r1
 80003f4:	e9c5 6400 	strd	r6, r4, [r5]
 80003f8:	2100      	movs	r1, #0
 80003fa:	e74c      	b.n	8000296 <__udivmoddi4+0x9e>
 80003fc:	0862      	lsrs	r2, r4, #1
 80003fe:	0848      	lsrs	r0, r1, #1
 8000400:	ea42 71c1 	orr.w	r1, r2, r1, lsl #31
 8000404:	0c0b      	lsrs	r3, r1, #16
 8000406:	ea43 4300 	orr.w	r3, r3, r0, lsl #16
 800040a:	b28a      	uxth	r2, r1
 800040c:	ea42 4203 	orr.w	r2, r2, r3, lsl #16
 8000410:	fbb3 f1f6 	udiv	r1, r3, r6
 8000414:	07e4      	lsls	r4, r4, #31
 8000416:	46b4      	mov	ip, r6
 8000418:	4637      	mov	r7, r6
 800041a:	46b6      	mov	lr, r6
 800041c:	231f      	movs	r3, #31
 800041e:	fbb0 f0f6 	udiv	r0, r0, r6
 8000422:	1bd2      	subs	r2, r2, r7
 8000424:	ea41 4100 	orr.w	r1, r1, r0, lsl #16
 8000428:	e761      	b.n	80002ee <__udivmoddi4+0xf6>
 800042a:	4661      	mov	r1, ip
 800042c:	e714      	b.n	8000258 <__udivmoddi4+0x60>
 800042e:	4610      	mov	r0, r2
 8000430:	e728      	b.n	8000284 <__udivmoddi4+0x8c>
 8000432:	f1c3 0120 	rsb	r1, r3, #32
 8000436:	fa20 f201 	lsr.w	r2, r0, r1
 800043a:	409e      	lsls	r6, r3
 800043c:	fa27 f101 	lsr.w	r1, r7, r1
 8000440:	409f      	lsls	r7, r3
 8000442:	433a      	orrs	r2, r7
 8000444:	ea4f 4e16 	mov.w	lr, r6, lsr #16
 8000448:	fa1f fc86 	uxth.w	ip, r6
 800044c:	fbb1 f7fe 	udiv	r7, r1, lr
 8000450:	fb0e 1017 	mls	r0, lr, r7, r1
 8000454:	0c11      	lsrs	r1, r2, #16
 8000456:	ea41 4100 	orr.w	r1, r1, r0, lsl #16
 800045a:	fb07 f80c 	mul.w	r8, r7, ip
 800045e:	4588      	cmp	r8, r1
 8000460:	fa04 f403 	lsl.w	r4, r4, r3
 8000464:	d93a      	bls.n	80004dc <__udivmoddi4+0x2e4>
 8000466:	1871      	adds	r1, r6, r1
 8000468:	f107 30ff 	add.w	r0, r7, #4294967295
 800046c:	d201      	bcs.n	8000472 <__udivmoddi4+0x27a>
 800046e:	4588      	cmp	r8, r1
 8000470:	d81f      	bhi.n	80004b2 <__udivmoddi4+0x2ba>
 8000472:	eba1 0108 	sub.w	r1, r1, r8
 8000476:	fbb1 f8fe 	udiv	r8, r1, lr
 800047a:	fb08 f70c 	mul.w	r7, r8, ip
 800047e:	fb0e 1118 	mls	r1, lr, r8, r1
 8000482:	b292      	uxth	r2, r2
 8000484:	ea42 4201 	orr.w	r2, r2, r1, lsl #16
 8000488:	42ba      	cmp	r2, r7
 800048a:	d22f      	bcs.n	80004ec <__udivmoddi4+0x2f4>
 800048c:	18b2      	adds	r2, r6, r2
 800048e:	f108 31ff 	add.w	r1, r8, #4294967295
 8000492:	d2c6      	bcs.n	8000422 <__udivmoddi4+0x22a>
 8000494:	42ba      	cmp	r2, r7
 8000496:	d2c4      	bcs.n	8000422 <__udivmoddi4+0x22a>
 8000498:	f1a8 0102 	sub.w	r1, r8, #2
 800049c:	4432      	add	r2, r6
 800049e:	e7c0      	b.n	8000422 <__udivmoddi4+0x22a>
 80004a0:	45f0      	cmp	r8, lr
 80004a2:	d29c      	bcs.n	80003de <__udivmoddi4+0x1e6>
 80004a4:	ebbe 0302 	subs.w	r3, lr, r2
 80004a8:	eb67 070c 	sbc.w	r7, r7, ip
 80004ac:	3801      	subs	r0, #1
 80004ae:	46b9      	mov	r9, r7
 80004b0:	e795      	b.n	80003de <__udivmoddi4+0x1e6>
 80004b2:	eba6 0808 	sub.w	r8, r6, r8
 80004b6:	4441      	add	r1, r8
 80004b8:	1eb8      	subs	r0, r7, #2
 80004ba:	fbb1 f8fe 	udiv	r8, r1, lr
 80004be:	fb08 f70c 	mul.w	r7, r8, ip
 80004c2:	e7dc      	b.n	800047e <__udivmoddi4+0x286>
 80004c4:	463b      	mov	r3, r7
 80004c6:	e77f      	b.n	80003c8 <__udivmoddi4+0x1d0>
 80004c8:	4650      	mov	r0, sl
 80004ca:	e767      	b.n	800039c <__udivmoddi4+0x1a4>
 80004cc:	4608      	mov	r0, r1
 80004ce:	e6fb      	b.n	80002c8 <__udivmoddi4+0xd0>
 80004d0:	4434      	add	r4, r6
 80004d2:	3802      	subs	r0, #2
 80004d4:	e732      	b.n	800033c <__udivmoddi4+0x144>
 80004d6:	3f02      	subs	r7, #2
 80004d8:	4432      	add	r2, r6
 80004da:	e71b      	b.n	8000314 <__udivmoddi4+0x11c>
 80004dc:	eba1 0108 	sub.w	r1, r1, r8
 80004e0:	4638      	mov	r0, r7
 80004e2:	fbb1 f8fe 	udiv	r8, r1, lr
 80004e6:	fb08 f70c 	mul.w	r7, r8, ip
 80004ea:	e7c8      	b.n	800047e <__udivmoddi4+0x286>
 80004ec:	4641      	mov	r1, r8
 80004ee:	e798      	b.n	8000422 <__udivmoddi4+0x22a>

080004f0 <__aeabi_idiv0>:
 80004f0:	4770      	bx	lr
 80004f2:	bf00      	nop

080004f4 <MX_ADC1_Init>:
 80004f4:	b510      	push	{r4, lr}
 80004f6:	4923      	ldr	r1, [pc, #140]	@ (8000584 <MX_ADC1_Init+0x90>)
 80004f8:	4a23      	ldr	r2, [pc, #140]	@ (8000588 <MX_ADC1_Init+0x94>)
 80004fa:	b08a      	sub	sp, #40	@ 0x28
 80004fc:	600a      	str	r2, [r1, #0]
 80004fe:	2204      	movs	r2, #4
 8000500:	2300      	movs	r3, #0
 8000502:	614a      	str	r2, [r1, #20]
 8000504:	4608      	mov	r0, r1
 8000506:	2201      	movs	r2, #1
 8000508:	e9cd 3301 	strd	r3, r3, [sp, #4]
 800050c:	e9cd 3303 	strd	r3, r3, [sp, #12]
 8000510:	e9cd 3305 	strd	r3, r3, [sp, #20]
 8000514:	e9cd 3307 	strd	r3, r3, [sp, #28]
 8000518:	e9c1 3301 	strd	r3, r3, [r1, #4]
 800051c:	e9c1 3303 	strd	r3, r3, [r1, #12]
 8000520:	e9c1 330a 	strd	r3, r3, [r1, #40]	@ 0x28
 8000524:	9309      	str	r3, [sp, #36]	@ 0x24
 8000526:	830b      	strh	r3, [r1, #24]
 8000528:	61ca      	str	r2, [r1, #28]
 800052a:	f881 3020 	strb.w	r3, [r1, #32]
 800052e:	f881 3030 	strb.w	r3, [r1, #48]	@ 0x30
 8000532:	634b      	str	r3, [r1, #52]	@ 0x34
 8000534:	f881 3038 	strb.w	r3, [r1, #56]	@ 0x38
 8000538:	f000 fbae 	bl	8000c98 <HAL_ADC_Init>
 800053c:	b9c0      	cbnz	r0, 8000570 <MX_ADC1_Init+0x7c>
 800053e:	2300      	movs	r3, #0
 8000540:	4810      	ldr	r0, [pc, #64]	@ (8000584 <MX_ADC1_Init+0x90>)
 8000542:	9301      	str	r3, [sp, #4]
 8000544:	a901      	add	r1, sp, #4
 8000546:	f001 f915 	bl	8001774 <HAL_ADCEx_MultiModeConfigChannel>
 800054a:	b9c0      	cbnz	r0, 800057e <MX_ADC1_Init+0x8a>
 800054c:	480f      	ldr	r0, [pc, #60]	@ (800058c <MX_ADC1_Init+0x98>)
 800054e:	2206      	movs	r2, #6
 8000550:	e9cd 0204 	strd	r0, r2, [sp, #16]
 8000554:	2300      	movs	r3, #0
 8000556:	247f      	movs	r4, #127	@ 0x7f
 8000558:	2204      	movs	r2, #4
 800055a:	480a      	ldr	r0, [pc, #40]	@ (8000584 <MX_ADC1_Init+0x90>)
 800055c:	a904      	add	r1, sp, #16
 800055e:	e9cd 3406 	strd	r3, r4, [sp, #24]
 8000562:	e9cd 2308 	strd	r2, r3, [sp, #32]
 8000566:	f000 fcff 	bl	8000f68 <HAL_ADC_ConfigChannel>
 800056a:	b920      	cbnz	r0, 8000576 <MX_ADC1_Init+0x82>
 800056c:	b00a      	add	sp, #40	@ 0x28
 800056e:	bd10      	pop	{r4, pc}
 8000570:	f000 f9f6 	bl	8000960 <Error_Handler>
 8000574:	e7e3      	b.n	800053e <MX_ADC1_Init+0x4a>
 8000576:	f000 f9f3 	bl	8000960 <Error_Handler>
 800057a:	b00a      	add	sp, #40	@ 0x28
 800057c:	bd10      	pop	{r4, pc}
 800057e:	f000 f9ef 	bl	8000960 <Error_Handler>
 8000582:	e7e3      	b.n	800054c <MX_ADC1_Init+0x58>
 8000584:	2000002c 	.word	0x2000002c
 8000588:	50040000 	.word	0x50040000
 800058c:	04300002 	.word	0x04300002

08000590 <HAL_ADC_MspInit>:
 8000590:	b510      	push	{r4, lr}
 8000592:	4604      	mov	r4, r0
 8000594:	b0aa      	sub	sp, #168	@ 0xa8
 8000596:	2100      	movs	r1, #0
 8000598:	2288      	movs	r2, #136	@ 0x88
 800059a:	a808      	add	r0, sp, #32
 800059c:	e9cd 1102 	strd	r1, r1, [sp, #8]
 80005a0:	e9cd 1104 	strd	r1, r1, [sp, #16]
 80005a4:	9106      	str	r1, [sp, #24]
 80005a6:	f003 fc0b 	bl	8003dc0 <memset>
 80005aa:	4b21      	ldr	r3, [pc, #132]	@ (8000630 <HAL_ADC_MspInit+0xa0>)
 80005ac:	6822      	ldr	r2, [r4, #0]
 80005ae:	429a      	cmp	r2, r3
 80005b0:	d001      	beq.n	80005b6 <HAL_ADC_MspInit+0x26>
 80005b2:	b02a      	add	sp, #168	@ 0xa8
 80005b4:	bd10      	pop	{r4, pc}
 80005b6:	f44f 4180 	mov.w	r1, #16384	@ 0x4000
 80005ba:	f04f 5280 	mov.w	r2, #268435456	@ 0x10000000
 80005be:	2302      	movs	r3, #2
 80005c0:	9108      	str	r1, [sp, #32]
 80005c2:	9226      	str	r2, [sp, #152]	@ 0x98
 80005c4:	2101      	movs	r1, #1
 80005c6:	2208      	movs	r2, #8
 80005c8:	e9cd 3109 	strd	r3, r1, [sp, #36]	@ 0x24
 80005cc:	920b      	str	r2, [sp, #44]	@ 0x2c
 80005ce:	2107      	movs	r1, #7
 80005d0:	f04f 7280 	mov.w	r2, #16777216	@ 0x1000000
 80005d4:	a808      	add	r0, sp, #32
 80005d6:	e9cd 130c 	strd	r1, r3, [sp, #48]	@ 0x30
 80005da:	e9cd 320e 	strd	r3, r2, [sp, #56]	@ 0x38
 80005de:	f002 fa57 	bl	8002a90 <HAL_RCCEx_PeriphCLKConfig>
 80005e2:	b9f0      	cbnz	r0, 8000622 <HAL_ADC_MspInit+0x92>
 80005e4:	4b13      	ldr	r3, [pc, #76]	@ (8000634 <HAL_ADC_MspInit+0xa4>)
 80005e6:	4814      	ldr	r0, [pc, #80]	@ (8000638 <HAL_ADC_MspInit+0xa8>)
 80005e8:	6cda      	ldr	r2, [r3, #76]	@ 0x4c
 80005ea:	f442 5200 	orr.w	r2, r2, #8192	@ 0x2000
 80005ee:	64da      	str	r2, [r3, #76]	@ 0x4c
 80005f0:	6cda      	ldr	r2, [r3, #76]	@ 0x4c
 80005f2:	f402 5200 	and.w	r2, r2, #8192	@ 0x2000
 80005f6:	9200      	str	r2, [sp, #0]
 80005f8:	9a00      	ldr	r2, [sp, #0]
 80005fa:	6cda      	ldr	r2, [r3, #76]	@ 0x4c
 80005fc:	f042 0204 	orr.w	r2, r2, #4
 8000600:	64da      	str	r2, [r3, #76]	@ 0x4c
 8000602:	6cdb      	ldr	r3, [r3, #76]	@ 0x4c
 8000604:	ed9f 7b08 	vldr	d7, [pc, #32]	@ 8000628 <HAL_ADC_MspInit+0x98>
 8000608:	f003 0304 	and.w	r3, r3, #4
 800060c:	9301      	str	r3, [sp, #4]
 800060e:	a902      	add	r1, sp, #8
 8000610:	2300      	movs	r3, #0
 8000612:	ed8d 7b02 	vstr	d7, [sp, #8]
 8000616:	9a01      	ldr	r2, [sp, #4]
 8000618:	9304      	str	r3, [sp, #16]
 800061a:	f001 fa81 	bl	8001b20 <HAL_GPIO_Init>
 800061e:	b02a      	add	sp, #168	@ 0xa8
 8000620:	bd10      	pop	{r4, pc}
 8000622:	f000 f99d 	bl	8000960 <Error_Handler>
 8000626:	e7dd      	b.n	80005e4 <HAL_ADC_MspInit+0x54>
 8000628:	00000003 	.word	0x00000003
 800062c:	0000000b 	.word	0x0000000b
 8000630:	50040000 	.word	0x50040000
 8000634:	40021000 	.word	0x40021000
 8000638:	48000800 	.word	0x48000800
 800063c:	00000000 	.word	0x00000000

08000640 <MX_DAC1_Init>:
 8000640:	b500      	push	{lr}
 8000642:	b08b      	sub	sp, #44	@ 0x2c
 8000644:	2224      	movs	r2, #36	@ 0x24
 8000646:	2100      	movs	r1, #0
 8000648:	4668      	mov	r0, sp
 800064a:	f003 fbb9 	bl	8003dc0 <memset>
 800064e:	4810      	ldr	r0, [pc, #64]	@ (8000690 <MX_DAC1_Init+0x50>)
 8000650:	4b10      	ldr	r3, [pc, #64]	@ (8000694 <MX_DAC1_Init+0x54>)
 8000652:	6003      	str	r3, [r0, #0]
 8000654:	f001 f972 	bl	800193c <HAL_DAC_Init>
 8000658:	b970      	cbnz	r0, 8000678 <MX_DAC1_Init+0x38>
 800065a:	ed9f 7b0b 	vldr	d7, [pc, #44]	@ 8000688 <MX_DAC1_Init+0x48>
 800065e:	2200      	movs	r2, #0
 8000660:	480b      	ldr	r0, [pc, #44]	@ (8000690 <MX_DAC1_Init+0x50>)
 8000662:	9204      	str	r2, [sp, #16]
 8000664:	4669      	mov	r1, sp
 8000666:	ed8d 7b00 	vstr	d7, [sp]
 800066a:	ed8d 7b02 	vstr	d7, [sp, #8]
 800066e:	f001 f9c1 	bl	80019f4 <HAL_DAC_ConfigChannel>
 8000672:	b920      	cbnz	r0, 800067e <MX_DAC1_Init+0x3e>
 8000674:	b00b      	add	sp, #44	@ 0x2c
 8000676:	bd00      	pop	{pc}
 8000678:	f000 f972 	bl	8000960 <Error_Handler>
 800067c:	e7ed      	b.n	800065a <MX_DAC1_Init+0x1a>
 800067e:	f000 f96f 	bl	8000960 <Error_Handler>
 8000682:	b00b      	add	sp, #44	@ 0x2c
 8000684:	bd00      	pop	{pc}
 8000686:	bf00      	nop
	...
 8000690:	20000090 	.word	0x20000090
 8000694:	40007400 	.word	0x40007400

08000698 <HAL_DAC_MspInit>:
 8000698:	b500      	push	{lr}
 800069a:	4a19      	ldr	r2, [pc, #100]	@ (8000700 <HAL_DAC_MspInit+0x68>)
 800069c:	6801      	ldr	r1, [r0, #0]
 800069e:	b089      	sub	sp, #36	@ 0x24
 80006a0:	2300      	movs	r3, #0
 80006a2:	4291      	cmp	r1, r2
 80006a4:	e9cd 3302 	strd	r3, r3, [sp, #8]
 80006a8:	e9cd 3304 	strd	r3, r3, [sp, #16]
 80006ac:	9306      	str	r3, [sp, #24]
 80006ae:	d001      	beq.n	80006b4 <HAL_DAC_MspInit+0x1c>
 80006b0:	b009      	add	sp, #36	@ 0x24
 80006b2:	bd00      	pop	{pc}
 80006b4:	f103 4380 	add.w	r3, r3, #1073741824	@ 0x40000000
 80006b8:	f503 3304 	add.w	r3, r3, #135168	@ 0x21000
 80006bc:	ed9f 7b0e 	vldr	d7, [pc, #56]	@ 80006f8 <HAL_DAC_MspInit+0x60>
 80006c0:	6d9a      	ldr	r2, [r3, #88]	@ 0x58
 80006c2:	f042 5200 	orr.w	r2, r2, #536870912	@ 0x20000000
 80006c6:	659a      	str	r2, [r3, #88]	@ 0x58
 80006c8:	6d9a      	ldr	r2, [r3, #88]	@ 0x58
 80006ca:	f002 5200 	and.w	r2, r2, #536870912	@ 0x20000000
 80006ce:	9200      	str	r2, [sp, #0]
 80006d0:	9a00      	ldr	r2, [sp, #0]
 80006d2:	6cda      	ldr	r2, [r3, #76]	@ 0x4c
 80006d4:	f042 0201 	orr.w	r2, r2, #1
 80006d8:	64da      	str	r2, [r3, #76]	@ 0x4c
 80006da:	6cdb      	ldr	r3, [r3, #76]	@ 0x4c
 80006dc:	f003 0301 	and.w	r3, r3, #1
 80006e0:	9301      	str	r3, [sp, #4]
 80006e2:	a902      	add	r1, sp, #8
 80006e4:	f04f 4090 	mov.w	r0, #1207959552	@ 0x48000000
 80006e8:	ed8d 7b02 	vstr	d7, [sp, #8]
 80006ec:	9b01      	ldr	r3, [sp, #4]
 80006ee:	f001 fa17 	bl	8001b20 <HAL_GPIO_Init>
 80006f2:	b009      	add	sp, #36	@ 0x24
 80006f4:	bd00      	pop	{pc}
 80006f6:	bf00      	nop
 80006f8:	00000010 	.word	0x00000010
 80006fc:	00000003 	.word	0x00000003
 8000700:	40007400 	.word	0x40007400

08000704 <MX_GPIO_Init>:
 8000704:	b510      	push	{r4, lr}
 8000706:	2400      	movs	r4, #0
 8000708:	b08a      	sub	sp, #40	@ 0x28
 800070a:	e9cd 4404 	strd	r4, r4, [sp, #16]
 800070e:	e9cd 4406 	strd	r4, r4, [sp, #24]
 8000712:	4b26      	ldr	r3, [pc, #152]	@ (80007ac <MX_GPIO_Init+0xa8>)
 8000714:	9408      	str	r4, [sp, #32]
 8000716:	6cd9      	ldr	r1, [r3, #76]	@ 0x4c
 8000718:	f041 0104 	orr.w	r1, r1, #4
 800071c:	64d9      	str	r1, [r3, #76]	@ 0x4c
 800071e:	6cd9      	ldr	r1, [r3, #76]	@ 0x4c
 8000720:	f001 0104 	and.w	r1, r1, #4
 8000724:	9100      	str	r1, [sp, #0]
 8000726:	9900      	ldr	r1, [sp, #0]
 8000728:	6cd9      	ldr	r1, [r3, #76]	@ 0x4c
 800072a:	f041 0180 	orr.w	r1, r1, #128	@ 0x80
 800072e:	64d9      	str	r1, [r3, #76]	@ 0x4c
 8000730:	6cd9      	ldr	r1, [r3, #76]	@ 0x4c
 8000732:	f001 0180 	and.w	r1, r1, #128	@ 0x80
 8000736:	9101      	str	r1, [sp, #4]
 8000738:	9901      	ldr	r1, [sp, #4]
 800073a:	6cd9      	ldr	r1, [r3, #76]	@ 0x4c
 800073c:	f041 0101 	orr.w	r1, r1, #1
 8000740:	64d9      	str	r1, [r3, #76]	@ 0x4c
 8000742:	6cd9      	ldr	r1, [r3, #76]	@ 0x4c
 8000744:	f001 0101 	and.w	r1, r1, #1
 8000748:	9102      	str	r1, [sp, #8]
 800074a:	9902      	ldr	r1, [sp, #8]
 800074c:	6cd9      	ldr	r1, [r3, #76]	@ 0x4c
 800074e:	f041 0102 	orr.w	r1, r1, #2
 8000752:	64d9      	str	r1, [r3, #76]	@ 0x4c
 8000754:	6cdb      	ldr	r3, [r3, #76]	@ 0x4c
 8000756:	f003 0302 	and.w	r3, r3, #2
 800075a:	4622      	mov	r2, r4
 800075c:	9303      	str	r3, [sp, #12]
 800075e:	21e0      	movs	r1, #224	@ 0xe0
 8000760:	f04f 4090 	mov.w	r0, #1207959552	@ 0x48000000
 8000764:	9b03      	ldr	r3, [sp, #12]
 8000766:	f001 fbc5 	bl	8001ef4 <HAL_GPIO_WritePin>
 800076a:	f44f 5200 	mov.w	r2, #8192	@ 0x2000
 800076e:	f44f 1304 	mov.w	r3, #2162688	@ 0x210000
 8000772:	a904      	add	r1, sp, #16
 8000774:	480e      	ldr	r0, [pc, #56]	@ (80007b0 <MX_GPIO_Init+0xac>)
 8000776:	9406      	str	r4, [sp, #24]
 8000778:	e9cd 2304 	strd	r2, r3, [sp, #16]
 800077c:	f001 f9d0 	bl	8001b20 <HAL_GPIO_Init>
 8000780:	2301      	movs	r3, #1
 8000782:	22e0      	movs	r2, #224	@ 0xe0
 8000784:	a904      	add	r1, sp, #16
 8000786:	f04f 4090 	mov.w	r0, #1207959552	@ 0x48000000
 800078a:	e9cd 2304 	strd	r2, r3, [sp, #16]
 800078e:	e9cd 4406 	strd	r4, r4, [sp, #24]
 8000792:	f001 f9c5 	bl	8001b20 <HAL_GPIO_Init>
 8000796:	4622      	mov	r2, r4
 8000798:	4621      	mov	r1, r4
 800079a:	2028      	movs	r0, #40	@ 0x28
 800079c:	f001 f86c 	bl	8001878 <HAL_NVIC_SetPriority>
 80007a0:	2028      	movs	r0, #40	@ 0x28
 80007a2:	f001 f8a3 	bl	80018ec <HAL_NVIC_EnableIRQ>
 80007a6:	b00a      	add	sp, #40	@ 0x28
 80007a8:	bd10      	pop	{r4, pc}
 80007aa:	bf00      	nop
 80007ac:	40021000 	.word	0x40021000
 80007b0:	48000800 	.word	0x48000800
 80007b4:	00000000 	.word	0x00000000

080007b8 <SystemClock_Config>:
 80007b8:	b500      	push	{lr}
 80007ba:	b099      	sub	sp, #100	@ 0x64
 80007bc:	2244      	movs	r2, #68	@ 0x44
 80007be:	2100      	movs	r1, #0
 80007c0:	a806      	add	r0, sp, #24
 80007c2:	f003 fafd 	bl	8003dc0 <memset>
 80007c6:	2300      	movs	r3, #0
 80007c8:	f44f 7000 	mov.w	r0, #512	@ 0x200
 80007cc:	e9cd 3301 	strd	r3, r3, [sp, #4]
 80007d0:	e9cd 3303 	strd	r3, r3, [sp, #12]
 80007d4:	9305      	str	r3, [sp, #20]
 80007d6:	f001 fbb3 	bl	8001f40 <HAL_PWREx_ControlVoltageScaling>
 80007da:	b108      	cbz	r0, 80007e0 <SystemClock_Config+0x28>
 80007dc:	b672      	cpsid	i
 80007de:	e7fe      	b.n	80007de <SystemClock_Config+0x26>
 80007e0:	ed9f 7b15 	vldr	d7, [pc, #84]	@ 8000838 <SystemClock_Config+0x80>
 80007e4:	f44f 7180 	mov.w	r1, #256	@ 0x100
 80007e8:	2210      	movs	r2, #16
 80007ea:	2302      	movs	r3, #2
 80007ec:	e9cd 1209 	strd	r1, r2, [sp, #36]	@ 0x24
 80007f0:	a806      	add	r0, sp, #24
 80007f2:	2101      	movs	r1, #1
 80007f4:	220a      	movs	r2, #10
 80007f6:	e9cd 3310 	strd	r3, r3, [sp, #64]	@ 0x40
 80007fa:	9306      	str	r3, [sp, #24]
 80007fc:	9316      	str	r3, [sp, #88]	@ 0x58
 80007fe:	ed8d 7b14 	vstr	d7, [sp, #80]	@ 0x50
 8000802:	9112      	str	r1, [sp, #72]	@ 0x48
 8000804:	9213      	str	r2, [sp, #76]	@ 0x4c
 8000806:	f001 fc73 	bl	80020f0 <HAL_RCC_OscConfig>
 800080a:	4603      	mov	r3, r0
 800080c:	b108      	cbz	r0, 8000812 <SystemClock_Config+0x5a>
 800080e:	b672      	cpsid	i
 8000810:	e7fe      	b.n	8000810 <SystemClock_Config+0x58>
 8000812:	2104      	movs	r1, #4
 8000814:	f04f 0c0f 	mov.w	ip, #15
 8000818:	2203      	movs	r2, #3
 800081a:	eb0d 0001 	add.w	r0, sp, r1
 800081e:	e9cd c201 	strd	ip, r2, [sp, #4]
 8000822:	e9cd 3303 	strd	r3, r3, [sp, #12]
 8000826:	9305      	str	r3, [sp, #20]
 8000828:	f001 ff4a 	bl	80026c0 <HAL_RCC_ClockConfig>
 800082c:	b108      	cbz	r0, 8000832 <SystemClock_Config+0x7a>
 800082e:	b672      	cpsid	i
 8000830:	e7fe      	b.n	8000830 <SystemClock_Config+0x78>
 8000832:	b019      	add	sp, #100	@ 0x64
 8000834:	bd00      	pop	{pc}
 8000836:	bf00      	nop
 8000838:	00000007 	.word	0x00000007
 800083c:	00000002 	.word	0x00000002

08000840 <main>:
 8000840:	b508      	push	{r3, lr}
 8000842:	f000 f9ed 	bl	8000c20 <HAL_Init>
 8000846:	f7ff ffb7 	bl	80007b8 <SystemClock_Config>
 800084a:	f7ff ff5b 	bl	8000704 <MX_GPIO_Init>
 800084e:	f000 f92b 	bl	8000aa8 <MX_USART2_UART_Init>
 8000852:	f7ff fe4f 	bl	80004f4 <MX_ADC1_Init>
 8000856:	f7ff fef3 	bl	8000640 <MX_DAC1_Init>
 800085a:	f000 f8c1 	bl	80009e0 <MX_TIM1_Init>
 800085e:	4806      	ldr	r0, [pc, #24]	@ (8000878 <main+0x38>)
 8000860:	f003 f920 	bl	8003aa4 <Startup_H225c1baf6cf5a31bc9b0c38998c32298f6f0531c_cb4a8a449b4ada864625ee5a4355578a3aaf08ed>
 8000864:	2100      	movs	r1, #0
 8000866:	4805      	ldr	r0, [pc, #20]	@ (800087c <main+0x3c>)
 8000868:	f001 f87e 	bl	8001968 <HAL_DAC_Start>
 800086c:	4804      	ldr	r0, [pc, #16]	@ (8000880 <main+0x40>)
 800086e:	f002 fb9d 	bl	8002fac <HAL_TIM_Base_Start_IT>
 8000872:	b662      	cpsie	i
 8000874:	e7fe      	b.n	8000874 <main+0x34>
 8000876:	bf00      	nop
 8000878:	200000a4 	.word	0x200000a4
 800087c:	20000090 	.word	0x20000090
 8000880:	20000178 	.word	0x20000178

08000884 <HAL_TIM_PeriodElapsedCallback>:
 8000884:	4b2c      	ldr	r3, [pc, #176]	@ (8000938 <HAL_TIM_PeriodElapsedCallback+0xb4>)
 8000886:	6802      	ldr	r2, [r0, #0]
 8000888:	429a      	cmp	r2, r3
 800088a:	d000      	beq.n	800088e <HAL_TIM_PeriodElapsedCallback+0xa>
 800088c:	4770      	bx	lr
 800088e:	b510      	push	{r4, lr}
 8000890:	482a      	ldr	r0, [pc, #168]	@ (800093c <HAL_TIM_PeriodElapsedCallback+0xb8>)
 8000892:	4c2b      	ldr	r4, [pc, #172]	@ (8000940 <HAL_TIM_PeriodElapsedCallback+0xbc>)
 8000894:	ed2d 8b02 	vpush	{d8}
 8000898:	2180      	movs	r1, #128	@ 0x80
 800089a:	f001 fb31 	bl	8001f00 <HAL_GPIO_TogglePin>
 800089e:	2201      	movs	r2, #1
 80008a0:	2140      	movs	r1, #64	@ 0x40
 80008a2:	4826      	ldr	r0, [pc, #152]	@ (800093c <HAL_TIM_PeriodElapsedCallback+0xb8>)
 80008a4:	ed9f 8a27 	vldr	s16, [pc, #156]	@ 8000944 <HAL_TIM_PeriodElapsedCallback+0xc0>
 80008a8:	f001 fb24 	bl	8001ef4 <HAL_GPIO_WritePin>
 80008ac:	4826      	ldr	r0, [pc, #152]	@ (8000948 <HAL_TIM_PeriodElapsedCallback+0xc4>)
 80008ae:	f000 fe95 	bl	80015dc <HAL_ADC_Start>
 80008b2:	210a      	movs	r1, #10
 80008b4:	4824      	ldr	r0, [pc, #144]	@ (8000948 <HAL_TIM_PeriodElapsedCallback+0xc4>)
 80008b6:	f000 fad1 	bl	8000e5c <HAL_ADC_PollForConversion>
 80008ba:	4823      	ldr	r0, [pc, #140]	@ (8000948 <HAL_TIM_PeriodElapsedCallback+0xc4>)
 80008bc:	f000 fb50 	bl	8000f60 <HAL_ADC_GetValue>
 80008c0:	ee07 0a10 	vmov	s14, r0
 80008c4:	eeb8 7a47 	vcvt.f32.u32	s14, s14
 80008c8:	4b20      	ldr	r3, [pc, #128]	@ (800094c <HAL_TIM_PeriodElapsedCallback+0xc8>)
 80008ca:	eddf 6a21 	vldr	s13, [pc, #132]	@ 8000950 <HAL_TIM_PeriodElapsedCallback+0xcc>
 80008ce:	ed9f 6a21 	vldr	s12, [pc, #132]	@ 8000954 <HAL_TIM_PeriodElapsedCallback+0xd0>
 80008d2:	481d      	ldr	r0, [pc, #116]	@ (8000948 <HAL_TIM_PeriodElapsedCallback+0xc4>)
 80008d4:	eec7 7a08 	vdiv.f32	s15, s14, s16
 80008d8:	ed93 7a00 	vldr	s14, [r3]
 80008dc:	ee67 7aa6 	vmul.f32	s15, s15, s13
 80008e0:	ee27 7a06 	vmul.f32	s14, s14, s12
 80008e4:	ee77 7a87 	vadd.f32	s15, s15, s14
 80008e8:	edc4 7a00 	vstr	s15, [r4]
 80008ec:	edc3 7a00 	vstr	s15, [r3]
 80008f0:	f000 ff1a 	bl	8001728 <HAL_ADC_Stop>
 80008f4:	4620      	mov	r0, r4
 80008f6:	f003 f983 	bl	8003c00 <DoStep_H225c1baf6cf5a31bc9b0c38998c32298f6f0531c_cb4a8a449b4ada864625ee5a4355578a3aaf08ed>
 80008fa:	edd4 7a01 	vldr	s15, [r4, #4]
 80008fe:	eddf 6a16 	vldr	s13, [pc, #88]	@ 8000958 <HAL_TIM_PeriodElapsedCallback+0xd4>
 8000902:	4816      	ldr	r0, [pc, #88]	@ (800095c <HAL_TIM_PeriodElapsedCallback+0xd8>)
 8000904:	eeb7 7a08 	vmov.f32	s14, #120	@ 0x3fc00000  1.5
 8000908:	ee77 7a87 	vadd.f32	s15, s15, s14
 800090c:	2200      	movs	r2, #0
 800090e:	ee67 7a88 	vmul.f32	s15, s15, s16
 8000912:	4611      	mov	r1, r2
 8000914:	ee87 7aa6 	vdiv.f32	s14, s15, s13
 8000918:	eefc 7ac7 	vcvt.u32.f32	s15, s14
 800091c:	ee17 3a90 	vmov	r3, s15
 8000920:	f001 f850 	bl	80019c4 <HAL_DAC_SetValue>
 8000924:	ecbd 8b02 	vpop	{d8}
 8000928:	4804      	ldr	r0, [pc, #16]	@ (800093c <HAL_TIM_PeriodElapsedCallback+0xb8>)
 800092a:	e8bd 4010 	ldmia.w	sp!, {r4, lr}
 800092e:	2200      	movs	r2, #0
 8000930:	2140      	movs	r1, #64	@ 0x40
 8000932:	f001 badf 	b.w	8001ef4 <HAL_GPIO_WritePin>
 8000936:	bf00      	nop
 8000938:	40012c00 	.word	0x40012c00
 800093c:	48000800 	.word	0x48000800
 8000940:	200000a4 	.word	0x200000a4
 8000944:	457ff000 	.word	0x457ff000
 8000948:	2000002c 	.word	0x2000002c
 800094c:	20000000 	.word	0x20000000
 8000950:	3bd844d1 	.word	0x3bd844d1
 8000954:	3f7f7cee 	.word	0x3f7f7cee
 8000958:	40533333 	.word	0x40533333
 800095c:	20000090 	.word	0x20000090

08000960 <Error_Handler>:
 8000960:	b672      	cpsid	i
 8000962:	e7fe      	b.n	8000962 <Error_Handler+0x2>

08000964 <HAL_MspInit>:
 8000964:	4b0a      	ldr	r3, [pc, #40]	@ (8000990 <HAL_MspInit+0x2c>)
 8000966:	6e1a      	ldr	r2, [r3, #96]	@ 0x60
 8000968:	f042 0201 	orr.w	r2, r2, #1
 800096c:	b082      	sub	sp, #8
 800096e:	661a      	str	r2, [r3, #96]	@ 0x60
 8000970:	6e1a      	ldr	r2, [r3, #96]	@ 0x60
 8000972:	f002 0201 	and.w	r2, r2, #1
 8000976:	9200      	str	r2, [sp, #0]
 8000978:	9a00      	ldr	r2, [sp, #0]
 800097a:	6d9a      	ldr	r2, [r3, #88]	@ 0x58
 800097c:	f042 5280 	orr.w	r2, r2, #268435456	@ 0x10000000
 8000980:	659a      	str	r2, [r3, #88]	@ 0x58
 8000982:	6d9b      	ldr	r3, [r3, #88]	@ 0x58
 8000984:	f003 5380 	and.w	r3, r3, #268435456	@ 0x10000000
 8000988:	9301      	str	r3, [sp, #4]
 800098a:	9b01      	ldr	r3, [sp, #4]
 800098c:	b002      	add	sp, #8
 800098e:	4770      	bx	lr
 8000990:	40021000 	.word	0x40021000

08000994 <NMI_Handler>:
 8000994:	e7fe      	b.n	8000994 <NMI_Handler>
 8000996:	bf00      	nop

08000998 <HardFault_Handler>:
 8000998:	e7fe      	b.n	8000998 <HardFault_Handler>
 800099a:	bf00      	nop

0800099c <MemManage_Handler>:
 800099c:	e7fe      	b.n	800099c <MemManage_Handler>
 800099e:	bf00      	nop

080009a0 <BusFault_Handler>:
 80009a0:	e7fe      	b.n	80009a0 <BusFault_Handler>
 80009a2:	bf00      	nop

080009a4 <UsageFault_Handler>:
 80009a4:	e7fe      	b.n	80009a4 <UsageFault_Handler>
 80009a6:	bf00      	nop

080009a8 <SVC_Handler>:
 80009a8:	4770      	bx	lr
 80009aa:	bf00      	nop

080009ac <DebugMon_Handler>:
 80009ac:	4770      	bx	lr
 80009ae:	bf00      	nop

080009b0 <PendSV_Handler>:
 80009b0:	4770      	bx	lr
 80009b2:	bf00      	nop

080009b4 <SysTick_Handler>:
 80009b4:	f000 b94c 	b.w	8000c50 <HAL_IncTick>

080009b8 <TIM1_UP_TIM16_IRQHandler>:
 80009b8:	4801      	ldr	r0, [pc, #4]	@ (80009c0 <TIM1_UP_TIM16_IRQHandler+0x8>)
 80009ba:	f002 bc23 	b.w	8003204 <HAL_TIM_IRQHandler>
 80009be:	bf00      	nop
 80009c0:	20000178 	.word	0x20000178

080009c4 <EXTI15_10_IRQHandler>:
 80009c4:	f44f 5000 	mov.w	r0, #8192	@ 0x2000
 80009c8:	f001 baa6 	b.w	8001f18 <HAL_GPIO_EXTI_IRQHandler>

080009cc <SystemInit>:
 80009cc:	4a03      	ldr	r2, [pc, #12]	@ (80009dc <SystemInit+0x10>)
 80009ce:	f8d2 3088 	ldr.w	r3, [r2, #136]	@ 0x88
 80009d2:	f443 0370 	orr.w	r3, r3, #15728640	@ 0xf00000
 80009d6:	f8c2 3088 	str.w	r3, [r2, #136]	@ 0x88
 80009da:	4770      	bx	lr
 80009dc:	e000ed00 	.word	0xe000ed00

080009e0 <MX_TIM1_Init>:
 80009e0:	b500      	push	{lr}
 80009e2:	491f      	ldr	r1, [pc, #124]	@ (8000a60 <MX_TIM1_Init+0x80>)
 80009e4:	4a1f      	ldr	r2, [pc, #124]	@ (8000a64 <MX_TIM1_Init+0x84>)
 80009e6:	b089      	sub	sp, #36	@ 0x24
 80009e8:	204f      	movs	r0, #79	@ 0x4f
 80009ea:	600a      	str	r2, [r1, #0]
 80009ec:	2210      	movs	r2, #16
 80009ee:	2300      	movs	r3, #0
 80009f0:	e9c1 0201 	strd	r0, r2, [r1, #4]
 80009f4:	f240 32e7 	movw	r2, #999	@ 0x3e7
 80009f8:	4608      	mov	r0, r1
 80009fa:	e9cd 3304 	strd	r3, r3, [sp, #16]
 80009fe:	e9cd 3306 	strd	r3, r3, [sp, #24]
 8000a02:	e9cd 3300 	strd	r3, r3, [sp]
 8000a06:	e9c1 3304 	strd	r3, r3, [r1, #16]
 8000a0a:	9302      	str	r3, [sp, #8]
 8000a0c:	60ca      	str	r2, [r1, #12]
 8000a0e:	618b      	str	r3, [r1, #24]
 8000a10:	f002 fa4a 	bl	8002ea8 <HAL_TIM_Base_Init>
 8000a14:	b9a0      	cbnz	r0, 8000a40 <MX_TIM1_Init+0x60>
 8000a16:	f44f 5380 	mov.w	r3, #4096	@ 0x1000
 8000a1a:	4811      	ldr	r0, [pc, #68]	@ (8000a60 <MX_TIM1_Init+0x80>)
 8000a1c:	9304      	str	r3, [sp, #16]
 8000a1e:	a904      	add	r1, sp, #16
 8000a20:	f002 fb02 	bl	8003028 <HAL_TIM_ConfigClockSource>
 8000a24:	b998      	cbnz	r0, 8000a4e <MX_TIM1_Init+0x6e>
 8000a26:	ed9f 7b0c 	vldr	d7, [pc, #48]	@ 8000a58 <MX_TIM1_Init+0x78>
 8000a2a:	2300      	movs	r3, #0
 8000a2c:	480c      	ldr	r0, [pc, #48]	@ (8000a60 <MX_TIM1_Init+0x80>)
 8000a2e:	9302      	str	r3, [sp, #8]
 8000a30:	4669      	mov	r1, sp
 8000a32:	ed8d 7b00 	vstr	d7, [sp]
 8000a36:	f002 fc8f 	bl	8003358 <HAL_TIMEx_MasterConfigSynchronization>
 8000a3a:	b920      	cbnz	r0, 8000a46 <MX_TIM1_Init+0x66>
 8000a3c:	b009      	add	sp, #36	@ 0x24
 8000a3e:	bd00      	pop	{pc}
 8000a40:	f7ff ff8e 	bl	8000960 <Error_Handler>
 8000a44:	e7e7      	b.n	8000a16 <MX_TIM1_Init+0x36>
 8000a46:	f7ff ff8b 	bl	8000960 <Error_Handler>
 8000a4a:	b009      	add	sp, #36	@ 0x24
 8000a4c:	bd00      	pop	{pc}
 8000a4e:	f7ff ff87 	bl	8000960 <Error_Handler>
 8000a52:	e7e8      	b.n	8000a26 <MX_TIM1_Init+0x46>
 8000a54:	f3af 8000 	nop.w
	...
 8000a60:	20000178 	.word	0x20000178
 8000a64:	40012c00 	.word	0x40012c00

08000a68 <HAL_TIM_Base_MspInit>:
 8000a68:	4b0e      	ldr	r3, [pc, #56]	@ (8000aa4 <HAL_TIM_Base_MspInit+0x3c>)
 8000a6a:	6802      	ldr	r2, [r0, #0]
 8000a6c:	429a      	cmp	r2, r3
 8000a6e:	d000      	beq.n	8000a72 <HAL_TIM_Base_MspInit+0xa>
 8000a70:	4770      	bx	lr
 8000a72:	b500      	push	{lr}
 8000a74:	f503 4364 	add.w	r3, r3, #58368	@ 0xe400
 8000a78:	b083      	sub	sp, #12
 8000a7a:	6e18      	ldr	r0, [r3, #96]	@ 0x60
 8000a7c:	f440 6000 	orr.w	r0, r0, #2048	@ 0x800
 8000a80:	6618      	str	r0, [r3, #96]	@ 0x60
 8000a82:	6e1b      	ldr	r3, [r3, #96]	@ 0x60
 8000a84:	2200      	movs	r2, #0
 8000a86:	f403 6300 	and.w	r3, r3, #2048	@ 0x800
 8000a8a:	9301      	str	r3, [sp, #4]
 8000a8c:	4611      	mov	r1, r2
 8000a8e:	2019      	movs	r0, #25
 8000a90:	9b01      	ldr	r3, [sp, #4]
 8000a92:	f000 fef1 	bl	8001878 <HAL_NVIC_SetPriority>
 8000a96:	2019      	movs	r0, #25
 8000a98:	b003      	add	sp, #12
 8000a9a:	f85d eb04 	ldr.w	lr, [sp], #4
 8000a9e:	f000 bf25 	b.w	80018ec <HAL_NVIC_EnableIRQ>
 8000aa2:	bf00      	nop
 8000aa4:	40012c00 	.word	0x40012c00

08000aa8 <MX_USART2_UART_Init>:
 8000aa8:	b510      	push	{r4, lr}
 8000aaa:	480c      	ldr	r0, [pc, #48]	@ (8000adc <MX_USART2_UART_Init+0x34>)
 8000aac:	4c0c      	ldr	r4, [pc, #48]	@ (8000ae0 <MX_USART2_UART_Init+0x38>)
 8000aae:	f44f 31e1 	mov.w	r1, #115200	@ 0x1c200
 8000ab2:	2300      	movs	r3, #0
 8000ab4:	e9c4 0100 	strd	r0, r1, [r4]
 8000ab8:	220c      	movs	r2, #12
 8000aba:	4620      	mov	r0, r4
 8000abc:	e9c4 3302 	strd	r3, r3, [r4, #8]
 8000ac0:	e9c4 3204 	strd	r3, r2, [r4, #16]
 8000ac4:	e9c4 3306 	strd	r3, r3, [r4, #24]
 8000ac8:	e9c4 3308 	strd	r3, r3, [r4, #32]
 8000acc:	f002 ff34 	bl	8003938 <HAL_UART_Init>
 8000ad0:	b900      	cbnz	r0, 8000ad4 <MX_USART2_UART_Init+0x2c>
 8000ad2:	bd10      	pop	{r4, pc}
 8000ad4:	e8bd 4010 	ldmia.w	sp!, {r4, lr}
 8000ad8:	f7ff bf42 	b.w	8000960 <Error_Handler>
 8000adc:	40004400 	.word	0x40004400
 8000ae0:	200001c8 	.word	0x200001c8
 8000ae4:	00000000 	.word	0x00000000

08000ae8 <HAL_UART_MspInit>:
 8000ae8:	b510      	push	{r4, lr}
 8000aea:	4604      	mov	r4, r0
 8000aec:	b0aa      	sub	sp, #168	@ 0xa8
 8000aee:	2100      	movs	r1, #0
 8000af0:	2288      	movs	r2, #136	@ 0x88
 8000af2:	a808      	add	r0, sp, #32
 8000af4:	e9cd 1102 	strd	r1, r1, [sp, #8]
 8000af8:	e9cd 1104 	strd	r1, r1, [sp, #16]
 8000afc:	9106      	str	r1, [sp, #24]
 8000afe:	f003 f95f 	bl	8003dc0 <memset>
 8000b02:	4b1d      	ldr	r3, [pc, #116]	@ (8000b78 <HAL_UART_MspInit+0x90>)
 8000b04:	6822      	ldr	r2, [r4, #0]
 8000b06:	429a      	cmp	r2, r3
 8000b08:	d001      	beq.n	8000b0e <HAL_UART_MspInit+0x26>
 8000b0a:	b02a      	add	sp, #168	@ 0xa8
 8000b0c:	bd10      	pop	{r4, pc}
 8000b0e:	2302      	movs	r3, #2
 8000b10:	a808      	add	r0, sp, #32
 8000b12:	9308      	str	r3, [sp, #32]
 8000b14:	f001 ffbc 	bl	8002a90 <HAL_RCCEx_PeriphCLKConfig>
 8000b18:	bb18      	cbnz	r0, 8000b62 <HAL_UART_MspInit+0x7a>
 8000b1a:	4b18      	ldr	r3, [pc, #96]	@ (8000b7c <HAL_UART_MspInit+0x94>)
 8000b1c:	6d9a      	ldr	r2, [r3, #88]	@ 0x58
 8000b1e:	f442 3200 	orr.w	r2, r2, #131072	@ 0x20000
 8000b22:	659a      	str	r2, [r3, #88]	@ 0x58
 8000b24:	6d9a      	ldr	r2, [r3, #88]	@ 0x58
 8000b26:	f402 3200 	and.w	r2, r2, #131072	@ 0x20000
 8000b2a:	9200      	str	r2, [sp, #0]
 8000b2c:	9a00      	ldr	r2, [sp, #0]
 8000b2e:	6cda      	ldr	r2, [r3, #76]	@ 0x4c
 8000b30:	ed9f 7b0d 	vldr	d7, [pc, #52]	@ 8000b68 <HAL_UART_MspInit+0x80>
 8000b34:	f042 0201 	orr.w	r2, r2, #1
 8000b38:	64da      	str	r2, [r3, #76]	@ 0x4c
 8000b3a:	6cdb      	ldr	r3, [r3, #76]	@ 0x4c
 8000b3c:	ed8d 7b02 	vstr	d7, [sp, #8]
 8000b40:	ed9f 7b0b 	vldr	d7, [pc, #44]	@ 8000b70 <HAL_UART_MspInit+0x88>
 8000b44:	f003 0301 	and.w	r3, r3, #1
 8000b48:	9301      	str	r3, [sp, #4]
 8000b4a:	a902      	add	r1, sp, #8
 8000b4c:	2307      	movs	r3, #7
 8000b4e:	f04f 4090 	mov.w	r0, #1207959552	@ 0x48000000
 8000b52:	ed8d 7b04 	vstr	d7, [sp, #16]
 8000b56:	9a01      	ldr	r2, [sp, #4]
 8000b58:	9306      	str	r3, [sp, #24]
 8000b5a:	f000 ffe1 	bl	8001b20 <HAL_GPIO_Init>
 8000b5e:	b02a      	add	sp, #168	@ 0xa8
 8000b60:	bd10      	pop	{r4, pc}
 8000b62:	f7ff fefd 	bl	8000960 <Error_Handler>
 8000b66:	e7d8      	b.n	8000b1a <HAL_UART_MspInit+0x32>
 8000b68:	0000000c 	.word	0x0000000c
 8000b6c:	00000002 	.word	0x00000002
 8000b70:	00000000 	.word	0x00000000
 8000b74:	00000003 	.word	0x00000003
 8000b78:	40004400 	.word	0x40004400
 8000b7c:	40021000 	.word	0x40021000

08000b80 <Reset_Handler>:
 8000b80:	f8df d034 	ldr.w	sp, [pc, #52]	@ 8000bb8 <LoopForever+0x2>
 8000b84:	f7ff ff22 	bl	80009cc <SystemInit>
 8000b88:	480c      	ldr	r0, [pc, #48]	@ (8000bbc <LoopForever+0x6>)
 8000b8a:	490d      	ldr	r1, [pc, #52]	@ (8000bc0 <LoopForever+0xa>)
 8000b8c:	4a0d      	ldr	r2, [pc, #52]	@ (8000bc4 <LoopForever+0xe>)
 8000b8e:	2300      	movs	r3, #0
 8000b90:	e002      	b.n	8000b98 <LoopCopyDataInit>

08000b92 <CopyDataInit>:
 8000b92:	58d4      	ldr	r4, [r2, r3]
 8000b94:	50c4      	str	r4, [r0, r3]
 8000b96:	3304      	adds	r3, #4

08000b98 <LoopCopyDataInit>:
 8000b98:	18c4      	adds	r4, r0, r3
 8000b9a:	428c      	cmp	r4, r1
 8000b9c:	d3f9      	bcc.n	8000b92 <CopyDataInit>
 8000b9e:	4a0a      	ldr	r2, [pc, #40]	@ (8000bc8 <LoopForever+0x12>)
 8000ba0:	4c0a      	ldr	r4, [pc, #40]	@ (8000bcc <LoopForever+0x16>)
 8000ba2:	2300      	movs	r3, #0
 8000ba4:	e001      	b.n	8000baa <LoopFillZerobss>

08000ba6 <FillZerobss>:
 8000ba6:	6013      	str	r3, [r2, #0]
 8000ba8:	3204      	adds	r2, #4

08000baa <LoopFillZerobss>:
 8000baa:	42a2      	cmp	r2, r4
 8000bac:	d3fb      	bcc.n	8000ba6 <FillZerobss>
 8000bae:	f003 f90f 	bl	8003dd0 <__libc_init_array>
 8000bb2:	f7ff fe45 	bl	8000840 <main>

08000bb6 <LoopForever>:
 8000bb6:	e7fe      	b.n	8000bb6 <LoopForever>
 8000bb8:	20018000 	.word	0x20018000
 8000bbc:	20000000 	.word	0x20000000
 8000bc0:	20000010 	.word	0x20000010
 8000bc4:	08003e9c 	.word	0x08003e9c
 8000bc8:	20000010 	.word	0x20000010
 8000bcc:	20000254 	.word	0x20000254

08000bd0 <ADC1_2_IRQHandler>:
 8000bd0:	e7fe      	b.n	8000bd0 <ADC1_2_IRQHandler>
	...

08000bd4 <HAL_InitTick>:
 8000bd4:	b538      	push	{r3, r4, r5, lr}
 8000bd6:	4b0f      	ldr	r3, [pc, #60]	@ (8000c14 <HAL_InitTick+0x40>)
 8000bd8:	781b      	ldrb	r3, [r3, #0]
 8000bda:	b90b      	cbnz	r3, 8000be0 <HAL_InitTick+0xc>
 8000bdc:	2001      	movs	r0, #1
 8000bde:	bd38      	pop	{r3, r4, r5, pc}
 8000be0:	490d      	ldr	r1, [pc, #52]	@ (8000c18 <HAL_InitTick+0x44>)
 8000be2:	f44f 727a 	mov.w	r2, #1000	@ 0x3e8
 8000be6:	4605      	mov	r5, r0
 8000be8:	fbb2 f3f3 	udiv	r3, r2, r3
 8000bec:	6808      	ldr	r0, [r1, #0]
 8000bee:	fbb0 f0f3 	udiv	r0, r0, r3
 8000bf2:	f000 fe89 	bl	8001908 <HAL_SYSTICK_Config>
 8000bf6:	4604      	mov	r4, r0
 8000bf8:	2800      	cmp	r0, #0
 8000bfa:	d1ef      	bne.n	8000bdc <HAL_InitTick+0x8>
 8000bfc:	2d0f      	cmp	r5, #15
 8000bfe:	d8ed      	bhi.n	8000bdc <HAL_InitTick+0x8>
 8000c00:	4602      	mov	r2, r0
 8000c02:	4629      	mov	r1, r5
 8000c04:	f04f 30ff 	mov.w	r0, #4294967295
 8000c08:	f000 fe36 	bl	8001878 <HAL_NVIC_SetPriority>
 8000c0c:	4b03      	ldr	r3, [pc, #12]	@ (8000c1c <HAL_InitTick+0x48>)
 8000c0e:	4620      	mov	r0, r4
 8000c10:	601d      	str	r5, [r3, #0]
 8000c12:	bd38      	pop	{r3, r4, r5, pc}
 8000c14:	20000008 	.word	0x20000008
 8000c18:	20000004 	.word	0x20000004
 8000c1c:	2000000c 	.word	0x2000000c

08000c20 <HAL_Init>:
 8000c20:	4a0a      	ldr	r2, [pc, #40]	@ (8000c4c <HAL_Init+0x2c>)
 8000c22:	6813      	ldr	r3, [r2, #0]
 8000c24:	f443 7380 	orr.w	r3, r3, #256	@ 0x100
 8000c28:	b510      	push	{r4, lr}
 8000c2a:	2003      	movs	r0, #3
 8000c2c:	6013      	str	r3, [r2, #0]
 8000c2e:	f000 fe11 	bl	8001854 <HAL_NVIC_SetPriorityGrouping>
 8000c32:	2000      	movs	r0, #0
 8000c34:	f7ff ffce 	bl	8000bd4 <HAL_InitTick>
 8000c38:	b110      	cbz	r0, 8000c40 <HAL_Init+0x20>
 8000c3a:	2401      	movs	r4, #1
 8000c3c:	4620      	mov	r0, r4
 8000c3e:	bd10      	pop	{r4, pc}
 8000c40:	4604      	mov	r4, r0
 8000c42:	f7ff fe8f 	bl	8000964 <HAL_MspInit>
 8000c46:	4620      	mov	r0, r4
 8000c48:	bd10      	pop	{r4, pc}
 8000c4a:	bf00      	nop
 8000c4c:	40022000 	.word	0x40022000

08000c50 <HAL_IncTick>:
 8000c50:	4a03      	ldr	r2, [pc, #12]	@ (8000c60 <HAL_IncTick+0x10>)
 8000c52:	4b04      	ldr	r3, [pc, #16]	@ (8000c64 <HAL_IncTick+0x14>)
 8000c54:	6811      	ldr	r1, [r2, #0]
 8000c56:	781b      	ldrb	r3, [r3, #0]
 8000c58:	440b      	add	r3, r1
 8000c5a:	6013      	str	r3, [r2, #0]
 8000c5c:	4770      	bx	lr
 8000c5e:	bf00      	nop
 8000c60:	20000250 	.word	0x20000250
 8000c64:	20000008 	.word	0x20000008

08000c68 <HAL_GetTick>:
 8000c68:	4b01      	ldr	r3, [pc, #4]	@ (8000c70 <HAL_GetTick+0x8>)
 8000c6a:	6818      	ldr	r0, [r3, #0]
 8000c6c:	4770      	bx	lr
 8000c6e:	bf00      	nop
 8000c70:	20000250 	.word	0x20000250

08000c74 <HAL_Delay>:
 8000c74:	b538      	push	{r3, r4, r5, lr}
 8000c76:	4604      	mov	r4, r0
 8000c78:	f7ff fff6 	bl	8000c68 <HAL_GetTick>
 8000c7c:	1c63      	adds	r3, r4, #1
 8000c7e:	4605      	mov	r5, r0
 8000c80:	d002      	beq.n	8000c88 <HAL_Delay+0x14>
 8000c82:	4b04      	ldr	r3, [pc, #16]	@ (8000c94 <HAL_Delay+0x20>)
 8000c84:	781b      	ldrb	r3, [r3, #0]
 8000c86:	441c      	add	r4, r3
 8000c88:	f7ff ffee 	bl	8000c68 <HAL_GetTick>
 8000c8c:	1b40      	subs	r0, r0, r5
 8000c8e:	42a0      	cmp	r0, r4
 8000c90:	d3fa      	bcc.n	8000c88 <HAL_Delay+0x14>
 8000c92:	bd38      	pop	{r3, r4, r5, pc}
 8000c94:	20000008 	.word	0x20000008

08000c98 <HAL_ADC_Init>:
 8000c98:	b530      	push	{r4, r5, lr}
 8000c9a:	b083      	sub	sp, #12
 8000c9c:	2300      	movs	r3, #0
 8000c9e:	9301      	str	r3, [sp, #4]
 8000ca0:	2800      	cmp	r0, #0
 8000ca2:	f000 809f 	beq.w	8000de4 <HAL_ADC_Init+0x14c>
 8000ca6:	6d45      	ldr	r5, [r0, #84]	@ 0x54
 8000ca8:	4604      	mov	r4, r0
 8000caa:	2d00      	cmp	r5, #0
 8000cac:	f000 809d 	beq.w	8000dea <HAL_ADC_Init+0x152>
 8000cb0:	6822      	ldr	r2, [r4, #0]
 8000cb2:	6893      	ldr	r3, [r2, #8]
 8000cb4:	009d      	lsls	r5, r3, #2
 8000cb6:	d505      	bpl.n	8000cc4 <HAL_ADC_Init+0x2c>
 8000cb8:	6893      	ldr	r3, [r2, #8]
 8000cba:	f023 4320 	bic.w	r3, r3, #2684354560	@ 0xa0000000
 8000cbe:	f023 033f 	bic.w	r3, r3, #63	@ 0x3f
 8000cc2:	6093      	str	r3, [r2, #8]
 8000cc4:	6893      	ldr	r3, [r2, #8]
 8000cc6:	00d8      	lsls	r0, r3, #3
 8000cc8:	d419      	bmi.n	8000cfe <HAL_ADC_Init+0x66>
 8000cca:	4b5d      	ldr	r3, [pc, #372]	@ (8000e40 <HAL_ADC_Init+0x1a8>)
 8000ccc:	485d      	ldr	r0, [pc, #372]	@ (8000e44 <HAL_ADC_Init+0x1ac>)
 8000cce:	681b      	ldr	r3, [r3, #0]
 8000cd0:	6891      	ldr	r1, [r2, #8]
 8000cd2:	099b      	lsrs	r3, r3, #6
 8000cd4:	fba0 0303 	umull	r0, r3, r0, r3
 8000cd8:	f021 4110 	bic.w	r1, r1, #2415919104	@ 0x90000000
 8000cdc:	099b      	lsrs	r3, r3, #6
 8000cde:	f021 013f 	bic.w	r1, r1, #63	@ 0x3f
 8000ce2:	3301      	adds	r3, #1
 8000ce4:	005b      	lsls	r3, r3, #1
 8000ce6:	f041 5180 	orr.w	r1, r1, #268435456	@ 0x10000000
 8000cea:	6091      	str	r1, [r2, #8]
 8000cec:	9301      	str	r3, [sp, #4]
 8000cee:	9b01      	ldr	r3, [sp, #4]
 8000cf0:	b12b      	cbz	r3, 8000cfe <HAL_ADC_Init+0x66>
 8000cf2:	9b01      	ldr	r3, [sp, #4]
 8000cf4:	3b01      	subs	r3, #1
 8000cf6:	9301      	str	r3, [sp, #4]
 8000cf8:	9b01      	ldr	r3, [sp, #4]
 8000cfa:	2b00      	cmp	r3, #0
 8000cfc:	d1f9      	bne.n	8000cf2 <HAL_ADC_Init+0x5a>
 8000cfe:	6893      	ldr	r3, [r2, #8]
 8000d00:	00d9      	lsls	r1, r3, #3
 8000d02:	d464      	bmi.n	8000dce <HAL_ADC_Init+0x136>
 8000d04:	6d63      	ldr	r3, [r4, #84]	@ 0x54
 8000d06:	f043 0310 	orr.w	r3, r3, #16
 8000d0a:	6563      	str	r3, [r4, #84]	@ 0x54
 8000d0c:	6da3      	ldr	r3, [r4, #88]	@ 0x58
 8000d0e:	2001      	movs	r0, #1
 8000d10:	4303      	orrs	r3, r0
 8000d12:	65a3      	str	r3, [r4, #88]	@ 0x58
 8000d14:	6893      	ldr	r3, [r2, #8]
 8000d16:	f013 0f04 	tst.w	r3, #4
 8000d1a:	6d63      	ldr	r3, [r4, #84]	@ 0x54
 8000d1c:	d15e      	bne.n	8000ddc <HAL_ADC_Init+0x144>
 8000d1e:	06db      	lsls	r3, r3, #27
 8000d20:	d45c      	bmi.n	8000ddc <HAL_ADC_Init+0x144>
 8000d22:	6d63      	ldr	r3, [r4, #84]	@ 0x54
 8000d24:	f423 7381 	bic.w	r3, r3, #258	@ 0x102
 8000d28:	f043 0302 	orr.w	r3, r3, #2
 8000d2c:	6563      	str	r3, [r4, #84]	@ 0x54
 8000d2e:	6893      	ldr	r3, [r2, #8]
 8000d30:	07dd      	lsls	r5, r3, #31
 8000d32:	d40b      	bmi.n	8000d4c <HAL_ADC_Init+0xb4>
 8000d34:	4944      	ldr	r1, [pc, #272]	@ (8000e48 <HAL_ADC_Init+0x1b0>)
 8000d36:	4b45      	ldr	r3, [pc, #276]	@ (8000e4c <HAL_ADC_Init+0x1b4>)
 8000d38:	6889      	ldr	r1, [r1, #8]
 8000d3a:	689b      	ldr	r3, [r3, #8]
 8000d3c:	f013 0f01 	tst.w	r3, #1
 8000d40:	4b43      	ldr	r3, [pc, #268]	@ (8000e50 <HAL_ADC_Init+0x1b8>)
 8000d42:	689b      	ldr	r3, [r3, #8]
 8000d44:	d102      	bne.n	8000d4c <HAL_ADC_Init+0xb4>
 8000d46:	430b      	orrs	r3, r1
 8000d48:	07d9      	lsls	r1, r3, #31
 8000d4a:	d561      	bpl.n	8000e10 <HAL_ADC_Init+0x178>
 8000d4c:	68e5      	ldr	r5, [r4, #12]
 8000d4e:	6b63      	ldr	r3, [r4, #52]	@ 0x34
 8000d50:	f894 1020 	ldrb.w	r1, [r4, #32]
 8000d54:	432b      	orrs	r3, r5
 8000d56:	68a5      	ldr	r5, [r4, #8]
 8000d58:	432b      	orrs	r3, r5
 8000d5a:	7e65      	ldrb	r5, [r4, #25]
 8000d5c:	2901      	cmp	r1, #1
 8000d5e:	ea43 3345 	orr.w	r3, r3, r5, lsl #13
 8000d62:	ea43 4301 	orr.w	r3, r3, r1, lsl #16
 8000d66:	d04e      	beq.n	8000e06 <HAL_ADC_Init+0x16e>
 8000d68:	6aa1      	ldr	r1, [r4, #40]	@ 0x28
 8000d6a:	b121      	cbz	r1, 8000d76 <HAL_ADC_Init+0xde>
 8000d6c:	6ae5      	ldr	r5, [r4, #44]	@ 0x2c
 8000d6e:	f401 7170 	and.w	r1, r1, #960	@ 0x3c0
 8000d72:	4329      	orrs	r1, r5
 8000d74:	430b      	orrs	r3, r1
 8000d76:	68d5      	ldr	r5, [r2, #12]
 8000d78:	4936      	ldr	r1, [pc, #216]	@ (8000e54 <HAL_ADC_Init+0x1bc>)
 8000d7a:	4029      	ands	r1, r5
 8000d7c:	4319      	orrs	r1, r3
 8000d7e:	60d1      	str	r1, [r2, #12]
 8000d80:	6893      	ldr	r3, [r2, #8]
 8000d82:	071b      	lsls	r3, r3, #28
 8000d84:	d414      	bmi.n	8000db0 <HAL_ADC_Init+0x118>
 8000d86:	68d1      	ldr	r1, [r2, #12]
 8000d88:	f894 3030 	ldrb.w	r3, [r4, #48]	@ 0x30
 8000d8c:	7e25      	ldrb	r5, [r4, #24]
 8000d8e:	f421 4180 	bic.w	r1, r1, #16384	@ 0x4000
 8000d92:	005b      	lsls	r3, r3, #1
 8000d94:	f021 0102 	bic.w	r1, r1, #2
 8000d98:	ea43 3385 	orr.w	r3, r3, r5, lsl #14
 8000d9c:	430b      	orrs	r3, r1
 8000d9e:	60d3      	str	r3, [r2, #12]
 8000da0:	f894 3038 	ldrb.w	r3, [r4, #56]	@ 0x38
 8000da4:	2b01      	cmp	r3, #1
 8000da6:	d03b      	beq.n	8000e20 <HAL_ADC_Init+0x188>
 8000da8:	6913      	ldr	r3, [r2, #16]
 8000daa:	f023 0301 	bic.w	r3, r3, #1
 8000dae:	6113      	str	r3, [r2, #16]
 8000db0:	6923      	ldr	r3, [r4, #16]
 8000db2:	2b01      	cmp	r3, #1
 8000db4:	d01f      	beq.n	8000df6 <HAL_ADC_Init+0x15e>
 8000db6:	6b13      	ldr	r3, [r2, #48]	@ 0x30
 8000db8:	f023 030f 	bic.w	r3, r3, #15
 8000dbc:	6313      	str	r3, [r2, #48]	@ 0x30
 8000dbe:	6d63      	ldr	r3, [r4, #84]	@ 0x54
 8000dc0:	f023 0303 	bic.w	r3, r3, #3
 8000dc4:	f043 0301 	orr.w	r3, r3, #1
 8000dc8:	6563      	str	r3, [r4, #84]	@ 0x54
 8000dca:	b003      	add	sp, #12
 8000dcc:	bd30      	pop	{r4, r5, pc}
 8000dce:	6893      	ldr	r3, [r2, #8]
 8000dd0:	f013 0f04 	tst.w	r3, #4
 8000dd4:	f04f 0000 	mov.w	r0, #0
 8000dd8:	6d63      	ldr	r3, [r4, #84]	@ 0x54
 8000dda:	d0a0      	beq.n	8000d1e <HAL_ADC_Init+0x86>
 8000ddc:	6d63      	ldr	r3, [r4, #84]	@ 0x54
 8000dde:	f043 0310 	orr.w	r3, r3, #16
 8000de2:	6563      	str	r3, [r4, #84]	@ 0x54
 8000de4:	2001      	movs	r0, #1
 8000de6:	b003      	add	sp, #12
 8000de8:	bd30      	pop	{r4, r5, pc}
 8000dea:	f7ff fbd1 	bl	8000590 <HAL_ADC_MspInit>
 8000dee:	65a5      	str	r5, [r4, #88]	@ 0x58
 8000df0:	f884 5050 	strb.w	r5, [r4, #80]	@ 0x50
 8000df4:	e75c      	b.n	8000cb0 <HAL_ADC_Init+0x18>
 8000df6:	6b11      	ldr	r1, [r2, #48]	@ 0x30
 8000df8:	69e3      	ldr	r3, [r4, #28]
 8000dfa:	f021 010f 	bic.w	r1, r1, #15
 8000dfe:	3b01      	subs	r3, #1
 8000e00:	430b      	orrs	r3, r1
 8000e02:	6313      	str	r3, [r2, #48]	@ 0x30
 8000e04:	e7db      	b.n	8000dbe <HAL_ADC_Init+0x126>
 8000e06:	6a61      	ldr	r1, [r4, #36]	@ 0x24
 8000e08:	3901      	subs	r1, #1
 8000e0a:	ea43 4341 	orr.w	r3, r3, r1, lsl #17
 8000e0e:	e7ab      	b.n	8000d68 <HAL_ADC_Init+0xd0>
 8000e10:	4911      	ldr	r1, [pc, #68]	@ (8000e58 <HAL_ADC_Init+0x1c0>)
 8000e12:	6865      	ldr	r5, [r4, #4]
 8000e14:	688b      	ldr	r3, [r1, #8]
 8000e16:	f423 137c 	bic.w	r3, r3, #4128768	@ 0x3f0000
 8000e1a:	432b      	orrs	r3, r5
 8000e1c:	608b      	str	r3, [r1, #8]
 8000e1e:	e795      	b.n	8000d4c <HAL_ADC_Init+0xb4>
 8000e20:	6911      	ldr	r1, [r2, #16]
 8000e22:	6be3      	ldr	r3, [r4, #60]	@ 0x3c
 8000e24:	6c25      	ldr	r5, [r4, #64]	@ 0x40
 8000e26:	f36f 018a 	bfc	r1, #2, #9
 8000e2a:	432b      	orrs	r3, r5
 8000e2c:	430b      	orrs	r3, r1
 8000e2e:	6c61      	ldr	r1, [r4, #68]	@ 0x44
 8000e30:	430b      	orrs	r3, r1
 8000e32:	6ca1      	ldr	r1, [r4, #72]	@ 0x48
 8000e34:	430b      	orrs	r3, r1
 8000e36:	f043 0301 	orr.w	r3, r3, #1
 8000e3a:	6113      	str	r3, [r2, #16]
 8000e3c:	e7b8      	b.n	8000db0 <HAL_ADC_Init+0x118>
 8000e3e:	bf00      	nop
 8000e40:	20000004 	.word	0x20000004
 8000e44:	053e2d63 	.word	0x053e2d63
 8000e48:	50040000 	.word	0x50040000
 8000e4c:	50040100 	.word	0x50040100
 8000e50:	50040200 	.word	0x50040200
 8000e54:	fff0c007 	.word	0xfff0c007
 8000e58:	50040300 	.word	0x50040300

08000e5c <HAL_ADC_PollForConversion>:
 8000e5c:	4a3d      	ldr	r2, [pc, #244]	@ (8000f54 <HAL_ADC_PollForConversion+0xf8>)
 8000e5e:	e92d 41f0 	stmdb	sp!, {r4, r5, r6, r7, r8, lr}
 8000e62:	6944      	ldr	r4, [r0, #20]
 8000e64:	6896      	ldr	r6, [r2, #8]
 8000e66:	2c08      	cmp	r4, #8
 8000e68:	4605      	mov	r5, r0
 8000e6a:	460f      	mov	r7, r1
 8000e6c:	f006 061f 	and.w	r6, r6, #31
 8000e70:	d014      	beq.n	8000e9c <HAL_ADC_PollForConversion+0x40>
 8000e72:	f240 2321 	movw	r3, #545	@ 0x221
 8000e76:	40f3      	lsrs	r3, r6
 8000e78:	07d9      	lsls	r1, r3, #31
 8000e7a:	d40a      	bmi.n	8000e92 <HAL_ADC_PollForConversion+0x36>
 8000e7c:	6893      	ldr	r3, [r2, #8]
 8000e7e:	f413 4f60 	tst.w	r3, #57344	@ 0xe000
 8000e82:	d00a      	beq.n	8000e9a <HAL_ADC_PollForConversion+0x3e>
 8000e84:	6d6b      	ldr	r3, [r5, #84]	@ 0x54
 8000e86:	f043 0320 	orr.w	r3, r3, #32
 8000e8a:	656b      	str	r3, [r5, #84]	@ 0x54
 8000e8c:	2001      	movs	r0, #1
 8000e8e:	e8bd 81f0 	ldmia.w	sp!, {r4, r5, r6, r7, r8, pc}
 8000e92:	6803      	ldr	r3, [r0, #0]
 8000e94:	68db      	ldr	r3, [r3, #12]
 8000e96:	07da      	lsls	r2, r3, #31
 8000e98:	d4f4      	bmi.n	8000e84 <HAL_ADC_PollForConversion+0x28>
 8000e9a:	2404      	movs	r4, #4
 8000e9c:	f7ff fee4 	bl	8000c68 <HAL_GetTick>
 8000ea0:	1c7b      	adds	r3, r7, #1
 8000ea2:	682a      	ldr	r2, [r5, #0]
 8000ea4:	4680      	mov	r8, r0
 8000ea6:	d017      	beq.n	8000ed8 <HAL_ADC_PollForConversion+0x7c>
 8000ea8:	2f00      	cmp	r7, #0
 8000eaa:	d048      	beq.n	8000f3e <HAL_ADC_PollForConversion+0xe2>
 8000eac:	6813      	ldr	r3, [r2, #0]
 8000eae:	421c      	tst	r4, r3
 8000eb0:	d115      	bne.n	8000ede <HAL_ADC_PollForConversion+0x82>
 8000eb2:	f7ff fed9 	bl	8000c68 <HAL_GetTick>
 8000eb6:	eba0 0308 	sub.w	r3, r0, r8
 8000eba:	429f      	cmp	r7, r3
 8000ebc:	682a      	ldr	r2, [r5, #0]
 8000ebe:	d2f5      	bcs.n	8000eac <HAL_ADC_PollForConversion+0x50>
 8000ec0:	6813      	ldr	r3, [r2, #0]
 8000ec2:	421c      	tst	r4, r3
 8000ec4:	d1f2      	bne.n	8000eac <HAL_ADC_PollForConversion+0x50>
 8000ec6:	6d6b      	ldr	r3, [r5, #84]	@ 0x54
 8000ec8:	2200      	movs	r2, #0
 8000eca:	f043 0304 	orr.w	r3, r3, #4
 8000ece:	656b      	str	r3, [r5, #84]	@ 0x54
 8000ed0:	f885 2050 	strb.w	r2, [r5, #80]	@ 0x50
 8000ed4:	2003      	movs	r0, #3
 8000ed6:	e025      	b.n	8000f24 <HAL_ADC_PollForConversion+0xc8>
 8000ed8:	6813      	ldr	r3, [r2, #0]
 8000eda:	421c      	tst	r4, r3
 8000edc:	d0fc      	beq.n	8000ed8 <HAL_ADC_PollForConversion+0x7c>
 8000ede:	6d6b      	ldr	r3, [r5, #84]	@ 0x54
 8000ee0:	f443 7300 	orr.w	r3, r3, #512	@ 0x200
 8000ee4:	656b      	str	r3, [r5, #84]	@ 0x54
 8000ee6:	68d3      	ldr	r3, [r2, #12]
 8000ee8:	f413 6f40 	tst.w	r3, #3072	@ 0xc00
 8000eec:	d10f      	bne.n	8000f0e <HAL_ADC_PollForConversion+0xb2>
 8000eee:	7e6b      	ldrb	r3, [r5, #25]
 8000ef0:	b96b      	cbnz	r3, 8000f0e <HAL_ADC_PollForConversion+0xb2>
 8000ef2:	6813      	ldr	r3, [r2, #0]
 8000ef4:	071f      	lsls	r7, r3, #28
 8000ef6:	d50a      	bpl.n	8000f0e <HAL_ADC_PollForConversion+0xb2>
 8000ef8:	6d6b      	ldr	r3, [r5, #84]	@ 0x54
 8000efa:	f423 7380 	bic.w	r3, r3, #256	@ 0x100
 8000efe:	656b      	str	r3, [r5, #84]	@ 0x54
 8000f00:	6d6b      	ldr	r3, [r5, #84]	@ 0x54
 8000f02:	04d8      	lsls	r0, r3, #19
 8000f04:	d403      	bmi.n	8000f0e <HAL_ADC_PollForConversion+0xb2>
 8000f06:	6d6b      	ldr	r3, [r5, #84]	@ 0x54
 8000f08:	f043 0301 	orr.w	r3, r3, #1
 8000f0c:	656b      	str	r3, [r5, #84]	@ 0x54
 8000f0e:	4b12      	ldr	r3, [pc, #72]	@ (8000f58 <HAL_ADC_PollForConversion+0xfc>)
 8000f10:	429a      	cmp	r2, r3
 8000f12:	d009      	beq.n	8000f28 <HAL_ADC_PollForConversion+0xcc>
 8000f14:	2c08      	cmp	r4, #8
 8000f16:	68d3      	ldr	r3, [r2, #12]
 8000f18:	d00f      	beq.n	8000f3a <HAL_ADC_PollForConversion+0xde>
 8000f1a:	045b      	lsls	r3, r3, #17
 8000f1c:	d401      	bmi.n	8000f22 <HAL_ADC_PollForConversion+0xc6>
 8000f1e:	230c      	movs	r3, #12
 8000f20:	6013      	str	r3, [r2, #0]
 8000f22:	2000      	movs	r0, #0
 8000f24:	e8bd 81f0 	ldmia.w	sp!, {r4, r5, r6, r7, r8, pc}
 8000f28:	f240 2321 	movw	r3, #545	@ 0x221
 8000f2c:	40f3      	lsrs	r3, r6
 8000f2e:	07d9      	lsls	r1, r3, #31
 8000f30:	d4f0      	bmi.n	8000f14 <HAL_ADC_PollForConversion+0xb8>
 8000f32:	4b0a      	ldr	r3, [pc, #40]	@ (8000f5c <HAL_ADC_PollForConversion+0x100>)
 8000f34:	2c08      	cmp	r4, #8
 8000f36:	68db      	ldr	r3, [r3, #12]
 8000f38:	d1ef      	bne.n	8000f1a <HAL_ADC_PollForConversion+0xbe>
 8000f3a:	6014      	str	r4, [r2, #0]
 8000f3c:	e7f1      	b.n	8000f22 <HAL_ADC_PollForConversion+0xc6>
 8000f3e:	6813      	ldr	r3, [r2, #0]
 8000f40:	421c      	tst	r4, r3
 8000f42:	d1cc      	bne.n	8000ede <HAL_ADC_PollForConversion+0x82>
 8000f44:	f7ff fe90 	bl	8000c68 <HAL_GetTick>
 8000f48:	682a      	ldr	r2, [r5, #0]
 8000f4a:	6813      	ldr	r3, [r2, #0]
 8000f4c:	4223      	tst	r3, r4
 8000f4e:	d1f6      	bne.n	8000f3e <HAL_ADC_PollForConversion+0xe2>
 8000f50:	e7b9      	b.n	8000ec6 <HAL_ADC_PollForConversion+0x6a>
 8000f52:	bf00      	nop
 8000f54:	50040300 	.word	0x50040300
 8000f58:	50040100 	.word	0x50040100
 8000f5c:	50040000 	.word	0x50040000

08000f60 <HAL_ADC_GetValue>:
 8000f60:	6803      	ldr	r3, [r0, #0]
 8000f62:	6c18      	ldr	r0, [r3, #64]	@ 0x40
 8000f64:	4770      	bx	lr
 8000f66:	bf00      	nop

08000f68 <HAL_ADC_ConfigChannel>:
 8000f68:	e92d 41f0 	stmdb	sp!, {r4, r5, r6, r7, r8, lr}
 8000f6c:	f890 2050 	ldrb.w	r2, [r0, #80]	@ 0x50
 8000f70:	b082      	sub	sp, #8
 8000f72:	4603      	mov	r3, r0
 8000f74:	2a01      	cmp	r2, #1
 8000f76:	f04f 0000 	mov.w	r0, #0
 8000f7a:	9001      	str	r0, [sp, #4]
 8000f7c:	f000 8129 	beq.w	80011d2 <HAL_ADC_ConfigChannel+0x26a>
 8000f80:	681c      	ldr	r4, [r3, #0]
 8000f82:	2001      	movs	r0, #1
 8000f84:	f883 0050 	strb.w	r0, [r3, #80]	@ 0x50
 8000f88:	68a2      	ldr	r2, [r4, #8]
 8000f8a:	f012 0c04 	ands.w	ip, r2, #4
 8000f8e:	d13c      	bne.n	800100a <HAL_ADC_ConfigChannel+0xa2>
 8000f90:	6848      	ldr	r0, [r1, #4]
 8000f92:	2805      	cmp	r0, #5
 8000f94:	d943      	bls.n	800101e <HAL_ADC_ConfigChannel+0xb6>
 8000f96:	f000 051f 	and.w	r5, r0, #31
 8000f9a:	f04f 0e1f 	mov.w	lr, #31
 8000f9e:	0982      	lsrs	r2, r0, #6
 8000fa0:	fa0e fe05 	lsl.w	lr, lr, r5
 8000fa4:	f002 0c0c 	and.w	ip, r2, #12
 8000fa8:	ea6f 0e0e 	mvn.w	lr, lr
 8000fac:	680a      	ldr	r2, [r1, #0]
 8000fae:	f104 0030 	add.w	r0, r4, #48	@ 0x30
 8000fb2:	f3c2 6284 	ubfx	r2, r2, #26, #5
 8000fb6:	40aa      	lsls	r2, r5
 8000fb8:	f850 500c 	ldr.w	r5, [r0, ip]
 8000fbc:	ea05 050e 	and.w	r5, r5, lr
 8000fc0:	432a      	orrs	r2, r5
 8000fc2:	f840 200c 	str.w	r2, [r0, ip]
 8000fc6:	68a0      	ldr	r0, [r4, #8]
 8000fc8:	680a      	ldr	r2, [r1, #0]
 8000fca:	f010 0f04 	tst.w	r0, #4
 8000fce:	68a0      	ldr	r0, [r4, #8]
 8000fd0:	d101      	bne.n	8000fd6 <HAL_ADC_ConfigChannel+0x6e>
 8000fd2:	0706      	lsls	r6, r0, #28
 8000fd4:	d555      	bpl.n	8001082 <HAL_ADC_ConfigChannel+0x11a>
 8000fd6:	68a0      	ldr	r0, [r4, #8]
 8000fd8:	07c5      	lsls	r5, r0, #31
 8000fda:	d411      	bmi.n	8001000 <HAL_ADC_ConfigChannel+0x98>
 8000fdc:	68ce      	ldr	r6, [r1, #12]
 8000fde:	48ba      	ldr	r0, [pc, #744]	@ (80012c8 <HAL_ADC_ConfigChannel+0x360>)
 8000fe0:	f8d4 50b0 	ldr.w	r5, [r4, #176]	@ 0xb0
 8000fe4:	f006 0718 	and.w	r7, r6, #24
 8000fe8:	40f8      	lsrs	r0, r7
 8000fea:	f3c2 0712 	ubfx	r7, r2, #0, #19
 8000fee:	4010      	ands	r0, r2
 8000ff0:	ea25 0507 	bic.w	r5, r5, r7
 8000ff4:	4328      	orrs	r0, r5
 8000ff6:	f8c4 00b0 	str.w	r0, [r4, #176]	@ 0xb0
 8000ffa:	48b4      	ldr	r0, [pc, #720]	@ (80012cc <HAL_ADC_ConfigChannel+0x364>)
 8000ffc:	4286      	cmp	r6, r0
 8000ffe:	d06f      	beq.n	80010e0 <HAL_ADC_ConfigChannel+0x178>
 8001000:	49b3      	ldr	r1, [pc, #716]	@ (80012d0 <HAL_ADC_ConfigChannel+0x368>)
 8001002:	420a      	tst	r2, r1
 8001004:	d112      	bne.n	800102c <HAL_ADC_ConfigChannel+0xc4>
 8001006:	2000      	movs	r0, #0
 8001008:	e003      	b.n	8001012 <HAL_ADC_ConfigChannel+0xaa>
 800100a:	6d5a      	ldr	r2, [r3, #84]	@ 0x54
 800100c:	f042 0220 	orr.w	r2, r2, #32
 8001010:	655a      	str	r2, [r3, #84]	@ 0x54
 8001012:	2200      	movs	r2, #0
 8001014:	f883 2050 	strb.w	r2, [r3, #80]	@ 0x50
 8001018:	b002      	add	sp, #8
 800101a:	e8bd 81f0 	ldmia.w	sp!, {r4, r5, r6, r7, r8, pc}
 800101e:	3802      	subs	r0, #2
 8001020:	2803      	cmp	r0, #3
 8001022:	d91f      	bls.n	8001064 <HAL_ADC_ConfigChannel+0xfc>
 8001024:	f46f 6ef8 	mvn.w	lr, #1984	@ 0x7c0
 8001028:	2506      	movs	r5, #6
 800102a:	e7bf      	b.n	8000fac <HAL_ADC_ConfigChannel+0x44>
 800102c:	48a9      	ldr	r0, [pc, #676]	@ (80012d4 <HAL_ADC_ConfigChannel+0x36c>)
 800102e:	4daa      	ldr	r5, [pc, #680]	@ (80012d8 <HAL_ADC_ConfigChannel+0x370>)
 8001030:	6881      	ldr	r1, [r0, #8]
 8001032:	42aa      	cmp	r2, r5
 8001034:	f001 76e0 	and.w	r6, r1, #29360128	@ 0x1c00000
 8001038:	f000 80a1 	beq.w	800117e <HAL_ADC_ConfigChannel+0x216>
 800103c:	4da7      	ldr	r5, [pc, #668]	@ (80012dc <HAL_ADC_ConfigChannel+0x374>)
 800103e:	42aa      	cmp	r2, r5
 8001040:	f000 80cb 	beq.w	80011da <HAL_ADC_ConfigChannel+0x272>
 8001044:	4da6      	ldr	r5, [pc, #664]	@ (80012e0 <HAL_ADC_ConfigChannel+0x378>)
 8001046:	42aa      	cmp	r2, r5
 8001048:	d1dd      	bne.n	8001006 <HAL_ADC_ConfigChannel+0x9e>
 800104a:	024a      	lsls	r2, r1, #9
 800104c:	d4db      	bmi.n	8001006 <HAL_ADC_ConfigChannel+0x9e>
 800104e:	4aa5      	ldr	r2, [pc, #660]	@ (80012e4 <HAL_ADC_ConfigChannel+0x37c>)
 8001050:	4294      	cmp	r4, r2
 8001052:	d1d8      	bne.n	8001006 <HAL_ADC_ConfigChannel+0x9e>
 8001054:	6882      	ldr	r2, [r0, #8]
 8001056:	f022 72e0 	bic.w	r2, r2, #29360128	@ 0x1c00000
 800105a:	4332      	orrs	r2, r6
 800105c:	f442 0280 	orr.w	r2, r2, #4194304	@ 0x400000
 8001060:	6082      	str	r2, [r0, #8]
 8001062:	e7d0      	b.n	8001006 <HAL_ADC_ConfigChannel+0x9e>
 8001064:	4aa0      	ldr	r2, [pc, #640]	@ (80012e8 <HAL_ADC_ConfigChannel+0x380>)
 8001066:	f852 5020 	ldr.w	r5, [r2, r0, lsl #2]
 800106a:	f04f 0e1f 	mov.w	lr, #31
 800106e:	09aa      	lsrs	r2, r5, #6
 8001070:	f005 051f 	and.w	r5, r5, #31
 8001074:	fa0e fe05 	lsl.w	lr, lr, r5
 8001078:	f002 0c0c 	and.w	ip, r2, #12
 800107c:	ea6f 0e0e 	mvn.w	lr, lr
 8001080:	e794      	b.n	8000fac <HAL_ADC_ConfigChannel+0x44>
 8001082:	0dd0      	lsrs	r0, r2, #23
 8001084:	f000 0004 	and.w	r0, r0, #4
 8001088:	f104 0514 	add.w	r5, r4, #20
 800108c:	f3c2 5c04 	ubfx	ip, r2, #20, #5
 8001090:	688e      	ldr	r6, [r1, #8]
 8001092:	582a      	ldr	r2, [r5, r0]
 8001094:	2707      	movs	r7, #7
 8001096:	fa07 f70c 	lsl.w	r7, r7, ip
 800109a:	fa06 f60c 	lsl.w	r6, r6, ip
 800109e:	ea22 0207 	bic.w	r2, r2, r7
 80010a2:	4332      	orrs	r2, r6
 80010a4:	502a      	str	r2, [r5, r0]
 80010a6:	690e      	ldr	r6, [r1, #16]
 80010a8:	680a      	ldr	r2, [r1, #0]
 80010aa:	68e0      	ldr	r0, [r4, #12]
 80010ac:	2e04      	cmp	r6, #4
 80010ae:	4615      	mov	r5, r2
 80010b0:	f000 80b8 	beq.w	8001224 <HAL_ADC_ConfigChannel+0x2bc>
 80010b4:	f104 0760 	add.w	r7, r4, #96	@ 0x60
 80010b8:	4d8c      	ldr	r5, [pc, #560]	@ (80012ec <HAL_ADC_ConfigChannel+0x384>)
 80010ba:	f857 c026 	ldr.w	ip, [r7, r6, lsl #2]
 80010be:	f002 42f8 	and.w	r2, r2, #2080374784	@ 0x7c000000
 80010c2:	ea0c 0505 	and.w	r5, ip, r5
 80010c6:	4315      	orrs	r5, r2
 80010c8:	f3c0 00c1 	ubfx	r0, r0, #3, #2
 80010cc:	694a      	ldr	r2, [r1, #20]
 80010ce:	0040      	lsls	r0, r0, #1
 80010d0:	4082      	lsls	r2, r0
 80010d2:	432a      	orrs	r2, r5
 80010d4:	f042 4200 	orr.w	r2, r2, #2147483648	@ 0x80000000
 80010d8:	f847 2026 	str.w	r2, [r7, r6, lsl #2]
 80010dc:	680a      	ldr	r2, [r1, #0]
 80010de:	e77a      	b.n	8000fd6 <HAL_ADC_ConfigChannel+0x6e>
 80010e0:	2f00      	cmp	r7, #0
 80010e2:	f000 808e 	beq.w	8001202 <HAL_ADC_ConfigChannel+0x29a>
 80010e6:	fa92 f0a2 	rbit	r0, r2
 80010ea:	2800      	cmp	r0, #0
 80010ec:	f000 80c6 	beq.w	800127c <HAL_ADC_ConfigChannel+0x314>
 80010f0:	fab0 f080 	clz	r0, r0
 80010f4:	3001      	adds	r0, #1
 80010f6:	f000 001f 	and.w	r0, r0, #31
 80010fa:	2809      	cmp	r0, #9
 80010fc:	f240 80be 	bls.w	800127c <HAL_ADC_ConfigChannel+0x314>
 8001100:	fa92 f0a2 	rbit	r0, r2
 8001104:	2800      	cmp	r0, #0
 8001106:	f000 8177 	beq.w	80013f8 <HAL_ADC_ConfigChannel+0x490>
 800110a:	fab0 f080 	clz	r0, r0
 800110e:	3001      	adds	r0, #1
 8001110:	0680      	lsls	r0, r0, #26
 8001112:	f000 40f8 	and.w	r0, r0, #2080374784	@ 0x7c000000
 8001116:	fa92 f5a2 	rbit	r5, r2
 800111a:	2d00      	cmp	r5, #0
 800111c:	f000 816a 	beq.w	80013f4 <HAL_ADC_ConfigChannel+0x48c>
 8001120:	fab5 f585 	clz	r5, r5
 8001124:	3501      	adds	r5, #1
 8001126:	f005 051f 	and.w	r5, r5, #31
 800112a:	2601      	movs	r6, #1
 800112c:	fa06 f505 	lsl.w	r5, r6, r5
 8001130:	4328      	orrs	r0, r5
 8001132:	fa92 f2a2 	rbit	r2, r2
 8001136:	2a00      	cmp	r2, #0
 8001138:	f000 815a 	beq.w	80013f0 <HAL_ADC_ConfigChannel+0x488>
 800113c:	fab2 f282 	clz	r2, r2
 8001140:	3201      	adds	r2, #1
 8001142:	f002 021f 	and.w	r2, r2, #31
 8001146:	eb02 0242 	add.w	r2, r2, r2, lsl #1
 800114a:	3a1e      	subs	r2, #30
 800114c:	0512      	lsls	r2, r2, #20
 800114e:	f042 7200 	orr.w	r2, r2, #33554432	@ 0x2000000
 8001152:	4310      	orrs	r0, r2
 8001154:	0dc6      	lsrs	r6, r0, #23
 8001156:	688a      	ldr	r2, [r1, #8]
 8001158:	f006 0604 	and.w	r6, r6, #4
 800115c:	f104 0514 	add.w	r5, r4, #20
 8001160:	f3c0 5004 	ubfx	r0, r0, #20, #5
 8001164:	fa02 f700 	lsl.w	r7, r2, r0
 8001168:	f04f 0c07 	mov.w	ip, #7
 800116c:	59aa      	ldr	r2, [r5, r6]
 800116e:	fa0c f000 	lsl.w	r0, ip, r0
 8001172:	ea22 0200 	bic.w	r2, r2, r0
 8001176:	433a      	orrs	r2, r7
 8001178:	51aa      	str	r2, [r5, r6]
 800117a:	680a      	ldr	r2, [r1, #0]
 800117c:	e740      	b.n	8001000 <HAL_ADC_ConfigChannel+0x98>
 800117e:	0208      	lsls	r0, r1, #8
 8001180:	f53f af41 	bmi.w	8001006 <HAL_ADC_ConfigChannel+0x9e>
 8001184:	4a57      	ldr	r2, [pc, #348]	@ (80012e4 <HAL_ADC_ConfigChannel+0x37c>)
 8001186:	4294      	cmp	r4, r2
 8001188:	d004      	beq.n	8001194 <HAL_ADC_ConfigChannel+0x22c>
 800118a:	f502 7200 	add.w	r2, r2, #512	@ 0x200
 800118e:	4294      	cmp	r4, r2
 8001190:	f47f af39 	bne.w	8001006 <HAL_ADC_ConfigChannel+0x9e>
 8001194:	494f      	ldr	r1, [pc, #316]	@ (80012d4 <HAL_ADC_ConfigChannel+0x36c>)
 8001196:	4856      	ldr	r0, [pc, #344]	@ (80012f0 <HAL_ADC_ConfigChannel+0x388>)
 8001198:	688a      	ldr	r2, [r1, #8]
 800119a:	f022 72e0 	bic.w	r2, r2, #29360128	@ 0x1c00000
 800119e:	4332      	orrs	r2, r6
 80011a0:	f442 0200 	orr.w	r2, r2, #8388608	@ 0x800000
 80011a4:	608a      	str	r2, [r1, #8]
 80011a6:	6802      	ldr	r2, [r0, #0]
 80011a8:	4952      	ldr	r1, [pc, #328]	@ (80012f4 <HAL_ADC_ConfigChannel+0x38c>)
 80011aa:	0992      	lsrs	r2, r2, #6
 80011ac:	fba1 1202 	umull	r1, r2, r1, r2
 80011b0:	0992      	lsrs	r2, r2, #6
 80011b2:	3201      	adds	r2, #1
 80011b4:	eb02 0242 	add.w	r2, r2, r2, lsl #1
 80011b8:	0092      	lsls	r2, r2, #2
 80011ba:	9201      	str	r2, [sp, #4]
 80011bc:	9a01      	ldr	r2, [sp, #4]
 80011be:	2a00      	cmp	r2, #0
 80011c0:	f43f af21 	beq.w	8001006 <HAL_ADC_ConfigChannel+0x9e>
 80011c4:	9a01      	ldr	r2, [sp, #4]
 80011c6:	3a01      	subs	r2, #1
 80011c8:	9201      	str	r2, [sp, #4]
 80011ca:	9a01      	ldr	r2, [sp, #4]
 80011cc:	2a00      	cmp	r2, #0
 80011ce:	d1f9      	bne.n	80011c4 <HAL_ADC_ConfigChannel+0x25c>
 80011d0:	e719      	b.n	8001006 <HAL_ADC_ConfigChannel+0x9e>
 80011d2:	2002      	movs	r0, #2
 80011d4:	b002      	add	sp, #8
 80011d6:	e8bd 81f0 	ldmia.w	sp!, {r4, r5, r6, r7, r8, pc}
 80011da:	01c9      	lsls	r1, r1, #7
 80011dc:	f53f af13 	bmi.w	8001006 <HAL_ADC_ConfigChannel+0x9e>
 80011e0:	4a40      	ldr	r2, [pc, #256]	@ (80012e4 <HAL_ADC_ConfigChannel+0x37c>)
 80011e2:	4294      	cmp	r4, r2
 80011e4:	d004      	beq.n	80011f0 <HAL_ADC_ConfigChannel+0x288>
 80011e6:	f502 7200 	add.w	r2, r2, #512	@ 0x200
 80011ea:	4294      	cmp	r4, r2
 80011ec:	f47f af0b 	bne.w	8001006 <HAL_ADC_ConfigChannel+0x9e>
 80011f0:	4938      	ldr	r1, [pc, #224]	@ (80012d4 <HAL_ADC_ConfigChannel+0x36c>)
 80011f2:	688a      	ldr	r2, [r1, #8]
 80011f4:	f022 72e0 	bic.w	r2, r2, #29360128	@ 0x1c00000
 80011f8:	4332      	orrs	r2, r6
 80011fa:	f042 7280 	orr.w	r2, r2, #16777216	@ 0x1000000
 80011fe:	608a      	str	r2, [r1, #8]
 8001200:	e701      	b.n	8001006 <HAL_ADC_ConfigChannel+0x9e>
 8001202:	0e92      	lsrs	r2, r2, #26
 8001204:	3201      	adds	r2, #1
 8001206:	f002 051f 	and.w	r5, r2, #31
 800120a:	2001      	movs	r0, #1
 800120c:	0692      	lsls	r2, r2, #26
 800120e:	f002 42f8 	and.w	r2, r2, #2080374784	@ 0x7c000000
 8001212:	40a8      	lsls	r0, r5
 8001214:	2d09      	cmp	r5, #9
 8001216:	ea40 0002 	orr.w	r0, r0, r2
 800121a:	eb05 0245 	add.w	r2, r5, r5, lsl #1
 800121e:	d894      	bhi.n	800114a <HAL_ADC_ConfigChannel+0x1e2>
 8001220:	0512      	lsls	r2, r2, #20
 8001222:	e796      	b.n	8001152 <HAL_ADC_ConfigChannel+0x1ea>
 8001224:	6e20      	ldr	r0, [r4, #96]	@ 0x60
 8001226:	6e20      	ldr	r0, [r4, #96]	@ 0x60
 8001228:	f3c2 0612 	ubfx	r6, r2, #0, #19
 800122c:	f3c0 6084 	ubfx	r0, r0, #26, #5
 8001230:	2e00      	cmp	r6, #0
 8001232:	d161      	bne.n	80012f8 <HAL_ADC_ConfigChannel+0x390>
 8001234:	f3c2 6284 	ubfx	r2, r2, #26, #5
 8001238:	4290      	cmp	r0, r2
 800123a:	f000 80c4 	beq.w	80013c6 <HAL_ADC_ConfigChannel+0x45e>
 800123e:	6e60      	ldr	r0, [r4, #100]	@ 0x64
 8001240:	6e66      	ldr	r6, [r4, #100]	@ 0x64
 8001242:	f104 0060 	add.w	r0, r4, #96	@ 0x60
 8001246:	f3c6 6684 	ubfx	r6, r6, #26, #5
 800124a:	f104 0e64 	add.w	lr, r4, #100	@ 0x64
 800124e:	4296      	cmp	r6, r2
 8001250:	f000 8087 	beq.w	8001362 <HAL_ADC_ConfigChannel+0x3fa>
 8001254:	6886      	ldr	r6, [r0, #8]
 8001256:	6886      	ldr	r6, [r0, #8]
 8001258:	f100 0c08 	add.w	ip, r0, #8
 800125c:	f3c6 6684 	ubfx	r6, r6, #26, #5
 8001260:	4296      	cmp	r6, r2
 8001262:	f000 8094 	beq.w	800138e <HAL_ADC_ConfigChannel+0x426>
 8001266:	68c6      	ldr	r6, [r0, #12]
 8001268:	68c6      	ldr	r6, [r0, #12]
 800126a:	f100 070c 	add.w	r7, r0, #12
 800126e:	f3c6 6084 	ubfx	r0, r6, #26, #5
 8001272:	4282      	cmp	r2, r0
 8001274:	f000 80a1 	beq.w	80013ba <HAL_ADC_ConfigChannel+0x452>
 8001278:	462a      	mov	r2, r5
 800127a:	e6ac      	b.n	8000fd6 <HAL_ADC_ConfigChannel+0x6e>
 800127c:	fa92 f0a2 	rbit	r0, r2
 8001280:	2800      	cmp	r0, #0
 8001282:	f000 80c1 	beq.w	8001408 <HAL_ADC_ConfigChannel+0x4a0>
 8001286:	fab0 f080 	clz	r0, r0
 800128a:	3001      	adds	r0, #1
 800128c:	0680      	lsls	r0, r0, #26
 800128e:	f000 40f8 	and.w	r0, r0, #2080374784	@ 0x7c000000
 8001292:	fa92 f5a2 	rbit	r5, r2
 8001296:	2d00      	cmp	r5, #0
 8001298:	f000 80b4 	beq.w	8001404 <HAL_ADC_ConfigChannel+0x49c>
 800129c:	fab5 f585 	clz	r5, r5
 80012a0:	3501      	adds	r5, #1
 80012a2:	f005 051f 	and.w	r5, r5, #31
 80012a6:	2601      	movs	r6, #1
 80012a8:	fa06 f505 	lsl.w	r5, r6, r5
 80012ac:	4328      	orrs	r0, r5
 80012ae:	fa92 f2a2 	rbit	r2, r2
 80012b2:	2a00      	cmp	r2, #0
 80012b4:	f000 80a3 	beq.w	80013fe <HAL_ADC_ConfigChannel+0x496>
 80012b8:	fab2 f282 	clz	r2, r2
 80012bc:	3201      	adds	r2, #1
 80012be:	f002 021f 	and.w	r2, r2, #31
 80012c2:	eb02 0242 	add.w	r2, r2, r2, lsl #1
 80012c6:	e7ab      	b.n	8001220 <HAL_ADC_ConfigChannel+0x2b8>
 80012c8:	0007ffff 	.word	0x0007ffff
 80012cc:	407f0000 	.word	0x407f0000
 80012d0:	80080000 	.word	0x80080000
 80012d4:	50040300 	.word	0x50040300
 80012d8:	c7520000 	.word	0xc7520000
 80012dc:	cb840000 	.word	0xcb840000
 80012e0:	80000001 	.word	0x80000001
 80012e4:	50040000 	.word	0x50040000
 80012e8:	08003e78 	.word	0x08003e78
 80012ec:	03fff000 	.word	0x03fff000
 80012f0:	20000004 	.word	0x20000004
 80012f4:	053e2d63 	.word	0x053e2d63
 80012f8:	fa92 f6a2 	rbit	r6, r2
 80012fc:	b11e      	cbz	r6, 8001306 <HAL_ADC_ConfigChannel+0x39e>
 80012fe:	fab6 f686 	clz	r6, r6
 8001302:	42b0      	cmp	r0, r6
 8001304:	d05f      	beq.n	80013c6 <HAL_ADC_ConfigChannel+0x45e>
 8001306:	6e60      	ldr	r0, [r4, #100]	@ 0x64
 8001308:	6e66      	ldr	r6, [r4, #100]	@ 0x64
 800130a:	f104 0060 	add.w	r0, r4, #96	@ 0x60
 800130e:	f3c6 6684 	ubfx	r6, r6, #26, #5
 8001312:	f104 0e64 	add.w	lr, r4, #100	@ 0x64
 8001316:	fa95 f7a5 	rbit	r7, r5
 800131a:	f100 0c08 	add.w	ip, r0, #8
 800131e:	46e0      	mov	r8, ip
 8001320:	b11f      	cbz	r7, 800132a <HAL_ADC_ConfigChannel+0x3c2>
 8001322:	fab7 f787 	clz	r7, r7
 8001326:	42b7      	cmp	r7, r6
 8001328:	d01d      	beq.n	8001366 <HAL_ADC_ConfigChannel+0x3fe>
 800132a:	6886      	ldr	r6, [r0, #8]
 800132c:	6886      	ldr	r6, [r0, #8]
 800132e:	f3c6 6684 	ubfx	r6, r6, #26, #5
 8001332:	fa95 fea5 	rbit	lr, r5
 8001336:	f100 070c 	add.w	r7, r0, #12
 800133a:	46b8      	mov	r8, r7
 800133c:	f1be 0f00 	cmp.w	lr, #0
 8001340:	d003      	beq.n	800134a <HAL_ADC_ConfigChannel+0x3e2>
 8001342:	fabe fe8e 	clz	lr, lr
 8001346:	45b6      	cmp	lr, r6
 8001348:	d023      	beq.n	8001392 <HAL_ADC_ConfigChannel+0x42a>
 800134a:	68c6      	ldr	r6, [r0, #12]
 800134c:	68c0      	ldr	r0, [r0, #12]
 800134e:	f3c0 6084 	ubfx	r0, r0, #26, #5
 8001352:	fa95 f6a5 	rbit	r6, r5
 8001356:	2e00      	cmp	r6, #0
 8001358:	f43f ae3d 	beq.w	8000fd6 <HAL_ADC_ConfigChannel+0x6e>
 800135c:	fab6 f286 	clz	r2, r6
 8001360:	e787      	b.n	8001272 <HAL_ADC_ConfigChannel+0x30a>
 8001362:	f100 0808 	add.w	r8, r0, #8
 8001366:	f8de 2000 	ldr.w	r2, [lr]
 800136a:	f022 4200 	bic.w	r2, r2, #2147483648	@ 0x80000000
 800136e:	f8ce 2000 	str.w	r2, [lr]
 8001372:	680d      	ldr	r5, [r1, #0]
 8001374:	6882      	ldr	r2, [r0, #8]
 8001376:	6886      	ldr	r6, [r0, #8]
 8001378:	f3c5 0712 	ubfx	r7, r5, #0, #19
 800137c:	46c4      	mov	ip, r8
 800137e:	f3c6 6684 	ubfx	r6, r6, #26, #5
 8001382:	462a      	mov	r2, r5
 8001384:	2f00      	cmp	r7, #0
 8001386:	d1d4      	bne.n	8001332 <HAL_ADC_ConfigChannel+0x3ca>
 8001388:	f3c5 6284 	ubfx	r2, r5, #26, #5
 800138c:	e768      	b.n	8001260 <HAL_ADC_ConfigChannel+0x2f8>
 800138e:	f100 080c 	add.w	r8, r0, #12
 8001392:	f8dc 2000 	ldr.w	r2, [ip]
 8001396:	f022 4200 	bic.w	r2, r2, #2147483648	@ 0x80000000
 800139a:	f8cc 2000 	str.w	r2, [ip]
 800139e:	680d      	ldr	r5, [r1, #0]
 80013a0:	68c2      	ldr	r2, [r0, #12]
 80013a2:	68c0      	ldr	r0, [r0, #12]
 80013a4:	f3c5 0612 	ubfx	r6, r5, #0, #19
 80013a8:	4647      	mov	r7, r8
 80013aa:	f3c0 6084 	ubfx	r0, r0, #26, #5
 80013ae:	462a      	mov	r2, r5
 80013b0:	2e00      	cmp	r6, #0
 80013b2:	d1ce      	bne.n	8001352 <HAL_ADC_ConfigChannel+0x3ea>
 80013b4:	f3c5 6284 	ubfx	r2, r5, #26, #5
 80013b8:	e75b      	b.n	8001272 <HAL_ADC_ConfigChannel+0x30a>
 80013ba:	683a      	ldr	r2, [r7, #0]
 80013bc:	f022 4200 	bic.w	r2, r2, #2147483648	@ 0x80000000
 80013c0:	603a      	str	r2, [r7, #0]
 80013c2:	680a      	ldr	r2, [r1, #0]
 80013c4:	e607      	b.n	8000fd6 <HAL_ADC_ConfigChannel+0x6e>
 80013c6:	6e22      	ldr	r2, [r4, #96]	@ 0x60
 80013c8:	4620      	mov	r0, r4
 80013ca:	f022 4200 	bic.w	r2, r2, #2147483648	@ 0x80000000
 80013ce:	f840 2f60 	str.w	r2, [r0, #96]!
 80013d2:	680d      	ldr	r5, [r1, #0]
 80013d4:	6e62      	ldr	r2, [r4, #100]	@ 0x64
 80013d6:	6e66      	ldr	r6, [r4, #100]	@ 0x64
 80013d8:	f3c5 0712 	ubfx	r7, r5, #0, #19
 80013dc:	f104 0e64 	add.w	lr, r4, #100	@ 0x64
 80013e0:	f3c6 6684 	ubfx	r6, r6, #26, #5
 80013e4:	462a      	mov	r2, r5
 80013e6:	2f00      	cmp	r7, #0
 80013e8:	d195      	bne.n	8001316 <HAL_ADC_ConfigChannel+0x3ae>
 80013ea:	f3c5 6284 	ubfx	r2, r5, #26, #5
 80013ee:	e72e      	b.n	800124e <HAL_ADC_ConfigChannel+0x2e6>
 80013f0:	4a07      	ldr	r2, [pc, #28]	@ (8001410 <HAL_ADC_ConfigChannel+0x4a8>)
 80013f2:	e6ae      	b.n	8001152 <HAL_ADC_ConfigChannel+0x1ea>
 80013f4:	2502      	movs	r5, #2
 80013f6:	e69b      	b.n	8001130 <HAL_ADC_ConfigChannel+0x1c8>
 80013f8:	f04f 6080 	mov.w	r0, #67108864	@ 0x4000000
 80013fc:	e68b      	b.n	8001116 <HAL_ADC_ConfigChannel+0x1ae>
 80013fe:	f44f 1240 	mov.w	r2, #3145728	@ 0x300000
 8001402:	e6a6      	b.n	8001152 <HAL_ADC_ConfigChannel+0x1ea>
 8001404:	2502      	movs	r5, #2
 8001406:	e751      	b.n	80012ac <HAL_ADC_ConfigChannel+0x344>
 8001408:	f04f 6080 	mov.w	r0, #67108864	@ 0x4000000
 800140c:	e741      	b.n	8001292 <HAL_ADC_ConfigChannel+0x32a>
 800140e:	bf00      	nop
 8001410:	fe500000 	.word	0xfe500000

08001414 <ADC_ConversionStop>:
 8001414:	6803      	ldr	r3, [r0, #0]
 8001416:	689a      	ldr	r2, [r3, #8]
 8001418:	f012 0f04 	tst.w	r2, #4
 800141c:	b570      	push	{r4, r5, r6, lr}
 800141e:	689a      	ldr	r2, [r3, #8]
 8001420:	4604      	mov	r4, r0
 8001422:	d101      	bne.n	8001428 <ADC_ConversionStop+0x14>
 8001424:	0716      	lsls	r6, r2, #28
 8001426:	d53c      	bpl.n	80014a2 <ADC_ConversionStop+0x8e>
 8001428:	68da      	ldr	r2, [r3, #12]
 800142a:	0195      	lsls	r5, r2, #6
 800142c:	d504      	bpl.n	8001438 <ADC_ConversionStop+0x24>
 800142e:	8b20      	ldrh	r0, [r4, #24]
 8001430:	f240 1201 	movw	r2, #257	@ 0x101
 8001434:	4290      	cmp	r0, r2
 8001436:	d045      	beq.n	80014c4 <ADC_ConversionStop+0xb0>
 8001438:	2902      	cmp	r1, #2
 800143a:	689a      	ldr	r2, [r3, #8]
 800143c:	d033      	beq.n	80014a6 <ADC_ConversionStop+0x92>
 800143e:	0750      	lsls	r0, r2, #29
 8001440:	d502      	bpl.n	8001448 <ADC_ConversionStop+0x34>
 8001442:	689a      	ldr	r2, [r3, #8]
 8001444:	0792      	lsls	r2, r2, #30
 8001446:	d559      	bpl.n	80014fc <ADC_ConversionStop+0xe8>
 8001448:	2901      	cmp	r1, #1
 800144a:	d055      	beq.n	80014f8 <ADC_ConversionStop+0xe4>
 800144c:	689a      	ldr	r2, [r3, #8]
 800144e:	0710      	lsls	r0, r2, #28
 8001450:	d50a      	bpl.n	8001468 <ADC_ConversionStop+0x54>
 8001452:	689a      	ldr	r2, [r3, #8]
 8001454:	0792      	lsls	r2, r2, #30
 8001456:	d407      	bmi.n	8001468 <ADC_ConversionStop+0x54>
 8001458:	689a      	ldr	r2, [r3, #8]
 800145a:	f022 4200 	bic.w	r2, r2, #2147483648	@ 0x80000000
 800145e:	f022 023f 	bic.w	r2, r2, #63	@ 0x3f
 8001462:	f042 0220 	orr.w	r2, r2, #32
 8001466:	609a      	str	r2, [r3, #8]
 8001468:	2903      	cmp	r1, #3
 800146a:	d145      	bne.n	80014f8 <ADC_ConversionStop+0xe4>
 800146c:	250c      	movs	r5, #12
 800146e:	f7ff fbfb 	bl	8000c68 <HAL_GetTick>
 8001472:	6823      	ldr	r3, [r4, #0]
 8001474:	4606      	mov	r6, r0
 8001476:	689b      	ldr	r3, [r3, #8]
 8001478:	421d      	tst	r5, r3
 800147a:	d012      	beq.n	80014a2 <ADC_ConversionStop+0x8e>
 800147c:	f7ff fbf4 	bl	8000c68 <HAL_GetTick>
 8001480:	1b80      	subs	r0, r0, r6
 8001482:	2805      	cmp	r0, #5
 8001484:	6823      	ldr	r3, [r4, #0]
 8001486:	d9f6      	bls.n	8001476 <ADC_ConversionStop+0x62>
 8001488:	689a      	ldr	r2, [r3, #8]
 800148a:	422a      	tst	r2, r5
 800148c:	d0f3      	beq.n	8001476 <ADC_ConversionStop+0x62>
 800148e:	6d63      	ldr	r3, [r4, #84]	@ 0x54
 8001490:	f043 0310 	orr.w	r3, r3, #16
 8001494:	6563      	str	r3, [r4, #84]	@ 0x54
 8001496:	6da3      	ldr	r3, [r4, #88]	@ 0x58
 8001498:	f043 0301 	orr.w	r3, r3, #1
 800149c:	65a3      	str	r3, [r4, #88]	@ 0x58
 800149e:	2001      	movs	r0, #1
 80014a0:	bd70      	pop	{r4, r5, r6, pc}
 80014a2:	2000      	movs	r0, #0
 80014a4:	bd70      	pop	{r4, r5, r6, pc}
 80014a6:	0716      	lsls	r6, r2, #28
 80014a8:	d50a      	bpl.n	80014c0 <ADC_ConversionStop+0xac>
 80014aa:	689a      	ldr	r2, [r3, #8]
 80014ac:	0795      	lsls	r5, r2, #30
 80014ae:	d407      	bmi.n	80014c0 <ADC_ConversionStop+0xac>
 80014b0:	689a      	ldr	r2, [r3, #8]
 80014b2:	f022 4200 	bic.w	r2, r2, #2147483648	@ 0x80000000
 80014b6:	f022 023f 	bic.w	r2, r2, #63	@ 0x3f
 80014ba:	f042 0220 	orr.w	r2, r2, #32
 80014be:	609a      	str	r2, [r3, #8]
 80014c0:	2508      	movs	r5, #8
 80014c2:	e7d4      	b.n	800146e <ADC_ConversionStop+0x5a>
 80014c4:	681a      	ldr	r2, [r3, #0]
 80014c6:	0650      	lsls	r0, r2, #25
 80014c8:	d406      	bmi.n	80014d8 <ADC_ConversionStop+0xc4>
 80014ca:	4a11      	ldr	r2, [pc, #68]	@ (8001510 <ADC_ConversionStop+0xfc>)
 80014cc:	e001      	b.n	80014d2 <ADC_ConversionStop+0xbe>
 80014ce:	3a01      	subs	r2, #1
 80014d0:	d0dd      	beq.n	800148e <ADC_ConversionStop+0x7a>
 80014d2:	6819      	ldr	r1, [r3, #0]
 80014d4:	0649      	lsls	r1, r1, #25
 80014d6:	d5fa      	bpl.n	80014ce <ADC_ConversionStop+0xba>
 80014d8:	2240      	movs	r2, #64	@ 0x40
 80014da:	601a      	str	r2, [r3, #0]
 80014dc:	689a      	ldr	r2, [r3, #8]
 80014de:	0756      	lsls	r6, r2, #29
 80014e0:	d50a      	bpl.n	80014f8 <ADC_ConversionStop+0xe4>
 80014e2:	689a      	ldr	r2, [r3, #8]
 80014e4:	0795      	lsls	r5, r2, #30
 80014e6:	d407      	bmi.n	80014f8 <ADC_ConversionStop+0xe4>
 80014e8:	689a      	ldr	r2, [r3, #8]
 80014ea:	f022 4200 	bic.w	r2, r2, #2147483648	@ 0x80000000
 80014ee:	f022 023f 	bic.w	r2, r2, #63	@ 0x3f
 80014f2:	f042 0210 	orr.w	r2, r2, #16
 80014f6:	609a      	str	r2, [r3, #8]
 80014f8:	2504      	movs	r5, #4
 80014fa:	e7b8      	b.n	800146e <ADC_ConversionStop+0x5a>
 80014fc:	689a      	ldr	r2, [r3, #8]
 80014fe:	f022 4200 	bic.w	r2, r2, #2147483648	@ 0x80000000
 8001502:	f022 023f 	bic.w	r2, r2, #63	@ 0x3f
 8001506:	f042 0210 	orr.w	r2, r2, #16
 800150a:	609a      	str	r2, [r3, #8]
 800150c:	e79c      	b.n	8001448 <ADC_ConversionStop+0x34>
 800150e:	bf00      	nop
 8001510:	a3400000 	.word	0xa3400000

08001514 <ADC_Enable>:
 8001514:	b570      	push	{r4, r5, r6, lr}
 8001516:	b082      	sub	sp, #8
 8001518:	2200      	movs	r2, #0
 800151a:	6803      	ldr	r3, [r0, #0]
 800151c:	9201      	str	r2, [sp, #4]
 800151e:	689a      	ldr	r2, [r3, #8]
 8001520:	07d2      	lsls	r2, r2, #31
 8001522:	d42c      	bmi.n	800157e <ADC_Enable+0x6a>
 8001524:	6899      	ldr	r1, [r3, #8]
 8001526:	4a28      	ldr	r2, [pc, #160]	@ (80015c8 <ADC_Enable+0xb4>)
 8001528:	4211      	tst	r1, r2
 800152a:	4605      	mov	r5, r0
 800152c:	d12a      	bne.n	8001584 <ADC_Enable+0x70>
 800152e:	689a      	ldr	r2, [r3, #8]
 8001530:	4926      	ldr	r1, [pc, #152]	@ (80015cc <ADC_Enable+0xb8>)
 8001532:	f022 4200 	bic.w	r2, r2, #2147483648	@ 0x80000000
 8001536:	f022 023f 	bic.w	r2, r2, #63	@ 0x3f
 800153a:	f042 0201 	orr.w	r2, r2, #1
 800153e:	609a      	str	r2, [r3, #8]
 8001540:	688b      	ldr	r3, [r1, #8]
 8001542:	021e      	lsls	r6, r3, #8
 8001544:	d429      	bmi.n	800159a <ADC_Enable+0x86>
 8001546:	f7ff fb8f 	bl	8000c68 <HAL_GetTick>
 800154a:	682b      	ldr	r3, [r5, #0]
 800154c:	681a      	ldr	r2, [r3, #0]
 800154e:	07d4      	lsls	r4, r2, #31
 8001550:	4606      	mov	r6, r0
 8001552:	d414      	bmi.n	800157e <ADC_Enable+0x6a>
 8001554:	4c1e      	ldr	r4, [pc, #120]	@ (80015d0 <ADC_Enable+0xbc>)
 8001556:	689a      	ldr	r2, [r3, #8]
 8001558:	07d0      	lsls	r0, r2, #31
 800155a:	d404      	bmi.n	8001566 <ADC_Enable+0x52>
 800155c:	689a      	ldr	r2, [r3, #8]
 800155e:	4022      	ands	r2, r4
 8001560:	f042 0201 	orr.w	r2, r2, #1
 8001564:	609a      	str	r2, [r3, #8]
 8001566:	f7ff fb7f 	bl	8000c68 <HAL_GetTick>
 800156a:	1b82      	subs	r2, r0, r6
 800156c:	2a02      	cmp	r2, #2
 800156e:	682b      	ldr	r3, [r5, #0]
 8001570:	d902      	bls.n	8001578 <ADC_Enable+0x64>
 8001572:	681a      	ldr	r2, [r3, #0]
 8001574:	07d1      	lsls	r1, r2, #31
 8001576:	d505      	bpl.n	8001584 <ADC_Enable+0x70>
 8001578:	681a      	ldr	r2, [r3, #0]
 800157a:	07d2      	lsls	r2, r2, #31
 800157c:	d5eb      	bpl.n	8001556 <ADC_Enable+0x42>
 800157e:	2000      	movs	r0, #0
 8001580:	b002      	add	sp, #8
 8001582:	bd70      	pop	{r4, r5, r6, pc}
 8001584:	6d6b      	ldr	r3, [r5, #84]	@ 0x54
 8001586:	f043 0310 	orr.w	r3, r3, #16
 800158a:	656b      	str	r3, [r5, #84]	@ 0x54
 800158c:	6dab      	ldr	r3, [r5, #88]	@ 0x58
 800158e:	2001      	movs	r0, #1
 8001590:	f043 0301 	orr.w	r3, r3, #1
 8001594:	65ab      	str	r3, [r5, #88]	@ 0x58
 8001596:	b002      	add	sp, #8
 8001598:	bd70      	pop	{r4, r5, r6, pc}
 800159a:	4b0e      	ldr	r3, [pc, #56]	@ (80015d4 <ADC_Enable+0xc0>)
 800159c:	4a0e      	ldr	r2, [pc, #56]	@ (80015d8 <ADC_Enable+0xc4>)
 800159e:	681b      	ldr	r3, [r3, #0]
 80015a0:	099b      	lsrs	r3, r3, #6
 80015a2:	fba2 2303 	umull	r2, r3, r2, r3
 80015a6:	099b      	lsrs	r3, r3, #6
 80015a8:	3301      	adds	r3, #1
 80015aa:	eb03 0343 	add.w	r3, r3, r3, lsl #1
 80015ae:	009b      	lsls	r3, r3, #2
 80015b0:	9301      	str	r3, [sp, #4]
 80015b2:	9b01      	ldr	r3, [sp, #4]
 80015b4:	2b00      	cmp	r3, #0
 80015b6:	d0c6      	beq.n	8001546 <ADC_Enable+0x32>
 80015b8:	9b01      	ldr	r3, [sp, #4]
 80015ba:	3b01      	subs	r3, #1
 80015bc:	9301      	str	r3, [sp, #4]
 80015be:	9b01      	ldr	r3, [sp, #4]
 80015c0:	2b00      	cmp	r3, #0
 80015c2:	d1f9      	bne.n	80015b8 <ADC_Enable+0xa4>
 80015c4:	e7bf      	b.n	8001546 <ADC_Enable+0x32>
 80015c6:	bf00      	nop
 80015c8:	8000003f 	.word	0x8000003f
 80015cc:	50040300 	.word	0x50040300
 80015d0:	7fffffc0 	.word	0x7fffffc0
 80015d4:	20000004 	.word	0x20000004
 80015d8:	053e2d63 	.word	0x053e2d63

080015dc <HAL_ADC_Start>:
 80015dc:	4a32      	ldr	r2, [pc, #200]	@ (80016a8 <HAL_ADC_Start+0xcc>)
 80015de:	6803      	ldr	r3, [r0, #0]
 80015e0:	b570      	push	{r4, r5, r6, lr}
 80015e2:	6896      	ldr	r6, [r2, #8]
 80015e4:	689d      	ldr	r5, [r3, #8]
 80015e6:	f015 0504 	ands.w	r5, r5, #4
 80015ea:	d141      	bne.n	8001670 <HAL_ADC_Start+0x94>
 80015ec:	f890 3050 	ldrb.w	r3, [r0, #80]	@ 0x50
 80015f0:	2b01      	cmp	r3, #1
 80015f2:	4604      	mov	r4, r0
 80015f4:	d03c      	beq.n	8001670 <HAL_ADC_Start+0x94>
 80015f6:	2301      	movs	r3, #1
 80015f8:	f880 3050 	strb.w	r3, [r0, #80]	@ 0x50
 80015fc:	f7ff ff8a 	bl	8001514 <ADC_Enable>
 8001600:	2800      	cmp	r0, #0
 8001602:	d137      	bne.n	8001674 <HAL_ADC_Start+0x98>
 8001604:	6d63      	ldr	r3, [r4, #84]	@ 0x54
 8001606:	6822      	ldr	r2, [r4, #0]
 8001608:	f423 6370 	bic.w	r3, r3, #3840	@ 0xf00
 800160c:	f023 0301 	bic.w	r3, r3, #1
 8001610:	f443 7380 	orr.w	r3, r3, #256	@ 0x100
 8001614:	6563      	str	r3, [r4, #84]	@ 0x54
 8001616:	4b25      	ldr	r3, [pc, #148]	@ (80016ac <HAL_ADC_Start+0xd0>)
 8001618:	429a      	cmp	r2, r3
 800161a:	f006 061f 	and.w	r6, r6, #31
 800161e:	d02c      	beq.n	800167a <HAL_ADC_Start+0x9e>
 8001620:	4611      	mov	r1, r2
 8001622:	6d63      	ldr	r3, [r4, #84]	@ 0x54
 8001624:	f423 1380 	bic.w	r3, r3, #1048576	@ 0x100000
 8001628:	6563      	str	r3, [r4, #84]	@ 0x54
 800162a:	6d63      	ldr	r3, [r4, #84]	@ 0x54
 800162c:	f413 5380 	ands.w	r3, r3, #4096	@ 0x1000
 8001630:	bf1c      	itt	ne
 8001632:	6da3      	ldrne	r3, [r4, #88]	@ 0x58
 8001634:	f023 0306 	bicne.w	r3, r3, #6
 8001638:	65a3      	str	r3, [r4, #88]	@ 0x58
 800163a:	231c      	movs	r3, #28
 800163c:	6013      	str	r3, [r2, #0]
 800163e:	428a      	cmp	r2, r1
 8001640:	f04f 0300 	mov.w	r3, #0
 8001644:	f884 3050 	strb.w	r3, [r4, #80]	@ 0x50
 8001648:	d01b      	beq.n	8001682 <HAL_ADC_Start+0xa6>
 800164a:	f240 2321 	movw	r3, #545	@ 0x221
 800164e:	40f3      	lsrs	r3, r6
 8001650:	07dd      	lsls	r5, r3, #31
 8001652:	d416      	bmi.n	8001682 <HAL_ADC_Start+0xa6>
 8001654:	6d63      	ldr	r3, [r4, #84]	@ 0x54
 8001656:	f443 1380 	orr.w	r3, r3, #1048576	@ 0x100000
 800165a:	6563      	str	r3, [r4, #84]	@ 0x54
 800165c:	68cb      	ldr	r3, [r1, #12]
 800165e:	019b      	lsls	r3, r3, #6
 8001660:	d505      	bpl.n	800166e <HAL_ADC_Start+0x92>
 8001662:	6d63      	ldr	r3, [r4, #84]	@ 0x54
 8001664:	f423 5340 	bic.w	r3, r3, #12288	@ 0x3000
 8001668:	f443 5380 	orr.w	r3, r3, #4096	@ 0x1000
 800166c:	6563      	str	r3, [r4, #84]	@ 0x54
 800166e:	bd70      	pop	{r4, r5, r6, pc}
 8001670:	2002      	movs	r0, #2
 8001672:	bd70      	pop	{r4, r5, r6, pc}
 8001674:	f884 5050 	strb.w	r5, [r4, #80]	@ 0x50
 8001678:	bd70      	pop	{r4, r5, r6, pc}
 800167a:	490d      	ldr	r1, [pc, #52]	@ (80016b0 <HAL_ADC_Start+0xd4>)
 800167c:	2e00      	cmp	r6, #0
 800167e:	d1d4      	bne.n	800162a <HAL_ADC_Start+0x4e>
 8001680:	e7cf      	b.n	8001622 <HAL_ADC_Start+0x46>
 8001682:	68d3      	ldr	r3, [r2, #12]
 8001684:	0199      	lsls	r1, r3, #6
 8001686:	d505      	bpl.n	8001694 <HAL_ADC_Start+0xb8>
 8001688:	6d63      	ldr	r3, [r4, #84]	@ 0x54
 800168a:	f423 5340 	bic.w	r3, r3, #12288	@ 0x3000
 800168e:	f443 5380 	orr.w	r3, r3, #4096	@ 0x1000
 8001692:	6563      	str	r3, [r4, #84]	@ 0x54
 8001694:	6893      	ldr	r3, [r2, #8]
 8001696:	f023 4300 	bic.w	r3, r3, #2147483648	@ 0x80000000
 800169a:	f023 033f 	bic.w	r3, r3, #63	@ 0x3f
 800169e:	f043 0304 	orr.w	r3, r3, #4
 80016a2:	6093      	str	r3, [r2, #8]
 80016a4:	bd70      	pop	{r4, r5, r6, pc}
 80016a6:	bf00      	nop
 80016a8:	50040300 	.word	0x50040300
 80016ac:	50040100 	.word	0x50040100
 80016b0:	50040000 	.word	0x50040000

080016b4 <ADC_Disable>:
 80016b4:	b538      	push	{r3, r4, r5, lr}
 80016b6:	6803      	ldr	r3, [r0, #0]
 80016b8:	689a      	ldr	r2, [r3, #8]
 80016ba:	0795      	lsls	r5, r2, #30
 80016bc:	d502      	bpl.n	80016c4 <ADC_Disable+0x10>
 80016be:	689b      	ldr	r3, [r3, #8]
 80016c0:	2000      	movs	r0, #0
 80016c2:	bd38      	pop	{r3, r4, r5, pc}
 80016c4:	689a      	ldr	r2, [r3, #8]
 80016c6:	07d4      	lsls	r4, r2, #31
 80016c8:	d5fa      	bpl.n	80016c0 <ADC_Disable+0xc>
 80016ca:	689a      	ldr	r2, [r3, #8]
 80016cc:	f002 020d 	and.w	r2, r2, #13
 80016d0:	2a01      	cmp	r2, #1
 80016d2:	4604      	mov	r4, r0
 80016d4:	d009      	beq.n	80016ea <ADC_Disable+0x36>
 80016d6:	6d63      	ldr	r3, [r4, #84]	@ 0x54
 80016d8:	f043 0310 	orr.w	r3, r3, #16
 80016dc:	6563      	str	r3, [r4, #84]	@ 0x54
 80016de:	6da3      	ldr	r3, [r4, #88]	@ 0x58
 80016e0:	f043 0301 	orr.w	r3, r3, #1
 80016e4:	65a3      	str	r3, [r4, #88]	@ 0x58
 80016e6:	2001      	movs	r0, #1
 80016e8:	bd38      	pop	{r3, r4, r5, pc}
 80016ea:	689a      	ldr	r2, [r3, #8]
 80016ec:	f022 4200 	bic.w	r2, r2, #2147483648	@ 0x80000000
 80016f0:	f022 023f 	bic.w	r2, r2, #63	@ 0x3f
 80016f4:	2103      	movs	r1, #3
 80016f6:	f042 0202 	orr.w	r2, r2, #2
 80016fa:	609a      	str	r2, [r3, #8]
 80016fc:	6019      	str	r1, [r3, #0]
 80016fe:	f7ff fab3 	bl	8000c68 <HAL_GetTick>
 8001702:	6823      	ldr	r3, [r4, #0]
 8001704:	689b      	ldr	r3, [r3, #8]
 8001706:	07d9      	lsls	r1, r3, #31
 8001708:	4605      	mov	r5, r0
 800170a:	d403      	bmi.n	8001714 <ADC_Disable+0x60>
 800170c:	e7d8      	b.n	80016c0 <ADC_Disable+0xc>
 800170e:	689b      	ldr	r3, [r3, #8]
 8001710:	07db      	lsls	r3, r3, #31
 8001712:	d5d5      	bpl.n	80016c0 <ADC_Disable+0xc>
 8001714:	f7ff faa8 	bl	8000c68 <HAL_GetTick>
 8001718:	1b40      	subs	r0, r0, r5
 800171a:	2802      	cmp	r0, #2
 800171c:	6823      	ldr	r3, [r4, #0]
 800171e:	d9f6      	bls.n	800170e <ADC_Disable+0x5a>
 8001720:	689a      	ldr	r2, [r3, #8]
 8001722:	07d2      	lsls	r2, r2, #31
 8001724:	d5f3      	bpl.n	800170e <ADC_Disable+0x5a>
 8001726:	e7d6      	b.n	80016d6 <ADC_Disable+0x22>

08001728 <HAL_ADC_Stop>:
 8001728:	f890 3050 	ldrb.w	r3, [r0, #80]	@ 0x50
 800172c:	2b01      	cmp	r3, #1
 800172e:	d01e      	beq.n	800176e <HAL_ADC_Stop+0x46>
 8001730:	2301      	movs	r3, #1
 8001732:	b510      	push	{r4, lr}
 8001734:	2103      	movs	r1, #3
 8001736:	f880 3050 	strb.w	r3, [r0, #80]	@ 0x50
 800173a:	4604      	mov	r4, r0
 800173c:	f7ff fe6a 	bl	8001414 <ADC_ConversionStop>
 8001740:	b120      	cbz	r0, 800174c <HAL_ADC_Stop+0x24>
 8001742:	2300      	movs	r3, #0
 8001744:	f884 3050 	strb.w	r3, [r4, #80]	@ 0x50
 8001748:	2001      	movs	r0, #1
 800174a:	bd10      	pop	{r4, pc}
 800174c:	4620      	mov	r0, r4
 800174e:	f7ff ffb1 	bl	80016b4 <ADC_Disable>
 8001752:	2800      	cmp	r0, #0
 8001754:	d1f5      	bne.n	8001742 <HAL_ADC_Stop+0x1a>
 8001756:	6d63      	ldr	r3, [r4, #84]	@ 0x54
 8001758:	f423 5388 	bic.w	r3, r3, #4352	@ 0x1100
 800175c:	f023 0301 	bic.w	r3, r3, #1
 8001760:	f043 0301 	orr.w	r3, r3, #1
 8001764:	6563      	str	r3, [r4, #84]	@ 0x54
 8001766:	2300      	movs	r3, #0
 8001768:	f884 3050 	strb.w	r3, [r4, #80]	@ 0x50
 800176c:	bd10      	pop	{r4, pc}
 800176e:	2002      	movs	r0, #2
 8001770:	4770      	bx	lr
 8001772:	bf00      	nop

08001774 <HAL_ADCEx_MultiModeConfigChannel>:
 8001774:	f890 2050 	ldrb.w	r2, [r0, #80]	@ 0x50
 8001778:	2a01      	cmp	r2, #1
 800177a:	d04a      	beq.n	8001812 <HAL_ADCEx_MultiModeConfigChannel+0x9e>
 800177c:	b4f0      	push	{r4, r5, r6, r7}
 800177e:	6804      	ldr	r4, [r0, #0]
 8001780:	4d30      	ldr	r5, [pc, #192]	@ (8001844 <HAL_ADCEx_MultiModeConfigChannel+0xd0>)
 8001782:	b09a      	sub	sp, #104	@ 0x68
 8001784:	4603      	mov	r3, r0
 8001786:	2200      	movs	r2, #0
 8001788:	2001      	movs	r0, #1
 800178a:	42ac      	cmp	r4, r5
 800178c:	9216      	str	r2, [sp, #88]	@ 0x58
 800178e:	f883 0050 	strb.w	r0, [r3, #80]	@ 0x50
 8001792:	9217      	str	r2, [sp, #92]	@ 0x5c
 8001794:	d008      	beq.n	80017a8 <HAL_ADCEx_MultiModeConfigChannel+0x34>
 8001796:	6d59      	ldr	r1, [r3, #84]	@ 0x54
 8001798:	f883 2050 	strb.w	r2, [r3, #80]	@ 0x50
 800179c:	f041 0120 	orr.w	r1, r1, #32
 80017a0:	6559      	str	r1, [r3, #84]	@ 0x54
 80017a2:	b01a      	add	sp, #104	@ 0x68
 80017a4:	bcf0      	pop	{r4, r5, r6, r7}
 80017a6:	4770      	bx	lr
 80017a8:	4a27      	ldr	r2, [pc, #156]	@ (8001848 <HAL_ADCEx_MultiModeConfigChannel+0xd4>)
 80017aa:	6890      	ldr	r0, [r2, #8]
 80017ac:	0740      	lsls	r0, r0, #29
 80017ae:	d50b      	bpl.n	80017c8 <HAL_ADCEx_MultiModeConfigChannel+0x54>
 80017b0:	68a2      	ldr	r2, [r4, #8]
 80017b2:	6d5a      	ldr	r2, [r3, #84]	@ 0x54
 80017b4:	f042 0220 	orr.w	r2, r2, #32
 80017b8:	2001      	movs	r0, #1
 80017ba:	655a      	str	r2, [r3, #84]	@ 0x54
 80017bc:	2200      	movs	r2, #0
 80017be:	f883 2050 	strb.w	r2, [r3, #80]	@ 0x50
 80017c2:	b01a      	add	sp, #104	@ 0x68
 80017c4:	bcf0      	pop	{r4, r5, r6, r7}
 80017c6:	4770      	bx	lr
 80017c8:	68a0      	ldr	r0, [r4, #8]
 80017ca:	0740      	lsls	r0, r0, #29
 80017cc:	d4f1      	bmi.n	80017b2 <HAL_ADCEx_MultiModeConfigChannel+0x3e>
 80017ce:	680d      	ldr	r5, [r1, #0]
 80017d0:	b30d      	cbz	r5, 8001816 <HAL_ADCEx_MultiModeConfigChannel+0xa2>
 80017d2:	4e1e      	ldr	r6, [pc, #120]	@ (800184c <HAL_ADCEx_MultiModeConfigChannel+0xd8>)
 80017d4:	684f      	ldr	r7, [r1, #4]
 80017d6:	68b0      	ldr	r0, [r6, #8]
 80017d8:	f893 c030 	ldrb.w	ip, [r3, #48]	@ 0x30
 80017dc:	f420 4060 	bic.w	r0, r0, #57344	@ 0xe000
 80017e0:	4338      	orrs	r0, r7
 80017e2:	ea40 304c 	orr.w	r0, r0, ip, lsl #13
 80017e6:	60b0      	str	r0, [r6, #8]
 80017e8:	68a0      	ldr	r0, [r4, #8]
 80017ea:	6892      	ldr	r2, [r2, #8]
 80017ec:	f012 0f01 	tst.w	r2, #1
 80017f0:	4a17      	ldr	r2, [pc, #92]	@ (8001850 <HAL_ADCEx_MultiModeConfigChannel+0xdc>)
 80017f2:	6892      	ldr	r2, [r2, #8]
 80017f4:	d10b      	bne.n	800180e <HAL_ADCEx_MultiModeConfigChannel+0x9a>
 80017f6:	4302      	orrs	r2, r0
 80017f8:	07d7      	lsls	r7, r2, #31
 80017fa:	d408      	bmi.n	800180e <HAL_ADCEx_MultiModeConfigChannel+0x9a>
 80017fc:	68b2      	ldr	r2, [r6, #8]
 80017fe:	6889      	ldr	r1, [r1, #8]
 8001800:	f422 6271 	bic.w	r2, r2, #3856	@ 0xf10
 8001804:	430d      	orrs	r5, r1
 8001806:	f022 020f 	bic.w	r2, r2, #15
 800180a:	4315      	orrs	r5, r2
 800180c:	60b5      	str	r5, [r6, #8]
 800180e:	2000      	movs	r0, #0
 8001810:	e7d4      	b.n	80017bc <HAL_ADCEx_MultiModeConfigChannel+0x48>
 8001812:	2002      	movs	r0, #2
 8001814:	4770      	bx	lr
 8001816:	480d      	ldr	r0, [pc, #52]	@ (800184c <HAL_ADCEx_MultiModeConfigChannel+0xd8>)
 8001818:	6881      	ldr	r1, [r0, #8]
 800181a:	f421 4160 	bic.w	r1, r1, #57344	@ 0xe000
 800181e:	6081      	str	r1, [r0, #8]
 8001820:	68a1      	ldr	r1, [r4, #8]
 8001822:	6892      	ldr	r2, [r2, #8]
 8001824:	f012 0f01 	tst.w	r2, #1
 8001828:	4a09      	ldr	r2, [pc, #36]	@ (8001850 <HAL_ADCEx_MultiModeConfigChannel+0xdc>)
 800182a:	6892      	ldr	r2, [r2, #8]
 800182c:	d1ef      	bne.n	800180e <HAL_ADCEx_MultiModeConfigChannel+0x9a>
 800182e:	430a      	orrs	r2, r1
 8001830:	07d4      	lsls	r4, r2, #31
 8001832:	d4ec      	bmi.n	800180e <HAL_ADCEx_MultiModeConfigChannel+0x9a>
 8001834:	6882      	ldr	r2, [r0, #8]
 8001836:	f422 6271 	bic.w	r2, r2, #3856	@ 0xf10
 800183a:	f022 020f 	bic.w	r2, r2, #15
 800183e:	6082      	str	r2, [r0, #8]
 8001840:	e7e5      	b.n	800180e <HAL_ADCEx_MultiModeConfigChannel+0x9a>
 8001842:	bf00      	nop
 8001844:	50040000 	.word	0x50040000
 8001848:	50040100 	.word	0x50040100
 800184c:	50040300 	.word	0x50040300
 8001850:	50040200 	.word	0x50040200

08001854 <HAL_NVIC_SetPriorityGrouping>:
 8001854:	4907      	ldr	r1, [pc, #28]	@ (8001874 <HAL_NVIC_SetPriorityGrouping+0x20>)
 8001856:	68ca      	ldr	r2, [r1, #12]
 8001858:	0203      	lsls	r3, r0, #8
 800185a:	f64f 00ff 	movw	r0, #63743	@ 0xf8ff
 800185e:	f403 63e0 	and.w	r3, r3, #1792	@ 0x700
 8001862:	4002      	ands	r2, r0
 8001864:	4313      	orrs	r3, r2
 8001866:	f043 63bf 	orr.w	r3, r3, #100139008	@ 0x5f80000
 800186a:	f443 3300 	orr.w	r3, r3, #131072	@ 0x20000
 800186e:	60cb      	str	r3, [r1, #12]
 8001870:	4770      	bx	lr
 8001872:	bf00      	nop
 8001874:	e000ed00 	.word	0xe000ed00

08001878 <HAL_NVIC_SetPriority>:
 8001878:	4b1a      	ldr	r3, [pc, #104]	@ (80018e4 <HAL_NVIC_SetPriority+0x6c>)
 800187a:	68db      	ldr	r3, [r3, #12]
 800187c:	f3c3 2302 	ubfx	r3, r3, #8, #3
 8001880:	b500      	push	{lr}
 8001882:	f1c3 0e07 	rsb	lr, r3, #7
 8001886:	f1be 0f04 	cmp.w	lr, #4
 800188a:	f103 0c04 	add.w	ip, r3, #4
 800188e:	bf28      	it	cs
 8001890:	f04f 0e04 	movcs.w	lr, #4
 8001894:	f1bc 0f06 	cmp.w	ip, #6
 8001898:	d91b      	bls.n	80018d2 <HAL_NVIC_SetPriority+0x5a>
 800189a:	f1a3 0c03 	sub.w	ip, r3, #3
 800189e:	f04f 33ff 	mov.w	r3, #4294967295
 80018a2:	fa03 f30c 	lsl.w	r3, r3, ip
 80018a6:	ea22 0203 	bic.w	r2, r2, r3
 80018aa:	f04f 33ff 	mov.w	r3, #4294967295
 80018ae:	fa03 f30e 	lsl.w	r3, r3, lr
 80018b2:	ea21 0303 	bic.w	r3, r1, r3
 80018b6:	fa03 f30c 	lsl.w	r3, r3, ip
 80018ba:	4313      	orrs	r3, r2
 80018bc:	011b      	lsls	r3, r3, #4
 80018be:	2800      	cmp	r0, #0
 80018c0:	b2db      	uxtb	r3, r3
 80018c2:	db09      	blt.n	80018d8 <HAL_NVIC_SetPriority+0x60>
 80018c4:	f100 4060 	add.w	r0, r0, #3758096384	@ 0xe0000000
 80018c8:	f500 4061 	add.w	r0, r0, #57600	@ 0xe100
 80018cc:	f880 3300 	strb.w	r3, [r0, #768]	@ 0x300
 80018d0:	bd00      	pop	{pc}
 80018d2:	2200      	movs	r2, #0
 80018d4:	4694      	mov	ip, r2
 80018d6:	e7e8      	b.n	80018aa <HAL_NVIC_SetPriority+0x32>
 80018d8:	4a03      	ldr	r2, [pc, #12]	@ (80018e8 <HAL_NVIC_SetPriority+0x70>)
 80018da:	f000 000f 	and.w	r0, r0, #15
 80018de:	4402      	add	r2, r0
 80018e0:	7613      	strb	r3, [r2, #24]
 80018e2:	bd00      	pop	{pc}
 80018e4:	e000ed00 	.word	0xe000ed00
 80018e8:	e000ecfc 	.word	0xe000ecfc

080018ec <HAL_NVIC_EnableIRQ>:
 80018ec:	2800      	cmp	r0, #0
 80018ee:	db07      	blt.n	8001900 <HAL_NVIC_EnableIRQ+0x14>
 80018f0:	4a04      	ldr	r2, [pc, #16]	@ (8001904 <HAL_NVIC_EnableIRQ+0x18>)
 80018f2:	0941      	lsrs	r1, r0, #5
 80018f4:	2301      	movs	r3, #1
 80018f6:	f000 001f 	and.w	r0, r0, #31
 80018fa:	4083      	lsls	r3, r0
 80018fc:	f842 3021 	str.w	r3, [r2, r1, lsl #2]
 8001900:	4770      	bx	lr
 8001902:	bf00      	nop
 8001904:	e000e100 	.word	0xe000e100

08001908 <HAL_SYSTICK_Config>:
 8001908:	3801      	subs	r0, #1
 800190a:	f1b0 7f80 	cmp.w	r0, #16777216	@ 0x1000000
 800190e:	d301      	bcc.n	8001914 <HAL_SYSTICK_Config+0xc>
 8001910:	2001      	movs	r0, #1
 8001912:	4770      	bx	lr
 8001914:	b410      	push	{r4}
 8001916:	f04f 23e0 	mov.w	r3, #3758153728	@ 0xe000e000
 800191a:	4c07      	ldr	r4, [pc, #28]	@ (8001938 <HAL_SYSTICK_Config+0x30>)
 800191c:	6158      	str	r0, [r3, #20]
 800191e:	f04f 0cf0 	mov.w	ip, #240	@ 0xf0
 8001922:	f884 c023 	strb.w	ip, [r4, #35]	@ 0x23
 8001926:	2200      	movs	r2, #0
 8001928:	2107      	movs	r1, #7
 800192a:	4610      	mov	r0, r2
 800192c:	619a      	str	r2, [r3, #24]
 800192e:	f85d 4b04 	ldr.w	r4, [sp], #4
 8001932:	6119      	str	r1, [r3, #16]
 8001934:	4770      	bx	lr
 8001936:	bf00      	nop
 8001938:	e000ed00 	.word	0xe000ed00

0800193c <HAL_DAC_Init>:
 800193c:	b188      	cbz	r0, 8001962 <HAL_DAC_Init+0x26>
 800193e:	b510      	push	{r4, lr}
 8001940:	7903      	ldrb	r3, [r0, #4]
 8001942:	4604      	mov	r4, r0
 8001944:	f003 02ff 	and.w	r2, r3, #255	@ 0xff
 8001948:	b13b      	cbz	r3, 800195a <HAL_DAC_Init+0x1e>
 800194a:	2300      	movs	r3, #0
 800194c:	2102      	movs	r1, #2
 800194e:	2201      	movs	r2, #1
 8001950:	7121      	strb	r1, [r4, #4]
 8001952:	6123      	str	r3, [r4, #16]
 8001954:	7122      	strb	r2, [r4, #4]
 8001956:	4618      	mov	r0, r3
 8001958:	bd10      	pop	{r4, pc}
 800195a:	7142      	strb	r2, [r0, #5]
 800195c:	f7fe fe9c 	bl	8000698 <HAL_DAC_MspInit>
 8001960:	e7f3      	b.n	800194a <HAL_DAC_Init+0xe>
 8001962:	2001      	movs	r0, #1
 8001964:	4770      	bx	lr
 8001966:	bf00      	nop

08001968 <HAL_DAC_Start>:
 8001968:	7942      	ldrb	r2, [r0, #5]
 800196a:	2a01      	cmp	r2, #1
 800196c:	d027      	beq.n	80019be <HAL_DAC_Start+0x56>
 800196e:	4603      	mov	r3, r0
 8001970:	2202      	movs	r2, #2
 8001972:	6800      	ldr	r0, [r0, #0]
 8001974:	b410      	push	{r4}
 8001976:	711a      	strb	r2, [r3, #4]
 8001978:	6804      	ldr	r4, [r0, #0]
 800197a:	f001 0c10 	and.w	ip, r1, #16
 800197e:	2201      	movs	r2, #1
 8001980:	fa02 f20c 	lsl.w	r2, r2, ip
 8001984:	4322      	orrs	r2, r4
 8001986:	6002      	str	r2, [r0, #0]
 8001988:	6802      	ldr	r2, [r0, #0]
 800198a:	b971      	cbnz	r1, 80019aa <HAL_DAC_Start+0x42>
 800198c:	f002 023c 	and.w	r2, r2, #60	@ 0x3c
 8001990:	2a3c      	cmp	r2, #60	@ 0x3c
 8001992:	d103      	bne.n	800199c <HAL_DAC_Start+0x34>
 8001994:	6842      	ldr	r2, [r0, #4]
 8001996:	f042 0201 	orr.w	r2, r2, #1
 800199a:	6042      	str	r2, [r0, #4]
 800199c:	2000      	movs	r0, #0
 800199e:	2201      	movs	r2, #1
 80019a0:	711a      	strb	r2, [r3, #4]
 80019a2:	7158      	strb	r0, [r3, #5]
 80019a4:	f85d 4b04 	ldr.w	r4, [sp], #4
 80019a8:	4770      	bx	lr
 80019aa:	f402 1270 	and.w	r2, r2, #3932160	@ 0x3c0000
 80019ae:	f5b2 1f70 	cmp.w	r2, #3932160	@ 0x3c0000
 80019b2:	d1f3      	bne.n	800199c <HAL_DAC_Start+0x34>
 80019b4:	6842      	ldr	r2, [r0, #4]
 80019b6:	f042 0202 	orr.w	r2, r2, #2
 80019ba:	6042      	str	r2, [r0, #4]
 80019bc:	e7ee      	b.n	800199c <HAL_DAC_Start+0x34>
 80019be:	2002      	movs	r0, #2
 80019c0:	4770      	bx	lr
 80019c2:	bf00      	nop

080019c4 <HAL_DAC_SetValue>:
 80019c4:	b410      	push	{r4}
 80019c6:	b083      	sub	sp, #12
 80019c8:	6800      	ldr	r0, [r0, #0]
 80019ca:	2400      	movs	r4, #0
 80019cc:	9401      	str	r4, [sp, #4]
 80019ce:	9001      	str	r0, [sp, #4]
 80019d0:	b951      	cbnz	r1, 80019e8 <HAL_DAC_SetValue+0x24>
 80019d2:	9901      	ldr	r1, [sp, #4]
 80019d4:	3108      	adds	r1, #8
 80019d6:	440a      	add	r2, r1
 80019d8:	9201      	str	r2, [sp, #4]
 80019da:	9a01      	ldr	r2, [sp, #4]
 80019dc:	2000      	movs	r0, #0
 80019de:	6013      	str	r3, [r2, #0]
 80019e0:	b003      	add	sp, #12
 80019e2:	f85d 4b04 	ldr.w	r4, [sp], #4
 80019e6:	4770      	bx	lr
 80019e8:	9901      	ldr	r1, [sp, #4]
 80019ea:	3114      	adds	r1, #20
 80019ec:	440a      	add	r2, r1
 80019ee:	9201      	str	r2, [sp, #4]
 80019f0:	e7f3      	b.n	80019da <HAL_DAC_SetValue+0x16>
 80019f2:	bf00      	nop

080019f4 <HAL_DAC_ConfigChannel>:
 80019f4:	b5f8      	push	{r3, r4, r5, r6, r7, lr}
 80019f6:	7943      	ldrb	r3, [r0, #5]
 80019f8:	2b01      	cmp	r3, #1
 80019fa:	f000 8086 	beq.w	8001b0a <HAL_DAC_ConfigChannel+0x116>
 80019fe:	4614      	mov	r4, r2
 8001a00:	2302      	movs	r3, #2
 8001a02:	2201      	movs	r2, #1
 8001a04:	7142      	strb	r2, [r0, #5]
 8001a06:	7103      	strb	r3, [r0, #4]
 8001a08:	460e      	mov	r6, r1
 8001a0a:	6809      	ldr	r1, [r1, #0]
 8001a0c:	2904      	cmp	r1, #4
 8001a0e:	4605      	mov	r5, r0
 8001a10:	d038      	beq.n	8001a84 <HAL_DAC_ConfigChannel+0x90>
 8001a12:	6800      	ldr	r0, [r0, #0]
 8001a14:	f004 0210 	and.w	r2, r4, #16
 8001a18:	6933      	ldr	r3, [r6, #16]
 8001a1a:	2b01      	cmp	r3, #1
 8001a1c:	d108      	bne.n	8001a30 <HAL_DAC_ConfigChannel+0x3c>
 8001a1e:	6b84      	ldr	r4, [r0, #56]	@ 0x38
 8001a20:	6973      	ldr	r3, [r6, #20]
 8001a22:	271f      	movs	r7, #31
 8001a24:	4097      	lsls	r7, r2
 8001a26:	4093      	lsls	r3, r2
 8001a28:	ea24 0407 	bic.w	r4, r4, r7
 8001a2c:	4323      	orrs	r3, r4
 8001a2e:	6383      	str	r3, [r0, #56]	@ 0x38
 8001a30:	e9d6 3402 	ldrd	r3, r4, [r6, #8]
 8001a34:	4323      	orrs	r3, r4
 8001a36:	430b      	orrs	r3, r1
 8001a38:	6bc4      	ldr	r4, [r0, #60]	@ 0x3c
 8001a3a:	6871      	ldr	r1, [r6, #4]
 8001a3c:	2607      	movs	r6, #7
 8001a3e:	4096      	lsls	r6, r2
 8001a40:	ea24 0406 	bic.w	r4, r4, r6
 8001a44:	4093      	lsls	r3, r2
 8001a46:	4323      	orrs	r3, r4
 8001a48:	63c3      	str	r3, [r0, #60]	@ 0x3c
 8001a4a:	6803      	ldr	r3, [r0, #0]
 8001a4c:	f44f 4480 	mov.w	r4, #16384	@ 0x4000
 8001a50:	4094      	lsls	r4, r2
 8001a52:	ea23 0304 	bic.w	r3, r3, r4
 8001a56:	6003      	str	r3, [r0, #0]
 8001a58:	6803      	ldr	r3, [r0, #0]
 8001a5a:	f640 74fc 	movw	r4, #4092	@ 0xffc
 8001a5e:	4094      	lsls	r4, r2
 8001a60:	4091      	lsls	r1, r2
 8001a62:	ea23 0304 	bic.w	r3, r3, r4
 8001a66:	430b      	orrs	r3, r1
 8001a68:	6003      	str	r3, [r0, #0]
 8001a6a:	6803      	ldr	r3, [r0, #0]
 8001a6c:	21c0      	movs	r1, #192	@ 0xc0
 8001a6e:	fa01 f202 	lsl.w	r2, r1, r2
 8001a72:	ea23 0302 	bic.w	r3, r3, r2
 8001a76:	2100      	movs	r1, #0
 8001a78:	2201      	movs	r2, #1
 8001a7a:	6003      	str	r3, [r0, #0]
 8001a7c:	712a      	strb	r2, [r5, #4]
 8001a7e:	7169      	strb	r1, [r5, #5]
 8001a80:	4608      	mov	r0, r1
 8001a82:	bdf8      	pop	{r3, r4, r5, r6, r7, pc}
 8001a84:	f7ff f8f0 	bl	8000c68 <HAL_GetTick>
 8001a88:	682b      	ldr	r3, [r5, #0]
 8001a8a:	4607      	mov	r7, r0
 8001a8c:	6b5b      	ldr	r3, [r3, #52]	@ 0x34
 8001a8e:	b154      	cbz	r4, 8001aa6 <HAL_DAC_ConfigChannel+0xb2>
 8001a90:	e01c      	b.n	8001acc <HAL_DAC_ConfigChannel+0xd8>
 8001a92:	f7ff f8e9 	bl	8000c68 <HAL_GetTick>
 8001a96:	1bc0      	subs	r0, r0, r7
 8001a98:	2801      	cmp	r0, #1
 8001a9a:	682b      	ldr	r3, [r5, #0]
 8001a9c:	d902      	bls.n	8001aa4 <HAL_DAC_ConfigChannel+0xb0>
 8001a9e:	6b5a      	ldr	r2, [r3, #52]	@ 0x34
 8001aa0:	0412      	lsls	r2, r2, #16
 8001aa2:	d434      	bmi.n	8001b0e <HAL_DAC_ConfigChannel+0x11a>
 8001aa4:	6b5b      	ldr	r3, [r3, #52]	@ 0x34
 8001aa6:	041b      	lsls	r3, r3, #16
 8001aa8:	d4f3      	bmi.n	8001a92 <HAL_DAC_ConfigChannel+0x9e>
 8001aaa:	2001      	movs	r0, #1
 8001aac:	f7ff f8e2 	bl	8000c74 <HAL_Delay>
 8001ab0:	6828      	ldr	r0, [r5, #0]
 8001ab2:	69b3      	ldr	r3, [r6, #24]
 8001ab4:	6403      	str	r3, [r0, #64]	@ 0x40
 8001ab6:	e011      	b.n	8001adc <HAL_DAC_ConfigChannel+0xe8>
 8001ab8:	f7ff f8d6 	bl	8000c68 <HAL_GetTick>
 8001abc:	1bc0      	subs	r0, r0, r7
 8001abe:	2801      	cmp	r0, #1
 8001ac0:	682b      	ldr	r3, [r5, #0]
 8001ac2:	d902      	bls.n	8001aca <HAL_DAC_ConfigChannel+0xd6>
 8001ac4:	6b5a      	ldr	r2, [r3, #52]	@ 0x34
 8001ac6:	2a00      	cmp	r2, #0
 8001ac8:	db21      	blt.n	8001b0e <HAL_DAC_ConfigChannel+0x11a>
 8001aca:	6b5b      	ldr	r3, [r3, #52]	@ 0x34
 8001acc:	2b00      	cmp	r3, #0
 8001ace:	dbf3      	blt.n	8001ab8 <HAL_DAC_ConfigChannel+0xc4>
 8001ad0:	2001      	movs	r0, #1
 8001ad2:	f7ff f8cf 	bl	8000c74 <HAL_Delay>
 8001ad6:	6828      	ldr	r0, [r5, #0]
 8001ad8:	69b3      	ldr	r3, [r6, #24]
 8001ada:	6443      	str	r3, [r0, #68]	@ 0x44
 8001adc:	f004 0210 	and.w	r2, r4, #16
 8001ae0:	6c83      	ldr	r3, [r0, #72]	@ 0x48
 8001ae2:	69f1      	ldr	r1, [r6, #28]
 8001ae4:	f240 34ff 	movw	r4, #1023	@ 0x3ff
 8001ae8:	4094      	lsls	r4, r2
 8001aea:	4091      	lsls	r1, r2
 8001aec:	ea23 0304 	bic.w	r3, r3, r4
 8001af0:	430b      	orrs	r3, r1
 8001af2:	6483      	str	r3, [r0, #72]	@ 0x48
 8001af4:	6cc3      	ldr	r3, [r0, #76]	@ 0x4c
 8001af6:	6a31      	ldr	r1, [r6, #32]
 8001af8:	24ff      	movs	r4, #255	@ 0xff
 8001afa:	4094      	lsls	r4, r2
 8001afc:	4091      	lsls	r1, r2
 8001afe:	ea23 0304 	bic.w	r3, r3, r4
 8001b02:	430b      	orrs	r3, r1
 8001b04:	64c3      	str	r3, [r0, #76]	@ 0x4c
 8001b06:	6831      	ldr	r1, [r6, #0]
 8001b08:	e786      	b.n	8001a18 <HAL_DAC_ConfigChannel+0x24>
 8001b0a:	2002      	movs	r0, #2
 8001b0c:	bdf8      	pop	{r3, r4, r5, r6, r7, pc}
 8001b0e:	692b      	ldr	r3, [r5, #16]
 8001b10:	2203      	movs	r2, #3
 8001b12:	f043 0308 	orr.w	r3, r3, #8
 8001b16:	612b      	str	r3, [r5, #16]
 8001b18:	712a      	strb	r2, [r5, #4]
 8001b1a:	2003      	movs	r0, #3
 8001b1c:	bdf8      	pop	{r3, r4, r5, r6, r7, pc}
 8001b1e:	bf00      	nop

08001b20 <HAL_GPIO_Init>:
 8001b20:	680b      	ldr	r3, [r1, #0]
 8001b22:	2b00      	cmp	r3, #0
 8001b24:	f000 81ce 	beq.w	8001ec4 <HAL_GPIO_Init+0x3a4>
 8001b28:	e92d 4ff0 	stmdb	sp!, {r4, r5, r6, r7, r8, r9, sl, fp, lr}
 8001b2c:	f1b0 4f90 	cmp.w	r0, #1207959552	@ 0x48000000
 8001b30:	b085      	sub	sp, #20
 8001b32:	f04f 0200 	mov.w	r2, #0
 8001b36:	f04f 0b01 	mov.w	fp, #1
 8001b3a:	f000 80c1 	beq.w	8001cc0 <HAL_GPIO_Init+0x1a0>
 8001b3e:	f8df c394 	ldr.w	ip, [pc, #916]	@ 8001ed4 <HAL_GPIO_Init+0x3b4>
 8001b42:	9100      	str	r1, [sp, #0]
 8001b44:	fa0b fe02 	lsl.w	lr, fp, r2
 8001b48:	ea1e 0a03 	ands.w	sl, lr, r3
 8001b4c:	f000 8106 	beq.w	8001d5c <HAL_GPIO_Init+0x23c>
 8001b50:	9900      	ldr	r1, [sp, #0]
 8001b52:	684d      	ldr	r5, [r1, #4]
 8001b54:	f005 0703 	and.w	r7, r5, #3
 8001b58:	0054      	lsls	r4, r2, #1
 8001b5a:	2103      	movs	r1, #3
 8001b5c:	f107 38ff 	add.w	r8, r7, #4294967295
 8001b60:	fa01 f604 	lsl.w	r6, r1, r4
 8001b64:	f1b8 0f01 	cmp.w	r8, #1
 8001b68:	ea6f 0606 	mvn.w	r6, r6
 8001b6c:	f240 80fe 	bls.w	8001d6c <HAL_GPIO_Init+0x24c>
 8001b70:	2f03      	cmp	r7, #3
 8001b72:	f040 813c 	bne.w	8001dee <HAL_GPIO_Init+0x2ce>
 8001b76:	f8d0 802c 	ldr.w	r8, [r0, #44]	@ 0x2c
 8001b7a:	ea28 080e 	bic.w	r8, r8, lr
 8001b7e:	f3c5 0ec0 	ubfx	lr, r5, #3, #1
 8001b82:	fa0e fe02 	lsl.w	lr, lr, r2
 8001b86:	ea4e 0e08 	orr.w	lr, lr, r8
 8001b8a:	f8c0 e02c 	str.w	lr, [r0, #44]	@ 0x2c
 8001b8e:	fa07 f404 	lsl.w	r4, r7, r4
 8001b92:	6807      	ldr	r7, [r0, #0]
 8001b94:	403e      	ands	r6, r7
 8001b96:	4334      	orrs	r4, r6
 8001b98:	f415 3f40 	tst.w	r5, #196608	@ 0x30000
 8001b9c:	6004      	str	r4, [r0, #0]
 8001b9e:	f000 80dd 	beq.w	8001d5c <HAL_GPIO_Init+0x23c>
 8001ba2:	4ec9      	ldr	r6, [pc, #804]	@ (8001ec8 <HAL_GPIO_Init+0x3a8>)
 8001ba4:	6e34      	ldr	r4, [r6, #96]	@ 0x60
 8001ba6:	f044 0401 	orr.w	r4, r4, #1
 8001baa:	6634      	str	r4, [r6, #96]	@ 0x60
 8001bac:	6e34      	ldr	r4, [r6, #96]	@ 0x60
 8001bae:	f004 0401 	and.w	r4, r4, #1
 8001bb2:	9403      	str	r4, [sp, #12]
 8001bb4:	9c03      	ldr	r4, [sp, #12]
 8001bb6:	f022 0403 	bic.w	r4, r2, #3
 8001bba:	f104 4480 	add.w	r4, r4, #1073741824	@ 0x40000000
 8001bbe:	f002 0703 	and.w	r7, r2, #3
 8001bc2:	210f      	movs	r1, #15
 8001bc4:	f504 3480 	add.w	r4, r4, #65536	@ 0x10000
 8001bc8:	00bf      	lsls	r7, r7, #2
 8001bca:	fa01 fe07 	lsl.w	lr, r1, r7
 8001bce:	49bf      	ldr	r1, [pc, #764]	@ (8001ecc <HAL_GPIO_Init+0x3ac>)
 8001bd0:	68a6      	ldr	r6, [r4, #8]
 8001bd2:	4288      	cmp	r0, r1
 8001bd4:	ea26 060e 	bic.w	r6, r6, lr
 8001bd8:	f000 8162 	beq.w	8001ea0 <HAL_GPIO_Init+0x380>
 8001bdc:	49bc      	ldr	r1, [pc, #752]	@ (8001ed0 <HAL_GPIO_Init+0x3b0>)
 8001bde:	4288      	cmp	r0, r1
 8001be0:	f000 8090 	beq.w	8001d04 <HAL_GPIO_Init+0x1e4>
 8001be4:	f8df e2f0 	ldr.w	lr, [pc, #752]	@ 8001ed8 <HAL_GPIO_Init+0x3b8>
 8001be8:	4570      	cmp	r0, lr
 8001bea:	f000 8165 	beq.w	8001eb8 <HAL_GPIO_Init+0x398>
 8001bee:	f8df e2ec 	ldr.w	lr, [pc, #748]	@ 8001edc <HAL_GPIO_Init+0x3bc>
 8001bf2:	4570      	cmp	r0, lr
 8001bf4:	f000 8178 	beq.w	8001ee8 <HAL_GPIO_Init+0x3c8>
 8001bf8:	f8df e2e4 	ldr.w	lr, [pc, #740]	@ 8001ee0 <HAL_GPIO_Init+0x3c0>
 8001bfc:	4570      	cmp	r0, lr
 8001bfe:	f000 8155 	beq.w	8001eac <HAL_GPIO_Init+0x38c>
 8001c02:	f8df e2e0 	ldr.w	lr, [pc, #736]	@ 8001ee4 <HAL_GPIO_Init+0x3c4>
 8001c06:	4570      	cmp	r0, lr
 8001c08:	bf0c      	ite	eq
 8001c0a:	f04f 0e06 	moveq.w	lr, #6
 8001c0e:	f04f 0e07 	movne.w	lr, #7
 8001c12:	fa0e f707 	lsl.w	r7, lr, r7
 8001c16:	433e      	orrs	r6, r7
 8001c18:	e079      	b.n	8001d0e <HAL_GPIO_Init+0x1ee>
 8001c1a:	f8d0 802c 	ldr.w	r8, [r0, #44]	@ 0x2c
 8001c1e:	ea28 080e 	bic.w	r8, r8, lr
 8001c22:	f3c6 0ec0 	ubfx	lr, r6, #3, #1
 8001c26:	fa0e fe02 	lsl.w	lr, lr, r2
 8001c2a:	ea4e 0e08 	orr.w	lr, lr, r8
 8001c2e:	f8c0 e02c 	str.w	lr, [r0, #44]	@ 0x2c
 8001c32:	40bc      	lsls	r4, r7
 8001c34:	6807      	ldr	r7, [r0, #0]
 8001c36:	ea07 070a 	and.w	r7, r7, sl
 8001c3a:	433c      	orrs	r4, r7
 8001c3c:	f416 3f40 	tst.w	r6, #196608	@ 0x30000
 8001c40:	6004      	str	r4, [r0, #0]
 8001c42:	d039      	beq.n	8001cb8 <HAL_GPIO_Init+0x198>
 8001c44:	4fa0      	ldr	r7, [pc, #640]	@ (8001ec8 <HAL_GPIO_Init+0x3a8>)
 8001c46:	6e3c      	ldr	r4, [r7, #96]	@ 0x60
 8001c48:	f044 0401 	orr.w	r4, r4, #1
 8001c4c:	663c      	str	r4, [r7, #96]	@ 0x60
 8001c4e:	6e3c      	ldr	r4, [r7, #96]	@ 0x60
 8001c50:	f004 0401 	and.w	r4, r4, #1
 8001c54:	9403      	str	r4, [sp, #12]
 8001c56:	9c03      	ldr	r4, [sp, #12]
 8001c58:	f022 0403 	bic.w	r4, r2, #3
 8001c5c:	f104 4480 	add.w	r4, r4, #1073741824	@ 0x40000000
 8001c60:	f504 3480 	add.w	r4, r4, #65536	@ 0x10000
 8001c64:	f002 0703 	and.w	r7, r2, #3
 8001c68:	f8d4 e008 	ldr.w	lr, [r4, #8]
 8001c6c:	250f      	movs	r5, #15
 8001c6e:	00bf      	lsls	r7, r7, #2
 8001c70:	fa05 f707 	lsl.w	r7, r5, r7
 8001c74:	ea2e 0707 	bic.w	r7, lr, r7
 8001c78:	60a7      	str	r7, [r4, #8]
 8001c7a:	4c96      	ldr	r4, [pc, #600]	@ (8001ed4 <HAL_GPIO_Init+0x3b4>)
 8001c7c:	02f5      	lsls	r5, r6, #11
 8001c7e:	68a4      	ldr	r4, [r4, #8]
 8001c80:	ea6f 070c 	mvn.w	r7, ip
 8001c84:	f100 8109 	bmi.w	8001e9a <HAL_GPIO_Init+0x37a>
 8001c88:	403c      	ands	r4, r7
 8001c8a:	4d92      	ldr	r5, [pc, #584]	@ (8001ed4 <HAL_GPIO_Init+0x3b4>)
 8001c8c:	60ac      	str	r4, [r5, #8]
 8001c8e:	68ec      	ldr	r4, [r5, #12]
 8001c90:	02b5      	lsls	r5, r6, #10
 8001c92:	f100 80ff 	bmi.w	8001e94 <HAL_GPIO_Init+0x374>
 8001c96:	403c      	ands	r4, r7
 8001c98:	4d8e      	ldr	r5, [pc, #568]	@ (8001ed4 <HAL_GPIO_Init+0x3b4>)
 8001c9a:	60ec      	str	r4, [r5, #12]
 8001c9c:	686c      	ldr	r4, [r5, #4]
 8001c9e:	03b5      	lsls	r5, r6, #14
 8001ca0:	f100 80f5 	bmi.w	8001e8e <HAL_GPIO_Init+0x36e>
 8001ca4:	403c      	ands	r4, r7
 8001ca6:	4d8b      	ldr	r5, [pc, #556]	@ (8001ed4 <HAL_GPIO_Init+0x3b4>)
 8001ca8:	606c      	str	r4, [r5, #4]
 8001caa:	682c      	ldr	r4, [r5, #0]
 8001cac:	03f5      	lsls	r5, r6, #15
 8001cae:	f100 80eb 	bmi.w	8001e88 <HAL_GPIO_Init+0x368>
 8001cb2:	403c      	ands	r4, r7
 8001cb4:	4d87      	ldr	r5, [pc, #540]	@ (8001ed4 <HAL_GPIO_Init+0x3b4>)
 8001cb6:	602c      	str	r4, [r5, #0]
 8001cb8:	3201      	adds	r2, #1
 8001cba:	fa33 f402 	lsrs.w	r4, r3, r2
 8001cbe:	d052      	beq.n	8001d66 <HAL_GPIO_Init+0x246>
 8001cc0:	fa0b fe02 	lsl.w	lr, fp, r2
 8001cc4:	ea13 0c0e 	ands.w	ip, r3, lr
 8001cc8:	d0f6      	beq.n	8001cb8 <HAL_GPIO_Init+0x198>
 8001cca:	684e      	ldr	r6, [r1, #4]
 8001ccc:	0057      	lsls	r7, r2, #1
 8001cce:	2503      	movs	r5, #3
 8001cd0:	fa05 f807 	lsl.w	r8, r5, r7
 8001cd4:	f006 0403 	and.w	r4, r6, #3
 8001cd8:	ea6f 0a08 	mvn.w	sl, r8
 8001cdc:	f104 38ff 	add.w	r8, r4, #4294967295
 8001ce0:	f1b8 0f01 	cmp.w	r8, #1
 8001ce4:	f240 8090 	bls.w	8001e08 <HAL_GPIO_Init+0x2e8>
 8001ce8:	2c03      	cmp	r4, #3
 8001cea:	d096      	beq.n	8001c1a <HAL_GPIO_Init+0xfa>
 8001cec:	f8d0 800c 	ldr.w	r8, [r0, #12]
 8001cf0:	688d      	ldr	r5, [r1, #8]
 8001cf2:	ea0a 0808 	and.w	r8, sl, r8
 8001cf6:	fa05 fe07 	lsl.w	lr, r5, r7
 8001cfa:	ea4e 0e08 	orr.w	lr, lr, r8
 8001cfe:	f8c0 e00c 	str.w	lr, [r0, #12]
 8001d02:	e796      	b.n	8001c32 <HAL_GPIO_Init+0x112>
 8001d04:	f04f 0e02 	mov.w	lr, #2
 8001d08:	fa0e f707 	lsl.w	r7, lr, r7
 8001d0c:	433e      	orrs	r6, r7
 8001d0e:	60a6      	str	r6, [r4, #8]
 8001d10:	f8dc 4008 	ldr.w	r4, [ip, #8]
 8001d14:	ea6f 060a 	mvn.w	r6, sl
 8001d18:	02ef      	lsls	r7, r5, #11
 8001d1a:	bf54      	ite	pl
 8001d1c:	4034      	andpl	r4, r6
 8001d1e:	ea4a 0404 	orrmi.w	r4, sl, r4
 8001d22:	f8cc 4008 	str.w	r4, [ip, #8]
 8001d26:	f8dc 400c 	ldr.w	r4, [ip, #12]
 8001d2a:	02a9      	lsls	r1, r5, #10
 8001d2c:	bf54      	ite	pl
 8001d2e:	4034      	andpl	r4, r6
 8001d30:	ea4a 0404 	orrmi.w	r4, sl, r4
 8001d34:	f8cc 400c 	str.w	r4, [ip, #12]
 8001d38:	f8dc 4004 	ldr.w	r4, [ip, #4]
 8001d3c:	03af      	lsls	r7, r5, #14
 8001d3e:	bf54      	ite	pl
 8001d40:	4034      	andpl	r4, r6
 8001d42:	ea4a 0404 	orrmi.w	r4, sl, r4
 8001d46:	f8cc 4004 	str.w	r4, [ip, #4]
 8001d4a:	f8dc 4000 	ldr.w	r4, [ip]
 8001d4e:	03e9      	lsls	r1, r5, #15
 8001d50:	bf54      	ite	pl
 8001d52:	4034      	andpl	r4, r6
 8001d54:	ea4a 0404 	orrmi.w	r4, sl, r4
 8001d58:	f8cc 4000 	str.w	r4, [ip]
 8001d5c:	3201      	adds	r2, #1
 8001d5e:	fa33 f402 	lsrs.w	r4, r3, r2
 8001d62:	f47f aeef 	bne.w	8001b44 <HAL_GPIO_Init+0x24>
 8001d66:	b005      	add	sp, #20
 8001d68:	e8bd 8ff0 	ldmia.w	sp!, {r4, r5, r6, r7, r8, r9, sl, fp, pc}
 8001d6c:	9900      	ldr	r1, [sp, #0]
 8001d6e:	f8d0 9008 	ldr.w	r9, [r0, #8]
 8001d72:	68c9      	ldr	r1, [r1, #12]
 8001d74:	ea09 0906 	and.w	r9, r9, r6
 8001d78:	fa01 f804 	lsl.w	r8, r1, r4
 8001d7c:	ea48 0809 	orr.w	r8, r8, r9
 8001d80:	f8c0 8008 	str.w	r8, [r0, #8]
 8001d84:	f8d0 8004 	ldr.w	r8, [r0, #4]
 8001d88:	9900      	ldr	r1, [sp, #0]
 8001d8a:	ea28 080e 	bic.w	r8, r8, lr
 8001d8e:	f3c5 1e00 	ubfx	lr, r5, #4, #1
 8001d92:	fa0e fe02 	lsl.w	lr, lr, r2
 8001d96:	ea4e 0e08 	orr.w	lr, lr, r8
 8001d9a:	f8c0 e004 	str.w	lr, [r0, #4]
 8001d9e:	f8d0 800c 	ldr.w	r8, [r0, #12]
 8001da2:	6889      	ldr	r1, [r1, #8]
 8001da4:	ea08 0806 	and.w	r8, r8, r6
 8001da8:	fa01 fe04 	lsl.w	lr, r1, r4
 8001dac:	ea4e 0e08 	orr.w	lr, lr, r8
 8001db0:	2f02      	cmp	r7, #2
 8001db2:	f8c0 e00c 	str.w	lr, [r0, #12]
 8001db6:	f47f aeea 	bne.w	8001b8e <HAL_GPIO_Init+0x6e>
 8001dba:	9900      	ldr	r1, [sp, #0]
 8001dbc:	ea4f 08d2 	mov.w	r8, r2, lsr #3
 8001dc0:	6909      	ldr	r1, [r1, #16]
 8001dc2:	f002 0e07 	and.w	lr, r2, #7
 8001dc6:	eb00 0888 	add.w	r8, r0, r8, lsl #2
 8001dca:	ea4f 0e8e 	mov.w	lr, lr, lsl #2
 8001dce:	fa01 f10e 	lsl.w	r1, r1, lr
 8001dd2:	f8d8 9020 	ldr.w	r9, [r8, #32]
 8001dd6:	9101      	str	r1, [sp, #4]
 8001dd8:	210f      	movs	r1, #15
 8001dda:	fa01 fe0e 	lsl.w	lr, r1, lr
 8001dde:	9901      	ldr	r1, [sp, #4]
 8001de0:	ea29 090e 	bic.w	r9, r9, lr
 8001de4:	ea41 0e09 	orr.w	lr, r1, r9
 8001de8:	f8c8 e020 	str.w	lr, [r8, #32]
 8001dec:	e6cf      	b.n	8001b8e <HAL_GPIO_Init+0x6e>
 8001dee:	9900      	ldr	r1, [sp, #0]
 8001df0:	f8d0 800c 	ldr.w	r8, [r0, #12]
 8001df4:	6889      	ldr	r1, [r1, #8]
 8001df6:	ea08 0806 	and.w	r8, r8, r6
 8001dfa:	fa01 fe04 	lsl.w	lr, r1, r4
 8001dfe:	ea4e 0e08 	orr.w	lr, lr, r8
 8001e02:	f8c0 e00c 	str.w	lr, [r0, #12]
 8001e06:	e6c2      	b.n	8001b8e <HAL_GPIO_Init+0x6e>
 8001e08:	f8d0 9008 	ldr.w	r9, [r0, #8]
 8001e0c:	68cd      	ldr	r5, [r1, #12]
 8001e0e:	ea0a 0909 	and.w	r9, sl, r9
 8001e12:	fa05 f807 	lsl.w	r8, r5, r7
 8001e16:	ea48 0809 	orr.w	r8, r8, r9
 8001e1a:	f8c0 8008 	str.w	r8, [r0, #8]
 8001e1e:	f8d0 8004 	ldr.w	r8, [r0, #4]
 8001e22:	ea28 080e 	bic.w	r8, r8, lr
 8001e26:	f3c6 1e00 	ubfx	lr, r6, #4, #1
 8001e2a:	fa0e fe02 	lsl.w	lr, lr, r2
 8001e2e:	ea4e 0e08 	orr.w	lr, lr, r8
 8001e32:	f8c0 e004 	str.w	lr, [r0, #4]
 8001e36:	f8d0 800c 	ldr.w	r8, [r0, #12]
 8001e3a:	688d      	ldr	r5, [r1, #8]
 8001e3c:	ea0a 0808 	and.w	r8, sl, r8
 8001e40:	fa05 fe07 	lsl.w	lr, r5, r7
 8001e44:	ea4e 0e08 	orr.w	lr, lr, r8
 8001e48:	2c02      	cmp	r4, #2
 8001e4a:	f8c0 e00c 	str.w	lr, [r0, #12]
 8001e4e:	f47f aef0 	bne.w	8001c32 <HAL_GPIO_Init+0x112>
 8001e52:	ea4f 0ed2 	mov.w	lr, r2, lsr #3
 8001e56:	690d      	ldr	r5, [r1, #16]
 8001e58:	ea4f 0e8e 	mov.w	lr, lr, lsl #2
 8001e5c:	f002 0807 	and.w	r8, r2, #7
 8001e60:	f10e 4e90 	add.w	lr, lr, #1207959552	@ 0x48000000
 8001e64:	ea4f 0888 	mov.w	r8, r8, lsl #2
 8001e68:	fa05 f508 	lsl.w	r5, r5, r8
 8001e6c:	f8de 9020 	ldr.w	r9, [lr, #32]
 8001e70:	9500      	str	r5, [sp, #0]
 8001e72:	250f      	movs	r5, #15
 8001e74:	fa05 f808 	lsl.w	r8, r5, r8
 8001e78:	9d00      	ldr	r5, [sp, #0]
 8001e7a:	ea29 0908 	bic.w	r9, r9, r8
 8001e7e:	ea45 0809 	orr.w	r8, r5, r9
 8001e82:	f8ce 8020 	str.w	r8, [lr, #32]
 8001e86:	e6d4      	b.n	8001c32 <HAL_GPIO_Init+0x112>
 8001e88:	ea44 040c 	orr.w	r4, r4, ip
 8001e8c:	e712      	b.n	8001cb4 <HAL_GPIO_Init+0x194>
 8001e8e:	ea44 040c 	orr.w	r4, r4, ip
 8001e92:	e708      	b.n	8001ca6 <HAL_GPIO_Init+0x186>
 8001e94:	ea4c 0404 	orr.w	r4, ip, r4
 8001e98:	e6fe      	b.n	8001c98 <HAL_GPIO_Init+0x178>
 8001e9a:	ea44 040c 	orr.w	r4, r4, ip
 8001e9e:	e6f4      	b.n	8001c8a <HAL_GPIO_Init+0x16a>
 8001ea0:	f04f 0e01 	mov.w	lr, #1
 8001ea4:	fa0e f707 	lsl.w	r7, lr, r7
 8001ea8:	433e      	orrs	r6, r7
 8001eaa:	e730      	b.n	8001d0e <HAL_GPIO_Init+0x1ee>
 8001eac:	f04f 0e05 	mov.w	lr, #5
 8001eb0:	fa0e f707 	lsl.w	r7, lr, r7
 8001eb4:	433e      	orrs	r6, r7
 8001eb6:	e72a      	b.n	8001d0e <HAL_GPIO_Init+0x1ee>
 8001eb8:	f04f 0e03 	mov.w	lr, #3
 8001ebc:	fa0e f707 	lsl.w	r7, lr, r7
 8001ec0:	433e      	orrs	r6, r7
 8001ec2:	e724      	b.n	8001d0e <HAL_GPIO_Init+0x1ee>
 8001ec4:	4770      	bx	lr
 8001ec6:	bf00      	nop
 8001ec8:	40021000 	.word	0x40021000
 8001ecc:	48000400 	.word	0x48000400
 8001ed0:	48000800 	.word	0x48000800
 8001ed4:	40010400 	.word	0x40010400
 8001ed8:	48000c00 	.word	0x48000c00
 8001edc:	48001000 	.word	0x48001000
 8001ee0:	48001400 	.word	0x48001400
 8001ee4:	48001800 	.word	0x48001800
 8001ee8:	f04f 0e04 	mov.w	lr, #4
 8001eec:	fa0e f707 	lsl.w	r7, lr, r7
 8001ef0:	433e      	orrs	r6, r7
 8001ef2:	e70c      	b.n	8001d0e <HAL_GPIO_Init+0x1ee>

08001ef4 <HAL_GPIO_WritePin>:
 8001ef4:	b10a      	cbz	r2, 8001efa <HAL_GPIO_WritePin+0x6>
 8001ef6:	6181      	str	r1, [r0, #24]
 8001ef8:	4770      	bx	lr
 8001efa:	6281      	str	r1, [r0, #40]	@ 0x28
 8001efc:	4770      	bx	lr
 8001efe:	bf00      	nop

08001f00 <HAL_GPIO_TogglePin>:
 8001f00:	6943      	ldr	r3, [r0, #20]
 8001f02:	ea01 0203 	and.w	r2, r1, r3
 8001f06:	ea21 0103 	bic.w	r1, r1, r3
 8001f0a:	ea41 4102 	orr.w	r1, r1, r2, lsl #16
 8001f0e:	6181      	str	r1, [r0, #24]
 8001f10:	4770      	bx	lr
 8001f12:	bf00      	nop

08001f14 <HAL_GPIO_EXTI_Callback>:
 8001f14:	4770      	bx	lr
 8001f16:	bf00      	nop

08001f18 <HAL_GPIO_EXTI_IRQHandler>:
 8001f18:	4a04      	ldr	r2, [pc, #16]	@ (8001f2c <HAL_GPIO_EXTI_IRQHandler+0x14>)
 8001f1a:	6951      	ldr	r1, [r2, #20]
 8001f1c:	4201      	tst	r1, r0
 8001f1e:	d100      	bne.n	8001f22 <HAL_GPIO_EXTI_IRQHandler+0xa>
 8001f20:	4770      	bx	lr
 8001f22:	b508      	push	{r3, lr}
 8001f24:	6150      	str	r0, [r2, #20]
 8001f26:	f7ff fff5 	bl	8001f14 <HAL_GPIO_EXTI_Callback>
 8001f2a:	bd08      	pop	{r3, pc}
 8001f2c:	40010400 	.word	0x40010400

08001f30 <HAL_PWREx_GetVoltageRange>:
 8001f30:	4b02      	ldr	r3, [pc, #8]	@ (8001f3c <HAL_PWREx_GetVoltageRange+0xc>)
 8001f32:	6818      	ldr	r0, [r3, #0]
 8001f34:	f400 60c0 	and.w	r0, r0, #1536	@ 0x600
 8001f38:	4770      	bx	lr
 8001f3a:	bf00      	nop
 8001f3c:	40007000 	.word	0x40007000

08001f40 <HAL_PWREx_ControlVoltageScaling>:
 8001f40:	f5b0 7f00 	cmp.w	r0, #512	@ 0x200
 8001f44:	d00e      	beq.n	8001f64 <HAL_PWREx_ControlVoltageScaling+0x24>
 8001f46:	4a1b      	ldr	r2, [pc, #108]	@ (8001fb4 <HAL_PWREx_ControlVoltageScaling+0x74>)
 8001f48:	6813      	ldr	r3, [r2, #0]
 8001f4a:	f403 63c0 	and.w	r3, r3, #1536	@ 0x600
 8001f4e:	f5b3 6f80 	cmp.w	r3, #1024	@ 0x400
 8001f52:	d005      	beq.n	8001f60 <HAL_PWREx_ControlVoltageScaling+0x20>
 8001f54:	6813      	ldr	r3, [r2, #0]
 8001f56:	f423 63c0 	bic.w	r3, r3, #1536	@ 0x600
 8001f5a:	f443 6380 	orr.w	r3, r3, #1024	@ 0x400
 8001f5e:	6013      	str	r3, [r2, #0]
 8001f60:	2000      	movs	r0, #0
 8001f62:	4770      	bx	lr
 8001f64:	4913      	ldr	r1, [pc, #76]	@ (8001fb4 <HAL_PWREx_ControlVoltageScaling+0x74>)
 8001f66:	680b      	ldr	r3, [r1, #0]
 8001f68:	f403 63c0 	and.w	r3, r3, #1536	@ 0x600
 8001f6c:	f5b3 7f00 	cmp.w	r3, #512	@ 0x200
 8001f70:	d0f6      	beq.n	8001f60 <HAL_PWREx_ControlVoltageScaling+0x20>
 8001f72:	680b      	ldr	r3, [r1, #0]
 8001f74:	4a10      	ldr	r2, [pc, #64]	@ (8001fb8 <HAL_PWREx_ControlVoltageScaling+0x78>)
 8001f76:	f423 63c0 	bic.w	r3, r3, #1536	@ 0x600
 8001f7a:	f443 7300 	orr.w	r3, r3, #512	@ 0x200
 8001f7e:	600b      	str	r3, [r1, #0]
 8001f80:	6813      	ldr	r3, [r2, #0]
 8001f82:	4a0e      	ldr	r2, [pc, #56]	@ (8001fbc <HAL_PWREx_ControlVoltageScaling+0x7c>)
 8001f84:	2032      	movs	r0, #50	@ 0x32
 8001f86:	fb00 f303 	mul.w	r3, r0, r3
 8001f8a:	6948      	ldr	r0, [r1, #20]
 8001f8c:	fba2 2303 	umull	r2, r3, r2, r3
 8001f90:	0c9b      	lsrs	r3, r3, #18
 8001f92:	0540      	lsls	r0, r0, #21
 8001f94:	f103 0301 	add.w	r3, r3, #1
 8001f98:	d506      	bpl.n	8001fa8 <HAL_PWREx_ControlVoltageScaling+0x68>
 8001f9a:	694a      	ldr	r2, [r1, #20]
 8001f9c:	0552      	lsls	r2, r2, #21
 8001f9e:	f103 33ff 	add.w	r3, r3, #4294967295
 8001fa2:	d501      	bpl.n	8001fa8 <HAL_PWREx_ControlVoltageScaling+0x68>
 8001fa4:	2b00      	cmp	r3, #0
 8001fa6:	d1f8      	bne.n	8001f9a <HAL_PWREx_ControlVoltageScaling+0x5a>
 8001fa8:	4b02      	ldr	r3, [pc, #8]	@ (8001fb4 <HAL_PWREx_ControlVoltageScaling+0x74>)
 8001faa:	695b      	ldr	r3, [r3, #20]
 8001fac:	055b      	lsls	r3, r3, #21
 8001fae:	d5d7      	bpl.n	8001f60 <HAL_PWREx_ControlVoltageScaling+0x20>
 8001fb0:	2003      	movs	r0, #3
 8001fb2:	4770      	bx	lr
 8001fb4:	40007000 	.word	0x40007000
 8001fb8:	20000004 	.word	0x20000004
 8001fbc:	431bde83 	.word	0x431bde83

08001fc0 <RCC_SetFlashLatencyFromMSIRange>:
 8001fc0:	b530      	push	{r4, r5, lr}
 8001fc2:	4d20      	ldr	r5, [pc, #128]	@ (8002044 <RCC_SetFlashLatencyFromMSIRange+0x84>)
 8001fc4:	6dab      	ldr	r3, [r5, #88]	@ 0x58
 8001fc6:	00db      	lsls	r3, r3, #3
 8001fc8:	b083      	sub	sp, #12
 8001fca:	4604      	mov	r4, r0
 8001fcc:	d51a      	bpl.n	8002004 <RCC_SetFlashLatencyFromMSIRange+0x44>
 8001fce:	f7ff ffaf 	bl	8001f30 <HAL_PWREx_GetVoltageRange>
 8001fd2:	f5b0 7f00 	cmp.w	r0, #512	@ 0x200
 8001fd6:	d027      	beq.n	8002028 <RCC_SetFlashLatencyFromMSIRange+0x68>
 8001fd8:	2c80      	cmp	r4, #128	@ 0x80
 8001fda:	d82c      	bhi.n	8002036 <RCC_SetFlashLatencyFromMSIRange+0x76>
 8001fdc:	d02f      	beq.n	800203e <RCC_SetFlashLatencyFromMSIRange+0x7e>
 8001fde:	f1a4 0470 	sub.w	r4, r4, #112	@ 0x70
 8001fe2:	fab4 f484 	clz	r4, r4
 8001fe6:	0964      	lsrs	r4, r4, #5
 8001fe8:	4917      	ldr	r1, [pc, #92]	@ (8002048 <RCC_SetFlashLatencyFromMSIRange+0x88>)
 8001fea:	680b      	ldr	r3, [r1, #0]
 8001fec:	f023 0307 	bic.w	r3, r3, #7
 8001ff0:	4323      	orrs	r3, r4
 8001ff2:	600b      	str	r3, [r1, #0]
 8001ff4:	6808      	ldr	r0, [r1, #0]
 8001ff6:	f000 0007 	and.w	r0, r0, #7
 8001ffa:	1b00      	subs	r0, r0, r4
 8001ffc:	bf18      	it	ne
 8001ffe:	2001      	movne	r0, #1
 8002000:	b003      	add	sp, #12
 8002002:	bd30      	pop	{r4, r5, pc}
 8002004:	6dab      	ldr	r3, [r5, #88]	@ 0x58
 8002006:	f043 5380 	orr.w	r3, r3, #268435456	@ 0x10000000
 800200a:	65ab      	str	r3, [r5, #88]	@ 0x58
 800200c:	6dab      	ldr	r3, [r5, #88]	@ 0x58
 800200e:	f003 5380 	and.w	r3, r3, #268435456	@ 0x10000000
 8002012:	9301      	str	r3, [sp, #4]
 8002014:	9b01      	ldr	r3, [sp, #4]
 8002016:	f7ff ff8b 	bl	8001f30 <HAL_PWREx_GetVoltageRange>
 800201a:	6dab      	ldr	r3, [r5, #88]	@ 0x58
 800201c:	f5b0 7f00 	cmp.w	r0, #512	@ 0x200
 8002020:	f023 5380 	bic.w	r3, r3, #268435456	@ 0x10000000
 8002024:	65ab      	str	r3, [r5, #88]	@ 0x58
 8002026:	d1d7      	bne.n	8001fd8 <RCC_SetFlashLatencyFromMSIRange+0x18>
 8002028:	2c80      	cmp	r4, #128	@ 0x80
 800202a:	d906      	bls.n	800203a <RCC_SetFlashLatencyFromMSIRange+0x7a>
 800202c:	2ca0      	cmp	r4, #160	@ 0xa0
 800202e:	bf8c      	ite	hi
 8002030:	2402      	movhi	r4, #2
 8002032:	2401      	movls	r4, #1
 8002034:	e7d8      	b.n	8001fe8 <RCC_SetFlashLatencyFromMSIRange+0x28>
 8002036:	2403      	movs	r4, #3
 8002038:	e7d6      	b.n	8001fe8 <RCC_SetFlashLatencyFromMSIRange+0x28>
 800203a:	2400      	movs	r4, #0
 800203c:	e7d4      	b.n	8001fe8 <RCC_SetFlashLatencyFromMSIRange+0x28>
 800203e:	2402      	movs	r4, #2
 8002040:	e7d2      	b.n	8001fe8 <RCC_SetFlashLatencyFromMSIRange+0x28>
 8002042:	bf00      	nop
 8002044:	40021000 	.word	0x40021000
 8002048:	40022000 	.word	0x40022000

0800204c <HAL_RCC_GetSysClockFreq>:
 800204c:	4a24      	ldr	r2, [pc, #144]	@ (80020e0 <HAL_RCC_GetSysClockFreq+0x94>)
 800204e:	6893      	ldr	r3, [r2, #8]
 8002050:	68d2      	ldr	r2, [r2, #12]
 8002052:	f013 030c 	ands.w	r3, r3, #12
 8002056:	d007      	beq.n	8002068 <HAL_RCC_GetSysClockFreq+0x1c>
 8002058:	2b0c      	cmp	r3, #12
 800205a:	d034      	beq.n	80020c6 <HAL_RCC_GetSysClockFreq+0x7a>
 800205c:	2b04      	cmp	r3, #4
 800205e:	d03a      	beq.n	80020d6 <HAL_RCC_GetSysClockFreq+0x8a>
 8002060:	2b08      	cmp	r3, #8
 8002062:	d036      	beq.n	80020d2 <HAL_RCC_GetSysClockFreq+0x86>
 8002064:	2000      	movs	r0, #0
 8002066:	4770      	bx	lr
 8002068:	4a1d      	ldr	r2, [pc, #116]	@ (80020e0 <HAL_RCC_GetSysClockFreq+0x94>)
 800206a:	6811      	ldr	r1, [r2, #0]
 800206c:	0709      	lsls	r1, r1, #28
 800206e:	bf54      	ite	pl
 8002070:	f8d2 2094 	ldrpl.w	r2, [r2, #148]	@ 0x94
 8002074:	6812      	ldrmi	r2, [r2, #0]
 8002076:	491b      	ldr	r1, [pc, #108]	@ (80020e4 <HAL_RCC_GetSysClockFreq+0x98>)
 8002078:	bf54      	ite	pl
 800207a:	f3c2 2203 	ubfxpl	r2, r2, #8, #4
 800207e:	f3c2 1203 	ubfxmi	r2, r2, #4, #4
 8002082:	f851 0022 	ldr.w	r0, [r1, r2, lsl #2]
 8002086:	2b00      	cmp	r3, #0
 8002088:	d0ed      	beq.n	8002066 <HAL_RCC_GetSysClockFreq+0x1a>
 800208a:	4b15      	ldr	r3, [pc, #84]	@ (80020e0 <HAL_RCC_GetSysClockFreq+0x94>)
 800208c:	68db      	ldr	r3, [r3, #12]
 800208e:	f003 0303 	and.w	r3, r3, #3
 8002092:	2b02      	cmp	r3, #2
 8002094:	d021      	beq.n	80020da <HAL_RCC_GetSysClockFreq+0x8e>
 8002096:	4a14      	ldr	r2, [pc, #80]	@ (80020e8 <HAL_RCC_GetSysClockFreq+0x9c>)
 8002098:	2b03      	cmp	r3, #3
 800209a:	bf08      	it	eq
 800209c:	4610      	moveq	r0, r2
 800209e:	4b10      	ldr	r3, [pc, #64]	@ (80020e0 <HAL_RCC_GetSysClockFreq+0x94>)
 80020a0:	68d9      	ldr	r1, [r3, #12]
 80020a2:	68da      	ldr	r2, [r3, #12]
 80020a4:	68db      	ldr	r3, [r3, #12]
 80020a6:	f3c3 6341 	ubfx	r3, r3, #25, #2
 80020aa:	f3c2 2206 	ubfx	r2, r2, #8, #7
 80020ae:	f3c1 1102 	ubfx	r1, r1, #4, #3
 80020b2:	3301      	adds	r3, #1
 80020b4:	fb00 f202 	mul.w	r2, r0, r2
 80020b8:	3101      	adds	r1, #1
 80020ba:	005b      	lsls	r3, r3, #1
 80020bc:	fbb2 f2f1 	udiv	r2, r2, r1
 80020c0:	fbb2 f0f3 	udiv	r0, r2, r3
 80020c4:	4770      	bx	lr
 80020c6:	f002 0203 	and.w	r2, r2, #3
 80020ca:	2a01      	cmp	r2, #1
 80020cc:	d0cc      	beq.n	8002068 <HAL_RCC_GetSysClockFreq+0x1c>
 80020ce:	2000      	movs	r0, #0
 80020d0:	e7db      	b.n	800208a <HAL_RCC_GetSysClockFreq+0x3e>
 80020d2:	4805      	ldr	r0, [pc, #20]	@ (80020e8 <HAL_RCC_GetSysClockFreq+0x9c>)
 80020d4:	4770      	bx	lr
 80020d6:	4805      	ldr	r0, [pc, #20]	@ (80020ec <HAL_RCC_GetSysClockFreq+0xa0>)
 80020d8:	4770      	bx	lr
 80020da:	4804      	ldr	r0, [pc, #16]	@ (80020ec <HAL_RCC_GetSysClockFreq+0xa0>)
 80020dc:	e7df      	b.n	800209e <HAL_RCC_GetSysClockFreq+0x52>
 80020de:	bf00      	nop
 80020e0:	40021000 	.word	0x40021000
 80020e4:	08003e30 	.word	0x08003e30
 80020e8:	007a1200 	.word	0x007a1200
 80020ec:	00f42400 	.word	0x00f42400

080020f0 <HAL_RCC_OscConfig>:
 80020f0:	2800      	cmp	r0, #0
 80020f2:	f000 8205 	beq.w	8002500 <HAL_RCC_OscConfig+0x410>
 80020f6:	e92d 43f0 	stmdb	sp!, {r4, r5, r6, r7, r8, r9, lr}
 80020fa:	4aa8      	ldr	r2, [pc, #672]	@ (800239c <HAL_RCC_OscConfig+0x2ac>)
 80020fc:	6803      	ldr	r3, [r0, #0]
 80020fe:	6895      	ldr	r5, [r2, #8]
 8002100:	68d6      	ldr	r6, [r2, #12]
 8002102:	06d9      	lsls	r1, r3, #27
 8002104:	b083      	sub	sp, #12
 8002106:	4604      	mov	r4, r0
 8002108:	f005 050c 	and.w	r5, r5, #12
 800210c:	f006 0603 	and.w	r6, r6, #3
 8002110:	461a      	mov	r2, r3
 8002112:	d52f      	bpl.n	8002174 <HAL_RCC_OscConfig+0x84>
 8002114:	2d00      	cmp	r5, #0
 8002116:	f000 80ef 	beq.w	80022f8 <HAL_RCC_OscConfig+0x208>
 800211a:	2d0c      	cmp	r5, #12
 800211c:	f000 80e9 	beq.w	80022f2 <HAL_RCC_OscConfig+0x202>
 8002120:	69a3      	ldr	r3, [r4, #24]
 8002122:	4f9e      	ldr	r7, [pc, #632]	@ (800239c <HAL_RCC_OscConfig+0x2ac>)
 8002124:	2b00      	cmp	r3, #0
 8002126:	f000 81ae 	beq.w	8002486 <HAL_RCC_OscConfig+0x396>
 800212a:	683b      	ldr	r3, [r7, #0]
 800212c:	f043 0301 	orr.w	r3, r3, #1
 8002130:	603b      	str	r3, [r7, #0]
 8002132:	f7fe fd99 	bl	8000c68 <HAL_GetTick>
 8002136:	4680      	mov	r8, r0
 8002138:	e006      	b.n	8002148 <HAL_RCC_OscConfig+0x58>
 800213a:	f7fe fd95 	bl	8000c68 <HAL_GetTick>
 800213e:	eba0 0008 	sub.w	r0, r0, r8
 8002142:	2802      	cmp	r0, #2
 8002144:	f200 819b 	bhi.w	800247e <HAL_RCC_OscConfig+0x38e>
 8002148:	683b      	ldr	r3, [r7, #0]
 800214a:	079a      	lsls	r2, r3, #30
 800214c:	d5f5      	bpl.n	800213a <HAL_RCC_OscConfig+0x4a>
 800214e:	683b      	ldr	r3, [r7, #0]
 8002150:	f043 0308 	orr.w	r3, r3, #8
 8002154:	603b      	str	r3, [r7, #0]
 8002156:	683b      	ldr	r3, [r7, #0]
 8002158:	6a22      	ldr	r2, [r4, #32]
 800215a:	f023 03f0 	bic.w	r3, r3, #240	@ 0xf0
 800215e:	4313      	orrs	r3, r2
 8002160:	603b      	str	r3, [r7, #0]
 8002162:	687b      	ldr	r3, [r7, #4]
 8002164:	69e2      	ldr	r2, [r4, #28]
 8002166:	f423 437f 	bic.w	r3, r3, #65280	@ 0xff00
 800216a:	ea43 2302 	orr.w	r3, r3, r2, lsl #8
 800216e:	607b      	str	r3, [r7, #4]
 8002170:	6823      	ldr	r3, [r4, #0]
 8002172:	461a      	mov	r2, r3
 8002174:	07df      	lsls	r7, r3, #31
 8002176:	d529      	bpl.n	80021cc <HAL_RCC_OscConfig+0xdc>
 8002178:	2d08      	cmp	r5, #8
 800217a:	f000 8136 	beq.w	80023ea <HAL_RCC_OscConfig+0x2fa>
 800217e:	2d0c      	cmp	r5, #12
 8002180:	f000 8130 	beq.w	80023e4 <HAL_RCC_OscConfig+0x2f4>
 8002184:	6863      	ldr	r3, [r4, #4]
 8002186:	f5b3 3f80 	cmp.w	r3, #65536	@ 0x10000
 800218a:	f000 8190 	beq.w	80024ae <HAL_RCC_OscConfig+0x3be>
 800218e:	f5b3 2fa0 	cmp.w	r3, #327680	@ 0x50000
 8002192:	f000 81df 	beq.w	8002554 <HAL_RCC_OscConfig+0x464>
 8002196:	4f81      	ldr	r7, [pc, #516]	@ (800239c <HAL_RCC_OscConfig+0x2ac>)
 8002198:	683a      	ldr	r2, [r7, #0]
 800219a:	f422 3280 	bic.w	r2, r2, #65536	@ 0x10000
 800219e:	603a      	str	r2, [r7, #0]
 80021a0:	683a      	ldr	r2, [r7, #0]
 80021a2:	f422 2280 	bic.w	r2, r2, #262144	@ 0x40000
 80021a6:	603a      	str	r2, [r7, #0]
 80021a8:	2b00      	cmp	r3, #0
 80021aa:	f040 8185 	bne.w	80024b8 <HAL_RCC_OscConfig+0x3c8>
 80021ae:	f7fe fd5b 	bl	8000c68 <HAL_GetTick>
 80021b2:	4680      	mov	r8, r0
 80021b4:	e006      	b.n	80021c4 <HAL_RCC_OscConfig+0xd4>
 80021b6:	f7fe fd57 	bl	8000c68 <HAL_GetTick>
 80021ba:	eba0 0008 	sub.w	r0, r0, r8
 80021be:	2864      	cmp	r0, #100	@ 0x64
 80021c0:	f200 815d 	bhi.w	800247e <HAL_RCC_OscConfig+0x38e>
 80021c4:	683b      	ldr	r3, [r7, #0]
 80021c6:	0398      	lsls	r0, r3, #14
 80021c8:	d4f5      	bmi.n	80021b6 <HAL_RCC_OscConfig+0xc6>
 80021ca:	6822      	ldr	r2, [r4, #0]
 80021cc:	0791      	lsls	r1, r2, #30
 80021ce:	d513      	bpl.n	80021f8 <HAL_RCC_OscConfig+0x108>
 80021d0:	2d04      	cmp	r5, #4
 80021d2:	f040 80d3 	bne.w	800237c <HAL_RCC_OscConfig+0x28c>
 80021d6:	4b71      	ldr	r3, [pc, #452]	@ (800239c <HAL_RCC_OscConfig+0x2ac>)
 80021d8:	681b      	ldr	r3, [r3, #0]
 80021da:	055a      	lsls	r2, r3, #21
 80021dc:	d503      	bpl.n	80021e6 <HAL_RCC_OscConfig+0xf6>
 80021de:	68e3      	ldr	r3, [r4, #12]
 80021e0:	2b00      	cmp	r3, #0
 80021e2:	f000 80fb 	beq.w	80023dc <HAL_RCC_OscConfig+0x2ec>
 80021e6:	4a6d      	ldr	r2, [pc, #436]	@ (800239c <HAL_RCC_OscConfig+0x2ac>)
 80021e8:	6921      	ldr	r1, [r4, #16]
 80021ea:	6853      	ldr	r3, [r2, #4]
 80021ec:	f023 53f8 	bic.w	r3, r3, #520093696	@ 0x1f000000
 80021f0:	ea43 6301 	orr.w	r3, r3, r1, lsl #24
 80021f4:	6053      	str	r3, [r2, #4]
 80021f6:	6822      	ldr	r2, [r4, #0]
 80021f8:	0711      	lsls	r1, r2, #28
 80021fa:	d519      	bpl.n	8002230 <HAL_RCC_OscConfig+0x140>
 80021fc:	6963      	ldr	r3, [r4, #20]
 80021fe:	4e67      	ldr	r6, [pc, #412]	@ (800239c <HAL_RCC_OscConfig+0x2ac>)
 8002200:	2b00      	cmp	r3, #0
 8002202:	f000 80fb 	beq.w	80023fc <HAL_RCC_OscConfig+0x30c>
 8002206:	f8d6 3094 	ldr.w	r3, [r6, #148]	@ 0x94
 800220a:	f043 0301 	orr.w	r3, r3, #1
 800220e:	f8c6 3094 	str.w	r3, [r6, #148]	@ 0x94
 8002212:	f7fe fd29 	bl	8000c68 <HAL_GetTick>
 8002216:	4607      	mov	r7, r0
 8002218:	e005      	b.n	8002226 <HAL_RCC_OscConfig+0x136>
 800221a:	f7fe fd25 	bl	8000c68 <HAL_GetTick>
 800221e:	1bc0      	subs	r0, r0, r7
 8002220:	2802      	cmp	r0, #2
 8002222:	f200 812c 	bhi.w	800247e <HAL_RCC_OscConfig+0x38e>
 8002226:	f8d6 3094 	ldr.w	r3, [r6, #148]	@ 0x94
 800222a:	079a      	lsls	r2, r3, #30
 800222c:	d5f5      	bpl.n	800221a <HAL_RCC_OscConfig+0x12a>
 800222e:	6822      	ldr	r2, [r4, #0]
 8002230:	0750      	lsls	r0, r2, #29
 8002232:	d53e      	bpl.n	80022b2 <HAL_RCC_OscConfig+0x1c2>
 8002234:	4b59      	ldr	r3, [pc, #356]	@ (800239c <HAL_RCC_OscConfig+0x2ac>)
 8002236:	6d9a      	ldr	r2, [r3, #88]	@ 0x58
 8002238:	00d1      	lsls	r1, r2, #3
 800223a:	f100 814d 	bmi.w	80024d8 <HAL_RCC_OscConfig+0x3e8>
 800223e:	6d9a      	ldr	r2, [r3, #88]	@ 0x58
 8002240:	f042 5280 	orr.w	r2, r2, #268435456	@ 0x10000000
 8002244:	659a      	str	r2, [r3, #88]	@ 0x58
 8002246:	6d9b      	ldr	r3, [r3, #88]	@ 0x58
 8002248:	f003 5380 	and.w	r3, r3, #268435456	@ 0x10000000
 800224c:	9301      	str	r3, [sp, #4]
 800224e:	9b01      	ldr	r3, [sp, #4]
 8002250:	2601      	movs	r6, #1
 8002252:	4f53      	ldr	r7, [pc, #332]	@ (80023a0 <HAL_RCC_OscConfig+0x2b0>)
 8002254:	683b      	ldr	r3, [r7, #0]
 8002256:	05da      	lsls	r2, r3, #23
 8002258:	f140 8100 	bpl.w	800245c <HAL_RCC_OscConfig+0x36c>
 800225c:	68a3      	ldr	r3, [r4, #8]
 800225e:	2b01      	cmp	r3, #1
 8002260:	f000 80e0 	beq.w	8002424 <HAL_RCC_OscConfig+0x334>
 8002264:	2b05      	cmp	r3, #5
 8002266:	f000 81d8 	beq.w	800261a <HAL_RCC_OscConfig+0x52a>
 800226a:	4f4c      	ldr	r7, [pc, #304]	@ (800239c <HAL_RCC_OscConfig+0x2ac>)
 800226c:	f8d7 2090 	ldr.w	r2, [r7, #144]	@ 0x90
 8002270:	f022 0201 	bic.w	r2, r2, #1
 8002274:	f8c7 2090 	str.w	r2, [r7, #144]	@ 0x90
 8002278:	f8d7 2090 	ldr.w	r2, [r7, #144]	@ 0x90
 800227c:	f022 0204 	bic.w	r2, r2, #4
 8002280:	f8c7 2090 	str.w	r2, [r7, #144]	@ 0x90
 8002284:	2b00      	cmp	r3, #0
 8002286:	f040 80d4 	bne.w	8002432 <HAL_RCC_OscConfig+0x342>
 800228a:	f7fe fced 	bl	8000c68 <HAL_GetTick>
 800228e:	f241 3988 	movw	r9, #5000	@ 0x1388
 8002292:	4680      	mov	r8, r0
 8002294:	e006      	b.n	80022a4 <HAL_RCC_OscConfig+0x1b4>
 8002296:	f7fe fce7 	bl	8000c68 <HAL_GetTick>
 800229a:	eba0 0008 	sub.w	r0, r0, r8
 800229e:	4548      	cmp	r0, r9
 80022a0:	f200 80ed 	bhi.w	800247e <HAL_RCC_OscConfig+0x38e>
 80022a4:	f8d7 3090 	ldr.w	r3, [r7, #144]	@ 0x90
 80022a8:	0799      	lsls	r1, r3, #30
 80022aa:	d4f4      	bmi.n	8002296 <HAL_RCC_OscConfig+0x1a6>
 80022ac:	2e00      	cmp	r6, #0
 80022ae:	f040 8145 	bne.w	800253c <HAL_RCC_OscConfig+0x44c>
 80022b2:	6aa3      	ldr	r3, [r4, #40]	@ 0x28
 80022b4:	b1db      	cbz	r3, 80022ee <HAL_RCC_OscConfig+0x1fe>
 80022b6:	2b02      	cmp	r3, #2
 80022b8:	f000 8159 	beq.w	800256e <HAL_RCC_OscConfig+0x47e>
 80022bc:	2d0c      	cmp	r5, #12
 80022be:	f000 808d 	beq.w	80023dc <HAL_RCC_OscConfig+0x2ec>
 80022c2:	4c36      	ldr	r4, [pc, #216]	@ (800239c <HAL_RCC_OscConfig+0x2ac>)
 80022c4:	6823      	ldr	r3, [r4, #0]
 80022c6:	f023 7380 	bic.w	r3, r3, #16777216	@ 0x1000000
 80022ca:	6023      	str	r3, [r4, #0]
 80022cc:	f7fe fccc 	bl	8000c68 <HAL_GetTick>
 80022d0:	4605      	mov	r5, r0
 80022d2:	e005      	b.n	80022e0 <HAL_RCC_OscConfig+0x1f0>
 80022d4:	f7fe fcc8 	bl	8000c68 <HAL_GetTick>
 80022d8:	1b40      	subs	r0, r0, r5
 80022da:	2802      	cmp	r0, #2
 80022dc:	f200 80cf 	bhi.w	800247e <HAL_RCC_OscConfig+0x38e>
 80022e0:	6823      	ldr	r3, [r4, #0]
 80022e2:	019b      	lsls	r3, r3, #6
 80022e4:	d4f6      	bmi.n	80022d4 <HAL_RCC_OscConfig+0x1e4>
 80022e6:	68e2      	ldr	r2, [r4, #12]
 80022e8:	4b2e      	ldr	r3, [pc, #184]	@ (80023a4 <HAL_RCC_OscConfig+0x2b4>)
 80022ea:	4013      	ands	r3, r2
 80022ec:	60e3      	str	r3, [r4, #12]
 80022ee:	2000      	movs	r0, #0
 80022f0:	e075      	b.n	80023de <HAL_RCC_OscConfig+0x2ee>
 80022f2:	2e01      	cmp	r6, #1
 80022f4:	f47f af14 	bne.w	8002120 <HAL_RCC_OscConfig+0x30>
 80022f8:	4b28      	ldr	r3, [pc, #160]	@ (800239c <HAL_RCC_OscConfig+0x2ac>)
 80022fa:	681b      	ldr	r3, [r3, #0]
 80022fc:	079b      	lsls	r3, r3, #30
 80022fe:	d46a      	bmi.n	80023d6 <HAL_RCC_OscConfig+0x2e6>
 8002300:	4b26      	ldr	r3, [pc, #152]	@ (800239c <HAL_RCC_OscConfig+0x2ac>)
 8002302:	6a20      	ldr	r0, [r4, #32]
 8002304:	681a      	ldr	r2, [r3, #0]
 8002306:	0717      	lsls	r7, r2, #28
 8002308:	bf56      	itet	pl
 800230a:	f8d3 3094 	ldrpl.w	r3, [r3, #148]	@ 0x94
 800230e:	681b      	ldrmi	r3, [r3, #0]
 8002310:	091b      	lsrpl	r3, r3, #4
 8002312:	f003 03f0 	and.w	r3, r3, #240	@ 0xf0
 8002316:	4298      	cmp	r0, r3
 8002318:	f200 80f4 	bhi.w	8002504 <HAL_RCC_OscConfig+0x414>
 800231c:	4b1f      	ldr	r3, [pc, #124]	@ (800239c <HAL_RCC_OscConfig+0x2ac>)
 800231e:	681a      	ldr	r2, [r3, #0]
 8002320:	f042 0208 	orr.w	r2, r2, #8
 8002324:	601a      	str	r2, [r3, #0]
 8002326:	681a      	ldr	r2, [r3, #0]
 8002328:	f022 02f0 	bic.w	r2, r2, #240	@ 0xf0
 800232c:	4302      	orrs	r2, r0
 800232e:	601a      	str	r2, [r3, #0]
 8002330:	685a      	ldr	r2, [r3, #4]
 8002332:	69e1      	ldr	r1, [r4, #28]
 8002334:	f422 427f 	bic.w	r2, r2, #65280	@ 0xff00
 8002338:	ea42 2201 	orr.w	r2, r2, r1, lsl #8
 800233c:	605a      	str	r2, [r3, #4]
 800233e:	2d00      	cmp	r5, #0
 8002340:	f000 8102 	beq.w	8002548 <HAL_RCC_OscConfig+0x458>
 8002344:	f7ff fe82 	bl	800204c <HAL_RCC_GetSysClockFreq>
 8002348:	4b14      	ldr	r3, [pc, #80]	@ (800239c <HAL_RCC_OscConfig+0x2ac>)
 800234a:	4a17      	ldr	r2, [pc, #92]	@ (80023a8 <HAL_RCC_OscConfig+0x2b8>)
 800234c:	689b      	ldr	r3, [r3, #8]
 800234e:	f3c3 1303 	ubfx	r3, r3, #4, #4
 8002352:	5cd3      	ldrb	r3, [r2, r3]
 8002354:	4a15      	ldr	r2, [pc, #84]	@ (80023ac <HAL_RCC_OscConfig+0x2bc>)
 8002356:	f003 031f 	and.w	r3, r3, #31
 800235a:	fa20 f303 	lsr.w	r3, r0, r3
 800235e:	6810      	ldr	r0, [r2, #0]
 8002360:	4a13      	ldr	r2, [pc, #76]	@ (80023b0 <HAL_RCC_OscConfig+0x2c0>)
 8002362:	6013      	str	r3, [r2, #0]
 8002364:	f7fe fc36 	bl	8000bd4 <HAL_InitTick>
 8002368:	2800      	cmp	r0, #0
 800236a:	d138      	bne.n	80023de <HAL_RCC_OscConfig+0x2ee>
 800236c:	6822      	ldr	r2, [r4, #0]
 800236e:	07d1      	lsls	r1, r2, #31
 8002370:	4613      	mov	r3, r2
 8002372:	f53f af04 	bmi.w	800217e <HAL_RCC_OscConfig+0x8e>
 8002376:	0791      	lsls	r1, r2, #30
 8002378:	f57f af3e 	bpl.w	80021f8 <HAL_RCC_OscConfig+0x108>
 800237c:	2d0c      	cmp	r5, #12
 800237e:	f000 80d9 	beq.w	8002534 <HAL_RCC_OscConfig+0x444>
 8002382:	68e3      	ldr	r3, [r4, #12]
 8002384:	4e05      	ldr	r6, [pc, #20]	@ (800239c <HAL_RCC_OscConfig+0x2ac>)
 8002386:	2b00      	cmp	r3, #0
 8002388:	f000 80a8 	beq.w	80024dc <HAL_RCC_OscConfig+0x3ec>
 800238c:	6833      	ldr	r3, [r6, #0]
 800238e:	f443 7380 	orr.w	r3, r3, #256	@ 0x100
 8002392:	6033      	str	r3, [r6, #0]
 8002394:	f7fe fc68 	bl	8000c68 <HAL_GetTick>
 8002398:	4607      	mov	r7, r0
 800239a:	e010      	b.n	80023be <HAL_RCC_OscConfig+0x2ce>
 800239c:	40021000 	.word	0x40021000
 80023a0:	40007000 	.word	0x40007000
 80023a4:	feeefffc 	.word	0xfeeefffc
 80023a8:	08003e68 	.word	0x08003e68
 80023ac:	2000000c 	.word	0x2000000c
 80023b0:	20000004 	.word	0x20000004
 80023b4:	f7fe fc58 	bl	8000c68 <HAL_GetTick>
 80023b8:	1bc0      	subs	r0, r0, r7
 80023ba:	2802      	cmp	r0, #2
 80023bc:	d85f      	bhi.n	800247e <HAL_RCC_OscConfig+0x38e>
 80023be:	6833      	ldr	r3, [r6, #0]
 80023c0:	055b      	lsls	r3, r3, #21
 80023c2:	d5f7      	bpl.n	80023b4 <HAL_RCC_OscConfig+0x2c4>
 80023c4:	6873      	ldr	r3, [r6, #4]
 80023c6:	6922      	ldr	r2, [r4, #16]
 80023c8:	f023 53f8 	bic.w	r3, r3, #520093696	@ 0x1f000000
 80023cc:	ea43 6302 	orr.w	r3, r3, r2, lsl #24
 80023d0:	6073      	str	r3, [r6, #4]
 80023d2:	6822      	ldr	r2, [r4, #0]
 80023d4:	e710      	b.n	80021f8 <HAL_RCC_OscConfig+0x108>
 80023d6:	69a3      	ldr	r3, [r4, #24]
 80023d8:	2b00      	cmp	r3, #0
 80023da:	d191      	bne.n	8002300 <HAL_RCC_OscConfig+0x210>
 80023dc:	2001      	movs	r0, #1
 80023de:	b003      	add	sp, #12
 80023e0:	e8bd 83f0 	ldmia.w	sp!, {r4, r5, r6, r7, r8, r9, pc}
 80023e4:	2e03      	cmp	r6, #3
 80023e6:	f47f aecd 	bne.w	8002184 <HAL_RCC_OscConfig+0x94>
 80023ea:	4aae      	ldr	r2, [pc, #696]	@ (80026a4 <HAL_RCC_OscConfig+0x5b4>)
 80023ec:	6812      	ldr	r2, [r2, #0]
 80023ee:	0390      	lsls	r0, r2, #14
 80023f0:	d502      	bpl.n	80023f8 <HAL_RCC_OscConfig+0x308>
 80023f2:	6862      	ldr	r2, [r4, #4]
 80023f4:	2a00      	cmp	r2, #0
 80023f6:	d0f1      	beq.n	80023dc <HAL_RCC_OscConfig+0x2ec>
 80023f8:	461a      	mov	r2, r3
 80023fa:	e7bc      	b.n	8002376 <HAL_RCC_OscConfig+0x286>
 80023fc:	f8d6 3094 	ldr.w	r3, [r6, #148]	@ 0x94
 8002400:	f023 0301 	bic.w	r3, r3, #1
 8002404:	f8c6 3094 	str.w	r3, [r6, #148]	@ 0x94
 8002408:	f7fe fc2e 	bl	8000c68 <HAL_GetTick>
 800240c:	4607      	mov	r7, r0
 800240e:	e004      	b.n	800241a <HAL_RCC_OscConfig+0x32a>
 8002410:	f7fe fc2a 	bl	8000c68 <HAL_GetTick>
 8002414:	1bc0      	subs	r0, r0, r7
 8002416:	2802      	cmp	r0, #2
 8002418:	d831      	bhi.n	800247e <HAL_RCC_OscConfig+0x38e>
 800241a:	f8d6 3094 	ldr.w	r3, [r6, #148]	@ 0x94
 800241e:	079b      	lsls	r3, r3, #30
 8002420:	d4f6      	bmi.n	8002410 <HAL_RCC_OscConfig+0x320>
 8002422:	e704      	b.n	800222e <HAL_RCC_OscConfig+0x13e>
 8002424:	4a9f      	ldr	r2, [pc, #636]	@ (80026a4 <HAL_RCC_OscConfig+0x5b4>)
 8002426:	f8d2 3090 	ldr.w	r3, [r2, #144]	@ 0x90
 800242a:	f043 0301 	orr.w	r3, r3, #1
 800242e:	f8c2 3090 	str.w	r3, [r2, #144]	@ 0x90
 8002432:	f7fe fc19 	bl	8000c68 <HAL_GetTick>
 8002436:	f8df 826c 	ldr.w	r8, [pc, #620]	@ 80026a4 <HAL_RCC_OscConfig+0x5b4>
 800243a:	4607      	mov	r7, r0
 800243c:	f241 3988 	movw	r9, #5000	@ 0x1388
 8002440:	e004      	b.n	800244c <HAL_RCC_OscConfig+0x35c>
 8002442:	f7fe fc11 	bl	8000c68 <HAL_GetTick>
 8002446:	1bc0      	subs	r0, r0, r7
 8002448:	4548      	cmp	r0, r9
 800244a:	d818      	bhi.n	800247e <HAL_RCC_OscConfig+0x38e>
 800244c:	f8d8 3090 	ldr.w	r3, [r8, #144]	@ 0x90
 8002450:	0798      	lsls	r0, r3, #30
 8002452:	d5f6      	bpl.n	8002442 <HAL_RCC_OscConfig+0x352>
 8002454:	2e00      	cmp	r6, #0
 8002456:	f43f af2c 	beq.w	80022b2 <HAL_RCC_OscConfig+0x1c2>
 800245a:	e06f      	b.n	800253c <HAL_RCC_OscConfig+0x44c>
 800245c:	683b      	ldr	r3, [r7, #0]
 800245e:	f443 7380 	orr.w	r3, r3, #256	@ 0x100
 8002462:	603b      	str	r3, [r7, #0]
 8002464:	f7fe fc00 	bl	8000c68 <HAL_GetTick>
 8002468:	4680      	mov	r8, r0
 800246a:	683b      	ldr	r3, [r7, #0]
 800246c:	05db      	lsls	r3, r3, #23
 800246e:	f53f aef5 	bmi.w	800225c <HAL_RCC_OscConfig+0x16c>
 8002472:	f7fe fbf9 	bl	8000c68 <HAL_GetTick>
 8002476:	eba0 0008 	sub.w	r0, r0, r8
 800247a:	2802      	cmp	r0, #2
 800247c:	d9f5      	bls.n	800246a <HAL_RCC_OscConfig+0x37a>
 800247e:	2003      	movs	r0, #3
 8002480:	b003      	add	sp, #12
 8002482:	e8bd 83f0 	ldmia.w	sp!, {r4, r5, r6, r7, r8, r9, pc}
 8002486:	683b      	ldr	r3, [r7, #0]
 8002488:	f023 0301 	bic.w	r3, r3, #1
 800248c:	603b      	str	r3, [r7, #0]
 800248e:	f7fe fbeb 	bl	8000c68 <HAL_GetTick>
 8002492:	4680      	mov	r8, r0
 8002494:	e005      	b.n	80024a2 <HAL_RCC_OscConfig+0x3b2>
 8002496:	f7fe fbe7 	bl	8000c68 <HAL_GetTick>
 800249a:	eba0 0008 	sub.w	r0, r0, r8
 800249e:	2802      	cmp	r0, #2
 80024a0:	d8ed      	bhi.n	800247e <HAL_RCC_OscConfig+0x38e>
 80024a2:	683b      	ldr	r3, [r7, #0]
 80024a4:	079b      	lsls	r3, r3, #30
 80024a6:	d4f6      	bmi.n	8002496 <HAL_RCC_OscConfig+0x3a6>
 80024a8:	6823      	ldr	r3, [r4, #0]
 80024aa:	461a      	mov	r2, r3
 80024ac:	e662      	b.n	8002174 <HAL_RCC_OscConfig+0x84>
 80024ae:	4a7d      	ldr	r2, [pc, #500]	@ (80026a4 <HAL_RCC_OscConfig+0x5b4>)
 80024b0:	6813      	ldr	r3, [r2, #0]
 80024b2:	f443 3380 	orr.w	r3, r3, #65536	@ 0x10000
 80024b6:	6013      	str	r3, [r2, #0]
 80024b8:	f7fe fbd6 	bl	8000c68 <HAL_GetTick>
 80024bc:	f8df 81e4 	ldr.w	r8, [pc, #484]	@ 80026a4 <HAL_RCC_OscConfig+0x5b4>
 80024c0:	4607      	mov	r7, r0
 80024c2:	e004      	b.n	80024ce <HAL_RCC_OscConfig+0x3de>
 80024c4:	f7fe fbd0 	bl	8000c68 <HAL_GetTick>
 80024c8:	1bc0      	subs	r0, r0, r7
 80024ca:	2864      	cmp	r0, #100	@ 0x64
 80024cc:	d8d7      	bhi.n	800247e <HAL_RCC_OscConfig+0x38e>
 80024ce:	f8d8 3000 	ldr.w	r3, [r8]
 80024d2:	039b      	lsls	r3, r3, #14
 80024d4:	d5f6      	bpl.n	80024c4 <HAL_RCC_OscConfig+0x3d4>
 80024d6:	e678      	b.n	80021ca <HAL_RCC_OscConfig+0xda>
 80024d8:	2600      	movs	r6, #0
 80024da:	e6ba      	b.n	8002252 <HAL_RCC_OscConfig+0x162>
 80024dc:	6833      	ldr	r3, [r6, #0]
 80024de:	f423 7380 	bic.w	r3, r3, #256	@ 0x100
 80024e2:	6033      	str	r3, [r6, #0]
 80024e4:	f7fe fbc0 	bl	8000c68 <HAL_GetTick>
 80024e8:	4607      	mov	r7, r0
 80024ea:	e004      	b.n	80024f6 <HAL_RCC_OscConfig+0x406>
 80024ec:	f7fe fbbc 	bl	8000c68 <HAL_GetTick>
 80024f0:	1bc0      	subs	r0, r0, r7
 80024f2:	2802      	cmp	r0, #2
 80024f4:	d8c3      	bhi.n	800247e <HAL_RCC_OscConfig+0x38e>
 80024f6:	6833      	ldr	r3, [r6, #0]
 80024f8:	0558      	lsls	r0, r3, #21
 80024fa:	d4f7      	bmi.n	80024ec <HAL_RCC_OscConfig+0x3fc>
 80024fc:	6822      	ldr	r2, [r4, #0]
 80024fe:	e67b      	b.n	80021f8 <HAL_RCC_OscConfig+0x108>
 8002500:	2001      	movs	r0, #1
 8002502:	4770      	bx	lr
 8002504:	f7ff fd5c 	bl	8001fc0 <RCC_SetFlashLatencyFromMSIRange>
 8002508:	2800      	cmp	r0, #0
 800250a:	f47f af67 	bne.w	80023dc <HAL_RCC_OscConfig+0x2ec>
 800250e:	4b65      	ldr	r3, [pc, #404]	@ (80026a4 <HAL_RCC_OscConfig+0x5b4>)
 8002510:	681a      	ldr	r2, [r3, #0]
 8002512:	f042 0208 	orr.w	r2, r2, #8
 8002516:	601a      	str	r2, [r3, #0]
 8002518:	681a      	ldr	r2, [r3, #0]
 800251a:	6a21      	ldr	r1, [r4, #32]
 800251c:	f022 02f0 	bic.w	r2, r2, #240	@ 0xf0
 8002520:	430a      	orrs	r2, r1
 8002522:	601a      	str	r2, [r3, #0]
 8002524:	685a      	ldr	r2, [r3, #4]
 8002526:	69e1      	ldr	r1, [r4, #28]
 8002528:	f422 427f 	bic.w	r2, r2, #65280	@ 0xff00
 800252c:	ea42 2201 	orr.w	r2, r2, r1, lsl #8
 8002530:	605a      	str	r2, [r3, #4]
 8002532:	e707      	b.n	8002344 <HAL_RCC_OscConfig+0x254>
 8002534:	2e02      	cmp	r6, #2
 8002536:	f47f af24 	bne.w	8002382 <HAL_RCC_OscConfig+0x292>
 800253a:	e64c      	b.n	80021d6 <HAL_RCC_OscConfig+0xe6>
 800253c:	4a59      	ldr	r2, [pc, #356]	@ (80026a4 <HAL_RCC_OscConfig+0x5b4>)
 800253e:	6d93      	ldr	r3, [r2, #88]	@ 0x58
 8002540:	f023 5380 	bic.w	r3, r3, #268435456	@ 0x10000000
 8002544:	6593      	str	r3, [r2, #88]	@ 0x58
 8002546:	e6b4      	b.n	80022b2 <HAL_RCC_OscConfig+0x1c2>
 8002548:	f7ff fd3a 	bl	8001fc0 <RCC_SetFlashLatencyFromMSIRange>
 800254c:	2800      	cmp	r0, #0
 800254e:	f43f aef9 	beq.w	8002344 <HAL_RCC_OscConfig+0x254>
 8002552:	e743      	b.n	80023dc <HAL_RCC_OscConfig+0x2ec>
 8002554:	f103 4380 	add.w	r3, r3, #1073741824	@ 0x40000000
 8002558:	f5a3 333c 	sub.w	r3, r3, #192512	@ 0x2f000
 800255c:	681a      	ldr	r2, [r3, #0]
 800255e:	f442 2280 	orr.w	r2, r2, #262144	@ 0x40000
 8002562:	601a      	str	r2, [r3, #0]
 8002564:	681a      	ldr	r2, [r3, #0]
 8002566:	f442 3280 	orr.w	r2, r2, #65536	@ 0x10000
 800256a:	601a      	str	r2, [r3, #0]
 800256c:	e7a4      	b.n	80024b8 <HAL_RCC_OscConfig+0x3c8>
 800256e:	4e4d      	ldr	r6, [pc, #308]	@ (80026a4 <HAL_RCC_OscConfig+0x5b4>)
 8002570:	6ae2      	ldr	r2, [r4, #44]	@ 0x2c
 8002572:	68f3      	ldr	r3, [r6, #12]
 8002574:	f003 0103 	and.w	r1, r3, #3
 8002578:	4291      	cmp	r1, r2
 800257a:	d05c      	beq.n	8002636 <HAL_RCC_OscConfig+0x546>
 800257c:	2d0c      	cmp	r5, #12
 800257e:	f43f af2d 	beq.w	80023dc <HAL_RCC_OscConfig+0x2ec>
 8002582:	4d48      	ldr	r5, [pc, #288]	@ (80026a4 <HAL_RCC_OscConfig+0x5b4>)
 8002584:	682b      	ldr	r3, [r5, #0]
 8002586:	015a      	lsls	r2, r3, #5
 8002588:	f53f af28 	bmi.w	80023dc <HAL_RCC_OscConfig+0x2ec>
 800258c:	682b      	ldr	r3, [r5, #0]
 800258e:	00db      	lsls	r3, r3, #3
 8002590:	f53f af24 	bmi.w	80023dc <HAL_RCC_OscConfig+0x2ec>
 8002594:	682b      	ldr	r3, [r5, #0]
 8002596:	f023 7380 	bic.w	r3, r3, #16777216	@ 0x1000000
 800259a:	602b      	str	r3, [r5, #0]
 800259c:	f7fe fb64 	bl	8000c68 <HAL_GetTick>
 80025a0:	4606      	mov	r6, r0
 80025a2:	e005      	b.n	80025b0 <HAL_RCC_OscConfig+0x4c0>
 80025a4:	f7fe fb60 	bl	8000c68 <HAL_GetTick>
 80025a8:	1b80      	subs	r0, r0, r6
 80025aa:	2802      	cmp	r0, #2
 80025ac:	f63f af67 	bhi.w	800247e <HAL_RCC_OscConfig+0x38e>
 80025b0:	682b      	ldr	r3, [r5, #0]
 80025b2:	019f      	lsls	r7, r3, #6
 80025b4:	d4f6      	bmi.n	80025a4 <HAL_RCC_OscConfig+0x4b4>
 80025b6:	68e9      	ldr	r1, [r5, #12]
 80025b8:	4b3b      	ldr	r3, [pc, #236]	@ (80026a8 <HAL_RCC_OscConfig+0x5b8>)
 80025ba:	6ae2      	ldr	r2, [r4, #44]	@ 0x2c
 80025bc:	400b      	ands	r3, r1
 80025be:	4313      	orrs	r3, r2
 80025c0:	e9d4 210c 	ldrd	r2, r1, [r4, #48]	@ 0x30
 80025c4:	ea43 2301 	orr.w	r3, r3, r1, lsl #8
 80025c8:	e9d4 010e 	ldrd	r0, r1, [r4, #56]	@ 0x38
 80025cc:	3a01      	subs	r2, #1
 80025ce:	ea43 1302 	orr.w	r3, r3, r2, lsl #4
 80025d2:	6c22      	ldr	r2, [r4, #64]	@ 0x40
 80025d4:	0900      	lsrs	r0, r0, #4
 80025d6:	0849      	lsrs	r1, r1, #1
 80025d8:	ea43 4340 	orr.w	r3, r3, r0, lsl #17
 80025dc:	3901      	subs	r1, #1
 80025de:	0852      	lsrs	r2, r2, #1
 80025e0:	ea43 5341 	orr.w	r3, r3, r1, lsl #21
 80025e4:	3a01      	subs	r2, #1
 80025e6:	ea43 6342 	orr.w	r3, r3, r2, lsl #25
 80025ea:	60eb      	str	r3, [r5, #12]
 80025ec:	682b      	ldr	r3, [r5, #0]
 80025ee:	f043 7380 	orr.w	r3, r3, #16777216	@ 0x1000000
 80025f2:	602b      	str	r3, [r5, #0]
 80025f4:	68eb      	ldr	r3, [r5, #12]
 80025f6:	f043 7380 	orr.w	r3, r3, #16777216	@ 0x1000000
 80025fa:	60eb      	str	r3, [r5, #12]
 80025fc:	f7fe fb34 	bl	8000c68 <HAL_GetTick>
 8002600:	4d28      	ldr	r5, [pc, #160]	@ (80026a4 <HAL_RCC_OscConfig+0x5b4>)
 8002602:	4604      	mov	r4, r0
 8002604:	e005      	b.n	8002612 <HAL_RCC_OscConfig+0x522>
 8002606:	f7fe fb2f 	bl	8000c68 <HAL_GetTick>
 800260a:	1b00      	subs	r0, r0, r4
 800260c:	2802      	cmp	r0, #2
 800260e:	f63f af36 	bhi.w	800247e <HAL_RCC_OscConfig+0x38e>
 8002612:	682b      	ldr	r3, [r5, #0]
 8002614:	0198      	lsls	r0, r3, #6
 8002616:	d5f6      	bpl.n	8002606 <HAL_RCC_OscConfig+0x516>
 8002618:	e669      	b.n	80022ee <HAL_RCC_OscConfig+0x1fe>
 800261a:	4b22      	ldr	r3, [pc, #136]	@ (80026a4 <HAL_RCC_OscConfig+0x5b4>)
 800261c:	f8d3 2090 	ldr.w	r2, [r3, #144]	@ 0x90
 8002620:	f042 0204 	orr.w	r2, r2, #4
 8002624:	f8c3 2090 	str.w	r2, [r3, #144]	@ 0x90
 8002628:	f8d3 2090 	ldr.w	r2, [r3, #144]	@ 0x90
 800262c:	f042 0201 	orr.w	r2, r2, #1
 8002630:	f8c3 2090 	str.w	r2, [r3, #144]	@ 0x90
 8002634:	e6fd      	b.n	8002432 <HAL_RCC_OscConfig+0x342>
 8002636:	6b21      	ldr	r1, [r4, #48]	@ 0x30
 8002638:	f003 0270 	and.w	r2, r3, #112	@ 0x70
 800263c:	3901      	subs	r1, #1
 800263e:	ebb2 1f01 	cmp.w	r2, r1, lsl #4
 8002642:	d19b      	bne.n	800257c <HAL_RCC_OscConfig+0x48c>
 8002644:	6b61      	ldr	r1, [r4, #52]	@ 0x34
 8002646:	f403 42fe 	and.w	r2, r3, #32512	@ 0x7f00
 800264a:	ebb2 2f01 	cmp.w	r2, r1, lsl #8
 800264e:	d195      	bne.n	800257c <HAL_RCC_OscConfig+0x48c>
 8002650:	6ba2      	ldr	r2, [r4, #56]	@ 0x38
 8002652:	3a07      	subs	r2, #7
 8002654:	f403 3100 	and.w	r1, r3, #131072	@ 0x20000
 8002658:	bf18      	it	ne
 800265a:	2201      	movne	r2, #1
 800265c:	4291      	cmp	r1, r2
 800265e:	d18d      	bne.n	800257c <HAL_RCC_OscConfig+0x48c>
 8002660:	6be2      	ldr	r2, [r4, #60]	@ 0x3c
 8002662:	0852      	lsrs	r2, r2, #1
 8002664:	f403 01c0 	and.w	r1, r3, #6291456	@ 0x600000
 8002668:	3a01      	subs	r2, #1
 800266a:	ebb1 5f42 	cmp.w	r1, r2, lsl #21
 800266e:	d185      	bne.n	800257c <HAL_RCC_OscConfig+0x48c>
 8002670:	6c22      	ldr	r2, [r4, #64]	@ 0x40
 8002672:	0852      	lsrs	r2, r2, #1
 8002674:	f003 63c0 	and.w	r3, r3, #100663296	@ 0x6000000
 8002678:	3a01      	subs	r2, #1
 800267a:	ebb3 6f42 	cmp.w	r3, r2, lsl #25
 800267e:	f47f af7d 	bne.w	800257c <HAL_RCC_OscConfig+0x48c>
 8002682:	6833      	ldr	r3, [r6, #0]
 8002684:	0199      	lsls	r1, r3, #6
 8002686:	f53f ae32 	bmi.w	80022ee <HAL_RCC_OscConfig+0x1fe>
 800268a:	6833      	ldr	r3, [r6, #0]
 800268c:	f043 7380 	orr.w	r3, r3, #16777216	@ 0x1000000
 8002690:	6033      	str	r3, [r6, #0]
 8002692:	68f3      	ldr	r3, [r6, #12]
 8002694:	f043 7380 	orr.w	r3, r3, #16777216	@ 0x1000000
 8002698:	60f3      	str	r3, [r6, #12]
 800269a:	f7fe fae5 	bl	8000c68 <HAL_GetTick>
 800269e:	4604      	mov	r4, r0
 80026a0:	e00a      	b.n	80026b8 <HAL_RCC_OscConfig+0x5c8>
 80026a2:	bf00      	nop
 80026a4:	40021000 	.word	0x40021000
 80026a8:	f99d808c 	.word	0xf99d808c
 80026ac:	f7fe fadc 	bl	8000c68 <HAL_GetTick>
 80026b0:	1b03      	subs	r3, r0, r4
 80026b2:	2b02      	cmp	r3, #2
 80026b4:	f63f aee3 	bhi.w	800247e <HAL_RCC_OscConfig+0x38e>
 80026b8:	6833      	ldr	r3, [r6, #0]
 80026ba:	019a      	lsls	r2, r3, #6
 80026bc:	d5f6      	bpl.n	80026ac <HAL_RCC_OscConfig+0x5bc>
 80026be:	e616      	b.n	80022ee <HAL_RCC_OscConfig+0x1fe>

080026c0 <HAL_RCC_ClockConfig>:
 80026c0:	2800      	cmp	r0, #0
 80026c2:	f000 80a0 	beq.w	8002806 <HAL_RCC_ClockConfig+0x146>
 80026c6:	4a54      	ldr	r2, [pc, #336]	@ (8002818 <HAL_RCC_ClockConfig+0x158>)
 80026c8:	6813      	ldr	r3, [r2, #0]
 80026ca:	f003 0307 	and.w	r3, r3, #7
 80026ce:	428b      	cmp	r3, r1
 80026d0:	e92d 41f0 	stmdb	sp!, {r4, r5, r6, r7, r8, lr}
 80026d4:	460d      	mov	r5, r1
 80026d6:	4604      	mov	r4, r0
 80026d8:	d20c      	bcs.n	80026f4 <HAL_RCC_ClockConfig+0x34>
 80026da:	6813      	ldr	r3, [r2, #0]
 80026dc:	f023 0307 	bic.w	r3, r3, #7
 80026e0:	430b      	orrs	r3, r1
 80026e2:	6013      	str	r3, [r2, #0]
 80026e4:	6813      	ldr	r3, [r2, #0]
 80026e6:	f003 0307 	and.w	r3, r3, #7
 80026ea:	428b      	cmp	r3, r1
 80026ec:	d002      	beq.n	80026f4 <HAL_RCC_ClockConfig+0x34>
 80026ee:	2001      	movs	r0, #1
 80026f0:	e8bd 81f0 	ldmia.w	sp!, {r4, r5, r6, r7, r8, pc}
 80026f4:	6823      	ldr	r3, [r4, #0]
 80026f6:	0799      	lsls	r1, r3, #30
 80026f8:	f003 0201 	and.w	r2, r3, #1
 80026fc:	d570      	bpl.n	80027e0 <HAL_RCC_ClockConfig+0x120>
 80026fe:	4e47      	ldr	r6, [pc, #284]	@ (800281c <HAL_RCC_ClockConfig+0x15c>)
 8002700:	68a0      	ldr	r0, [r4, #8]
 8002702:	68b1      	ldr	r1, [r6, #8]
 8002704:	f001 01f0 	and.w	r1, r1, #240	@ 0xf0
 8002708:	4288      	cmp	r0, r1
 800270a:	d904      	bls.n	8002716 <HAL_RCC_ClockConfig+0x56>
 800270c:	68b1      	ldr	r1, [r6, #8]
 800270e:	f021 01f0 	bic.w	r1, r1, #240	@ 0xf0
 8002712:	4301      	orrs	r1, r0
 8002714:	60b1      	str	r1, [r6, #8]
 8002716:	b332      	cbz	r2, 8002766 <HAL_RCC_ClockConfig+0xa6>
 8002718:	6862      	ldr	r2, [r4, #4]
 800271a:	4b40      	ldr	r3, [pc, #256]	@ (800281c <HAL_RCC_ClockConfig+0x15c>)
 800271c:	2a03      	cmp	r2, #3
 800271e:	681b      	ldr	r3, [r3, #0]
 8002720:	d065      	beq.n	80027ee <HAL_RCC_ClockConfig+0x12e>
 8002722:	2a02      	cmp	r2, #2
 8002724:	d06c      	beq.n	8002800 <HAL_RCC_ClockConfig+0x140>
 8002726:	2a00      	cmp	r2, #0
 8002728:	d171      	bne.n	800280e <HAL_RCC_ClockConfig+0x14e>
 800272a:	079e      	lsls	r6, r3, #30
 800272c:	d5df      	bpl.n	80026ee <HAL_RCC_ClockConfig+0x2e>
 800272e:	4e3b      	ldr	r6, [pc, #236]	@ (800281c <HAL_RCC_ClockConfig+0x15c>)
 8002730:	68b3      	ldr	r3, [r6, #8]
 8002732:	f023 0303 	bic.w	r3, r3, #3
 8002736:	4313      	orrs	r3, r2
 8002738:	60b3      	str	r3, [r6, #8]
 800273a:	f7fe fa95 	bl	8000c68 <HAL_GetTick>
 800273e:	f241 3888 	movw	r8, #5000	@ 0x1388
 8002742:	4607      	mov	r7, r0
 8002744:	e004      	b.n	8002750 <HAL_RCC_ClockConfig+0x90>
 8002746:	f7fe fa8f 	bl	8000c68 <HAL_GetTick>
 800274a:	1bc0      	subs	r0, r0, r7
 800274c:	4540      	cmp	r0, r8
 800274e:	d85c      	bhi.n	800280a <HAL_RCC_ClockConfig+0x14a>
 8002750:	68b3      	ldr	r3, [r6, #8]
 8002752:	6862      	ldr	r2, [r4, #4]
 8002754:	f003 030c 	and.w	r3, r3, #12
 8002758:	ebb3 0f82 	cmp.w	r3, r2, lsl #2
 800275c:	d1f3      	bne.n	8002746 <HAL_RCC_ClockConfig+0x86>
 800275e:	6823      	ldr	r3, [r4, #0]
 8002760:	0799      	lsls	r1, r3, #30
 8002762:	d506      	bpl.n	8002772 <HAL_RCC_ClockConfig+0xb2>
 8002764:	68a0      	ldr	r0, [r4, #8]
 8002766:	492d      	ldr	r1, [pc, #180]	@ (800281c <HAL_RCC_ClockConfig+0x15c>)
 8002768:	688a      	ldr	r2, [r1, #8]
 800276a:	f002 02f0 	and.w	r2, r2, #240	@ 0xf0
 800276e:	4282      	cmp	r2, r0
 8002770:	d840      	bhi.n	80027f4 <HAL_RCC_ClockConfig+0x134>
 8002772:	4929      	ldr	r1, [pc, #164]	@ (8002818 <HAL_RCC_ClockConfig+0x158>)
 8002774:	680a      	ldr	r2, [r1, #0]
 8002776:	f002 0207 	and.w	r2, r2, #7
 800277a:	42aa      	cmp	r2, r5
 800277c:	d909      	bls.n	8002792 <HAL_RCC_ClockConfig+0xd2>
 800277e:	680a      	ldr	r2, [r1, #0]
 8002780:	f022 0207 	bic.w	r2, r2, #7
 8002784:	432a      	orrs	r2, r5
 8002786:	600a      	str	r2, [r1, #0]
 8002788:	680a      	ldr	r2, [r1, #0]
 800278a:	f002 0207 	and.w	r2, r2, #7
 800278e:	42aa      	cmp	r2, r5
 8002790:	d1ad      	bne.n	80026ee <HAL_RCC_ClockConfig+0x2e>
 8002792:	075a      	lsls	r2, r3, #29
 8002794:	d506      	bpl.n	80027a4 <HAL_RCC_ClockConfig+0xe4>
 8002796:	4921      	ldr	r1, [pc, #132]	@ (800281c <HAL_RCC_ClockConfig+0x15c>)
 8002798:	68e0      	ldr	r0, [r4, #12]
 800279a:	688a      	ldr	r2, [r1, #8]
 800279c:	f422 62e0 	bic.w	r2, r2, #1792	@ 0x700
 80027a0:	4302      	orrs	r2, r0
 80027a2:	608a      	str	r2, [r1, #8]
 80027a4:	071b      	lsls	r3, r3, #28
 80027a6:	d507      	bpl.n	80027b8 <HAL_RCC_ClockConfig+0xf8>
 80027a8:	4a1c      	ldr	r2, [pc, #112]	@ (800281c <HAL_RCC_ClockConfig+0x15c>)
 80027aa:	6921      	ldr	r1, [r4, #16]
 80027ac:	6893      	ldr	r3, [r2, #8]
 80027ae:	f423 5360 	bic.w	r3, r3, #14336	@ 0x3800
 80027b2:	ea43 03c1 	orr.w	r3, r3, r1, lsl #3
 80027b6:	6093      	str	r3, [r2, #8]
 80027b8:	f7ff fc48 	bl	800204c <HAL_RCC_GetSysClockFreq>
 80027bc:	4a17      	ldr	r2, [pc, #92]	@ (800281c <HAL_RCC_ClockConfig+0x15c>)
 80027be:	4c18      	ldr	r4, [pc, #96]	@ (8002820 <HAL_RCC_ClockConfig+0x160>)
 80027c0:	6892      	ldr	r2, [r2, #8]
 80027c2:	4918      	ldr	r1, [pc, #96]	@ (8002824 <HAL_RCC_ClockConfig+0x164>)
 80027c4:	f3c2 1203 	ubfx	r2, r2, #4, #4
 80027c8:	4603      	mov	r3, r0
 80027ca:	5ca2      	ldrb	r2, [r4, r2]
 80027cc:	4816      	ldr	r0, [pc, #88]	@ (8002828 <HAL_RCC_ClockConfig+0x168>)
 80027ce:	f002 021f 	and.w	r2, r2, #31
 80027d2:	40d3      	lsrs	r3, r2
 80027d4:	e8bd 41f0 	ldmia.w	sp!, {r4, r5, r6, r7, r8, lr}
 80027d8:	6800      	ldr	r0, [r0, #0]
 80027da:	600b      	str	r3, [r1, #0]
 80027dc:	f7fe b9fa 	b.w	8000bd4 <HAL_InitTick>
 80027e0:	2a00      	cmp	r2, #0
 80027e2:	d0c6      	beq.n	8002772 <HAL_RCC_ClockConfig+0xb2>
 80027e4:	6862      	ldr	r2, [r4, #4]
 80027e6:	4b0d      	ldr	r3, [pc, #52]	@ (800281c <HAL_RCC_ClockConfig+0x15c>)
 80027e8:	2a03      	cmp	r2, #3
 80027ea:	681b      	ldr	r3, [r3, #0]
 80027ec:	d199      	bne.n	8002722 <HAL_RCC_ClockConfig+0x62>
 80027ee:	019b      	lsls	r3, r3, #6
 80027f0:	d49d      	bmi.n	800272e <HAL_RCC_ClockConfig+0x6e>
 80027f2:	e77c      	b.n	80026ee <HAL_RCC_ClockConfig+0x2e>
 80027f4:	688a      	ldr	r2, [r1, #8]
 80027f6:	f022 02f0 	bic.w	r2, r2, #240	@ 0xf0
 80027fa:	4302      	orrs	r2, r0
 80027fc:	608a      	str	r2, [r1, #8]
 80027fe:	e7b8      	b.n	8002772 <HAL_RCC_ClockConfig+0xb2>
 8002800:	039f      	lsls	r7, r3, #14
 8002802:	d494      	bmi.n	800272e <HAL_RCC_ClockConfig+0x6e>
 8002804:	e773      	b.n	80026ee <HAL_RCC_ClockConfig+0x2e>
 8002806:	2001      	movs	r0, #1
 8002808:	4770      	bx	lr
 800280a:	2003      	movs	r0, #3
 800280c:	e770      	b.n	80026f0 <HAL_RCC_ClockConfig+0x30>
 800280e:	0558      	lsls	r0, r3, #21
 8002810:	f57f af6d 	bpl.w	80026ee <HAL_RCC_ClockConfig+0x2e>
 8002814:	e78b      	b.n	800272e <HAL_RCC_ClockConfig+0x6e>
 8002816:	bf00      	nop
 8002818:	40022000 	.word	0x40022000
 800281c:	40021000 	.word	0x40021000
 8002820:	08003e68 	.word	0x08003e68
 8002824:	20000004 	.word	0x20000004
 8002828:	2000000c 	.word	0x2000000c

0800282c <HAL_RCC_GetPCLK1Freq>:
 800282c:	4b05      	ldr	r3, [pc, #20]	@ (8002844 <HAL_RCC_GetPCLK1Freq+0x18>)
 800282e:	4a06      	ldr	r2, [pc, #24]	@ (8002848 <HAL_RCC_GetPCLK1Freq+0x1c>)
 8002830:	689b      	ldr	r3, [r3, #8]
 8002832:	4906      	ldr	r1, [pc, #24]	@ (800284c <HAL_RCC_GetPCLK1Freq+0x20>)
 8002834:	f3c3 2302 	ubfx	r3, r3, #8, #3
 8002838:	6808      	ldr	r0, [r1, #0]
 800283a:	5cd3      	ldrb	r3, [r2, r3]
 800283c:	f003 031f 	and.w	r3, r3, #31
 8002840:	40d8      	lsrs	r0, r3
 8002842:	4770      	bx	lr
 8002844:	40021000 	.word	0x40021000
 8002848:	08003e60 	.word	0x08003e60
 800284c:	20000004 	.word	0x20000004

08002850 <HAL_RCC_GetPCLK2Freq>:
 8002850:	4b05      	ldr	r3, [pc, #20]	@ (8002868 <HAL_RCC_GetPCLK2Freq+0x18>)
 8002852:	4a06      	ldr	r2, [pc, #24]	@ (800286c <HAL_RCC_GetPCLK2Freq+0x1c>)
 8002854:	689b      	ldr	r3, [r3, #8]
 8002856:	4906      	ldr	r1, [pc, #24]	@ (8002870 <HAL_RCC_GetPCLK2Freq+0x20>)
 8002858:	f3c3 23c2 	ubfx	r3, r3, #11, #3
 800285c:	6808      	ldr	r0, [r1, #0]
 800285e:	5cd3      	ldrb	r3, [r2, r3]
 8002860:	f003 031f 	and.w	r3, r3, #31
 8002864:	40d8      	lsrs	r0, r3
 8002866:	4770      	bx	lr
 8002868:	40021000 	.word	0x40021000
 800286c:	08003e60 	.word	0x08003e60
 8002870:	20000004 	.word	0x20000004

08002874 <RCCEx_PLLSAI1_Config>:
 8002874:	4a45      	ldr	r2, [pc, #276]	@ (800298c <RCCEx_PLLSAI1_Config+0x118>)
 8002876:	b5f8      	push	{r3, r4, r5, r6, r7, lr}
 8002878:	68d6      	ldr	r6, [r2, #12]
 800287a:	460d      	mov	r5, r1
 800287c:	07b1      	lsls	r1, r6, #30
 800287e:	4604      	mov	r4, r0
 8002880:	6800      	ldr	r0, [r0, #0]
 8002882:	d006      	beq.n	8002892 <RCCEx_PLLSAI1_Config+0x1e>
 8002884:	68d1      	ldr	r1, [r2, #12]
 8002886:	f001 0103 	and.w	r1, r1, #3
 800288a:	4281      	cmp	r1, r0
 800288c:	d04c      	beq.n	8002928 <RCCEx_PLLSAI1_Config+0xb4>
 800288e:	2001      	movs	r0, #1
 8002890:	bdf8      	pop	{r3, r4, r5, r6, r7, pc}
 8002892:	2802      	cmp	r0, #2
 8002894:	d052      	beq.n	800293c <RCCEx_PLLSAI1_Config+0xc8>
 8002896:	2803      	cmp	r0, #3
 8002898:	d054      	beq.n	8002944 <RCCEx_PLLSAI1_Config+0xd0>
 800289a:	2801      	cmp	r0, #1
 800289c:	d1f7      	bne.n	800288e <RCCEx_PLLSAI1_Config+0x1a>
 800289e:	6812      	ldr	r2, [r2, #0]
 80028a0:	0793      	lsls	r3, r2, #30
 80028a2:	d5f5      	bpl.n	8002890 <RCCEx_PLLSAI1_Config+0x1c>
 80028a4:	4939      	ldr	r1, [pc, #228]	@ (800298c <RCCEx_PLLSAI1_Config+0x118>)
 80028a6:	68ca      	ldr	r2, [r1, #12]
 80028a8:	f022 0273 	bic.w	r2, r2, #115	@ 0x73
 80028ac:	ea42 0300 	orr.w	r3, r2, r0
 80028b0:	6862      	ldr	r2, [r4, #4]
 80028b2:	3a01      	subs	r2, #1
 80028b4:	ea43 1302 	orr.w	r3, r3, r2, lsl #4
 80028b8:	60cb      	str	r3, [r1, #12]
 80028ba:	4e34      	ldr	r6, [pc, #208]	@ (800298c <RCCEx_PLLSAI1_Config+0x118>)
 80028bc:	6833      	ldr	r3, [r6, #0]
 80028be:	f023 6380 	bic.w	r3, r3, #67108864	@ 0x4000000
 80028c2:	6033      	str	r3, [r6, #0]
 80028c4:	f7fe f9d0 	bl	8000c68 <HAL_GetTick>
 80028c8:	4607      	mov	r7, r0
 80028ca:	e004      	b.n	80028d6 <RCCEx_PLLSAI1_Config+0x62>
 80028cc:	f7fe f9cc 	bl	8000c68 <HAL_GetTick>
 80028d0:	1bc3      	subs	r3, r0, r7
 80028d2:	2b02      	cmp	r3, #2
 80028d4:	d83d      	bhi.n	8002952 <RCCEx_PLLSAI1_Config+0xde>
 80028d6:	6833      	ldr	r3, [r6, #0]
 80028d8:	011a      	lsls	r2, r3, #4
 80028da:	d4f7      	bmi.n	80028cc <RCCEx_PLLSAI1_Config+0x58>
 80028dc:	68a3      	ldr	r3, [r4, #8]
 80028de:	021a      	lsls	r2, r3, #8
 80028e0:	2d00      	cmp	r5, #0
 80028e2:	d138      	bne.n	8002956 <RCCEx_PLLSAI1_Config+0xe2>
 80028e4:	6933      	ldr	r3, [r6, #16]
 80028e6:	68e1      	ldr	r1, [r4, #12]
 80028e8:	f423 331f 	bic.w	r3, r3, #162816	@ 0x27c00
 80028ec:	f423 7340 	bic.w	r3, r3, #768	@ 0x300
 80028f0:	0909      	lsrs	r1, r1, #4
 80028f2:	4313      	orrs	r3, r2
 80028f4:	ea43 4341 	orr.w	r3, r3, r1, lsl #17
 80028f8:	6133      	str	r3, [r6, #16]
 80028fa:	4d24      	ldr	r5, [pc, #144]	@ (800298c <RCCEx_PLLSAI1_Config+0x118>)
 80028fc:	682b      	ldr	r3, [r5, #0]
 80028fe:	f043 6380 	orr.w	r3, r3, #67108864	@ 0x4000000
 8002902:	602b      	str	r3, [r5, #0]
 8002904:	f7fe f9b0 	bl	8000c68 <HAL_GetTick>
 8002908:	4606      	mov	r6, r0
 800290a:	e004      	b.n	8002916 <RCCEx_PLLSAI1_Config+0xa2>
 800290c:	f7fe f9ac 	bl	8000c68 <HAL_GetTick>
 8002910:	1b80      	subs	r0, r0, r6
 8002912:	2802      	cmp	r0, #2
 8002914:	d81d      	bhi.n	8002952 <RCCEx_PLLSAI1_Config+0xde>
 8002916:	682b      	ldr	r3, [r5, #0]
 8002918:	011b      	lsls	r3, r3, #4
 800291a:	d5f7      	bpl.n	800290c <RCCEx_PLLSAI1_Config+0x98>
 800291c:	692b      	ldr	r3, [r5, #16]
 800291e:	69a2      	ldr	r2, [r4, #24]
 8002920:	4313      	orrs	r3, r2
 8002922:	2000      	movs	r0, #0
 8002924:	612b      	str	r3, [r5, #16]
 8002926:	bdf8      	pop	{r3, r4, r5, r6, r7, pc}
 8002928:	2900      	cmp	r1, #0
 800292a:	d0b0      	beq.n	800288e <RCCEx_PLLSAI1_Config+0x1a>
 800292c:	68d3      	ldr	r3, [r2, #12]
 800292e:	6862      	ldr	r2, [r4, #4]
 8002930:	f3c3 1302 	ubfx	r3, r3, #4, #3
 8002934:	3301      	adds	r3, #1
 8002936:	4293      	cmp	r3, r2
 8002938:	d1a9      	bne.n	800288e <RCCEx_PLLSAI1_Config+0x1a>
 800293a:	e7be      	b.n	80028ba <RCCEx_PLLSAI1_Config+0x46>
 800293c:	6812      	ldr	r2, [r2, #0]
 800293e:	0557      	lsls	r7, r2, #21
 8002940:	d5a5      	bpl.n	800288e <RCCEx_PLLSAI1_Config+0x1a>
 8002942:	e7af      	b.n	80028a4 <RCCEx_PLLSAI1_Config+0x30>
 8002944:	6811      	ldr	r1, [r2, #0]
 8002946:	038e      	lsls	r6, r1, #14
 8002948:	d4ac      	bmi.n	80028a4 <RCCEx_PLLSAI1_Config+0x30>
 800294a:	6812      	ldr	r2, [r2, #0]
 800294c:	0351      	lsls	r1, r2, #13
 800294e:	d59e      	bpl.n	800288e <RCCEx_PLLSAI1_Config+0x1a>
 8002950:	e7a8      	b.n	80028a4 <RCCEx_PLLSAI1_Config+0x30>
 8002952:	2003      	movs	r0, #3
 8002954:	bdf8      	pop	{r3, r4, r5, r6, r7, pc}
 8002956:	2d01      	cmp	r5, #1
 8002958:	6933      	ldr	r3, [r6, #16]
 800295a:	d00b      	beq.n	8002974 <RCCEx_PLLSAI1_Config+0x100>
 800295c:	6961      	ldr	r1, [r4, #20]
 800295e:	f023 63c0 	bic.w	r3, r3, #100663296	@ 0x6000000
 8002962:	0849      	lsrs	r1, r1, #1
 8002964:	f423 43fe 	bic.w	r3, r3, #32512	@ 0x7f00
 8002968:	3901      	subs	r1, #1
 800296a:	4313      	orrs	r3, r2
 800296c:	ea43 6341 	orr.w	r3, r3, r1, lsl #25
 8002970:	6133      	str	r3, [r6, #16]
 8002972:	e7c2      	b.n	80028fa <RCCEx_PLLSAI1_Config+0x86>
 8002974:	6921      	ldr	r1, [r4, #16]
 8002976:	f423 03c0 	bic.w	r3, r3, #6291456	@ 0x600000
 800297a:	0849      	lsrs	r1, r1, #1
 800297c:	f423 43fe 	bic.w	r3, r3, #32512	@ 0x7f00
 8002980:	3901      	subs	r1, #1
 8002982:	4313      	orrs	r3, r2
 8002984:	ea43 5341 	orr.w	r3, r3, r1, lsl #21
 8002988:	6133      	str	r3, [r6, #16]
 800298a:	e7b6      	b.n	80028fa <RCCEx_PLLSAI1_Config+0x86>
 800298c:	40021000 	.word	0x40021000

08002990 <RCCEx_PLLSAI2_Config>:
 8002990:	4a3e      	ldr	r2, [pc, #248]	@ (8002a8c <RCCEx_PLLSAI2_Config+0xfc>)
 8002992:	b5f8      	push	{r3, r4, r5, r6, r7, lr}
 8002994:	68d6      	ldr	r6, [r2, #12]
 8002996:	460d      	mov	r5, r1
 8002998:	07b1      	lsls	r1, r6, #30
 800299a:	4604      	mov	r4, r0
 800299c:	6800      	ldr	r0, [r0, #0]
 800299e:	d006      	beq.n	80029ae <RCCEx_PLLSAI2_Config+0x1e>
 80029a0:	68d1      	ldr	r1, [r2, #12]
 80029a2:	f001 0103 	and.w	r1, r1, #3
 80029a6:	4281      	cmp	r1, r0
 80029a8:	d04c      	beq.n	8002a44 <RCCEx_PLLSAI2_Config+0xb4>
 80029aa:	2001      	movs	r0, #1
 80029ac:	bdf8      	pop	{r3, r4, r5, r6, r7, pc}
 80029ae:	2802      	cmp	r0, #2
 80029b0:	d052      	beq.n	8002a58 <RCCEx_PLLSAI2_Config+0xc8>
 80029b2:	2803      	cmp	r0, #3
 80029b4:	d054      	beq.n	8002a60 <RCCEx_PLLSAI2_Config+0xd0>
 80029b6:	2801      	cmp	r0, #1
 80029b8:	d1f7      	bne.n	80029aa <RCCEx_PLLSAI2_Config+0x1a>
 80029ba:	6812      	ldr	r2, [r2, #0]
 80029bc:	0793      	lsls	r3, r2, #30
 80029be:	d5f5      	bpl.n	80029ac <RCCEx_PLLSAI2_Config+0x1c>
 80029c0:	4932      	ldr	r1, [pc, #200]	@ (8002a8c <RCCEx_PLLSAI2_Config+0xfc>)
 80029c2:	68ca      	ldr	r2, [r1, #12]
 80029c4:	f022 0273 	bic.w	r2, r2, #115	@ 0x73
 80029c8:	ea42 0300 	orr.w	r3, r2, r0
 80029cc:	6862      	ldr	r2, [r4, #4]
 80029ce:	3a01      	subs	r2, #1
 80029d0:	ea43 1302 	orr.w	r3, r3, r2, lsl #4
 80029d4:	60cb      	str	r3, [r1, #12]
 80029d6:	4e2d      	ldr	r6, [pc, #180]	@ (8002a8c <RCCEx_PLLSAI2_Config+0xfc>)
 80029d8:	6833      	ldr	r3, [r6, #0]
 80029da:	f023 5380 	bic.w	r3, r3, #268435456	@ 0x10000000
 80029de:	6033      	str	r3, [r6, #0]
 80029e0:	f7fe f942 	bl	8000c68 <HAL_GetTick>
 80029e4:	4607      	mov	r7, r0
 80029e6:	e004      	b.n	80029f2 <RCCEx_PLLSAI2_Config+0x62>
 80029e8:	f7fe f93e 	bl	8000c68 <HAL_GetTick>
 80029ec:	1bc3      	subs	r3, r0, r7
 80029ee:	2b02      	cmp	r3, #2
 80029f0:	d83d      	bhi.n	8002a6e <RCCEx_PLLSAI2_Config+0xde>
 80029f2:	6833      	ldr	r3, [r6, #0]
 80029f4:	009a      	lsls	r2, r3, #2
 80029f6:	d4f7      	bmi.n	80029e8 <RCCEx_PLLSAI2_Config+0x58>
 80029f8:	68a3      	ldr	r3, [r4, #8]
 80029fa:	021a      	lsls	r2, r3, #8
 80029fc:	2d00      	cmp	r5, #0
 80029fe:	d138      	bne.n	8002a72 <RCCEx_PLLSAI2_Config+0xe2>
 8002a00:	6973      	ldr	r3, [r6, #20]
 8002a02:	68e1      	ldr	r1, [r4, #12]
 8002a04:	f423 331f 	bic.w	r3, r3, #162816	@ 0x27c00
 8002a08:	f423 7340 	bic.w	r3, r3, #768	@ 0x300
 8002a0c:	0909      	lsrs	r1, r1, #4
 8002a0e:	4313      	orrs	r3, r2
 8002a10:	ea43 4341 	orr.w	r3, r3, r1, lsl #17
 8002a14:	6173      	str	r3, [r6, #20]
 8002a16:	4d1d      	ldr	r5, [pc, #116]	@ (8002a8c <RCCEx_PLLSAI2_Config+0xfc>)
 8002a18:	682b      	ldr	r3, [r5, #0]
 8002a1a:	f043 5380 	orr.w	r3, r3, #268435456	@ 0x10000000
 8002a1e:	602b      	str	r3, [r5, #0]
 8002a20:	f7fe f922 	bl	8000c68 <HAL_GetTick>
 8002a24:	4606      	mov	r6, r0
 8002a26:	e004      	b.n	8002a32 <RCCEx_PLLSAI2_Config+0xa2>
 8002a28:	f7fe f91e 	bl	8000c68 <HAL_GetTick>
 8002a2c:	1b80      	subs	r0, r0, r6
 8002a2e:	2802      	cmp	r0, #2
 8002a30:	d81d      	bhi.n	8002a6e <RCCEx_PLLSAI2_Config+0xde>
 8002a32:	682b      	ldr	r3, [r5, #0]
 8002a34:	009b      	lsls	r3, r3, #2
 8002a36:	d5f7      	bpl.n	8002a28 <RCCEx_PLLSAI2_Config+0x98>
 8002a38:	696b      	ldr	r3, [r5, #20]
 8002a3a:	6962      	ldr	r2, [r4, #20]
 8002a3c:	4313      	orrs	r3, r2
 8002a3e:	2000      	movs	r0, #0
 8002a40:	616b      	str	r3, [r5, #20]
 8002a42:	bdf8      	pop	{r3, r4, r5, r6, r7, pc}
 8002a44:	2900      	cmp	r1, #0
 8002a46:	d0b0      	beq.n	80029aa <RCCEx_PLLSAI2_Config+0x1a>
 8002a48:	68d3      	ldr	r3, [r2, #12]
 8002a4a:	6862      	ldr	r2, [r4, #4]
 8002a4c:	f3c3 1302 	ubfx	r3, r3, #4, #3
 8002a50:	3301      	adds	r3, #1
 8002a52:	4293      	cmp	r3, r2
 8002a54:	d1a9      	bne.n	80029aa <RCCEx_PLLSAI2_Config+0x1a>
 8002a56:	e7be      	b.n	80029d6 <RCCEx_PLLSAI2_Config+0x46>
 8002a58:	6812      	ldr	r2, [r2, #0]
 8002a5a:	0557      	lsls	r7, r2, #21
 8002a5c:	d5a5      	bpl.n	80029aa <RCCEx_PLLSAI2_Config+0x1a>
 8002a5e:	e7af      	b.n	80029c0 <RCCEx_PLLSAI2_Config+0x30>
 8002a60:	6811      	ldr	r1, [r2, #0]
 8002a62:	038e      	lsls	r6, r1, #14
 8002a64:	d4ac      	bmi.n	80029c0 <RCCEx_PLLSAI2_Config+0x30>
 8002a66:	6812      	ldr	r2, [r2, #0]
 8002a68:	0351      	lsls	r1, r2, #13
 8002a6a:	d59e      	bpl.n	80029aa <RCCEx_PLLSAI2_Config+0x1a>
 8002a6c:	e7a8      	b.n	80029c0 <RCCEx_PLLSAI2_Config+0x30>
 8002a6e:	2003      	movs	r0, #3
 8002a70:	bdf8      	pop	{r3, r4, r5, r6, r7, pc}
 8002a72:	6973      	ldr	r3, [r6, #20]
 8002a74:	6921      	ldr	r1, [r4, #16]
 8002a76:	f023 63c0 	bic.w	r3, r3, #100663296	@ 0x6000000
 8002a7a:	0849      	lsrs	r1, r1, #1
 8002a7c:	f423 43fe 	bic.w	r3, r3, #32512	@ 0x7f00
 8002a80:	3901      	subs	r1, #1
 8002a82:	4313      	orrs	r3, r2
 8002a84:	ea43 6341 	orr.w	r3, r3, r1, lsl #25
 8002a88:	6173      	str	r3, [r6, #20]
 8002a8a:	e7c4      	b.n	8002a16 <RCCEx_PLLSAI2_Config+0x86>
 8002a8c:	40021000 	.word	0x40021000

08002a90 <HAL_RCCEx_PeriphCLKConfig>:
 8002a90:	e92d 43f0 	stmdb	sp!, {r4, r5, r6, r7, r8, r9, lr}
 8002a94:	6803      	ldr	r3, [r0, #0]
 8002a96:	f413 6600 	ands.w	r6, r3, #2048	@ 0x800
 8002a9a:	b083      	sub	sp, #12
 8002a9c:	4604      	mov	r4, r0
 8002a9e:	d01e      	beq.n	8002ade <HAL_RCCEx_PeriphCLKConfig+0x4e>
 8002aa0:	6e41      	ldr	r1, [r0, #100]	@ 0x64
 8002aa2:	f5b1 0f00 	cmp.w	r1, #8388608	@ 0x800000
 8002aa6:	f000 81b6 	beq.w	8002e16 <HAL_RCCEx_PeriphCLKConfig+0x386>
 8002aaa:	f200 81f0 	bhi.w	8002e8e <HAL_RCCEx_PeriphCLKConfig+0x3fe>
 8002aae:	2900      	cmp	r1, #0
 8002ab0:	f000 81ac 	beq.w	8002e0c <HAL_RCCEx_PeriphCLKConfig+0x37c>
 8002ab4:	f5b1 0f80 	cmp.w	r1, #4194304	@ 0x400000
 8002ab8:	f040 81ed 	bne.w	8002e96 <HAL_RCCEx_PeriphCLKConfig+0x406>
 8002abc:	2100      	movs	r1, #0
 8002abe:	3020      	adds	r0, #32
 8002ac0:	f7ff ff66 	bl	8002990 <RCCEx_PLLSAI2_Config>
 8002ac4:	4606      	mov	r6, r0
 8002ac6:	6823      	ldr	r3, [r4, #0]
 8002ac8:	b94e      	cbnz	r6, 8002ade <HAL_RCCEx_PeriphCLKConfig+0x4e>
 8002aca:	6e61      	ldr	r1, [r4, #100]	@ 0x64
 8002acc:	48b2      	ldr	r0, [pc, #712]	@ (8002d98 <HAL_RCCEx_PeriphCLKConfig+0x308>)
 8002ace:	f8d0 2088 	ldr.w	r2, [r0, #136]	@ 0x88
 8002ad2:	f422 0240 	bic.w	r2, r2, #12582912	@ 0xc00000
 8002ad6:	430a      	orrs	r2, r1
 8002ad8:	f8c0 2088 	str.w	r2, [r0, #136]	@ 0x88
 8002adc:	2600      	movs	r6, #0
 8002ade:	04d8      	lsls	r0, r3, #19
 8002ae0:	f140 8109 	bpl.w	8002cf6 <HAL_RCCEx_PeriphCLKConfig+0x266>
 8002ae4:	6ea1      	ldr	r1, [r4, #104]	@ 0x68
 8002ae6:	f1b1 7f00 	cmp.w	r1, #33554432	@ 0x2000000
 8002aea:	f000 81a4 	beq.w	8002e36 <HAL_RCCEx_PeriphCLKConfig+0x3a6>
 8002aee:	f200 80fd 	bhi.w	8002cec <HAL_RCCEx_PeriphCLKConfig+0x25c>
 8002af2:	2900      	cmp	r1, #0
 8002af4:	f000 8195 	beq.w	8002e22 <HAL_RCCEx_PeriphCLKConfig+0x392>
 8002af8:	f1b1 7f80 	cmp.w	r1, #16777216	@ 0x1000000
 8002afc:	f040 80fa 	bne.w	8002cf4 <HAL_RCCEx_PeriphCLKConfig+0x264>
 8002b00:	2100      	movs	r1, #0
 8002b02:	f104 0020 	add.w	r0, r4, #32
 8002b06:	f7ff ff43 	bl	8002990 <RCCEx_PLLSAI2_Config>
 8002b0a:	6823      	ldr	r3, [r4, #0]
 8002b0c:	4607      	mov	r7, r0
 8002b0e:	2f00      	cmp	r7, #0
 8002b10:	f040 818f 	bne.w	8002e32 <HAL_RCCEx_PeriphCLKConfig+0x3a2>
 8002b14:	49a0      	ldr	r1, [pc, #640]	@ (8002d98 <HAL_RCCEx_PeriphCLKConfig+0x308>)
 8002b16:	6ea0      	ldr	r0, [r4, #104]	@ 0x68
 8002b18:	f8d1 2088 	ldr.w	r2, [r1, #136]	@ 0x88
 8002b1c:	f022 7240 	bic.w	r2, r2, #50331648	@ 0x3000000
 8002b20:	4302      	orrs	r2, r0
 8002b22:	f8c1 2088 	str.w	r2, [r1, #136]	@ 0x88
 8002b26:	0399      	lsls	r1, r3, #14
 8002b28:	f100 80e9 	bmi.w	8002cfe <HAL_RCCEx_PeriphCLKConfig+0x26e>
 8002b2c:	07da      	lsls	r2, r3, #31
 8002b2e:	d508      	bpl.n	8002b42 <HAL_RCCEx_PeriphCLKConfig+0xb2>
 8002b30:	4999      	ldr	r1, [pc, #612]	@ (8002d98 <HAL_RCCEx_PeriphCLKConfig+0x308>)
 8002b32:	6ba0      	ldr	r0, [r4, #56]	@ 0x38
 8002b34:	f8d1 2088 	ldr.w	r2, [r1, #136]	@ 0x88
 8002b38:	f022 0203 	bic.w	r2, r2, #3
 8002b3c:	4302      	orrs	r2, r0
 8002b3e:	f8c1 2088 	str.w	r2, [r1, #136]	@ 0x88
 8002b42:	079f      	lsls	r7, r3, #30
 8002b44:	d508      	bpl.n	8002b58 <HAL_RCCEx_PeriphCLKConfig+0xc8>
 8002b46:	4994      	ldr	r1, [pc, #592]	@ (8002d98 <HAL_RCCEx_PeriphCLKConfig+0x308>)
 8002b48:	6be0      	ldr	r0, [r4, #60]	@ 0x3c
 8002b4a:	f8d1 2088 	ldr.w	r2, [r1, #136]	@ 0x88
 8002b4e:	f022 020c 	bic.w	r2, r2, #12
 8002b52:	4302      	orrs	r2, r0
 8002b54:	f8c1 2088 	str.w	r2, [r1, #136]	@ 0x88
 8002b58:	075d      	lsls	r5, r3, #29
 8002b5a:	d508      	bpl.n	8002b6e <HAL_RCCEx_PeriphCLKConfig+0xde>
 8002b5c:	498e      	ldr	r1, [pc, #568]	@ (8002d98 <HAL_RCCEx_PeriphCLKConfig+0x308>)
 8002b5e:	6c20      	ldr	r0, [r4, #64]	@ 0x40
 8002b60:	f8d1 2088 	ldr.w	r2, [r1, #136]	@ 0x88
 8002b64:	f022 0230 	bic.w	r2, r2, #48	@ 0x30
 8002b68:	4302      	orrs	r2, r0
 8002b6a:	f8c1 2088 	str.w	r2, [r1, #136]	@ 0x88
 8002b6e:	0718      	lsls	r0, r3, #28
 8002b70:	d508      	bpl.n	8002b84 <HAL_RCCEx_PeriphCLKConfig+0xf4>
 8002b72:	4989      	ldr	r1, [pc, #548]	@ (8002d98 <HAL_RCCEx_PeriphCLKConfig+0x308>)
 8002b74:	6c60      	ldr	r0, [r4, #68]	@ 0x44
 8002b76:	f8d1 2088 	ldr.w	r2, [r1, #136]	@ 0x88
 8002b7a:	f022 02c0 	bic.w	r2, r2, #192	@ 0xc0
 8002b7e:	4302      	orrs	r2, r0
 8002b80:	f8c1 2088 	str.w	r2, [r1, #136]	@ 0x88
 8002b84:	06d9      	lsls	r1, r3, #27
 8002b86:	d508      	bpl.n	8002b9a <HAL_RCCEx_PeriphCLKConfig+0x10a>
 8002b88:	4983      	ldr	r1, [pc, #524]	@ (8002d98 <HAL_RCCEx_PeriphCLKConfig+0x308>)
 8002b8a:	6ca0      	ldr	r0, [r4, #72]	@ 0x48
 8002b8c:	f8d1 2088 	ldr.w	r2, [r1, #136]	@ 0x88
 8002b90:	f422 7240 	bic.w	r2, r2, #768	@ 0x300
 8002b94:	4302      	orrs	r2, r0
 8002b96:	f8c1 2088 	str.w	r2, [r1, #136]	@ 0x88
 8002b9a:	069a      	lsls	r2, r3, #26
 8002b9c:	d508      	bpl.n	8002bb0 <HAL_RCCEx_PeriphCLKConfig+0x120>
 8002b9e:	497e      	ldr	r1, [pc, #504]	@ (8002d98 <HAL_RCCEx_PeriphCLKConfig+0x308>)
 8002ba0:	6ce0      	ldr	r0, [r4, #76]	@ 0x4c
 8002ba2:	f8d1 2088 	ldr.w	r2, [r1, #136]	@ 0x88
 8002ba6:	f422 6240 	bic.w	r2, r2, #3072	@ 0xc00
 8002baa:	4302      	orrs	r2, r0
 8002bac:	f8c1 2088 	str.w	r2, [r1, #136]	@ 0x88
 8002bb0:	059f      	lsls	r7, r3, #22
 8002bb2:	d508      	bpl.n	8002bc6 <HAL_RCCEx_PeriphCLKConfig+0x136>
 8002bb4:	4978      	ldr	r1, [pc, #480]	@ (8002d98 <HAL_RCCEx_PeriphCLKConfig+0x308>)
 8002bb6:	6de0      	ldr	r0, [r4, #92]	@ 0x5c
 8002bb8:	f8d1 2088 	ldr.w	r2, [r1, #136]	@ 0x88
 8002bbc:	f422 2240 	bic.w	r2, r2, #786432	@ 0xc0000
 8002bc0:	4302      	orrs	r2, r0
 8002bc2:	f8c1 2088 	str.w	r2, [r1, #136]	@ 0x88
 8002bc6:	055d      	lsls	r5, r3, #21
 8002bc8:	d508      	bpl.n	8002bdc <HAL_RCCEx_PeriphCLKConfig+0x14c>
 8002bca:	4973      	ldr	r1, [pc, #460]	@ (8002d98 <HAL_RCCEx_PeriphCLKConfig+0x308>)
 8002bcc:	6e20      	ldr	r0, [r4, #96]	@ 0x60
 8002bce:	f8d1 2088 	ldr.w	r2, [r1, #136]	@ 0x88
 8002bd2:	f422 1240 	bic.w	r2, r2, #3145728	@ 0x300000
 8002bd6:	4302      	orrs	r2, r0
 8002bd8:	f8c1 2088 	str.w	r2, [r1, #136]	@ 0x88
 8002bdc:	0658      	lsls	r0, r3, #25
 8002bde:	d508      	bpl.n	8002bf2 <HAL_RCCEx_PeriphCLKConfig+0x162>
 8002be0:	496d      	ldr	r1, [pc, #436]	@ (8002d98 <HAL_RCCEx_PeriphCLKConfig+0x308>)
 8002be2:	6d20      	ldr	r0, [r4, #80]	@ 0x50
 8002be4:	f8d1 2088 	ldr.w	r2, [r1, #136]	@ 0x88
 8002be8:	f422 5240 	bic.w	r2, r2, #12288	@ 0x3000
 8002bec:	4302      	orrs	r2, r0
 8002bee:	f8c1 2088 	str.w	r2, [r1, #136]	@ 0x88
 8002bf2:	0619      	lsls	r1, r3, #24
 8002bf4:	d508      	bpl.n	8002c08 <HAL_RCCEx_PeriphCLKConfig+0x178>
 8002bf6:	4968      	ldr	r1, [pc, #416]	@ (8002d98 <HAL_RCCEx_PeriphCLKConfig+0x308>)
 8002bf8:	6d60      	ldr	r0, [r4, #84]	@ 0x54
 8002bfa:	f8d1 2088 	ldr.w	r2, [r1, #136]	@ 0x88
 8002bfe:	f422 4240 	bic.w	r2, r2, #49152	@ 0xc000
 8002c02:	4302      	orrs	r2, r0
 8002c04:	f8c1 2088 	str.w	r2, [r1, #136]	@ 0x88
 8002c08:	05da      	lsls	r2, r3, #23
 8002c0a:	d508      	bpl.n	8002c1e <HAL_RCCEx_PeriphCLKConfig+0x18e>
 8002c0c:	4962      	ldr	r1, [pc, #392]	@ (8002d98 <HAL_RCCEx_PeriphCLKConfig+0x308>)
 8002c0e:	6da0      	ldr	r0, [r4, #88]	@ 0x58
 8002c10:	f8d1 2088 	ldr.w	r2, [r1, #136]	@ 0x88
 8002c14:	f422 3240 	bic.w	r2, r2, #196608	@ 0x30000
 8002c18:	4302      	orrs	r2, r0
 8002c1a:	f8c1 2088 	str.w	r2, [r1, #136]	@ 0x88
 8002c1e:	049f      	lsls	r7, r3, #18
 8002c20:	d510      	bpl.n	8002c44 <HAL_RCCEx_PeriphCLKConfig+0x1b4>
 8002c22:	495d      	ldr	r1, [pc, #372]	@ (8002d98 <HAL_RCCEx_PeriphCLKConfig+0x308>)
 8002c24:	6ee0      	ldr	r0, [r4, #108]	@ 0x6c
 8002c26:	f8d1 2088 	ldr.w	r2, [r1, #136]	@ 0x88
 8002c2a:	f022 6240 	bic.w	r2, r2, #201326592	@ 0xc000000
 8002c2e:	4302      	orrs	r2, r0
 8002c30:	f1b0 6f00 	cmp.w	r0, #134217728	@ 0x8000000
 8002c34:	f8c1 2088 	str.w	r2, [r1, #136]	@ 0x88
 8002c38:	f000 80a4 	beq.w	8002d84 <HAL_RCCEx_PeriphCLKConfig+0x2f4>
 8002c3c:	f1b0 6f80 	cmp.w	r0, #67108864	@ 0x4000000
 8002c40:	f000 810a 	beq.w	8002e58 <HAL_RCCEx_PeriphCLKConfig+0x3c8>
 8002c44:	031d      	lsls	r5, r3, #12
 8002c46:	d510      	bpl.n	8002c6a <HAL_RCCEx_PeriphCLKConfig+0x1da>
 8002c48:	4953      	ldr	r1, [pc, #332]	@ (8002d98 <HAL_RCCEx_PeriphCLKConfig+0x308>)
 8002c4a:	6f20      	ldr	r0, [r4, #112]	@ 0x70
 8002c4c:	f8d1 2088 	ldr.w	r2, [r1, #136]	@ 0x88
 8002c50:	f022 6240 	bic.w	r2, r2, #201326592	@ 0xc000000
 8002c54:	4302      	orrs	r2, r0
 8002c56:	f1b0 6f00 	cmp.w	r0, #134217728	@ 0x8000000
 8002c5a:	f8c1 2088 	str.w	r2, [r1, #136]	@ 0x88
 8002c5e:	f000 8096 	beq.w	8002d8e <HAL_RCCEx_PeriphCLKConfig+0x2fe>
 8002c62:	f1b0 6f80 	cmp.w	r0, #67108864	@ 0x4000000
 8002c66:	f000 8100 	beq.w	8002e6a <HAL_RCCEx_PeriphCLKConfig+0x3da>
 8002c6a:	0358      	lsls	r0, r3, #13
 8002c6c:	d510      	bpl.n	8002c90 <HAL_RCCEx_PeriphCLKConfig+0x200>
 8002c6e:	494a      	ldr	r1, [pc, #296]	@ (8002d98 <HAL_RCCEx_PeriphCLKConfig+0x308>)
 8002c70:	6f60      	ldr	r0, [r4, #116]	@ 0x74
 8002c72:	f8d1 2088 	ldr.w	r2, [r1, #136]	@ 0x88
 8002c76:	f022 6240 	bic.w	r2, r2, #201326592	@ 0xc000000
 8002c7a:	4302      	orrs	r2, r0
 8002c7c:	f1b0 6f00 	cmp.w	r0, #134217728	@ 0x8000000
 8002c80:	f8c1 2088 	str.w	r2, [r1, #136]	@ 0x88
 8002c84:	f000 808c 	beq.w	8002da0 <HAL_RCCEx_PeriphCLKConfig+0x310>
 8002c88:	f1b0 6f80 	cmp.w	r0, #67108864	@ 0x4000000
 8002c8c:	f000 80f6 	beq.w	8002e7c <HAL_RCCEx_PeriphCLKConfig+0x3ec>
 8002c90:	0459      	lsls	r1, r3, #17
 8002c92:	d510      	bpl.n	8002cb6 <HAL_RCCEx_PeriphCLKConfig+0x226>
 8002c94:	4840      	ldr	r0, [pc, #256]	@ (8002d98 <HAL_RCCEx_PeriphCLKConfig+0x308>)
 8002c96:	6fa1      	ldr	r1, [r4, #120]	@ 0x78
 8002c98:	f8d0 2088 	ldr.w	r2, [r0, #136]	@ 0x88
 8002c9c:	f022 5240 	bic.w	r2, r2, #805306368	@ 0x30000000
 8002ca0:	430a      	orrs	r2, r1
 8002ca2:	f1b1 5f80 	cmp.w	r1, #268435456	@ 0x10000000
 8002ca6:	f8c0 2088 	str.w	r2, [r0, #136]	@ 0x88
 8002caa:	f000 80a6 	beq.w	8002dfa <HAL_RCCEx_PeriphCLKConfig+0x36a>
 8002cae:	f1b1 5f00 	cmp.w	r1, #536870912	@ 0x20000000
 8002cb2:	f000 80c7 	beq.w	8002e44 <HAL_RCCEx_PeriphCLKConfig+0x3b4>
 8002cb6:	041a      	lsls	r2, r3, #16
 8002cb8:	d508      	bpl.n	8002ccc <HAL_RCCEx_PeriphCLKConfig+0x23c>
 8002cba:	4937      	ldr	r1, [pc, #220]	@ (8002d98 <HAL_RCCEx_PeriphCLKConfig+0x308>)
 8002cbc:	6fe0      	ldr	r0, [r4, #124]	@ 0x7c
 8002cbe:	f8d1 2088 	ldr.w	r2, [r1, #136]	@ 0x88
 8002cc2:	f022 4280 	bic.w	r2, r2, #1073741824	@ 0x40000000
 8002cc6:	4302      	orrs	r2, r0
 8002cc8:	f8c1 2088 	str.w	r2, [r1, #136]	@ 0x88
 8002ccc:	03db      	lsls	r3, r3, #15
 8002cce:	d509      	bpl.n	8002ce4 <HAL_RCCEx_PeriphCLKConfig+0x254>
 8002cd0:	4a31      	ldr	r2, [pc, #196]	@ (8002d98 <HAL_RCCEx_PeriphCLKConfig+0x308>)
 8002cd2:	f8d4 1080 	ldr.w	r1, [r4, #128]	@ 0x80
 8002cd6:	f8d2 3088 	ldr.w	r3, [r2, #136]	@ 0x88
 8002cda:	f023 4300 	bic.w	r3, r3, #2147483648	@ 0x80000000
 8002cde:	430b      	orrs	r3, r1
 8002ce0:	f8c2 3088 	str.w	r3, [r2, #136]	@ 0x88
 8002ce4:	4630      	mov	r0, r6
 8002ce6:	b003      	add	sp, #12
 8002ce8:	e8bd 83f0 	ldmia.w	sp!, {r4, r5, r6, r7, r8, r9, pc}
 8002cec:	f1b1 7f40 	cmp.w	r1, #50331648	@ 0x3000000
 8002cf0:	f000 80a6 	beq.w	8002e40 <HAL_RCCEx_PeriphCLKConfig+0x3b0>
 8002cf4:	2601      	movs	r6, #1
 8002cf6:	4637      	mov	r7, r6
 8002cf8:	0399      	lsls	r1, r3, #14
 8002cfa:	f57f af17 	bpl.w	8002b2c <HAL_RCCEx_PeriphCLKConfig+0x9c>
 8002cfe:	4b26      	ldr	r3, [pc, #152]	@ (8002d98 <HAL_RCCEx_PeriphCLKConfig+0x308>)
 8002d00:	6d9a      	ldr	r2, [r3, #88]	@ 0x58
 8002d02:	00d2      	lsls	r2, r2, #3
 8002d04:	d532      	bpl.n	8002d6c <HAL_RCCEx_PeriphCLKConfig+0x2dc>
 8002d06:	f04f 0800 	mov.w	r8, #0
 8002d0a:	4d24      	ldr	r5, [pc, #144]	@ (8002d9c <HAL_RCCEx_PeriphCLKConfig+0x30c>)
 8002d0c:	682b      	ldr	r3, [r5, #0]
 8002d0e:	f443 7380 	orr.w	r3, r3, #256	@ 0x100
 8002d12:	602b      	str	r3, [r5, #0]
 8002d14:	f7fd ffa8 	bl	8000c68 <HAL_GetTick>
 8002d18:	4681      	mov	r9, r0
 8002d1a:	e006      	b.n	8002d2a <HAL_RCCEx_PeriphCLKConfig+0x29a>
 8002d1c:	f7fd ffa4 	bl	8000c68 <HAL_GetTick>
 8002d20:	eba0 0309 	sub.w	r3, r0, r9
 8002d24:	2b02      	cmp	r3, #2
 8002d26:	f200 80b8 	bhi.w	8002e9a <HAL_RCCEx_PeriphCLKConfig+0x40a>
 8002d2a:	682b      	ldr	r3, [r5, #0]
 8002d2c:	05db      	lsls	r3, r3, #23
 8002d2e:	d5f5      	bpl.n	8002d1c <HAL_RCCEx_PeriphCLKConfig+0x28c>
 8002d30:	2f00      	cmp	r7, #0
 8002d32:	f040 80b4 	bne.w	8002e9e <HAL_RCCEx_PeriphCLKConfig+0x40e>
 8002d36:	4d18      	ldr	r5, [pc, #96]	@ (8002d98 <HAL_RCCEx_PeriphCLKConfig+0x308>)
 8002d38:	f8d4 2084 	ldr.w	r2, [r4, #132]	@ 0x84
 8002d3c:	f8d5 3090 	ldr.w	r3, [r5, #144]	@ 0x90
 8002d40:	f413 7340 	ands.w	r3, r3, #768	@ 0x300
 8002d44:	d131      	bne.n	8002daa <HAL_RCCEx_PeriphCLKConfig+0x31a>
 8002d46:	4914      	ldr	r1, [pc, #80]	@ (8002d98 <HAL_RCCEx_PeriphCLKConfig+0x308>)
 8002d48:	f8d1 3090 	ldr.w	r3, [r1, #144]	@ 0x90
 8002d4c:	f423 7340 	bic.w	r3, r3, #768	@ 0x300
 8002d50:	4313      	orrs	r3, r2
 8002d52:	f8c1 3090 	str.w	r3, [r1, #144]	@ 0x90
 8002d56:	6823      	ldr	r3, [r4, #0]
 8002d58:	f1b8 0f00 	cmp.w	r8, #0
 8002d5c:	f43f aee6 	beq.w	8002b2c <HAL_RCCEx_PeriphCLKConfig+0x9c>
 8002d60:	490d      	ldr	r1, [pc, #52]	@ (8002d98 <HAL_RCCEx_PeriphCLKConfig+0x308>)
 8002d62:	6d8a      	ldr	r2, [r1, #88]	@ 0x58
 8002d64:	f022 5280 	bic.w	r2, r2, #268435456	@ 0x10000000
 8002d68:	658a      	str	r2, [r1, #88]	@ 0x58
 8002d6a:	e6df      	b.n	8002b2c <HAL_RCCEx_PeriphCLKConfig+0x9c>
 8002d6c:	6d9a      	ldr	r2, [r3, #88]	@ 0x58
 8002d6e:	f042 5280 	orr.w	r2, r2, #268435456	@ 0x10000000
 8002d72:	659a      	str	r2, [r3, #88]	@ 0x58
 8002d74:	6d9b      	ldr	r3, [r3, #88]	@ 0x58
 8002d76:	f003 5380 	and.w	r3, r3, #268435456	@ 0x10000000
 8002d7a:	9301      	str	r3, [sp, #4]
 8002d7c:	9b01      	ldr	r3, [sp, #4]
 8002d7e:	f04f 0801 	mov.w	r8, #1
 8002d82:	e7c2      	b.n	8002d0a <HAL_RCCEx_PeriphCLKConfig+0x27a>
 8002d84:	68ca      	ldr	r2, [r1, #12]
 8002d86:	f442 1280 	orr.w	r2, r2, #1048576	@ 0x100000
 8002d8a:	60ca      	str	r2, [r1, #12]
 8002d8c:	e75a      	b.n	8002c44 <HAL_RCCEx_PeriphCLKConfig+0x1b4>
 8002d8e:	68ca      	ldr	r2, [r1, #12]
 8002d90:	f442 1280 	orr.w	r2, r2, #1048576	@ 0x100000
 8002d94:	60ca      	str	r2, [r1, #12]
 8002d96:	e768      	b.n	8002c6a <HAL_RCCEx_PeriphCLKConfig+0x1da>
 8002d98:	40021000 	.word	0x40021000
 8002d9c:	40007000 	.word	0x40007000
 8002da0:	68ca      	ldr	r2, [r1, #12]
 8002da2:	f442 1280 	orr.w	r2, r2, #1048576	@ 0x100000
 8002da6:	60ca      	str	r2, [r1, #12]
 8002da8:	e772      	b.n	8002c90 <HAL_RCCEx_PeriphCLKConfig+0x200>
 8002daa:	4293      	cmp	r3, r2
 8002dac:	d0cb      	beq.n	8002d46 <HAL_RCCEx_PeriphCLKConfig+0x2b6>
 8002dae:	f8d5 1090 	ldr.w	r1, [r5, #144]	@ 0x90
 8002db2:	f8d5 3090 	ldr.w	r3, [r5, #144]	@ 0x90
 8002db6:	f443 3380 	orr.w	r3, r3, #65536	@ 0x10000
 8002dba:	f8c5 3090 	str.w	r3, [r5, #144]	@ 0x90
 8002dbe:	f8d5 3090 	ldr.w	r3, [r5, #144]	@ 0x90
 8002dc2:	f423 3380 	bic.w	r3, r3, #65536	@ 0x10000
 8002dc6:	f8c5 3090 	str.w	r3, [r5, #144]	@ 0x90
 8002dca:	07c8      	lsls	r0, r1, #31
 8002dcc:	f421 7340 	bic.w	r3, r1, #768	@ 0x300
 8002dd0:	f8c5 3090 	str.w	r3, [r5, #144]	@ 0x90
 8002dd4:	d5b7      	bpl.n	8002d46 <HAL_RCCEx_PeriphCLKConfig+0x2b6>
 8002dd6:	f7fd ff47 	bl	8000c68 <HAL_GetTick>
 8002dda:	f241 3988 	movw	r9, #5000	@ 0x1388
 8002dde:	4607      	mov	r7, r0
 8002de0:	e004      	b.n	8002dec <HAL_RCCEx_PeriphCLKConfig+0x35c>
 8002de2:	f7fd ff41 	bl	8000c68 <HAL_GetTick>
 8002de6:	1bc0      	subs	r0, r0, r7
 8002de8:	4548      	cmp	r0, r9
 8002dea:	d856      	bhi.n	8002e9a <HAL_RCCEx_PeriphCLKConfig+0x40a>
 8002dec:	f8d5 3090 	ldr.w	r3, [r5, #144]	@ 0x90
 8002df0:	0799      	lsls	r1, r3, #30
 8002df2:	d5f6      	bpl.n	8002de2 <HAL_RCCEx_PeriphCLKConfig+0x352>
 8002df4:	f8d4 2084 	ldr.w	r2, [r4, #132]	@ 0x84
 8002df8:	e7a5      	b.n	8002d46 <HAL_RCCEx_PeriphCLKConfig+0x2b6>
 8002dfa:	2102      	movs	r1, #2
 8002dfc:	1d20      	adds	r0, r4, #4
 8002dfe:	f7ff fd39 	bl	8002874 <RCCEx_PLLSAI1_Config>
 8002e02:	6823      	ldr	r3, [r4, #0]
 8002e04:	2800      	cmp	r0, #0
 8002e06:	bf18      	it	ne
 8002e08:	4606      	movne	r6, r0
 8002e0a:	e754      	b.n	8002cb6 <HAL_RCCEx_PeriphCLKConfig+0x226>
 8002e0c:	3004      	adds	r0, #4
 8002e0e:	f7ff fd31 	bl	8002874 <RCCEx_PLLSAI1_Config>
 8002e12:	4606      	mov	r6, r0
 8002e14:	e657      	b.n	8002ac6 <HAL_RCCEx_PeriphCLKConfig+0x36>
 8002e16:	4823      	ldr	r0, [pc, #140]	@ (8002ea4 <HAL_RCCEx_PeriphCLKConfig+0x414>)
 8002e18:	68c2      	ldr	r2, [r0, #12]
 8002e1a:	f442 3280 	orr.w	r2, r2, #65536	@ 0x10000
 8002e1e:	60c2      	str	r2, [r0, #12]
 8002e20:	e654      	b.n	8002acc <HAL_RCCEx_PeriphCLKConfig+0x3c>
 8002e22:	1d20      	adds	r0, r4, #4
 8002e24:	f7ff fd26 	bl	8002874 <RCCEx_PLLSAI1_Config>
 8002e28:	4607      	mov	r7, r0
 8002e2a:	6823      	ldr	r3, [r4, #0]
 8002e2c:	2f00      	cmp	r7, #0
 8002e2e:	f43f ae71 	beq.w	8002b14 <HAL_RCCEx_PeriphCLKConfig+0x84>
 8002e32:	463e      	mov	r6, r7
 8002e34:	e760      	b.n	8002cf8 <HAL_RCCEx_PeriphCLKConfig+0x268>
 8002e36:	491b      	ldr	r1, [pc, #108]	@ (8002ea4 <HAL_RCCEx_PeriphCLKConfig+0x414>)
 8002e38:	68ca      	ldr	r2, [r1, #12]
 8002e3a:	f442 3280 	orr.w	r2, r2, #65536	@ 0x10000
 8002e3e:	60ca      	str	r2, [r1, #12]
 8002e40:	4637      	mov	r7, r6
 8002e42:	e664      	b.n	8002b0e <HAL_RCCEx_PeriphCLKConfig+0x7e>
 8002e44:	2102      	movs	r1, #2
 8002e46:	f104 0020 	add.w	r0, r4, #32
 8002e4a:	f7ff fda1 	bl	8002990 <RCCEx_PLLSAI2_Config>
 8002e4e:	6823      	ldr	r3, [r4, #0]
 8002e50:	2800      	cmp	r0, #0
 8002e52:	bf18      	it	ne
 8002e54:	4606      	movne	r6, r0
 8002e56:	e72e      	b.n	8002cb6 <HAL_RCCEx_PeriphCLKConfig+0x226>
 8002e58:	2101      	movs	r1, #1
 8002e5a:	1d20      	adds	r0, r4, #4
 8002e5c:	f7ff fd0a 	bl	8002874 <RCCEx_PLLSAI1_Config>
 8002e60:	6823      	ldr	r3, [r4, #0]
 8002e62:	2800      	cmp	r0, #0
 8002e64:	bf18      	it	ne
 8002e66:	4606      	movne	r6, r0
 8002e68:	e6ec      	b.n	8002c44 <HAL_RCCEx_PeriphCLKConfig+0x1b4>
 8002e6a:	2101      	movs	r1, #1
 8002e6c:	1d20      	adds	r0, r4, #4
 8002e6e:	f7ff fd01 	bl	8002874 <RCCEx_PLLSAI1_Config>
 8002e72:	6823      	ldr	r3, [r4, #0]
 8002e74:	2800      	cmp	r0, #0
 8002e76:	bf18      	it	ne
 8002e78:	4606      	movne	r6, r0
 8002e7a:	e6f6      	b.n	8002c6a <HAL_RCCEx_PeriphCLKConfig+0x1da>
 8002e7c:	2101      	movs	r1, #1
 8002e7e:	1d20      	adds	r0, r4, #4
 8002e80:	f7ff fcf8 	bl	8002874 <RCCEx_PLLSAI1_Config>
 8002e84:	6823      	ldr	r3, [r4, #0]
 8002e86:	2800      	cmp	r0, #0
 8002e88:	bf18      	it	ne
 8002e8a:	4606      	movne	r6, r0
 8002e8c:	e700      	b.n	8002c90 <HAL_RCCEx_PeriphCLKConfig+0x200>
 8002e8e:	f5b1 0f40 	cmp.w	r1, #12582912	@ 0xc00000
 8002e92:	f43f ae1b 	beq.w	8002acc <HAL_RCCEx_PeriphCLKConfig+0x3c>
 8002e96:	2601      	movs	r6, #1
 8002e98:	e621      	b.n	8002ade <HAL_RCCEx_PeriphCLKConfig+0x4e>
 8002e9a:	2603      	movs	r6, #3
 8002e9c:	e75b      	b.n	8002d56 <HAL_RCCEx_PeriphCLKConfig+0x2c6>
 8002e9e:	463e      	mov	r6, r7
 8002ea0:	e759      	b.n	8002d56 <HAL_RCCEx_PeriphCLKConfig+0x2c6>
 8002ea2:	bf00      	nop
 8002ea4:	40021000 	.word	0x40021000

08002ea8 <HAL_TIM_Base_Init>:
 8002ea8:	2800      	cmp	r0, #0
 8002eaa:	d079      	beq.n	8002fa0 <HAL_TIM_Base_Init+0xf8>
 8002eac:	b570      	push	{r4, r5, r6, lr}
 8002eae:	f890 303d 	ldrb.w	r3, [r0, #61]	@ 0x3d
 8002eb2:	4604      	mov	r4, r0
 8002eb4:	f003 02ff 	and.w	r2, r3, #255	@ 0xff
 8002eb8:	2b00      	cmp	r3, #0
 8002eba:	d06c      	beq.n	8002f96 <HAL_TIM_Base_Init+0xee>
 8002ebc:	6822      	ldr	r2, [r4, #0]
 8002ebe:	4e39      	ldr	r6, [pc, #228]	@ (8002fa4 <HAL_TIM_Base_Init+0xfc>)
 8002ec0:	69a1      	ldr	r1, [r4, #24]
 8002ec2:	68e5      	ldr	r5, [r4, #12]
 8002ec4:	6860      	ldr	r0, [r4, #4]
 8002ec6:	2302      	movs	r3, #2
 8002ec8:	f884 303d 	strb.w	r3, [r4, #61]	@ 0x3d
 8002ecc:	42b2      	cmp	r2, r6
 8002ece:	6813      	ldr	r3, [r2, #0]
 8002ed0:	d051      	beq.n	8002f76 <HAL_TIM_Base_Init+0xce>
 8002ed2:	f1b2 4f80 	cmp.w	r2, #1073741824	@ 0x40000000
 8002ed6:	d020      	beq.n	8002f1a <HAL_TIM_Base_Init+0x72>
 8002ed8:	f5a6 3694 	sub.w	r6, r6, #75776	@ 0x12800
 8002edc:	42b2      	cmp	r2, r6
 8002ede:	d01c      	beq.n	8002f1a <HAL_TIM_Base_Init+0x72>
 8002ee0:	f506 6680 	add.w	r6, r6, #1024	@ 0x400
 8002ee4:	42b2      	cmp	r2, r6
 8002ee6:	d018      	beq.n	8002f1a <HAL_TIM_Base_Init+0x72>
 8002ee8:	f506 6680 	add.w	r6, r6, #1024	@ 0x400
 8002eec:	42b2      	cmp	r2, r6
 8002eee:	d014      	beq.n	8002f1a <HAL_TIM_Base_Init+0x72>
 8002ef0:	f506 3694 	add.w	r6, r6, #75776	@ 0x12800
 8002ef4:	42b2      	cmp	r2, r6
 8002ef6:	d03e      	beq.n	8002f76 <HAL_TIM_Base_Init+0xce>
 8002ef8:	4e2b      	ldr	r6, [pc, #172]	@ (8002fa8 <HAL_TIM_Base_Init+0x100>)
 8002efa:	42b2      	cmp	r2, r6
 8002efc:	d03f      	beq.n	8002f7e <HAL_TIM_Base_Init+0xd6>
 8002efe:	f506 6680 	add.w	r6, r6, #1024	@ 0x400
 8002f02:	42b2      	cmp	r2, r6
 8002f04:	d03b      	beq.n	8002f7e <HAL_TIM_Base_Init+0xd6>
 8002f06:	f506 6680 	add.w	r6, r6, #1024	@ 0x400
 8002f0a:	42b2      	cmp	r2, r6
 8002f0c:	d037      	beq.n	8002f7e <HAL_TIM_Base_Init+0xd6>
 8002f0e:	f023 0380 	bic.w	r3, r3, #128	@ 0x80
 8002f12:	62d5      	str	r5, [r2, #44]	@ 0x2c
 8002f14:	4319      	orrs	r1, r3
 8002f16:	6290      	str	r0, [r2, #40]	@ 0x28
 8002f18:	e00c      	b.n	8002f34 <HAL_TIM_Base_Init+0x8c>
 8002f1a:	68a6      	ldr	r6, [r4, #8]
 8002f1c:	f023 0370 	bic.w	r3, r3, #112	@ 0x70
 8002f20:	4333      	orrs	r3, r6
 8002f22:	6926      	ldr	r6, [r4, #16]
 8002f24:	62d5      	str	r5, [r2, #44]	@ 0x2c
 8002f26:	f423 7340 	bic.w	r3, r3, #768	@ 0x300
 8002f2a:	4333      	orrs	r3, r6
 8002f2c:	f023 0380 	bic.w	r3, r3, #128	@ 0x80
 8002f30:	4319      	orrs	r1, r3
 8002f32:	6290      	str	r0, [r2, #40]	@ 0x28
 8002f34:	6810      	ldr	r0, [r2, #0]
 8002f36:	2301      	movs	r3, #1
 8002f38:	f040 0004 	orr.w	r0, r0, #4
 8002f3c:	6010      	str	r0, [r2, #0]
 8002f3e:	6153      	str	r3, [r2, #20]
 8002f40:	6011      	str	r1, [r2, #0]
 8002f42:	f884 3048 	strb.w	r3, [r4, #72]	@ 0x48
 8002f46:	f884 303e 	strb.w	r3, [r4, #62]	@ 0x3e
 8002f4a:	f884 303f 	strb.w	r3, [r4, #63]	@ 0x3f
 8002f4e:	f884 3040 	strb.w	r3, [r4, #64]	@ 0x40
 8002f52:	f884 3041 	strb.w	r3, [r4, #65]	@ 0x41
 8002f56:	f884 3042 	strb.w	r3, [r4, #66]	@ 0x42
 8002f5a:	f884 3043 	strb.w	r3, [r4, #67]	@ 0x43
 8002f5e:	f884 3044 	strb.w	r3, [r4, #68]	@ 0x44
 8002f62:	f884 3045 	strb.w	r3, [r4, #69]	@ 0x45
 8002f66:	f884 3046 	strb.w	r3, [r4, #70]	@ 0x46
 8002f6a:	f884 3047 	strb.w	r3, [r4, #71]	@ 0x47
 8002f6e:	f884 303d 	strb.w	r3, [r4, #61]	@ 0x3d
 8002f72:	2000      	movs	r0, #0
 8002f74:	bd70      	pop	{r4, r5, r6, pc}
 8002f76:	68a6      	ldr	r6, [r4, #8]
 8002f78:	f023 0370 	bic.w	r3, r3, #112	@ 0x70
 8002f7c:	4333      	orrs	r3, r6
 8002f7e:	6926      	ldr	r6, [r4, #16]
 8002f80:	62d5      	str	r5, [r2, #44]	@ 0x2c
 8002f82:	f423 7340 	bic.w	r3, r3, #768	@ 0x300
 8002f86:	4333      	orrs	r3, r6
 8002f88:	f023 0380 	bic.w	r3, r3, #128	@ 0x80
 8002f8c:	6290      	str	r0, [r2, #40]	@ 0x28
 8002f8e:	4319      	orrs	r1, r3
 8002f90:	6963      	ldr	r3, [r4, #20]
 8002f92:	6313      	str	r3, [r2, #48]	@ 0x30
 8002f94:	e7ce      	b.n	8002f34 <HAL_TIM_Base_Init+0x8c>
 8002f96:	f880 203c 	strb.w	r2, [r0, #60]	@ 0x3c
 8002f9a:	f7fd fd65 	bl	8000a68 <HAL_TIM_Base_MspInit>
 8002f9e:	e78d      	b.n	8002ebc <HAL_TIM_Base_Init+0x14>
 8002fa0:	2001      	movs	r0, #1
 8002fa2:	4770      	bx	lr
 8002fa4:	40012c00 	.word	0x40012c00
 8002fa8:	40014000 	.word	0x40014000

08002fac <HAL_TIM_Base_Start_IT>:
 8002fac:	f890 303d 	ldrb.w	r3, [r0, #61]	@ 0x3d
 8002fb0:	2b01      	cmp	r3, #1
 8002fb2:	d126      	bne.n	8003002 <HAL_TIM_Base_Start_IT+0x56>
 8002fb4:	6803      	ldr	r3, [r0, #0]
 8002fb6:	4919      	ldr	r1, [pc, #100]	@ (800301c <HAL_TIM_Base_Start_IT+0x70>)
 8002fb8:	2202      	movs	r2, #2
 8002fba:	f880 203d 	strb.w	r2, [r0, #61]	@ 0x3d
 8002fbe:	68da      	ldr	r2, [r3, #12]
 8002fc0:	428b      	cmp	r3, r1
 8002fc2:	f042 0201 	orr.w	r2, r2, #1
 8002fc6:	60da      	str	r2, [r3, #12]
 8002fc8:	d01d      	beq.n	8003006 <HAL_TIM_Base_Start_IT+0x5a>
 8002fca:	f1b3 4f80 	cmp.w	r3, #1073741824	@ 0x40000000
 8002fce:	d01a      	beq.n	8003006 <HAL_TIM_Base_Start_IT+0x5a>
 8002fd0:	4a13      	ldr	r2, [pc, #76]	@ (8003020 <HAL_TIM_Base_Start_IT+0x74>)
 8002fd2:	4293      	cmp	r3, r2
 8002fd4:	d017      	beq.n	8003006 <HAL_TIM_Base_Start_IT+0x5a>
 8002fd6:	f502 6280 	add.w	r2, r2, #1024	@ 0x400
 8002fda:	4293      	cmp	r3, r2
 8002fdc:	d013      	beq.n	8003006 <HAL_TIM_Base_Start_IT+0x5a>
 8002fde:	f502 6280 	add.w	r2, r2, #1024	@ 0x400
 8002fe2:	4293      	cmp	r3, r2
 8002fe4:	d00f      	beq.n	8003006 <HAL_TIM_Base_Start_IT+0x5a>
 8002fe6:	f502 3294 	add.w	r2, r2, #75776	@ 0x12800
 8002fea:	4293      	cmp	r3, r2
 8002fec:	d00b      	beq.n	8003006 <HAL_TIM_Base_Start_IT+0x5a>
 8002fee:	f502 6240 	add.w	r2, r2, #3072	@ 0xc00
 8002ff2:	4293      	cmp	r3, r2
 8002ff4:	d007      	beq.n	8003006 <HAL_TIM_Base_Start_IT+0x5a>
 8002ff6:	681a      	ldr	r2, [r3, #0]
 8002ff8:	f042 0201 	orr.w	r2, r2, #1
 8002ffc:	601a      	str	r2, [r3, #0]
 8002ffe:	2000      	movs	r0, #0
 8003000:	4770      	bx	lr
 8003002:	2001      	movs	r0, #1
 8003004:	4770      	bx	lr
 8003006:	6899      	ldr	r1, [r3, #8]
 8003008:	4a06      	ldr	r2, [pc, #24]	@ (8003024 <HAL_TIM_Base_Start_IT+0x78>)
 800300a:	400a      	ands	r2, r1
 800300c:	2a06      	cmp	r2, #6
 800300e:	d0f6      	beq.n	8002ffe <HAL_TIM_Base_Start_IT+0x52>
 8003010:	f5b2 3f80 	cmp.w	r2, #65536	@ 0x10000
 8003014:	d1ef      	bne.n	8002ff6 <HAL_TIM_Base_Start_IT+0x4a>
 8003016:	2000      	movs	r0, #0
 8003018:	4770      	bx	lr
 800301a:	bf00      	nop
 800301c:	40012c00 	.word	0x40012c00
 8003020:	40000400 	.word	0x40000400
 8003024:	00010007 	.word	0x00010007

08003028 <HAL_TIM_ConfigClockSource>:
 8003028:	f890 203c 	ldrb.w	r2, [r0, #60]	@ 0x3c
 800302c:	2a01      	cmp	r2, #1
 800302e:	f000 8084 	beq.w	800313a <HAL_TIM_ConfigClockSource+0x112>
 8003032:	4603      	mov	r3, r0
 8003034:	b430      	push	{r4, r5}
 8003036:	6802      	ldr	r2, [r0, #0]
 8003038:	2402      	movs	r4, #2
 800303a:	2001      	movs	r0, #1
 800303c:	f883 403d 	strb.w	r4, [r3, #61]	@ 0x3d
 8003040:	f883 003c 	strb.w	r0, [r3, #60]	@ 0x3c
 8003044:	6895      	ldr	r5, [r2, #8]
 8003046:	4c69      	ldr	r4, [pc, #420]	@ (80031ec <HAL_TIM_ConfigClockSource+0x1c4>)
 8003048:	402c      	ands	r4, r5
 800304a:	6094      	str	r4, [r2, #8]
 800304c:	680c      	ldr	r4, [r1, #0]
 800304e:	2c60      	cmp	r4, #96	@ 0x60
 8003050:	f000 80a4 	beq.w	800319c <HAL_TIM_ConfigClockSource+0x174>
 8003054:	d83b      	bhi.n	80030ce <HAL_TIM_ConfigClockSource+0xa6>
 8003056:	2c40      	cmp	r4, #64	@ 0x40
 8003058:	d071      	beq.n	800313e <HAL_TIM_ConfigClockSource+0x116>
 800305a:	d950      	bls.n	80030fe <HAL_TIM_ConfigClockSource+0xd6>
 800305c:	2c50      	cmp	r4, #80	@ 0x50
 800305e:	d12e      	bne.n	80030be <HAL_TIM_ConfigClockSource+0x96>
 8003060:	6848      	ldr	r0, [r1, #4]
 8003062:	68cd      	ldr	r5, [r1, #12]
 8003064:	6a11      	ldr	r1, [r2, #32]
 8003066:	6a14      	ldr	r4, [r2, #32]
 8003068:	f024 0401 	bic.w	r4, r4, #1
 800306c:	6214      	str	r4, [r2, #32]
 800306e:	4c60      	ldr	r4, [pc, #384]	@ (80031f0 <HAL_TIM_ConfigClockSource+0x1c8>)
 8003070:	42a2      	cmp	r2, r4
 8003072:	d00f      	beq.n	8003094 <HAL_TIM_ConfigClockSource+0x6c>
 8003074:	f504 6400 	add.w	r4, r4, #2048	@ 0x800
 8003078:	42a2      	cmp	r2, r4
 800307a:	d00b      	beq.n	8003094 <HAL_TIM_ConfigClockSource+0x6c>
 800307c:	f504 6440 	add.w	r4, r4, #3072	@ 0xc00
 8003080:	42a2      	cmp	r2, r4
 8003082:	d007      	beq.n	8003094 <HAL_TIM_ConfigClockSource+0x6c>
 8003084:	f504 6480 	add.w	r4, r4, #1024	@ 0x400
 8003088:	42a2      	cmp	r2, r4
 800308a:	d003      	beq.n	8003094 <HAL_TIM_ConfigClockSource+0x6c>
 800308c:	f504 6480 	add.w	r4, r4, #1024	@ 0x400
 8003090:	42a2      	cmp	r2, r4
 8003092:	d103      	bne.n	800309c <HAL_TIM_ConfigClockSource+0x74>
 8003094:	6a14      	ldr	r4, [r2, #32]
 8003096:	f024 0404 	bic.w	r4, r4, #4
 800309a:	6214      	str	r4, [r2, #32]
 800309c:	f021 010a 	bic.w	r1, r1, #10
 80030a0:	4308      	orrs	r0, r1
 80030a2:	6991      	ldr	r1, [r2, #24]
 80030a4:	f021 01f0 	bic.w	r1, r1, #240	@ 0xf0
 80030a8:	ea41 1105 	orr.w	r1, r1, r5, lsl #4
 80030ac:	6191      	str	r1, [r2, #24]
 80030ae:	6210      	str	r0, [r2, #32]
 80030b0:	6891      	ldr	r1, [r2, #8]
 80030b2:	f021 0170 	bic.w	r1, r1, #112	@ 0x70
 80030b6:	f041 0157 	orr.w	r1, r1, #87	@ 0x57
 80030ba:	6091      	str	r1, [r2, #8]
 80030bc:	2000      	movs	r0, #0
 80030be:	2101      	movs	r1, #1
 80030c0:	2200      	movs	r2, #0
 80030c2:	f883 103d 	strb.w	r1, [r3, #61]	@ 0x3d
 80030c6:	f883 203c 	strb.w	r2, [r3, #60]	@ 0x3c
 80030ca:	bc30      	pop	{r4, r5}
 80030cc:	4770      	bx	lr
 80030ce:	f5b4 5f80 	cmp.w	r4, #4096	@ 0x1000
 80030d2:	d0f3      	beq.n	80030bc <HAL_TIM_ConfigClockSource+0x94>
 80030d4:	f5b4 5f00 	cmp.w	r4, #8192	@ 0x2000
 80030d8:	d01f      	beq.n	800311a <HAL_TIM_ConfigClockSource+0xf2>
 80030da:	2c70      	cmp	r4, #112	@ 0x70
 80030dc:	d1ef      	bne.n	80030be <HAL_TIM_ConfigClockSource+0x96>
 80030de:	e9d1 5001 	ldrd	r5, r0, [r1, #4]
 80030e2:	6894      	ldr	r4, [r2, #8]
 80030e4:	4328      	orrs	r0, r5
 80030e6:	68cd      	ldr	r5, [r1, #12]
 80030e8:	f424 417f 	bic.w	r1, r4, #65280	@ 0xff00
 80030ec:	ea40 2005 	orr.w	r0, r0, r5, lsl #8
 80030f0:	4308      	orrs	r0, r1
 80030f2:	6090      	str	r0, [r2, #8]
 80030f4:	6891      	ldr	r1, [r2, #8]
 80030f6:	f041 0177 	orr.w	r1, r1, #119	@ 0x77
 80030fa:	6091      	str	r1, [r2, #8]
 80030fc:	e7de      	b.n	80030bc <HAL_TIM_ConfigClockSource+0x94>
 80030fe:	2c20      	cmp	r4, #32
 8003100:	d003      	beq.n	800310a <HAL_TIM_ConfigClockSource+0xe2>
 8003102:	d870      	bhi.n	80031e6 <HAL_TIM_ConfigClockSource+0x1be>
 8003104:	f034 0110 	bics.w	r1, r4, #16
 8003108:	d1d9      	bne.n	80030be <HAL_TIM_ConfigClockSource+0x96>
 800310a:	6891      	ldr	r1, [r2, #8]
 800310c:	f021 0170 	bic.w	r1, r1, #112	@ 0x70
 8003110:	4321      	orrs	r1, r4
 8003112:	f041 0107 	orr.w	r1, r1, #7
 8003116:	6091      	str	r1, [r2, #8]
 8003118:	e7d0      	b.n	80030bc <HAL_TIM_ConfigClockSource+0x94>
 800311a:	e9d1 5001 	ldrd	r5, r0, [r1, #4]
 800311e:	6894      	ldr	r4, [r2, #8]
 8003120:	4328      	orrs	r0, r5
 8003122:	68cd      	ldr	r5, [r1, #12]
 8003124:	f424 417f 	bic.w	r1, r4, #65280	@ 0xff00
 8003128:	ea40 2005 	orr.w	r0, r0, r5, lsl #8
 800312c:	4308      	orrs	r0, r1
 800312e:	6090      	str	r0, [r2, #8]
 8003130:	6891      	ldr	r1, [r2, #8]
 8003132:	f441 4180 	orr.w	r1, r1, #16384	@ 0x4000
 8003136:	6091      	str	r1, [r2, #8]
 8003138:	e7c0      	b.n	80030bc <HAL_TIM_ConfigClockSource+0x94>
 800313a:	2002      	movs	r0, #2
 800313c:	4770      	bx	lr
 800313e:	6848      	ldr	r0, [r1, #4]
 8003140:	68cd      	ldr	r5, [r1, #12]
 8003142:	6a11      	ldr	r1, [r2, #32]
 8003144:	6a14      	ldr	r4, [r2, #32]
 8003146:	f024 0401 	bic.w	r4, r4, #1
 800314a:	6214      	str	r4, [r2, #32]
 800314c:	4c28      	ldr	r4, [pc, #160]	@ (80031f0 <HAL_TIM_ConfigClockSource+0x1c8>)
 800314e:	42a2      	cmp	r2, r4
 8003150:	d00f      	beq.n	8003172 <HAL_TIM_ConfigClockSource+0x14a>
 8003152:	f504 6400 	add.w	r4, r4, #2048	@ 0x800
 8003156:	42a2      	cmp	r2, r4
 8003158:	d00b      	beq.n	8003172 <HAL_TIM_ConfigClockSource+0x14a>
 800315a:	f504 6440 	add.w	r4, r4, #3072	@ 0xc00
 800315e:	42a2      	cmp	r2, r4
 8003160:	d007      	beq.n	8003172 <HAL_TIM_ConfigClockSource+0x14a>
 8003162:	f504 6480 	add.w	r4, r4, #1024	@ 0x400
 8003166:	42a2      	cmp	r2, r4
 8003168:	d003      	beq.n	8003172 <HAL_TIM_ConfigClockSource+0x14a>
 800316a:	f504 6480 	add.w	r4, r4, #1024	@ 0x400
 800316e:	42a2      	cmp	r2, r4
 8003170:	d103      	bne.n	800317a <HAL_TIM_ConfigClockSource+0x152>
 8003172:	6a14      	ldr	r4, [r2, #32]
 8003174:	f024 0404 	bic.w	r4, r4, #4
 8003178:	6214      	str	r4, [r2, #32]
 800317a:	f021 010a 	bic.w	r1, r1, #10
 800317e:	4308      	orrs	r0, r1
 8003180:	6991      	ldr	r1, [r2, #24]
 8003182:	f021 01f0 	bic.w	r1, r1, #240	@ 0xf0
 8003186:	ea41 1105 	orr.w	r1, r1, r5, lsl #4
 800318a:	6191      	str	r1, [r2, #24]
 800318c:	6210      	str	r0, [r2, #32]
 800318e:	6891      	ldr	r1, [r2, #8]
 8003190:	f021 0170 	bic.w	r1, r1, #112	@ 0x70
 8003194:	f041 0147 	orr.w	r1, r1, #71	@ 0x47
 8003198:	6091      	str	r1, [r2, #8]
 800319a:	e78f      	b.n	80030bc <HAL_TIM_ConfigClockSource+0x94>
 800319c:	684d      	ldr	r5, [r1, #4]
 800319e:	68cc      	ldr	r4, [r1, #12]
 80031a0:	6a11      	ldr	r1, [r2, #32]
 80031a2:	6a10      	ldr	r0, [r2, #32]
 80031a4:	f020 0010 	bic.w	r0, r0, #16
 80031a8:	6210      	str	r0, [r2, #32]
 80031aa:	4811      	ldr	r0, [pc, #68]	@ (80031f0 <HAL_TIM_ConfigClockSource+0x1c8>)
 80031ac:	4282      	cmp	r2, r0
 80031ae:	d015      	beq.n	80031dc <HAL_TIM_ConfigClockSource+0x1b4>
 80031b0:	f500 6000 	add.w	r0, r0, #2048	@ 0x800
 80031b4:	4282      	cmp	r2, r0
 80031b6:	d011      	beq.n	80031dc <HAL_TIM_ConfigClockSource+0x1b4>
 80031b8:	6990      	ldr	r0, [r2, #24]
 80031ba:	f021 01a0 	bic.w	r1, r1, #160	@ 0xa0
 80031be:	f420 4070 	bic.w	r0, r0, #61440	@ 0xf000
 80031c2:	ea41 1105 	orr.w	r1, r1, r5, lsl #4
 80031c6:	ea40 3004 	orr.w	r0, r0, r4, lsl #12
 80031ca:	6190      	str	r0, [r2, #24]
 80031cc:	6211      	str	r1, [r2, #32]
 80031ce:	6891      	ldr	r1, [r2, #8]
 80031d0:	f021 0170 	bic.w	r1, r1, #112	@ 0x70
 80031d4:	f041 0167 	orr.w	r1, r1, #103	@ 0x67
 80031d8:	6091      	str	r1, [r2, #8]
 80031da:	e76f      	b.n	80030bc <HAL_TIM_ConfigClockSource+0x94>
 80031dc:	6a10      	ldr	r0, [r2, #32]
 80031de:	f020 0040 	bic.w	r0, r0, #64	@ 0x40
 80031e2:	6210      	str	r0, [r2, #32]
 80031e4:	e7e8      	b.n	80031b8 <HAL_TIM_ConfigClockSource+0x190>
 80031e6:	2c30      	cmp	r4, #48	@ 0x30
 80031e8:	d08f      	beq.n	800310a <HAL_TIM_ConfigClockSource+0xe2>
 80031ea:	e768      	b.n	80030be <HAL_TIM_ConfigClockSource+0x96>
 80031ec:	fffe0088 	.word	0xfffe0088
 80031f0:	40012c00 	.word	0x40012c00

080031f4 <HAL_TIM_OC_DelayElapsedCallback>:
 80031f4:	4770      	bx	lr
 80031f6:	bf00      	nop

080031f8 <HAL_TIM_IC_CaptureCallback>:
 80031f8:	4770      	bx	lr
 80031fa:	bf00      	nop

080031fc <HAL_TIM_PWM_PulseFinishedCallback>:
 80031fc:	4770      	bx	lr
 80031fe:	bf00      	nop

08003200 <HAL_TIM_TriggerCallback>:
 8003200:	4770      	bx	lr
 8003202:	bf00      	nop

08003204 <HAL_TIM_IRQHandler>:
 8003204:	6803      	ldr	r3, [r0, #0]
 8003206:	b570      	push	{r4, r5, r6, lr}
 8003208:	68de      	ldr	r6, [r3, #12]
 800320a:	691c      	ldr	r4, [r3, #16]
 800320c:	07a2      	lsls	r2, r4, #30
 800320e:	4605      	mov	r5, r0
 8003210:	d501      	bpl.n	8003216 <HAL_TIM_IRQHandler+0x12>
 8003212:	07b1      	lsls	r1, r6, #30
 8003214:	d45a      	bmi.n	80032cc <HAL_TIM_IRQHandler+0xc8>
 8003216:	0763      	lsls	r3, r4, #29
 8003218:	d501      	bpl.n	800321e <HAL_TIM_IRQHandler+0x1a>
 800321a:	0770      	lsls	r0, r6, #29
 800321c:	d443      	bmi.n	80032a6 <HAL_TIM_IRQHandler+0xa2>
 800321e:	0721      	lsls	r1, r4, #28
 8003220:	d501      	bpl.n	8003226 <HAL_TIM_IRQHandler+0x22>
 8003222:	0732      	lsls	r2, r6, #28
 8003224:	d42d      	bmi.n	8003282 <HAL_TIM_IRQHandler+0x7e>
 8003226:	06e0      	lsls	r0, r4, #27
 8003228:	d501      	bpl.n	800322e <HAL_TIM_IRQHandler+0x2a>
 800322a:	06f1      	lsls	r1, r6, #27
 800322c:	d416      	bmi.n	800325c <HAL_TIM_IRQHandler+0x58>
 800322e:	07e2      	lsls	r2, r4, #31
 8003230:	d501      	bpl.n	8003236 <HAL_TIM_IRQHandler+0x32>
 8003232:	07f3      	lsls	r3, r6, #31
 8003234:	d463      	bmi.n	80032fe <HAL_TIM_IRQHandler+0xfa>
 8003236:	f414 5f02 	tst.w	r4, #8320	@ 0x2080
 800323a:	d00a      	beq.n	8003252 <HAL_TIM_IRQHandler+0x4e>
 800323c:	0630      	lsls	r0, r6, #24
 800323e:	d466      	bmi.n	800330e <HAL_TIM_IRQHandler+0x10a>
 8003240:	0660      	lsls	r0, r4, #25
 8003242:	d501      	bpl.n	8003248 <HAL_TIM_IRQHandler+0x44>
 8003244:	0671      	lsls	r1, r6, #25
 8003246:	d473      	bmi.n	8003330 <HAL_TIM_IRQHandler+0x12c>
 8003248:	06a2      	lsls	r2, r4, #26
 800324a:	d501      	bpl.n	8003250 <HAL_TIM_IRQHandler+0x4c>
 800324c:	06b3      	lsls	r3, r6, #26
 800324e:	d44d      	bmi.n	80032ec <HAL_TIM_IRQHandler+0xe8>
 8003250:	bd70      	pop	{r4, r5, r6, pc}
 8003252:	05e2      	lsls	r2, r4, #23
 8003254:	d5f4      	bpl.n	8003240 <HAL_TIM_IRQHandler+0x3c>
 8003256:	0633      	lsls	r3, r6, #24
 8003258:	d462      	bmi.n	8003320 <HAL_TIM_IRQHandler+0x11c>
 800325a:	e7f1      	b.n	8003240 <HAL_TIM_IRQHandler+0x3c>
 800325c:	682b      	ldr	r3, [r5, #0]
 800325e:	f06f 0210 	mvn.w	r2, #16
 8003262:	611a      	str	r2, [r3, #16]
 8003264:	2208      	movs	r2, #8
 8003266:	772a      	strb	r2, [r5, #28]
 8003268:	69db      	ldr	r3, [r3, #28]
 800326a:	f413 7f40 	tst.w	r3, #768	@ 0x300
 800326e:	4628      	mov	r0, r5
 8003270:	d16f      	bne.n	8003352 <HAL_TIM_IRQHandler+0x14e>
 8003272:	f7ff ffbf 	bl	80031f4 <HAL_TIM_OC_DelayElapsedCallback>
 8003276:	4628      	mov	r0, r5
 8003278:	f7ff ffc0 	bl	80031fc <HAL_TIM_PWM_PulseFinishedCallback>
 800327c:	2300      	movs	r3, #0
 800327e:	772b      	strb	r3, [r5, #28]
 8003280:	e7d5      	b.n	800322e <HAL_TIM_IRQHandler+0x2a>
 8003282:	682b      	ldr	r3, [r5, #0]
 8003284:	f06f 0208 	mvn.w	r2, #8
 8003288:	611a      	str	r2, [r3, #16]
 800328a:	2204      	movs	r2, #4
 800328c:	772a      	strb	r2, [r5, #28]
 800328e:	69db      	ldr	r3, [r3, #28]
 8003290:	079b      	lsls	r3, r3, #30
 8003292:	4628      	mov	r0, r5
 8003294:	d15a      	bne.n	800334c <HAL_TIM_IRQHandler+0x148>
 8003296:	f7ff ffad 	bl	80031f4 <HAL_TIM_OC_DelayElapsedCallback>
 800329a:	4628      	mov	r0, r5
 800329c:	f7ff ffae 	bl	80031fc <HAL_TIM_PWM_PulseFinishedCallback>
 80032a0:	2300      	movs	r3, #0
 80032a2:	772b      	strb	r3, [r5, #28]
 80032a4:	e7bf      	b.n	8003226 <HAL_TIM_IRQHandler+0x22>
 80032a6:	682b      	ldr	r3, [r5, #0]
 80032a8:	f06f 0204 	mvn.w	r2, #4
 80032ac:	611a      	str	r2, [r3, #16]
 80032ae:	2202      	movs	r2, #2
 80032b0:	772a      	strb	r2, [r5, #28]
 80032b2:	699b      	ldr	r3, [r3, #24]
 80032b4:	f413 7f40 	tst.w	r3, #768	@ 0x300
 80032b8:	4628      	mov	r0, r5
 80032ba:	d144      	bne.n	8003346 <HAL_TIM_IRQHandler+0x142>
 80032bc:	f7ff ff9a 	bl	80031f4 <HAL_TIM_OC_DelayElapsedCallback>
 80032c0:	4628      	mov	r0, r5
 80032c2:	f7ff ff9b 	bl	80031fc <HAL_TIM_PWM_PulseFinishedCallback>
 80032c6:	2300      	movs	r3, #0
 80032c8:	772b      	strb	r3, [r5, #28]
 80032ca:	e7a8      	b.n	800321e <HAL_TIM_IRQHandler+0x1a>
 80032cc:	f06f 0202 	mvn.w	r2, #2
 80032d0:	611a      	str	r2, [r3, #16]
 80032d2:	2201      	movs	r2, #1
 80032d4:	7702      	strb	r2, [r0, #28]
 80032d6:	699b      	ldr	r3, [r3, #24]
 80032d8:	079a      	lsls	r2, r3, #30
 80032da:	d131      	bne.n	8003340 <HAL_TIM_IRQHandler+0x13c>
 80032dc:	f7ff ff8a 	bl	80031f4 <HAL_TIM_OC_DelayElapsedCallback>
 80032e0:	4628      	mov	r0, r5
 80032e2:	f7ff ff8b 	bl	80031fc <HAL_TIM_PWM_PulseFinishedCallback>
 80032e6:	2300      	movs	r3, #0
 80032e8:	772b      	strb	r3, [r5, #28]
 80032ea:	e794      	b.n	8003216 <HAL_TIM_IRQHandler+0x12>
 80032ec:	682b      	ldr	r3, [r5, #0]
 80032ee:	f06f 0220 	mvn.w	r2, #32
 80032f2:	4628      	mov	r0, r5
 80032f4:	611a      	str	r2, [r3, #16]
 80032f6:	e8bd 4070 	ldmia.w	sp!, {r4, r5, r6, lr}
 80032fa:	f000 b87d 	b.w	80033f8 <HAL_TIMEx_CommutCallback>
 80032fe:	682b      	ldr	r3, [r5, #0]
 8003300:	f06f 0201 	mvn.w	r2, #1
 8003304:	611a      	str	r2, [r3, #16]
 8003306:	4628      	mov	r0, r5
 8003308:	f7fd fabc 	bl	8000884 <HAL_TIM_PeriodElapsedCallback>
 800330c:	e793      	b.n	8003236 <HAL_TIM_IRQHandler+0x32>
 800330e:	682b      	ldr	r3, [r5, #0]
 8003310:	f46f 5202 	mvn.w	r2, #8320	@ 0x2080
 8003314:	611a      	str	r2, [r3, #16]
 8003316:	4628      	mov	r0, r5
 8003318:	f000 f870 	bl	80033fc <HAL_TIMEx_BreakCallback>
 800331c:	05e1      	lsls	r1, r4, #23
 800331e:	d58f      	bpl.n	8003240 <HAL_TIM_IRQHandler+0x3c>
 8003320:	682b      	ldr	r3, [r5, #0]
 8003322:	f46f 7280 	mvn.w	r2, #256	@ 0x100
 8003326:	611a      	str	r2, [r3, #16]
 8003328:	4628      	mov	r0, r5
 800332a:	f000 f869 	bl	8003400 <HAL_TIMEx_Break2Callback>
 800332e:	e787      	b.n	8003240 <HAL_TIM_IRQHandler+0x3c>
 8003330:	682b      	ldr	r3, [r5, #0]
 8003332:	f06f 0240 	mvn.w	r2, #64	@ 0x40
 8003336:	611a      	str	r2, [r3, #16]
 8003338:	4628      	mov	r0, r5
 800333a:	f7ff ff61 	bl	8003200 <HAL_TIM_TriggerCallback>
 800333e:	e783      	b.n	8003248 <HAL_TIM_IRQHandler+0x44>
 8003340:	f7ff ff5a 	bl	80031f8 <HAL_TIM_IC_CaptureCallback>
 8003344:	e7cf      	b.n	80032e6 <HAL_TIM_IRQHandler+0xe2>
 8003346:	f7ff ff57 	bl	80031f8 <HAL_TIM_IC_CaptureCallback>
 800334a:	e7bc      	b.n	80032c6 <HAL_TIM_IRQHandler+0xc2>
 800334c:	f7ff ff54 	bl	80031f8 <HAL_TIM_IC_CaptureCallback>
 8003350:	e7a6      	b.n	80032a0 <HAL_TIM_IRQHandler+0x9c>
 8003352:	f7ff ff51 	bl	80031f8 <HAL_TIM_IC_CaptureCallback>
 8003356:	e791      	b.n	800327c <HAL_TIM_IRQHandler+0x78>

08003358 <HAL_TIMEx_MasterConfigSynchronization>:
 8003358:	f890 203c 	ldrb.w	r2, [r0, #60]	@ 0x3c
 800335c:	2a01      	cmp	r2, #1
 800335e:	d044      	beq.n	80033ea <HAL_TIMEx_MasterConfigSynchronization+0x92>
 8003360:	6802      	ldr	r2, [r0, #0]
 8003362:	b470      	push	{r4, r5, r6}
 8003364:	4603      	mov	r3, r0
 8003366:	4e22      	ldr	r6, [pc, #136]	@ (80033f0 <HAL_TIMEx_MasterConfigSynchronization+0x98>)
 8003368:	2002      	movs	r0, #2
 800336a:	f883 003d 	strb.w	r0, [r3, #61]	@ 0x3d
 800336e:	42b2      	cmp	r2, r6
 8003370:	6850      	ldr	r0, [r2, #4]
 8003372:	680d      	ldr	r5, [r1, #0]
 8003374:	6894      	ldr	r4, [r2, #8]
 8003376:	d026      	beq.n	80033c6 <HAL_TIMEx_MasterConfigSynchronization+0x6e>
 8003378:	f506 6600 	add.w	r6, r6, #2048	@ 0x800
 800337c:	42b2      	cmp	r2, r6
 800337e:	d02b      	beq.n	80033d8 <HAL_TIMEx_MasterConfigSynchronization+0x80>
 8003380:	f020 0070 	bic.w	r0, r0, #112	@ 0x70
 8003384:	4328      	orrs	r0, r5
 8003386:	f1b2 4f80 	cmp.w	r2, #1073741824	@ 0x40000000
 800338a:	6050      	str	r0, [r2, #4]
 800338c:	d00e      	beq.n	80033ac <HAL_TIMEx_MasterConfigSynchronization+0x54>
 800338e:	4819      	ldr	r0, [pc, #100]	@ (80033f4 <HAL_TIMEx_MasterConfigSynchronization+0x9c>)
 8003390:	4282      	cmp	r2, r0
 8003392:	d00b      	beq.n	80033ac <HAL_TIMEx_MasterConfigSynchronization+0x54>
 8003394:	f500 6080 	add.w	r0, r0, #1024	@ 0x400
 8003398:	4282      	cmp	r2, r0
 800339a:	d007      	beq.n	80033ac <HAL_TIMEx_MasterConfigSynchronization+0x54>
 800339c:	f500 6080 	add.w	r0, r0, #1024	@ 0x400
 80033a0:	4282      	cmp	r2, r0
 80033a2:	d003      	beq.n	80033ac <HAL_TIMEx_MasterConfigSynchronization+0x54>
 80033a4:	f500 309a 	add.w	r0, r0, #78848	@ 0x13400
 80033a8:	4282      	cmp	r2, r0
 80033aa:	d104      	bne.n	80033b6 <HAL_TIMEx_MasterConfigSynchronization+0x5e>
 80033ac:	6889      	ldr	r1, [r1, #8]
 80033ae:	f024 0480 	bic.w	r4, r4, #128	@ 0x80
 80033b2:	430c      	orrs	r4, r1
 80033b4:	6094      	str	r4, [r2, #8]
 80033b6:	2000      	movs	r0, #0
 80033b8:	2201      	movs	r2, #1
 80033ba:	f883 203d 	strb.w	r2, [r3, #61]	@ 0x3d
 80033be:	f883 003c 	strb.w	r0, [r3, #60]	@ 0x3c
 80033c2:	bc70      	pop	{r4, r5, r6}
 80033c4:	4770      	bx	lr
 80033c6:	684e      	ldr	r6, [r1, #4]
 80033c8:	f420 0070 	bic.w	r0, r0, #15728640	@ 0xf00000
 80033cc:	4330      	orrs	r0, r6
 80033ce:	f020 0070 	bic.w	r0, r0, #112	@ 0x70
 80033d2:	4328      	orrs	r0, r5
 80033d4:	6050      	str	r0, [r2, #4]
 80033d6:	e7e9      	b.n	80033ac <HAL_TIMEx_MasterConfigSynchronization+0x54>
 80033d8:	684e      	ldr	r6, [r1, #4]
 80033da:	f420 0070 	bic.w	r0, r0, #15728640	@ 0xf00000
 80033de:	4330      	orrs	r0, r6
 80033e0:	f020 0070 	bic.w	r0, r0, #112	@ 0x70
 80033e4:	4305      	orrs	r5, r0
 80033e6:	6055      	str	r5, [r2, #4]
 80033e8:	e7e0      	b.n	80033ac <HAL_TIMEx_MasterConfigSynchronization+0x54>
 80033ea:	2002      	movs	r0, #2
 80033ec:	4770      	bx	lr
 80033ee:	bf00      	nop
 80033f0:	40012c00 	.word	0x40012c00
 80033f4:	40000400 	.word	0x40000400

080033f8 <HAL_TIMEx_CommutCallback>:
 80033f8:	4770      	bx	lr
 80033fa:	bf00      	nop

080033fc <HAL_TIMEx_BreakCallback>:
 80033fc:	4770      	bx	lr
 80033fe:	bf00      	nop

08003400 <HAL_TIMEx_Break2Callback>:
 8003400:	4770      	bx	lr
 8003402:	bf00      	nop

08003404 <UART_SetConfig>:
 8003404:	b538      	push	{r3, r4, r5, lr}
 8003406:	4604      	mov	r4, r0
 8003408:	6803      	ldr	r3, [r0, #0]
 800340a:	6882      	ldr	r2, [r0, #8]
 800340c:	6900      	ldr	r0, [r0, #16]
 800340e:	6961      	ldr	r1, [r4, #20]
 8003410:	681d      	ldr	r5, [r3, #0]
 8003412:	4302      	orrs	r2, r0
 8003414:	430a      	orrs	r2, r1
 8003416:	69e0      	ldr	r0, [r4, #28]
 8003418:	497c      	ldr	r1, [pc, #496]	@ (800360c <UART_SetConfig+0x208>)
 800341a:	4302      	orrs	r2, r0
 800341c:	4029      	ands	r1, r5
 800341e:	430a      	orrs	r2, r1
 8003420:	601a      	str	r2, [r3, #0]
 8003422:	685a      	ldr	r2, [r3, #4]
 8003424:	68e1      	ldr	r1, [r4, #12]
 8003426:	f422 5240 	bic.w	r2, r2, #12288	@ 0x3000
 800342a:	430a      	orrs	r2, r1
 800342c:	4978      	ldr	r1, [pc, #480]	@ (8003610 <UART_SetConfig+0x20c>)
 800342e:	605a      	str	r2, [r3, #4]
 8003430:	428b      	cmp	r3, r1
 8003432:	69a2      	ldr	r2, [r4, #24]
 8003434:	6899      	ldr	r1, [r3, #8]
 8003436:	d02f      	beq.n	8003498 <UART_SetConfig+0x94>
 8003438:	6a25      	ldr	r5, [r4, #32]
 800343a:	f421 6130 	bic.w	r1, r1, #2816	@ 0xb00
 800343e:	432a      	orrs	r2, r5
 8003440:	430a      	orrs	r2, r1
 8003442:	4974      	ldr	r1, [pc, #464]	@ (8003614 <UART_SetConfig+0x210>)
 8003444:	609a      	str	r2, [r3, #8]
 8003446:	428b      	cmp	r3, r1
 8003448:	d012      	beq.n	8003470 <UART_SetConfig+0x6c>
 800344a:	4a73      	ldr	r2, [pc, #460]	@ (8003618 <UART_SetConfig+0x214>)
 800344c:	4293      	cmp	r3, r2
 800344e:	d142      	bne.n	80034d6 <UART_SetConfig+0xd2>
 8003450:	4b72      	ldr	r3, [pc, #456]	@ (800361c <UART_SetConfig+0x218>)
 8003452:	f8d3 3088 	ldr.w	r3, [r3, #136]	@ 0x88
 8003456:	f003 030c 	and.w	r3, r3, #12
 800345a:	2b0c      	cmp	r3, #12
 800345c:	d836      	bhi.n	80034cc <UART_SetConfig+0xc8>
 800345e:	e8df f003 	tbb	[pc, r3]
 8003462:	3582      	.short	0x3582
 8003464:	354d3535 	.word	0x354d3535
 8003468:	357d3535 	.word	0x357d3535
 800346c:	3535      	.short	0x3535
 800346e:	66          	.byte	0x66
 800346f:	00          	.byte	0x00
 8003470:	4b6a      	ldr	r3, [pc, #424]	@ (800361c <UART_SetConfig+0x218>)
 8003472:	f8d3 3088 	ldr.w	r3, [r3, #136]	@ 0x88
 8003476:	f003 0303 	and.w	r3, r3, #3
 800347a:	2b02      	cmp	r3, #2
 800347c:	d06e      	beq.n	800355c <UART_SetConfig+0x158>
 800347e:	2b03      	cmp	r3, #3
 8003480:	d055      	beq.n	800352e <UART_SetConfig+0x12a>
 8003482:	2b01      	cmp	r3, #1
 8003484:	d03a      	beq.n	80034fc <UART_SetConfig+0xf8>
 8003486:	f5b0 4f00 	cmp.w	r0, #32768	@ 0x8000
 800348a:	f000 80b4 	beq.w	80035f6 <UART_SetConfig+0x1f2>
 800348e:	f7ff f9df 	bl	8002850 <HAL_RCC_GetPCLK2Freq>
 8003492:	2800      	cmp	r0, #0
 8003494:	d05d      	beq.n	8003552 <UART_SetConfig+0x14e>
 8003496:	e04f      	b.n	8003538 <UART_SetConfig+0x134>
 8003498:	f421 6130 	bic.w	r1, r1, #2816	@ 0xb00
 800349c:	485f      	ldr	r0, [pc, #380]	@ (800361c <UART_SetConfig+0x218>)
 800349e:	430a      	orrs	r2, r1
 80034a0:	609a      	str	r2, [r3, #8]
 80034a2:	f8d0 3088 	ldr.w	r3, [r0, #136]	@ 0x88
 80034a6:	f403 6340 	and.w	r3, r3, #3072	@ 0xc00
 80034aa:	f5b3 6f00 	cmp.w	r3, #2048	@ 0x800
 80034ae:	d06d      	beq.n	800358c <UART_SetConfig+0x188>
 80034b0:	d92c      	bls.n	800350c <UART_SetConfig+0x108>
 80034b2:	f5b3 6f40 	cmp.w	r3, #3072	@ 0xc00
 80034b6:	d109      	bne.n	80034cc <UART_SetConfig+0xc8>
 80034b8:	f44f 4000 	mov.w	r0, #32768	@ 0x8000
 80034bc:	6862      	ldr	r2, [r4, #4]
 80034be:	eb02 0342 	add.w	r3, r2, r2, lsl #1
 80034c2:	4283      	cmp	r3, r0
 80034c4:	d802      	bhi.n	80034cc <UART_SetConfig+0xc8>
 80034c6:	ebb0 3f02 	cmp.w	r0, r2, lsl #12
 80034ca:	d966      	bls.n	800359a <UART_SetConfig+0x196>
 80034cc:	2300      	movs	r3, #0
 80034ce:	e9c4 331a 	strd	r3, r3, [r4, #104]	@ 0x68
 80034d2:	2001      	movs	r0, #1
 80034d4:	bd38      	pop	{r3, r4, r5, pc}
 80034d6:	4a52      	ldr	r2, [pc, #328]	@ (8003620 <UART_SetConfig+0x21c>)
 80034d8:	4293      	cmp	r3, r2
 80034da:	d04c      	beq.n	8003576 <UART_SetConfig+0x172>
 80034dc:	4a51      	ldr	r2, [pc, #324]	@ (8003624 <UART_SetConfig+0x220>)
 80034de:	4293      	cmp	r3, r2
 80034e0:	d01b      	beq.n	800351a <UART_SetConfig+0x116>
 80034e2:	4a51      	ldr	r2, [pc, #324]	@ (8003628 <UART_SetConfig+0x224>)
 80034e4:	4293      	cmp	r3, r2
 80034e6:	d1f1      	bne.n	80034cc <UART_SetConfig+0xc8>
 80034e8:	4b4c      	ldr	r3, [pc, #304]	@ (800361c <UART_SetConfig+0x218>)
 80034ea:	f8d3 3088 	ldr.w	r3, [r3, #136]	@ 0x88
 80034ee:	f403 7340 	and.w	r3, r3, #768	@ 0x300
 80034f2:	f5b3 7f00 	cmp.w	r3, #512	@ 0x200
 80034f6:	d031      	beq.n	800355c <UART_SetConfig+0x158>
 80034f8:	d879      	bhi.n	80035ee <UART_SetConfig+0x1ea>
 80034fa:	b3a3      	cbz	r3, 8003566 <UART_SetConfig+0x162>
 80034fc:	f5b0 4f00 	cmp.w	r0, #32768	@ 0x8000
 8003500:	f000 8081 	beq.w	8003606 <UART_SetConfig+0x202>
 8003504:	f7fe fda2 	bl	800204c <HAL_RCC_GetSysClockFreq>
 8003508:	b318      	cbz	r0, 8003552 <UART_SetConfig+0x14e>
 800350a:	e015      	b.n	8003538 <UART_SetConfig+0x134>
 800350c:	2b00      	cmp	r3, #0
 800350e:	d03f      	beq.n	8003590 <UART_SetConfig+0x18c>
 8003510:	f7fe fd9c 	bl	800204c <HAL_RCC_GetSysClockFreq>
 8003514:	2800      	cmp	r0, #0
 8003516:	d1d1      	bne.n	80034bc <UART_SetConfig+0xb8>
 8003518:	e01b      	b.n	8003552 <UART_SetConfig+0x14e>
 800351a:	4b40      	ldr	r3, [pc, #256]	@ (800361c <UART_SetConfig+0x218>)
 800351c:	f8d3 3088 	ldr.w	r3, [r3, #136]	@ 0x88
 8003520:	f003 03c0 	and.w	r3, r3, #192	@ 0xc0
 8003524:	2b80      	cmp	r3, #128	@ 0x80
 8003526:	d019      	beq.n	800355c <UART_SetConfig+0x158>
 8003528:	d9e7      	bls.n	80034fa <UART_SetConfig+0xf6>
 800352a:	2bc0      	cmp	r3, #192	@ 0xc0
 800352c:	d1ce      	bne.n	80034cc <UART_SetConfig+0xc8>
 800352e:	f5b0 4f00 	cmp.w	r0, #32768	@ 0x8000
 8003532:	d065      	beq.n	8003600 <UART_SetConfig+0x1fc>
 8003534:	f44f 4000 	mov.w	r0, #32768	@ 0x8000
 8003538:	6863      	ldr	r3, [r4, #4]
 800353a:	f64f 72ef 	movw	r2, #65519	@ 0xffef
 800353e:	eb00 0053 	add.w	r0, r0, r3, lsr #1
 8003542:	fbb0 f0f3 	udiv	r0, r0, r3
 8003546:	f1a0 0310 	sub.w	r3, r0, #16
 800354a:	4293      	cmp	r3, r2
 800354c:	d8be      	bhi.n	80034cc <UART_SetConfig+0xc8>
 800354e:	6823      	ldr	r3, [r4, #0]
 8003550:	60d8      	str	r0, [r3, #12]
 8003552:	2300      	movs	r3, #0
 8003554:	e9c4 331a 	strd	r3, r3, [r4, #104]	@ 0x68
 8003558:	2000      	movs	r0, #0
 800355a:	bd38      	pop	{r3, r4, r5, pc}
 800355c:	f5b0 4f00 	cmp.w	r0, #32768	@ 0x8000
 8003560:	d04c      	beq.n	80035fc <UART_SetConfig+0x1f8>
 8003562:	4832      	ldr	r0, [pc, #200]	@ (800362c <UART_SetConfig+0x228>)
 8003564:	e7e8      	b.n	8003538 <UART_SetConfig+0x134>
 8003566:	f5b0 4f00 	cmp.w	r0, #32768	@ 0x8000
 800356a:	d026      	beq.n	80035ba <UART_SetConfig+0x1b6>
 800356c:	f7ff f95e 	bl	800282c <HAL_RCC_GetPCLK1Freq>
 8003570:	2800      	cmp	r0, #0
 8003572:	d0ee      	beq.n	8003552 <UART_SetConfig+0x14e>
 8003574:	e7e0      	b.n	8003538 <UART_SetConfig+0x134>
 8003576:	4b29      	ldr	r3, [pc, #164]	@ (800361c <UART_SetConfig+0x218>)
 8003578:	f8d3 3088 	ldr.w	r3, [r3, #136]	@ 0x88
 800357c:	f003 0330 	and.w	r3, r3, #48	@ 0x30
 8003580:	2b20      	cmp	r3, #32
 8003582:	d0eb      	beq.n	800355c <UART_SetConfig+0x158>
 8003584:	d9b9      	bls.n	80034fa <UART_SetConfig+0xf6>
 8003586:	2b30      	cmp	r3, #48	@ 0x30
 8003588:	d0d1      	beq.n	800352e <UART_SetConfig+0x12a>
 800358a:	e79f      	b.n	80034cc <UART_SetConfig+0xc8>
 800358c:	4827      	ldr	r0, [pc, #156]	@ (800362c <UART_SetConfig+0x228>)
 800358e:	e795      	b.n	80034bc <UART_SetConfig+0xb8>
 8003590:	f7ff f94c 	bl	800282c <HAL_RCC_GetPCLK1Freq>
 8003594:	2800      	cmp	r0, #0
 8003596:	d191      	bne.n	80034bc <UART_SetConfig+0xb8>
 8003598:	e7db      	b.n	8003552 <UART_SetConfig+0x14e>
 800359a:	0853      	lsrs	r3, r2, #1
 800359c:	f44f 7580 	mov.w	r5, #256	@ 0x100
 80035a0:	2100      	movs	r1, #0
 80035a2:	fbe0 3105 	umlal	r3, r1, r0, r5
 80035a6:	4618      	mov	r0, r3
 80035a8:	2300      	movs	r3, #0
 80035aa:	f7fc fe0d 	bl	80001c8 <__aeabi_uldivmod>
 80035ae:	4b20      	ldr	r3, [pc, #128]	@ (8003630 <UART_SetConfig+0x22c>)
 80035b0:	f5a0 7240 	sub.w	r2, r0, #768	@ 0x300
 80035b4:	429a      	cmp	r2, r3
 80035b6:	d889      	bhi.n	80034cc <UART_SetConfig+0xc8>
 80035b8:	e7c9      	b.n	800354e <UART_SetConfig+0x14a>
 80035ba:	f7ff f937 	bl	800282c <HAL_RCC_GetPCLK1Freq>
 80035be:	2800      	cmp	r0, #0
 80035c0:	d0c7      	beq.n	8003552 <UART_SetConfig+0x14e>
 80035c2:	0040      	lsls	r0, r0, #1
 80035c4:	6863      	ldr	r3, [r4, #4]
 80035c6:	f64f 72ef 	movw	r2, #65519	@ 0xffef
 80035ca:	eb00 0053 	add.w	r0, r0, r3, lsr #1
 80035ce:	fbb0 f3f3 	udiv	r3, r0, r3
 80035d2:	f1a3 0110 	sub.w	r1, r3, #16
 80035d6:	4291      	cmp	r1, r2
 80035d8:	f63f af78 	bhi.w	80034cc <UART_SetConfig+0xc8>
 80035dc:	f023 020f 	bic.w	r2, r3, #15
 80035e0:	6821      	ldr	r1, [r4, #0]
 80035e2:	b292      	uxth	r2, r2
 80035e4:	f3c3 0342 	ubfx	r3, r3, #1, #3
 80035e8:	4313      	orrs	r3, r2
 80035ea:	60cb      	str	r3, [r1, #12]
 80035ec:	e7b1      	b.n	8003552 <UART_SetConfig+0x14e>
 80035ee:	f5b3 7f40 	cmp.w	r3, #768	@ 0x300
 80035f2:	d09c      	beq.n	800352e <UART_SetConfig+0x12a>
 80035f4:	e76a      	b.n	80034cc <UART_SetConfig+0xc8>
 80035f6:	f7ff f92b 	bl	8002850 <HAL_RCC_GetPCLK2Freq>
 80035fa:	e7e0      	b.n	80035be <UART_SetConfig+0x1ba>
 80035fc:	480d      	ldr	r0, [pc, #52]	@ (8003634 <UART_SetConfig+0x230>)
 80035fe:	e7e1      	b.n	80035c4 <UART_SetConfig+0x1c0>
 8003600:	f44f 3080 	mov.w	r0, #65536	@ 0x10000
 8003604:	e7de      	b.n	80035c4 <UART_SetConfig+0x1c0>
 8003606:	f7fe fd21 	bl	800204c <HAL_RCC_GetSysClockFreq>
 800360a:	e7d8      	b.n	80035be <UART_SetConfig+0x1ba>
 800360c:	efff69f3 	.word	0xefff69f3
 8003610:	40008000 	.word	0x40008000
 8003614:	40013800 	.word	0x40013800
 8003618:	40004400 	.word	0x40004400
 800361c:	40021000 	.word	0x40021000
 8003620:	40004800 	.word	0x40004800
 8003624:	40004c00 	.word	0x40004c00
 8003628:	40005000 	.word	0x40005000
 800362c:	00f42400 	.word	0x00f42400
 8003630:	000ffcff 	.word	0x000ffcff
 8003634:	01e84800 	.word	0x01e84800

08003638 <UART_AdvFeatureConfig>:
 8003638:	6a43      	ldr	r3, [r0, #36]	@ 0x24
 800363a:	071a      	lsls	r2, r3, #28
 800363c:	b410      	push	{r4}
 800363e:	d506      	bpl.n	800364e <UART_AdvFeatureConfig+0x16>
 8003640:	6801      	ldr	r1, [r0, #0]
 8003642:	6b44      	ldr	r4, [r0, #52]	@ 0x34
 8003644:	684a      	ldr	r2, [r1, #4]
 8003646:	f422 4200 	bic.w	r2, r2, #32768	@ 0x8000
 800364a:	4322      	orrs	r2, r4
 800364c:	604a      	str	r2, [r1, #4]
 800364e:	07dc      	lsls	r4, r3, #31
 8003650:	d506      	bpl.n	8003660 <UART_AdvFeatureConfig+0x28>
 8003652:	6801      	ldr	r1, [r0, #0]
 8003654:	6a84      	ldr	r4, [r0, #40]	@ 0x28
 8003656:	684a      	ldr	r2, [r1, #4]
 8003658:	f422 3200 	bic.w	r2, r2, #131072	@ 0x20000
 800365c:	4322      	orrs	r2, r4
 800365e:	604a      	str	r2, [r1, #4]
 8003660:	0799      	lsls	r1, r3, #30
 8003662:	d506      	bpl.n	8003672 <UART_AdvFeatureConfig+0x3a>
 8003664:	6801      	ldr	r1, [r0, #0]
 8003666:	6ac4      	ldr	r4, [r0, #44]	@ 0x2c
 8003668:	684a      	ldr	r2, [r1, #4]
 800366a:	f422 3280 	bic.w	r2, r2, #65536	@ 0x10000
 800366e:	4322      	orrs	r2, r4
 8003670:	604a      	str	r2, [r1, #4]
 8003672:	075a      	lsls	r2, r3, #29
 8003674:	d506      	bpl.n	8003684 <UART_AdvFeatureConfig+0x4c>
 8003676:	6801      	ldr	r1, [r0, #0]
 8003678:	6b04      	ldr	r4, [r0, #48]	@ 0x30
 800367a:	684a      	ldr	r2, [r1, #4]
 800367c:	f422 2280 	bic.w	r2, r2, #262144	@ 0x40000
 8003680:	4322      	orrs	r2, r4
 8003682:	604a      	str	r2, [r1, #4]
 8003684:	06dc      	lsls	r4, r3, #27
 8003686:	d506      	bpl.n	8003696 <UART_AdvFeatureConfig+0x5e>
 8003688:	6801      	ldr	r1, [r0, #0]
 800368a:	6b84      	ldr	r4, [r0, #56]	@ 0x38
 800368c:	688a      	ldr	r2, [r1, #8]
 800368e:	f422 5280 	bic.w	r2, r2, #4096	@ 0x1000
 8003692:	4322      	orrs	r2, r4
 8003694:	608a      	str	r2, [r1, #8]
 8003696:	0699      	lsls	r1, r3, #26
 8003698:	d506      	bpl.n	80036a8 <UART_AdvFeatureConfig+0x70>
 800369a:	6801      	ldr	r1, [r0, #0]
 800369c:	6bc4      	ldr	r4, [r0, #60]	@ 0x3c
 800369e:	688a      	ldr	r2, [r1, #8]
 80036a0:	f422 5200 	bic.w	r2, r2, #8192	@ 0x2000
 80036a4:	4322      	orrs	r2, r4
 80036a6:	608a      	str	r2, [r1, #8]
 80036a8:	065a      	lsls	r2, r3, #25
 80036aa:	d509      	bpl.n	80036c0 <UART_AdvFeatureConfig+0x88>
 80036ac:	6801      	ldr	r1, [r0, #0]
 80036ae:	6c04      	ldr	r4, [r0, #64]	@ 0x40
 80036b0:	684a      	ldr	r2, [r1, #4]
 80036b2:	f422 1280 	bic.w	r2, r2, #1048576	@ 0x100000
 80036b6:	4322      	orrs	r2, r4
 80036b8:	f5b4 1f80 	cmp.w	r4, #1048576	@ 0x100000
 80036bc:	604a      	str	r2, [r1, #4]
 80036be:	d00b      	beq.n	80036d8 <UART_AdvFeatureConfig+0xa0>
 80036c0:	061b      	lsls	r3, r3, #24
 80036c2:	d506      	bpl.n	80036d2 <UART_AdvFeatureConfig+0x9a>
 80036c4:	6802      	ldr	r2, [r0, #0]
 80036c6:	6c81      	ldr	r1, [r0, #72]	@ 0x48
 80036c8:	6853      	ldr	r3, [r2, #4]
 80036ca:	f423 2300 	bic.w	r3, r3, #524288	@ 0x80000
 80036ce:	430b      	orrs	r3, r1
 80036d0:	6053      	str	r3, [r2, #4]
 80036d2:	f85d 4b04 	ldr.w	r4, [sp], #4
 80036d6:	4770      	bx	lr
 80036d8:	684a      	ldr	r2, [r1, #4]
 80036da:	6c44      	ldr	r4, [r0, #68]	@ 0x44
 80036dc:	f422 02c0 	bic.w	r2, r2, #6291456	@ 0x600000
 80036e0:	4322      	orrs	r2, r4
 80036e2:	604a      	str	r2, [r1, #4]
 80036e4:	e7ec      	b.n	80036c0 <UART_AdvFeatureConfig+0x88>
 80036e6:	bf00      	nop

080036e8 <UART_CheckIdleState>:
 80036e8:	b538      	push	{r3, r4, r5, lr}
 80036ea:	2300      	movs	r3, #0
 80036ec:	4604      	mov	r4, r0
 80036ee:	f8c0 3084 	str.w	r3, [r0, #132]	@ 0x84
 80036f2:	f7fd fab9 	bl	8000c68 <HAL_GetTick>
 80036f6:	6821      	ldr	r1, [r4, #0]
 80036f8:	680b      	ldr	r3, [r1, #0]
 80036fa:	071b      	lsls	r3, r3, #28
 80036fc:	4605      	mov	r5, r0
 80036fe:	d40e      	bmi.n	800371e <UART_CheckIdleState+0x36>
 8003700:	680b      	ldr	r3, [r1, #0]
 8003702:	075a      	lsls	r2, r3, #29
 8003704:	d42f      	bmi.n	8003766 <UART_CheckIdleState+0x7e>
 8003706:	2300      	movs	r3, #0
 8003708:	2220      	movs	r2, #32
 800370a:	67e2      	str	r2, [r4, #124]	@ 0x7c
 800370c:	4618      	mov	r0, r3
 800370e:	f8c4 2080 	str.w	r2, [r4, #128]	@ 0x80
 8003712:	6623      	str	r3, [r4, #96]	@ 0x60
 8003714:	6663      	str	r3, [r4, #100]	@ 0x64
 8003716:	2300      	movs	r3, #0
 8003718:	f884 3078 	strb.w	r3, [r4, #120]	@ 0x78
 800371c:	bd38      	pop	{r3, r4, r5, pc}
 800371e:	69cb      	ldr	r3, [r1, #28]
 8003720:	0298      	lsls	r0, r3, #10
 8003722:	d4ed      	bmi.n	8003700 <UART_CheckIdleState+0x18>
 8003724:	e00b      	b.n	800373e <UART_CheckIdleState+0x56>
 8003726:	681a      	ldr	r2, [r3, #0]
 8003728:	0752      	lsls	r2, r2, #29
 800372a:	d505      	bpl.n	8003738 <UART_CheckIdleState+0x50>
 800372c:	69da      	ldr	r2, [r3, #28]
 800372e:	0710      	lsls	r0, r2, #28
 8003730:	d44a      	bmi.n	80037c8 <UART_CheckIdleState+0xe0>
 8003732:	69da      	ldr	r2, [r3, #28]
 8003734:	0512      	lsls	r2, r2, #20
 8003736:	d475      	bmi.n	8003824 <UART_CheckIdleState+0x13c>
 8003738:	69db      	ldr	r3, [r3, #28]
 800373a:	0298      	lsls	r0, r3, #10
 800373c:	d4e0      	bmi.n	8003700 <UART_CheckIdleState+0x18>
 800373e:	f7fd fa93 	bl	8000c68 <HAL_GetTick>
 8003742:	6823      	ldr	r3, [r4, #0]
 8003744:	1b42      	subs	r2, r0, r5
 8003746:	f1b2 7f00 	cmp.w	r2, #33554432	@ 0x2000000
 800374a:	4619      	mov	r1, r3
 800374c:	d3eb      	bcc.n	8003726 <UART_CheckIdleState+0x3e>
 800374e:	e853 2f00 	ldrex	r2, [r3]
 8003752:	f022 0280 	bic.w	r2, r2, #128	@ 0x80
 8003756:	e843 2100 	strex	r1, r2, [r3]
 800375a:	2900      	cmp	r1, #0
 800375c:	d1f7      	bne.n	800374e <UART_CheckIdleState+0x66>
 800375e:	2320      	movs	r3, #32
 8003760:	67e3      	str	r3, [r4, #124]	@ 0x7c
 8003762:	2003      	movs	r0, #3
 8003764:	e7d7      	b.n	8003716 <UART_CheckIdleState+0x2e>
 8003766:	69cb      	ldr	r3, [r1, #28]
 8003768:	025b      	lsls	r3, r3, #9
 800376a:	d4cc      	bmi.n	8003706 <UART_CheckIdleState+0x1e>
 800376c:	e00d      	b.n	800378a <UART_CheckIdleState+0xa2>
 800376e:	681a      	ldr	r2, [r3, #0]
 8003770:	0750      	lsls	r0, r2, #29
 8003772:	d507      	bpl.n	8003784 <UART_CheckIdleState+0x9c>
 8003774:	69da      	ldr	r2, [r3, #28]
 8003776:	0711      	lsls	r1, r2, #28
 8003778:	f100 8082 	bmi.w	8003880 <UART_CheckIdleState+0x198>
 800377c:	69da      	ldr	r2, [r3, #28]
 800377e:	0512      	lsls	r2, r2, #20
 8003780:	f100 80ac 	bmi.w	80038dc <UART_CheckIdleState+0x1f4>
 8003784:	69db      	ldr	r3, [r3, #28]
 8003786:	025b      	lsls	r3, r3, #9
 8003788:	d4bd      	bmi.n	8003706 <UART_CheckIdleState+0x1e>
 800378a:	f7fd fa6d 	bl	8000c68 <HAL_GetTick>
 800378e:	1b43      	subs	r3, r0, r5
 8003790:	f1b3 7f00 	cmp.w	r3, #33554432	@ 0x2000000
 8003794:	6823      	ldr	r3, [r4, #0]
 8003796:	d3ea      	bcc.n	800376e <UART_CheckIdleState+0x86>
 8003798:	e853 2f00 	ldrex	r2, [r3]
 800379c:	f422 7290 	bic.w	r2, r2, #288	@ 0x120
 80037a0:	e843 2100 	strex	r1, r2, [r3]
 80037a4:	2900      	cmp	r1, #0
 80037a6:	d1f7      	bne.n	8003798 <UART_CheckIdleState+0xb0>
 80037a8:	f103 0208 	add.w	r2, r3, #8
 80037ac:	e852 2f00 	ldrex	r2, [r2]
 80037b0:	f022 0201 	bic.w	r2, r2, #1
 80037b4:	f103 0008 	add.w	r0, r3, #8
 80037b8:	e840 2100 	strex	r1, r2, [r0]
 80037bc:	2900      	cmp	r1, #0
 80037be:	d1f3      	bne.n	80037a8 <UART_CheckIdleState+0xc0>
 80037c0:	2320      	movs	r3, #32
 80037c2:	f8c4 3080 	str.w	r3, [r4, #128]	@ 0x80
 80037c6:	e7cc      	b.n	8003762 <UART_CheckIdleState+0x7a>
 80037c8:	2208      	movs	r2, #8
 80037ca:	621a      	str	r2, [r3, #32]
 80037cc:	e853 2f00 	ldrex	r2, [r3]
 80037d0:	f422 7290 	bic.w	r2, r2, #288	@ 0x120
 80037d4:	e843 2100 	strex	r1, r2, [r3]
 80037d8:	2900      	cmp	r1, #0
 80037da:	d1f7      	bne.n	80037cc <UART_CheckIdleState+0xe4>
 80037dc:	f103 0208 	add.w	r2, r3, #8
 80037e0:	e852 2f00 	ldrex	r2, [r2]
 80037e4:	f022 0201 	bic.w	r2, r2, #1
 80037e8:	f103 0008 	add.w	r0, r3, #8
 80037ec:	e840 2100 	strex	r1, r2, [r0]
 80037f0:	2900      	cmp	r1, #0
 80037f2:	d1f3      	bne.n	80037dc <UART_CheckIdleState+0xf4>
 80037f4:	6e22      	ldr	r2, [r4, #96]	@ 0x60
 80037f6:	2a01      	cmp	r2, #1
 80037f8:	d00b      	beq.n	8003812 <UART_CheckIdleState+0x12a>
 80037fa:	2200      	movs	r2, #0
 80037fc:	2020      	movs	r0, #32
 80037fe:	2108      	movs	r1, #8
 8003800:	f8c4 0080 	str.w	r0, [r4, #128]	@ 0x80
 8003804:	66a2      	str	r2, [r4, #104]	@ 0x68
 8003806:	6622      	str	r2, [r4, #96]	@ 0x60
 8003808:	f884 2078 	strb.w	r2, [r4, #120]	@ 0x78
 800380c:	f8c4 1084 	str.w	r1, [r4, #132]	@ 0x84
 8003810:	e79d      	b.n	800374e <UART_CheckIdleState+0x66>
 8003812:	e853 2f00 	ldrex	r2, [r3]
 8003816:	f022 0210 	bic.w	r2, r2, #16
 800381a:	e843 2100 	strex	r1, r2, [r3]
 800381e:	2900      	cmp	r1, #0
 8003820:	d1f7      	bne.n	8003812 <UART_CheckIdleState+0x12a>
 8003822:	e7ea      	b.n	80037fa <UART_CheckIdleState+0x112>
 8003824:	f44f 6200 	mov.w	r2, #2048	@ 0x800
 8003828:	621a      	str	r2, [r3, #32]
 800382a:	e853 2f00 	ldrex	r2, [r3]
 800382e:	f422 7290 	bic.w	r2, r2, #288	@ 0x120
 8003832:	e843 2100 	strex	r1, r2, [r3]
 8003836:	2900      	cmp	r1, #0
 8003838:	d1f7      	bne.n	800382a <UART_CheckIdleState+0x142>
 800383a:	f103 0208 	add.w	r2, r3, #8
 800383e:	e852 2f00 	ldrex	r2, [r2]
 8003842:	f022 0201 	bic.w	r2, r2, #1
 8003846:	f103 0008 	add.w	r0, r3, #8
 800384a:	e840 2100 	strex	r1, r2, [r0]
 800384e:	2900      	cmp	r1, #0
 8003850:	d1f3      	bne.n	800383a <UART_CheckIdleState+0x152>
 8003852:	6e22      	ldr	r2, [r4, #96]	@ 0x60
 8003854:	2a01      	cmp	r2, #1
 8003856:	d00a      	beq.n	800386e <UART_CheckIdleState+0x186>
 8003858:	2200      	movs	r2, #0
 800385a:	2120      	movs	r1, #32
 800385c:	f8c4 1080 	str.w	r1, [r4, #128]	@ 0x80
 8003860:	66a2      	str	r2, [r4, #104]	@ 0x68
 8003862:	6622      	str	r2, [r4, #96]	@ 0x60
 8003864:	f884 2078 	strb.w	r2, [r4, #120]	@ 0x78
 8003868:	f8c4 1084 	str.w	r1, [r4, #132]	@ 0x84
 800386c:	e76f      	b.n	800374e <UART_CheckIdleState+0x66>
 800386e:	e853 2f00 	ldrex	r2, [r3]
 8003872:	f022 0210 	bic.w	r2, r2, #16
 8003876:	e843 2100 	strex	r1, r2, [r3]
 800387a:	2900      	cmp	r1, #0
 800387c:	d1f7      	bne.n	800386e <UART_CheckIdleState+0x186>
 800387e:	e7eb      	b.n	8003858 <UART_CheckIdleState+0x170>
 8003880:	2208      	movs	r2, #8
 8003882:	621a      	str	r2, [r3, #32]
 8003884:	e853 2f00 	ldrex	r2, [r3]
 8003888:	f422 7290 	bic.w	r2, r2, #288	@ 0x120
 800388c:	e843 2100 	strex	r1, r2, [r3]
 8003890:	2900      	cmp	r1, #0
 8003892:	d1f7      	bne.n	8003884 <UART_CheckIdleState+0x19c>
 8003894:	f103 0208 	add.w	r2, r3, #8
 8003898:	e852 2f00 	ldrex	r2, [r2]
 800389c:	f022 0201 	bic.w	r2, r2, #1
 80038a0:	f103 0008 	add.w	r0, r3, #8
 80038a4:	e840 2100 	strex	r1, r2, [r0]
 80038a8:	2900      	cmp	r1, #0
 80038aa:	d1f3      	bne.n	8003894 <UART_CheckIdleState+0x1ac>
 80038ac:	6e22      	ldr	r2, [r4, #96]	@ 0x60
 80038ae:	2a01      	cmp	r2, #1
 80038b0:	d00b      	beq.n	80038ca <UART_CheckIdleState+0x1e2>
 80038b2:	2200      	movs	r2, #0
 80038b4:	2020      	movs	r0, #32
 80038b6:	2108      	movs	r1, #8
 80038b8:	f8c4 0080 	str.w	r0, [r4, #128]	@ 0x80
 80038bc:	66a2      	str	r2, [r4, #104]	@ 0x68
 80038be:	6622      	str	r2, [r4, #96]	@ 0x60
 80038c0:	f884 2078 	strb.w	r2, [r4, #120]	@ 0x78
 80038c4:	f8c4 1084 	str.w	r1, [r4, #132]	@ 0x84
 80038c8:	e766      	b.n	8003798 <UART_CheckIdleState+0xb0>
 80038ca:	e853 2f00 	ldrex	r2, [r3]
 80038ce:	f022 0210 	bic.w	r2, r2, #16
 80038d2:	e843 2100 	strex	r1, r2, [r3]
 80038d6:	2900      	cmp	r1, #0
 80038d8:	d1f7      	bne.n	80038ca <UART_CheckIdleState+0x1e2>
 80038da:	e7ea      	b.n	80038b2 <UART_CheckIdleState+0x1ca>
 80038dc:	f44f 6200 	mov.w	r2, #2048	@ 0x800
 80038e0:	621a      	str	r2, [r3, #32]
 80038e2:	e853 2f00 	ldrex	r2, [r3]
 80038e6:	f422 7290 	bic.w	r2, r2, #288	@ 0x120
 80038ea:	e843 2100 	strex	r1, r2, [r3]
 80038ee:	2900      	cmp	r1, #0
 80038f0:	d1f7      	bne.n	80038e2 <UART_CheckIdleState+0x1fa>
 80038f2:	f103 0208 	add.w	r2, r3, #8
 80038f6:	e852 2f00 	ldrex	r2, [r2]
 80038fa:	f022 0201 	bic.w	r2, r2, #1
 80038fe:	f103 0008 	add.w	r0, r3, #8
 8003902:	e840 2100 	strex	r1, r2, [r0]
 8003906:	2900      	cmp	r1, #0
 8003908:	d1f3      	bne.n	80038f2 <UART_CheckIdleState+0x20a>
 800390a:	6e22      	ldr	r2, [r4, #96]	@ 0x60
 800390c:	2a01      	cmp	r2, #1
 800390e:	d00a      	beq.n	8003926 <UART_CheckIdleState+0x23e>
 8003910:	2200      	movs	r2, #0
 8003912:	2120      	movs	r1, #32
 8003914:	f8c4 1080 	str.w	r1, [r4, #128]	@ 0x80
 8003918:	66a2      	str	r2, [r4, #104]	@ 0x68
 800391a:	6622      	str	r2, [r4, #96]	@ 0x60
 800391c:	f884 2078 	strb.w	r2, [r4, #120]	@ 0x78
 8003920:	f8c4 1084 	str.w	r1, [r4, #132]	@ 0x84
 8003924:	e738      	b.n	8003798 <UART_CheckIdleState+0xb0>
 8003926:	e853 2f00 	ldrex	r2, [r3]
 800392a:	f022 0210 	bic.w	r2, r2, #16
 800392e:	e843 2100 	strex	r1, r2, [r3]
 8003932:	2900      	cmp	r1, #0
 8003934:	d1f7      	bne.n	8003926 <UART_CheckIdleState+0x23e>
 8003936:	e7eb      	b.n	8003910 <UART_CheckIdleState+0x228>

08003938 <HAL_UART_Init>:
 8003938:	b370      	cbz	r0, 8003998 <HAL_UART_Init+0x60>
 800393a:	6fc3      	ldr	r3, [r0, #124]	@ 0x7c
 800393c:	b510      	push	{r4, lr}
 800393e:	4604      	mov	r4, r0
 8003940:	b32b      	cbz	r3, 800398e <HAL_UART_Init+0x56>
 8003942:	6822      	ldr	r2, [r4, #0]
 8003944:	6a61      	ldr	r1, [r4, #36]	@ 0x24
 8003946:	2324      	movs	r3, #36	@ 0x24
 8003948:	67e3      	str	r3, [r4, #124]	@ 0x7c
 800394a:	6813      	ldr	r3, [r2, #0]
 800394c:	f023 0301 	bic.w	r3, r3, #1
 8003950:	6013      	str	r3, [r2, #0]
 8003952:	b9c1      	cbnz	r1, 8003986 <HAL_UART_Init+0x4e>
 8003954:	4620      	mov	r0, r4
 8003956:	f7ff fd55 	bl	8003404 <UART_SetConfig>
 800395a:	2801      	cmp	r0, #1
 800395c:	d011      	beq.n	8003982 <HAL_UART_Init+0x4a>
 800395e:	6823      	ldr	r3, [r4, #0]
 8003960:	685a      	ldr	r2, [r3, #4]
 8003962:	f422 4290 	bic.w	r2, r2, #18432	@ 0x4800
 8003966:	605a      	str	r2, [r3, #4]
 8003968:	689a      	ldr	r2, [r3, #8]
 800396a:	f022 022a 	bic.w	r2, r2, #42	@ 0x2a
 800396e:	609a      	str	r2, [r3, #8]
 8003970:	681a      	ldr	r2, [r3, #0]
 8003972:	f042 0201 	orr.w	r2, r2, #1
 8003976:	4620      	mov	r0, r4
 8003978:	601a      	str	r2, [r3, #0]
 800397a:	e8bd 4010 	ldmia.w	sp!, {r4, lr}
 800397e:	f7ff beb3 	b.w	80036e8 <UART_CheckIdleState>
 8003982:	2001      	movs	r0, #1
 8003984:	bd10      	pop	{r4, pc}
 8003986:	4620      	mov	r0, r4
 8003988:	f7ff fe56 	bl	8003638 <UART_AdvFeatureConfig>
 800398c:	e7e2      	b.n	8003954 <HAL_UART_Init+0x1c>
 800398e:	f880 3078 	strb.w	r3, [r0, #120]	@ 0x78
 8003992:	f7fd f8a9 	bl	8000ae8 <HAL_UART_MspInit>
 8003996:	e7d4      	b.n	8003942 <HAL_UART_Init+0xa>
 8003998:	2001      	movs	r0, #1
 800399a:	4770      	bx	lr

0800399c <Reinitialize>:
 800399c:	ed90 6a0d 	vldr	s12, [r0, #52]	@ 0x34
 80039a0:	ed90 7a00 	vldr	s14, [r0]
 80039a4:	ed90 5a0b 	vldr	s10, [r0, #44]	@ 0x2c
 80039a8:	edd0 7a18 	vldr	s15, [r0, #96]	@ 0x60
 80039ac:	ed90 0a0f 	vldr	s0, [r0, #60]	@ 0x3c
 80039b0:	edd0 4a10 	vldr	s9, [r0, #64]	@ 0x40
 80039b4:	ee67 6a06 	vmul.f32	s13, s14, s12
 80039b8:	b538      	push	{r3, r4, r5, lr}
 80039ba:	eec6 5a86 	vdiv.f32	s11, s13, s12
 80039be:	2300      	movs	r3, #0
 80039c0:	f100 05cc 	add.w	r5, r0, #204	@ 0xcc
 80039c4:	4604      	mov	r4, r0
 80039c6:	ed2d 8b02 	vpush	{d8}
 80039ca:	ee37 7a65 	vsub.f32	s14, s14, s11
 80039ce:	edd0 6a17 	vldr	s13, [r0, #92]	@ 0x5c
 80039d2:	edd0 8a19 	vldr	s17, [r0, #100]	@ 0x64
 80039d6:	f8c0 30b8 	str.w	r3, [r0, #184]	@ 0xb8
 80039da:	ee27 7a05 	vmul.f32	s14, s14, s10
 80039de:	ee77 6ae6 	vsub.f32	s13, s15, s13
 80039e2:	ee87 8a06 	vdiv.f32	s16, s14, s12
 80039e6:	f8c0 30c0 	str.w	r3, [r0, #192]	@ 0xc0
 80039ea:	f8c0 30b0 	str.w	r3, [r0, #176]	@ 0xb0
 80039ee:	edc0 5a2d 	vstr	s11, [r0, #180]	@ 0xb4
 80039f2:	ee67 7a88 	vmul.f32	s15, s15, s16
 80039f6:	ee30 0a64 	vsub.f32	s0, s0, s9
 80039fa:	ee77 7ae8 	vsub.f32	s15, s15, s17
 80039fe:	ee87 7aa6 	vdiv.f32	s14, s15, s13
 8003a02:	ed80 7a2f 	vstr	s14, [r0, #188]	@ 0xbc
 8003a06:	f000 f9d7 	bl	8003db8 <SPE_absolute_H225c1baf6cf5a31bc9b0c38998c32298f6f0531c_cb4a8a449b4ada864625ee5a4355578a3aaf08ed>
 8003a0a:	eddf 0a25 	vldr	s1, [pc, #148]	@ 8003aa0 <Reinitialize+0x104>
 8003a0e:	4628      	mov	r0, r5
 8003a10:	f000 f9ae 	bl	8003d70 <SPE_less_H225c1baf6cf5a31bc9b0c38998c32298f6f0531c_cb4a8a449b4ada864625ee5a4355578a3aaf08ed>
 8003a14:	b118      	cbz	r0, 8003a1e <Reinitialize+0x82>
 8003a16:	edd4 8a27 	vldr	s17, [r4, #156]	@ 0x9c
 8003a1a:	ee68 8a28 	vmul.f32	s17, s16, s17
 8003a1e:	edd4 7a23 	vldr	s15, [r4, #140]	@ 0x8c
 8003a22:	edd4 6a22 	vldr	s13, [r4, #136]	@ 0x88
 8003a26:	ed94 8a24 	vldr	s16, [r4, #144]	@ 0x90
 8003a2a:	ed94 0a1a 	vldr	s0, [r4, #104]	@ 0x68
 8003a2e:	ee27 7aa8 	vmul.f32	s14, s15, s17
 8003a32:	ee77 7ae6 	vsub.f32	s15, s15, s13
 8003a36:	ee37 7a48 	vsub.f32	s14, s14, s16
 8003a3a:	eec7 6a27 	vdiv.f32	s13, s14, s15
 8003a3e:	edd4 7a1b 	vldr	s15, [r4, #108]	@ 0x6c
 8003a42:	edc4 6a31 	vstr	s13, [r4, #196]	@ 0xc4
 8003a46:	ee30 0a67 	vsub.f32	s0, s0, s15
 8003a4a:	f000 f9b5 	bl	8003db8 <SPE_absolute_H225c1baf6cf5a31bc9b0c38998c32298f6f0531c_cb4a8a449b4ada864625ee5a4355578a3aaf08ed>
 8003a4e:	eddf 0a14 	vldr	s1, [pc, #80]	@ 8003aa0 <Reinitialize+0x104>
 8003a52:	4628      	mov	r0, r5
 8003a54:	f000 f98c 	bl	8003d70 <SPE_less_H225c1baf6cf5a31bc9b0c38998c32298f6f0531c_cb4a8a449b4ada864625ee5a4355578a3aaf08ed>
 8003a58:	b118      	cbz	r0, 8003a62 <Reinitialize+0xc6>
 8003a5a:	ed94 8a29 	vldr	s16, [r4, #164]	@ 0xa4
 8003a5e:	ee28 8a88 	vmul.f32	s16, s17, s16
 8003a62:	edd4 0a25 	vldr	s1, [r4, #148]	@ 0x94
 8003a66:	eeb0 0a48 	vmov.f32	s0, s16
 8003a6a:	4628      	mov	r0, r5
 8003a6c:	f000 f992 	bl	8003d94 <SPE_greater_H225c1baf6cf5a31bc9b0c38998c32298f6f0531c_cb4a8a449b4ada864625ee5a4355578a3aaf08ed>
 8003a70:	b148      	cbz	r0, 8003a86 <Reinitialize+0xea>
 8003a72:	ed94 8a25 	vldr	s16, [r4, #148]	@ 0x94
 8003a76:	ed84 8a01 	vstr	s16, [r4, #4]
 8003a7a:	ecbd 8b02 	vpop	{d8}
 8003a7e:	2300      	movs	r3, #0
 8003a80:	f884 30c8 	strb.w	r3, [r4, #200]	@ 0xc8
 8003a84:	bd38      	pop	{r3, r4, r5, pc}
 8003a86:	edd4 0a26 	vldr	s1, [r4, #152]	@ 0x98
 8003a8a:	eeb0 0a48 	vmov.f32	s0, s16
 8003a8e:	4628      	mov	r0, r5
 8003a90:	f000 f96e 	bl	8003d70 <SPE_less_H225c1baf6cf5a31bc9b0c38998c32298f6f0531c_cb4a8a449b4ada864625ee5a4355578a3aaf08ed>
 8003a94:	2800      	cmp	r0, #0
 8003a96:	d0ee      	beq.n	8003a76 <Reinitialize+0xda>
 8003a98:	ed94 8a26 	vldr	s16, [r4, #152]	@ 0x98
 8003a9c:	e7eb      	b.n	8003a76 <Reinitialize+0xda>
 8003a9e:	bf00      	nop
 8003aa0:	25800000 	.word	0x25800000

08003aa4 <Startup_H225c1baf6cf5a31bc9b0c38998c32298f6f0531c_cb4a8a449b4ada864625ee5a4355578a3aaf08ed>:
 8003aa4:	b538      	push	{r3, r4, r5, lr}
 8003aa6:	4604      	mov	r4, r0
 8003aa8:	4b4a      	ldr	r3, [pc, #296]	@ (8003bd4 <Startup_H225c1baf6cf5a31bc9b0c38998c32298f6f0531c_cb4a8a449b4ada864625ee5a4355578a3aaf08ed+0x130>)
 8003aaa:	484b      	ldr	r0, [pc, #300]	@ (8003bd8 <Startup_H225c1baf6cf5a31bc9b0c38998c32298f6f0531c_cb4a8a449b4ada864625ee5a4355578a3aaf08ed+0x134>)
 8003aac:	681b      	ldr	r3, [r3, #0]
 8003aae:	4d4b      	ldr	r5, [pc, #300]	@ (8003bdc <Startup_H225c1baf6cf5a31bc9b0c38998c32298f6f0531c_cb4a8a449b4ada864625ee5a4355578a3aaf08ed+0x138>)
 8003ab0:	f8c4 00ac 	str.w	r0, [r4, #172]	@ 0xac
 8003ab4:	2100      	movs	r1, #0
 8003ab6:	484a      	ldr	r0, [pc, #296]	@ (8003be0 <Startup_H225c1baf6cf5a31bc9b0c38998c32298f6f0531c_cb4a8a449b4ada864625ee5a4355578a3aaf08ed+0x13c>)
 8003ab8:	4a4a      	ldr	r2, [pc, #296]	@ (8003be4 <Startup_H225c1baf6cf5a31bc9b0c38998c32298f6f0531c_cb4a8a449b4ada864625ee5a4355578a3aaf08ed+0x140>)
 8003aba:	f8c4 30cc 	str.w	r3, [r4, #204]	@ 0xcc
 8003abe:	61e5      	str	r5, [r4, #28]
 8003ac0:	f04f 537e 	mov.w	r3, #1065353216	@ 0x3f800000
 8003ac4:	4d48      	ldr	r5, [pc, #288]	@ (8003be8 <Startup_H225c1baf6cf5a31bc9b0c38998c32298f6f0531c_cb4a8a449b4ada864625ee5a4355578a3aaf08ed+0x144>)
 8003ac6:	f8c4 10a8 	str.w	r1, [r4, #168]	@ 0xa8
 8003aca:	f8c4 10a0 	str.w	r1, [r4, #160]	@ 0xa0
 8003ace:	62a0      	str	r0, [r4, #40]	@ 0x28
 8003ad0:	4946      	ldr	r1, [pc, #280]	@ (8003bec <Startup_H225c1baf6cf5a31bc9b0c38998c32298f6f0531c_cb4a8a449b4ada864625ee5a4355578a3aaf08ed+0x148>)
 8003ad2:	4847      	ldr	r0, [pc, #284]	@ (8003bf0 <Startup_H225c1baf6cf5a31bc9b0c38998c32298f6f0531c_cb4a8a449b4ada864625ee5a4355578a3aaf08ed+0x14c>)
 8003ad4:	60a5      	str	r5, [r4, #8]
 8003ad6:	6260      	str	r0, [r4, #36]	@ 0x24
 8003ad8:	ed9f 0a46 	vldr	s0, [pc, #280]	@ 8003bf4 <Startup_H225c1baf6cf5a31bc9b0c38998c32298f6f0531c_cb4a8a449b4ada864625ee5a4355578a3aaf08ed+0x150>
 8003adc:	f8c4 309c 	str.w	r3, [r4, #156]	@ 0x9c
 8003ae0:	f8c4 30a4 	str.w	r3, [r4, #164]	@ 0xa4
 8003ae4:	61a3      	str	r3, [r4, #24]
 8003ae6:	6163      	str	r3, [r4, #20]
 8003ae8:	6121      	str	r1, [r4, #16]
 8003aea:	60e2      	str	r2, [r4, #12]
 8003aec:	6223      	str	r3, [r4, #32]
 8003aee:	63e2      	str	r2, [r4, #60]	@ 0x3c
 8003af0:	6421      	str	r1, [r4, #64]	@ 0x40
 8003af2:	6522      	str	r2, [r4, #80]	@ 0x50
 8003af4:	6563      	str	r3, [r4, #84]	@ 0x54
 8003af6:	f104 05cc 	add.w	r5, r4, #204	@ 0xcc
 8003afa:	f000 f95d 	bl	8003db8 <SPE_absolute_H225c1baf6cf5a31bc9b0c38998c32298f6f0531c_cb4a8a449b4ada864625ee5a4355578a3aaf08ed>
 8003afe:	eddf 0a3e 	vldr	s1, [pc, #248]	@ 8003bf8 <Startup_H225c1baf6cf5a31bc9b0c38998c32298f6f0531c_cb4a8a449b4ada864625ee5a4355578a3aaf08ed+0x154>
 8003b02:	4628      	mov	r0, r5
 8003b04:	f000 f934 	bl	8003d70 <SPE_less_H225c1baf6cf5a31bc9b0c38998c32298f6f0531c_cb4a8a449b4ada864625ee5a4355578a3aaf08ed>
 8003b08:	2800      	cmp	r0, #0
 8003b0a:	d15d      	bne.n	8003bc8 <Startup_H225c1baf6cf5a31bc9b0c38998c32298f6f0531c_cb4a8a449b4ada864625ee5a4355578a3aaf08ed+0x124>
 8003b0c:	ed94 7a10 	vldr	s14, [r4, #64]	@ 0x40
 8003b10:	edd4 5a14 	vldr	s11, [r4, #80]	@ 0x50
 8003b14:	edd4 7a05 	vldr	s15, [r4, #20]
 8003b18:	edd4 6a29 	vldr	s13, [r4, #164]	@ 0xa4
 8003b1c:	ed94 6a06 	vldr	s12, [r4, #24]
 8003b20:	f8d4 20a0 	ldr.w	r2, [r4, #160]	@ 0xa0
 8003b24:	6d63      	ldr	r3, [r4, #84]	@ 0x54
 8003b26:	ed84 7a11 	vstr	s14, [r4, #68]	@ 0x44
 8003b2a:	ee85 5a87 	vdiv.f32	s10, s11, s14
 8003b2e:	6662      	str	r2, [r4, #100]	@ 0x64
 8003b30:	65e3      	str	r3, [r4, #92]	@ 0x5c
 8003b32:	ee67 4aa6 	vmul.f32	s9, s15, s13
 8003b36:	ee37 0ac6 	vsub.f32	s0, s15, s12
 8003b3a:	ed84 7a12 	vstr	s14, [r4, #72]	@ 0x48
 8003b3e:	edc4 5a16 	vstr	s11, [r4, #88]	@ 0x58
 8003b42:	edc4 7a1a 	vstr	s15, [r4, #104]	@ 0x68
 8003b46:	ed84 6a1b 	vstr	s12, [r4, #108]	@ 0x6c
 8003b4a:	edc4 4a1f 	vstr	s9, [r4, #124]	@ 0x7c
 8003b4e:	ed84 5a18 	vstr	s10, [r4, #96]	@ 0x60
 8003b52:	edc4 6a20 	vstr	s13, [r4, #128]	@ 0x80
 8003b56:	f000 f92f 	bl	8003db8 <SPE_absolute_H225c1baf6cf5a31bc9b0c38998c32298f6f0531c_cb4a8a449b4ada864625ee5a4355578a3aaf08ed>
 8003b5a:	eddf 0a27 	vldr	s1, [pc, #156]	@ 8003bf8 <Startup_H225c1baf6cf5a31bc9b0c38998c32298f6f0531c_cb4a8a449b4ada864625ee5a4355578a3aaf08ed+0x154>
 8003b5e:	4628      	mov	r0, r5
 8003b60:	f000 f906 	bl	8003d70 <SPE_less_H225c1baf6cf5a31bc9b0c38998c32298f6f0531c_cb4a8a449b4ada864625ee5a4355578a3aaf08ed>
 8003b64:	bb98      	cbnz	r0, 8003bce <Startup_H225c1baf6cf5a31bc9b0c38998c32298f6f0531c_cb4a8a449b4ada864625ee5a4355578a3aaf08ed+0x12a>
 8003b66:	ed94 7a1b 	vldr	s14, [r4, #108]	@ 0x6c
 8003b6a:	ed94 6a1f 	vldr	s12, [r4, #124]	@ 0x7c
 8003b6e:	edd4 7a07 	vldr	s15, [r4, #28]
 8003b72:	edd4 6a02 	vldr	s13, [r4, #8]
 8003b76:	f8d4 30a8 	ldr.w	r3, [r4, #168]	@ 0xa8
 8003b7a:	f8d4 0080 	ldr.w	r0, [r4, #128]	@ 0x80
 8003b7e:	6a61      	ldr	r1, [r4, #36]	@ 0x24
 8003b80:	6aa2      	ldr	r2, [r4, #40]	@ 0x28
 8003b82:	f8c4 3090 	str.w	r3, [r4, #144]	@ 0x90
 8003b86:	ee86 5a07 	vdiv.f32	s10, s12, s14
 8003b8a:	6a23      	ldr	r3, [r4, #32]
 8003b8c:	f8c4 0088 	str.w	r0, [r4, #136]	@ 0x88
 8003b90:	f8c4 1094 	str.w	r1, [r4, #148]	@ 0x94
 8003b94:	f8c4 2098 	str.w	r2, [r4, #152]	@ 0x98
 8003b98:	6023      	str	r3, [r4, #0]
 8003b9a:	4620      	mov	r0, r4
 8003b9c:	ee66 5aa7 	vmul.f32	s11, s13, s15
 8003ba0:	ed84 7a1c 	vstr	s14, [r4, #112]	@ 0x70
 8003ba4:	ed84 7a1d 	vstr	s14, [r4, #116]	@ 0x74
 8003ba8:	ed84 6a21 	vstr	s12, [r4, #132]	@ 0x84
 8003bac:	ed84 5a23 	vstr	s10, [r4, #140]	@ 0x8c
 8003bb0:	edc4 6a0c 	vstr	s13, [r4, #48]	@ 0x30
 8003bb4:	edc4 7a0e 	vstr	s15, [r4, #56]	@ 0x38
 8003bb8:	edc4 5a0b 	vstr	s11, [r4, #44]	@ 0x2c
 8003bbc:	edc4 7a0d 	vstr	s15, [r4, #52]	@ 0x34
 8003bc0:	e8bd 4038 	ldmia.w	sp!, {r3, r4, r5, lr}
 8003bc4:	f7ff beea 	b.w	800399c <Reinitialize>
 8003bc8:	ed9f 7a0c 	vldr	s14, [pc, #48]	@ 8003bfc <Startup_H225c1baf6cf5a31bc9b0c38998c32298f6f0531c_cb4a8a449b4ada864625ee5a4355578a3aaf08ed+0x158>
 8003bcc:	e7a0      	b.n	8003b10 <Startup_H225c1baf6cf5a31bc9b0c38998c32298f6f0531c_cb4a8a449b4ada864625ee5a4355578a3aaf08ed+0x6c>
 8003bce:	ed9f 7a0b 	vldr	s14, [pc, #44]	@ 8003bfc <Startup_H225c1baf6cf5a31bc9b0c38998c32298f6f0531c_cb4a8a449b4ada864625ee5a4355578a3aaf08ed+0x158>
 8003bd2:	e7ca      	b.n	8003b6a <Startup_H225c1baf6cf5a31bc9b0c38998c32298f6f0531c_cb4a8a449b4ada864625ee5a4355578a3aaf08ed+0xc6>
 8003bd4:	08003e88 	.word	0x08003e88
 8003bd8:	3a83126f 	.word	0x3a83126f
 8003bdc:	3fb47ae1 	.word	0x3fb47ae1
 8003be0:	be4ccccd 	.word	0xbe4ccccd
 8003be4:	3e1db22d 	.word	0x3e1db22d
 8003be8:	41180000 	.word	0x41180000
 8003bec:	3d072b02 	.word	0x3d072b02
 8003bf0:	3e4ccccd 	.word	0x3e4ccccd
 8003bf4:	3df7ced9 	.word	0x3df7ced9
 8003bf8:	25800000 	.word	0x25800000
 8003bfc:	447a0000 	.word	0x447a0000

08003c00 <DoStep_H225c1baf6cf5a31bc9b0c38998c32298f6f0531c_cb4a8a449b4ada864625ee5a4355578a3aaf08ed>:
 8003c00:	b538      	push	{r3, r4, r5, lr}
 8003c02:	4a59      	ldr	r2, [pc, #356]	@ (8003d68 <DoStep_H225c1baf6cf5a31bc9b0c38998c32298f6f0531c_cb4a8a449b4ada864625ee5a4355578a3aaf08ed+0x168>)
 8003c04:	f890 30c8 	ldrb.w	r3, [r0, #200]	@ 0xc8
 8003c08:	6812      	ldr	r2, [r2, #0]
 8003c0a:	edd0 6a2d 	vldr	s13, [r0, #180]	@ 0xb4
 8003c0e:	ed2d 8b04 	vpush	{d8-d9}
 8003c12:	4604      	mov	r4, r0
 8003c14:	edd0 8a2f 	vldr	s17, [r0, #188]	@ 0xbc
 8003c18:	f8c0 20cc 	str.w	r2, [r0, #204]	@ 0xcc
 8003c1c:	b1db      	cbz	r3, 8003c56 <DoStep_H225c1baf6cf5a31bc9b0c38998c32298f6f0531c_cb4a8a449b4ada864625ee5a4355578a3aaf08ed+0x56>
 8003c1e:	edd0 7a2b 	vldr	s15, [r0, #172]	@ 0xac
 8003c22:	edd0 5a2c 	vldr	s11, [r0, #176]	@ 0xb0
 8003c26:	ed90 6a2e 	vldr	s12, [r0, #184]	@ 0xb8
 8003c2a:	ed90 5a30 	vldr	s10, [r0, #192]	@ 0xc0
 8003c2e:	ed90 7a31 	vldr	s14, [r0, #196]	@ 0xc4
 8003c32:	ee67 5aa5 	vmul.f32	s11, s15, s11
 8003c36:	ee27 6a86 	vmul.f32	s12, s15, s12
 8003c3a:	ee67 7a85 	vmul.f32	s15, s15, s10
 8003c3e:	ee76 6aa5 	vadd.f32	s13, s13, s11
 8003c42:	ee78 8a86 	vadd.f32	s17, s17, s12
 8003c46:	ee77 7a27 	vadd.f32	s15, s14, s15
 8003c4a:	edc0 6a2d 	vstr	s13, [r0, #180]	@ 0xb4
 8003c4e:	edc0 8a2f 	vstr	s17, [r0, #188]	@ 0xbc
 8003c52:	edc0 7a31 	vstr	s15, [r0, #196]	@ 0xc4
 8003c56:	edd4 7a00 	vldr	s15, [r4]
 8003c5a:	ed94 7a0b 	vldr	s14, [r4, #44]	@ 0x2c
 8003c5e:	ed94 6a12 	vldr	s12, [r4, #72]	@ 0x48
 8003c62:	ed94 0a0f 	vldr	s0, [r4, #60]	@ 0x3c
 8003c66:	ed94 9a17 	vldr	s18, [r4, #92]	@ 0x5c
 8003c6a:	edd4 9a18 	vldr	s19, [r4, #96]	@ 0x60
 8003c6e:	ee77 7ae6 	vsub.f32	s15, s15, s13
 8003c72:	edd4 6a0d 	vldr	s13, [r4, #52]	@ 0x34
 8003c76:	ee27 7a87 	vmul.f32	s14, s15, s14
 8003c7a:	eec7 5aa6 	vdiv.f32	s11, s15, s13
 8003c7e:	f104 05cc 	add.w	r5, r4, #204	@ 0xcc
 8003c82:	ee87 8a26 	vdiv.f32	s16, s14, s13
 8003c86:	edd4 7a10 	vldr	s15, [r4, #64]	@ 0x40
 8003c8a:	edc4 5a2c 	vstr	s11, [r4, #176]	@ 0xb0
 8003c8e:	ee38 7a68 	vsub.f32	s14, s16, s17
 8003c92:	ee30 0a67 	vsub.f32	s0, s0, s15
 8003c96:	eec7 7a06 	vdiv.f32	s15, s14, s12
 8003c9a:	edc4 7a2e 	vstr	s15, [r4, #184]	@ 0xb8
 8003c9e:	f000 f88b 	bl	8003db8 <SPE_absolute_H225c1baf6cf5a31bc9b0c38998c32298f6f0531c_cb4a8a449b4ada864625ee5a4355578a3aaf08ed>
 8003ca2:	eddf 0a32 	vldr	s1, [pc, #200]	@ 8003d6c <DoStep_H225c1baf6cf5a31bc9b0c38998c32298f6f0531c_cb4a8a449b4ada864625ee5a4355578a3aaf08ed+0x16c>
 8003ca6:	4628      	mov	r0, r5
 8003ca8:	f000 f862 	bl	8003d70 <SPE_less_H225c1baf6cf5a31bc9b0c38998c32298f6f0531c_cb4a8a449b4ada864625ee5a4355578a3aaf08ed>
 8003cac:	bbe8      	cbnz	r0, 8003d2a <DoStep_H225c1baf6cf5a31bc9b0c38998c32298f6f0531c_cb4a8a449b4ada864625ee5a4355578a3aaf08ed+0x12a>
 8003cae:	ee39 9a69 	vsub.f32	s18, s18, s19
 8003cb2:	ee28 8a29 	vmul.f32	s16, s16, s19
 8003cb6:	ee29 9a28 	vmul.f32	s18, s18, s17
 8003cba:	ee39 8a08 	vadd.f32	s16, s18, s16
 8003cbe:	ed94 9a31 	vldr	s18, [r4, #196]	@ 0xc4
 8003cc2:	ed94 7a1d 	vldr	s14, [r4, #116]	@ 0x74
 8003cc6:	ed94 0a1a 	vldr	s0, [r4, #104]	@ 0x68
 8003cca:	edd4 8a22 	vldr	s17, [r4, #136]	@ 0x88
 8003cce:	edd4 9a23 	vldr	s19, [r4, #140]	@ 0x8c
 8003cd2:	ee78 6a49 	vsub.f32	s13, s16, s18
 8003cd6:	eec6 7a87 	vdiv.f32	s15, s13, s14
 8003cda:	ed94 7a1b 	vldr	s14, [r4, #108]	@ 0x6c
 8003cde:	edc4 7a30 	vstr	s15, [r4, #192]	@ 0xc0
 8003ce2:	ee30 0a47 	vsub.f32	s0, s0, s14
 8003ce6:	f000 f867 	bl	8003db8 <SPE_absolute_H225c1baf6cf5a31bc9b0c38998c32298f6f0531c_cb4a8a449b4ada864625ee5a4355578a3aaf08ed>
 8003cea:	eddf 0a20 	vldr	s1, [pc, #128]	@ 8003d6c <DoStep_H225c1baf6cf5a31bc9b0c38998c32298f6f0531c_cb4a8a449b4ada864625ee5a4355578a3aaf08ed+0x16c>
 8003cee:	4628      	mov	r0, r5
 8003cf0:	f000 f83e 	bl	8003d70 <SPE_less_H225c1baf6cf5a31bc9b0c38998c32298f6f0531c_cb4a8a449b4ada864625ee5a4355578a3aaf08ed>
 8003cf4:	b9f0      	cbnz	r0, 8003d34 <DoStep_H225c1baf6cf5a31bc9b0c38998c32298f6f0531c_cb4a8a449b4ada864625ee5a4355578a3aaf08ed+0x134>
 8003cf6:	ee78 8ae9 	vsub.f32	s17, s17, s19
 8003cfa:	ee28 8a29 	vmul.f32	s16, s16, s19
 8003cfe:	ee68 8a89 	vmul.f32	s17, s17, s18
 8003d02:	edd4 0a25 	vldr	s1, [r4, #148]	@ 0x94
 8003d06:	ee38 8a88 	vadd.f32	s16, s17, s16
 8003d0a:	4628      	mov	r0, r5
 8003d0c:	eeb0 0a48 	vmov.f32	s0, s16
 8003d10:	f000 f840 	bl	8003d94 <SPE_greater_H225c1baf6cf5a31bc9b0c38998c32298f6f0531c_cb4a8a449b4ada864625ee5a4355578a3aaf08ed>
 8003d14:	b1d8      	cbz	r0, 8003d4e <DoStep_H225c1baf6cf5a31bc9b0c38998c32298f6f0531c_cb4a8a449b4ada864625ee5a4355578a3aaf08ed+0x14e>
 8003d16:	ed94 8a25 	vldr	s16, [r4, #148]	@ 0x94
 8003d1a:	ed84 8a01 	vstr	s16, [r4, #4]
 8003d1e:	ecbd 8b04 	vpop	{d8-d9}
 8003d22:	2301      	movs	r3, #1
 8003d24:	f884 30c8 	strb.w	r3, [r4, #200]	@ 0xc8
 8003d28:	bd38      	pop	{r3, r4, r5, pc}
 8003d2a:	edd4 7a27 	vldr	s15, [r4, #156]	@ 0x9c
 8003d2e:	ee28 8a27 	vmul.f32	s16, s16, s15
 8003d32:	e7c4      	b.n	8003cbe <DoStep_H225c1baf6cf5a31bc9b0c38998c32298f6f0531c_cb4a8a449b4ada864625ee5a4355578a3aaf08ed+0xbe>
 8003d34:	edd4 7a29 	vldr	s15, [r4, #164]	@ 0xa4
 8003d38:	edd4 0a25 	vldr	s1, [r4, #148]	@ 0x94
 8003d3c:	ee28 8a27 	vmul.f32	s16, s16, s15
 8003d40:	4628      	mov	r0, r5
 8003d42:	eeb0 0a48 	vmov.f32	s0, s16
 8003d46:	f000 f825 	bl	8003d94 <SPE_greater_H225c1baf6cf5a31bc9b0c38998c32298f6f0531c_cb4a8a449b4ada864625ee5a4355578a3aaf08ed>
 8003d4a:	2800      	cmp	r0, #0
 8003d4c:	d1e3      	bne.n	8003d16 <DoStep_H225c1baf6cf5a31bc9b0c38998c32298f6f0531c_cb4a8a449b4ada864625ee5a4355578a3aaf08ed+0x116>
 8003d4e:	edd4 0a26 	vldr	s1, [r4, #152]	@ 0x98
 8003d52:	eeb0 0a48 	vmov.f32	s0, s16
 8003d56:	4628      	mov	r0, r5
 8003d58:	f000 f80a 	bl	8003d70 <SPE_less_H225c1baf6cf5a31bc9b0c38998c32298f6f0531c_cb4a8a449b4ada864625ee5a4355578a3aaf08ed>
 8003d5c:	2800      	cmp	r0, #0
 8003d5e:	d0dc      	beq.n	8003d1a <DoStep_H225c1baf6cf5a31bc9b0c38998c32298f6f0531c_cb4a8a449b4ada864625ee5a4355578a3aaf08ed+0x11a>
 8003d60:	ed94 8a26 	vldr	s16, [r4, #152]	@ 0x98
 8003d64:	e7d9      	b.n	8003d1a <DoStep_H225c1baf6cf5a31bc9b0c38998c32298f6f0531c_cb4a8a449b4ada864625ee5a4355578a3aaf08ed+0x11a>
 8003d66:	bf00      	nop
 8003d68:	08003e88 	.word	0x08003e88
 8003d6c:	25800000 	.word	0x25800000

08003d70 <SPE_less_H225c1baf6cf5a31bc9b0c38998c32298f6f0531c_cb4a8a449b4ada864625ee5a4355578a3aaf08ed>:
 8003d70:	eeb4 0a60 	vcmp.f32	s0, s1
 8003d74:	eef1 fa10 	vmrs	APSR_nzcv, fpscr
 8003d78:	d607      	bvs.n	8003d8a <SPE_less_H225c1baf6cf5a31bc9b0c38998c32298f6f0531c_cb4a8a449b4ada864625ee5a4355578a3aaf08ed+0x1a>
 8003d7a:	eeb4 0a60 	vcmp.f32	s0, s1
 8003d7e:	eef1 fa10 	vmrs	APSR_nzcv, fpscr
 8003d82:	bf4c      	ite	mi
 8003d84:	2001      	movmi	r0, #1
 8003d86:	2000      	movpl	r0, #0
 8003d88:	4770      	bx	lr
 8003d8a:	6803      	ldr	r3, [r0, #0]
 8003d8c:	f043 0304 	orr.w	r3, r3, #4
 8003d90:	6003      	str	r3, [r0, #0]
 8003d92:	e7f2      	b.n	8003d7a <SPE_less_H225c1baf6cf5a31bc9b0c38998c32298f6f0531c_cb4a8a449b4ada864625ee5a4355578a3aaf08ed+0xa>

08003d94 <SPE_greater_H225c1baf6cf5a31bc9b0c38998c32298f6f0531c_cb4a8a449b4ada864625ee5a4355578a3aaf08ed>:
 8003d94:	eeb4 0a60 	vcmp.f32	s0, s1
 8003d98:	eef1 fa10 	vmrs	APSR_nzcv, fpscr
 8003d9c:	d607      	bvs.n	8003dae <SPE_greater_H225c1baf6cf5a31bc9b0c38998c32298f6f0531c_cb4a8a449b4ada864625ee5a4355578a3aaf08ed+0x1a>
 8003d9e:	eeb4 0a60 	vcmp.f32	s0, s1
 8003da2:	eef1 fa10 	vmrs	APSR_nzcv, fpscr
 8003da6:	bfcc      	ite	gt
 8003da8:	2001      	movgt	r0, #1
 8003daa:	2000      	movle	r0, #0
 8003dac:	4770      	bx	lr
 8003dae:	6803      	ldr	r3, [r0, #0]
 8003db0:	f043 0304 	orr.w	r3, r3, #4
 8003db4:	6003      	str	r3, [r0, #0]
 8003db6:	e7f2      	b.n	8003d9e <SPE_greater_H225c1baf6cf5a31bc9b0c38998c32298f6f0531c_cb4a8a449b4ada864625ee5a4355578a3aaf08ed+0xa>

08003db8 <SPE_absolute_H225c1baf6cf5a31bc9b0c38998c32298f6f0531c_cb4a8a449b4ada864625ee5a4355578a3aaf08ed>:
 8003db8:	eeb0 0ac0 	vabs.f32	s0, s0
 8003dbc:	4770      	bx	lr
 8003dbe:	bf00      	nop

08003dc0 <memset>:
 8003dc0:	4402      	add	r2, r0
 8003dc2:	4603      	mov	r3, r0
 8003dc4:	4293      	cmp	r3, r2
 8003dc6:	d100      	bne.n	8003dca <memset+0xa>
 8003dc8:	4770      	bx	lr
 8003dca:	f803 1b01 	strb.w	r1, [r3], #1
 8003dce:	e7f9      	b.n	8003dc4 <memset+0x4>

08003dd0 <__libc_init_array>:
 8003dd0:	b570      	push	{r4, r5, r6, lr}
 8003dd2:	4b0d      	ldr	r3, [pc, #52]	@ (8003e08 <__libc_init_array+0x38>)
 8003dd4:	4d0d      	ldr	r5, [pc, #52]	@ (8003e0c <__libc_init_array+0x3c>)
 8003dd6:	1b5b      	subs	r3, r3, r5
 8003dd8:	109c      	asrs	r4, r3, #2
 8003dda:	2600      	movs	r6, #0
 8003ddc:	42a6      	cmp	r6, r4
 8003dde:	d109      	bne.n	8003df4 <__libc_init_array+0x24>
 8003de0:	f000 f81a 	bl	8003e18 <_init>
 8003de4:	4d0a      	ldr	r5, [pc, #40]	@ (8003e10 <__libc_init_array+0x40>)
 8003de6:	4b0b      	ldr	r3, [pc, #44]	@ (8003e14 <__libc_init_array+0x44>)
 8003de8:	1b5b      	subs	r3, r3, r5
 8003dea:	109c      	asrs	r4, r3, #2
 8003dec:	2600      	movs	r6, #0
 8003dee:	42a6      	cmp	r6, r4
 8003df0:	d105      	bne.n	8003dfe <__libc_init_array+0x2e>
 8003df2:	bd70      	pop	{r4, r5, r6, pc}
 8003df4:	f855 3b04 	ldr.w	r3, [r5], #4
 8003df8:	4798      	blx	r3
 8003dfa:	3601      	adds	r6, #1
 8003dfc:	e7ee      	b.n	8003ddc <__libc_init_array+0xc>
 8003dfe:	f855 3b04 	ldr.w	r3, [r5], #4
 8003e02:	4798      	blx	r3
 8003e04:	3601      	adds	r6, #1
 8003e06:	e7f2      	b.n	8003dee <__libc_init_array+0x1e>
 8003e08:	08003e94 	.word	0x08003e94
 8003e0c:	08003e94 	.word	0x08003e94
 8003e10:	08003e94 	.word	0x08003e94
 8003e14:	08003e98 	.word	0x08003e98

08003e18 <_init>:
 8003e18:	b5f8      	push	{r3, r4, r5, r6, r7, lr}
 8003e1a:	bf00      	nop
 8003e1c:	bcf8      	pop	{r3, r4, r5, r6, r7}
 8003e1e:	bc08      	pop	{r3}
 8003e20:	469e      	mov	lr, r3
 8003e22:	4770      	bx	lr

08003e24 <_fini>:
 8003e24:	b5f8      	push	{r3, r4, r5, r6, r7, lr}
 8003e26:	bf00      	nop
 8003e28:	bcf8      	pop	{r3, r4, r5, r6, r7}
 8003e2a:	bc08      	pop	{r3}
 8003e2c:	469e      	mov	lr, r3
 8003e2e:	4770      	bx	lr
