
Grid4CHIL_H723ZG.elf:     file format elf32-littlearm

Sections:
Idx Name          Size      VMA       LMA       File off  Algn
  0 .isr_vector   000002cc  08000000  08000000  00001000  2**0
                  CONTENTS, ALLOC, LOAD, READONLY, DATA
  1 .text         0000a3fc  080002d0  080002d0  000012d0  2**3
                  CONTENTS, ALLOC, LOAD, READONLY, CODE
  2 .rodata       000001d8  0800a6d0  0800a6d0  0000b6d0  2**3
                  CONTENTS, ALLOC, LOAD, READONLY, DATA
  3 .init_array   00000004  0800a8a8  0800a8a8  0000b8a8  2**2
                  CONTENTS, ALLOC, LOAD, READONLY, DATA
  4 .fini_array   00000004  0800a8ac  0800a8ac  0000b8ac  2**2
                  CONTENTS, ALLOC, LOAD, READONLY, DATA
  5 .data         00000064  24000000  0800a8b0  0000c000  2**2
                  CONTENTS, ALLOC, LOAD, DATA
  6 .bss          00000230  24000064  0800a914  0000c064  2**2
                  ALLOC
  7 ._user_heap_stack 00000604  24000294  0800a914  0000c294  2**0
                  ALLOC
  8 .ARM.attributes 0000002e  00000000  00000000  0000c064  2**0
                  CONTENTS, READONLY
  9 .comment      00000043  00000000  00000000  0000c092  2**0
                  CONTENTS, READONLY
 10 .debug_frame  000003dc  00000000  00000000  0000c0d8  2**2
                  CONTENTS, READONLY, DEBUGGING, OCTETS

Disassembly of section .text:

080002d0 <__do_global_dtors_aux>:
 80002d0:	b510      	push	{r4, lr}
 80002d2:	4c05      	ldr	r4, [pc, #20]	@ (80002e8 <__do_global_dtors_aux+0x18>)
 80002d4:	7823      	ldrb	r3, [r4, #0]
 80002d6:	b933      	cbnz	r3, 80002e6 <__do_global_dtors_aux+0x16>
 80002d8:	4b04      	ldr	r3, [pc, #16]	@ (80002ec <__do_global_dtors_aux+0x1c>)
 80002da:	b113      	cbz	r3, 80002e2 <__do_global_dtors_aux+0x12>
 80002dc:	4804      	ldr	r0, [pc, #16]	@ (80002f0 <__do_global_dtors_aux+0x20>)
 80002de:	f3af 8000 	nop.w
 80002e2:	2301      	movs	r3, #1
 80002e4:	7023      	strb	r3, [r4, #0]
 80002e6:	bd10      	pop	{r4, pc}
 80002e8:	24000064 	.word	0x24000064
 80002ec:	00000000 	.word	0x00000000
 80002f0:	0800a6b4 	.word	0x0800a6b4

080002f4 <frame_dummy>:
 80002f4:	b508      	push	{r3, lr}
 80002f6:	4b03      	ldr	r3, [pc, #12]	@ (8000304 <frame_dummy+0x10>)
 80002f8:	b11b      	cbz	r3, 8000302 <frame_dummy+0xe>
 80002fa:	4903      	ldr	r1, [pc, #12]	@ (8000308 <frame_dummy+0x14>)
 80002fc:	4803      	ldr	r0, [pc, #12]	@ (800030c <frame_dummy+0x18>)
 80002fe:	f3af 8000 	nop.w
 8000302:	bd08      	pop	{r3, pc}
 8000304:	00000000 	.word	0x00000000
 8000308:	24000068 	.word	0x24000068
 800030c:	0800a6b4 	.word	0x0800a6b4

08000310 <__aeabi_drsub>:
 8000310:	f081 4100 	eor.w	r1, r1, #2147483648	@ 0x80000000
 8000314:	e002      	b.n	800031c <__adddf3>
 8000316:	bf00      	nop

08000318 <__aeabi_dsub>:
 8000318:	f083 4300 	eor.w	r3, r3, #2147483648	@ 0x80000000

0800031c <__adddf3>:
 800031c:	b530      	push	{r4, r5, lr}
 800031e:	ea4f 0441 	mov.w	r4, r1, lsl #1
 8000322:	ea4f 0543 	mov.w	r5, r3, lsl #1
 8000326:	ea94 0f05 	teq	r4, r5
 800032a:	bf08      	it	eq
 800032c:	ea90 0f02 	teqeq	r0, r2
 8000330:	bf1f      	itttt	ne
 8000332:	ea54 0c00 	orrsne.w	ip, r4, r0
 8000336:	ea55 0c02 	orrsne.w	ip, r5, r2
 800033a:	ea7f 5c64 	mvnsne.w	ip, r4, asr #21
 800033e:	ea7f 5c65 	mvnsne.w	ip, r5, asr #21
 8000342:	f000 80e2 	beq.w	800050a <__adddf3+0x1ee>
 8000346:	ea4f 5454 	mov.w	r4, r4, lsr #21
 800034a:	ebd4 5555 	rsbs	r5, r4, r5, lsr #21
 800034e:	bfb8      	it	lt
 8000350:	426d      	neglt	r5, r5
 8000352:	dd0c      	ble.n	800036e <__adddf3+0x52>
 8000354:	442c      	add	r4, r5
 8000356:	ea80 0202 	eor.w	r2, r0, r2
 800035a:	ea81 0303 	eor.w	r3, r1, r3
 800035e:	ea82 0000 	eor.w	r0, r2, r0
 8000362:	ea83 0101 	eor.w	r1, r3, r1
 8000366:	ea80 0202 	eor.w	r2, r0, r2
 800036a:	ea81 0303 	eor.w	r3, r1, r3
 800036e:	2d36      	cmp	r5, #54	@ 0x36
 8000370:	bf88      	it	hi
 8000372:	bd30      	pophi	{r4, r5, pc}
 8000374:	f011 4f00 	tst.w	r1, #2147483648	@ 0x80000000
 8000378:	ea4f 3101 	mov.w	r1, r1, lsl #12
 800037c:	f44f 1c80 	mov.w	ip, #1048576	@ 0x100000
 8000380:	ea4c 3111 	orr.w	r1, ip, r1, lsr #12
 8000384:	d002      	beq.n	800038c <__adddf3+0x70>
 8000386:	4240      	negs	r0, r0
 8000388:	eb61 0141 	sbc.w	r1, r1, r1, lsl #1
 800038c:	f013 4f00 	tst.w	r3, #2147483648	@ 0x80000000
 8000390:	ea4f 3303 	mov.w	r3, r3, lsl #12
 8000394:	ea4c 3313 	orr.w	r3, ip, r3, lsr #12
 8000398:	d002      	beq.n	80003a0 <__adddf3+0x84>
 800039a:	4252      	negs	r2, r2
 800039c:	eb63 0343 	sbc.w	r3, r3, r3, lsl #1
 80003a0:	ea94 0f05 	teq	r4, r5
 80003a4:	f000 80a7 	beq.w	80004f6 <__adddf3+0x1da>
 80003a8:	f1a4 0401 	sub.w	r4, r4, #1
 80003ac:	f1d5 0e20 	rsbs	lr, r5, #32
 80003b0:	db0d      	blt.n	80003ce <__adddf3+0xb2>
 80003b2:	fa02 fc0e 	lsl.w	ip, r2, lr
 80003b6:	fa22 f205 	lsr.w	r2, r2, r5
 80003ba:	1880      	adds	r0, r0, r2
 80003bc:	f141 0100 	adc.w	r1, r1, #0
 80003c0:	fa03 f20e 	lsl.w	r2, r3, lr
 80003c4:	1880      	adds	r0, r0, r2
 80003c6:	fa43 f305 	asr.w	r3, r3, r5
 80003ca:	4159      	adcs	r1, r3
 80003cc:	e00e      	b.n	80003ec <__adddf3+0xd0>
 80003ce:	f1a5 0520 	sub.w	r5, r5, #32
 80003d2:	f10e 0e20 	add.w	lr, lr, #32
 80003d6:	2a01      	cmp	r2, #1
 80003d8:	fa03 fc0e 	lsl.w	ip, r3, lr
 80003dc:	bf28      	it	cs
 80003de:	f04c 0c02 	orrcs.w	ip, ip, #2
 80003e2:	fa43 f305 	asr.w	r3, r3, r5
 80003e6:	18c0      	adds	r0, r0, r3
 80003e8:	eb51 71e3 	adcs.w	r1, r1, r3, asr #31
 80003ec:	f001 4500 	and.w	r5, r1, #2147483648	@ 0x80000000
 80003f0:	d507      	bpl.n	8000402 <__adddf3+0xe6>
 80003f2:	f04f 0e00 	mov.w	lr, #0
 80003f6:	f1dc 0c00 	rsbs	ip, ip, #0
 80003fa:	eb7e 0000 	sbcs.w	r0, lr, r0
 80003fe:	eb6e 0101 	sbc.w	r1, lr, r1
 8000402:	f5b1 1f80 	cmp.w	r1, #1048576	@ 0x100000
 8000406:	d31b      	bcc.n	8000440 <__adddf3+0x124>
 8000408:	f5b1 1f00 	cmp.w	r1, #2097152	@ 0x200000
 800040c:	d30c      	bcc.n	8000428 <__adddf3+0x10c>
 800040e:	0849      	lsrs	r1, r1, #1
 8000410:	ea5f 0030 	movs.w	r0, r0, rrx
 8000414:	ea4f 0c3c 	mov.w	ip, ip, rrx
 8000418:	f104 0401 	add.w	r4, r4, #1
 800041c:	ea4f 5244 	mov.w	r2, r4, lsl #21
 8000420:	f512 0f80 	cmn.w	r2, #4194304	@ 0x400000
 8000424:	f080 809a 	bcs.w	800055c <__adddf3+0x240>
 8000428:	f1bc 4f00 	cmp.w	ip, #2147483648	@ 0x80000000
 800042c:	bf08      	it	eq
 800042e:	ea5f 0c50 	movseq.w	ip, r0, lsr #1
 8000432:	f150 0000 	adcs.w	r0, r0, #0
 8000436:	eb41 5104 	adc.w	r1, r1, r4, lsl #20
 800043a:	ea41 0105 	orr.w	r1, r1, r5
 800043e:	bd30      	pop	{r4, r5, pc}
 8000440:	ea5f 0c4c 	movs.w	ip, ip, lsl #1
 8000444:	4140      	adcs	r0, r0
 8000446:	eb41 0101 	adc.w	r1, r1, r1
 800044a:	3c01      	subs	r4, #1
 800044c:	bf28      	it	cs
 800044e:	f5b1 1f80 	cmpcs.w	r1, #1048576	@ 0x100000
 8000452:	d2e9      	bcs.n	8000428 <__adddf3+0x10c>
 8000454:	f091 0f00 	teq	r1, #0
 8000458:	bf04      	itt	eq
 800045a:	4601      	moveq	r1, r0
 800045c:	2000      	moveq	r0, #0
 800045e:	fab1 f381 	clz	r3, r1
 8000462:	bf08      	it	eq
 8000464:	3320      	addeq	r3, #32
 8000466:	f1a3 030b 	sub.w	r3, r3, #11
 800046a:	f1b3 0220 	subs.w	r2, r3, #32
 800046e:	da0c      	bge.n	800048a <__adddf3+0x16e>
 8000470:	320c      	adds	r2, #12
 8000472:	dd08      	ble.n	8000486 <__adddf3+0x16a>
 8000474:	f102 0c14 	add.w	ip, r2, #20
 8000478:	f1c2 020c 	rsb	r2, r2, #12
 800047c:	fa01 f00c 	lsl.w	r0, r1, ip
 8000480:	fa21 f102 	lsr.w	r1, r1, r2
 8000484:	e00c      	b.n	80004a0 <__adddf3+0x184>
 8000486:	f102 0214 	add.w	r2, r2, #20
 800048a:	bfd8      	it	le
 800048c:	f1c2 0c20 	rsble	ip, r2, #32
 8000490:	fa01 f102 	lsl.w	r1, r1, r2
 8000494:	fa20 fc0c 	lsr.w	ip, r0, ip
 8000498:	bfdc      	itt	le
 800049a:	ea41 010c 	orrle.w	r1, r1, ip
 800049e:	4090      	lslle	r0, r2
 80004a0:	1ae4      	subs	r4, r4, r3
 80004a2:	bfa2      	ittt	ge
 80004a4:	eb01 5104 	addge.w	r1, r1, r4, lsl #20
 80004a8:	4329      	orrge	r1, r5
 80004aa:	bd30      	popge	{r4, r5, pc}
 80004ac:	ea6f 0404 	mvn.w	r4, r4
 80004b0:	3c1f      	subs	r4, #31
 80004b2:	da1c      	bge.n	80004ee <__adddf3+0x1d2>
 80004b4:	340c      	adds	r4, #12
 80004b6:	dc0e      	bgt.n	80004d6 <__adddf3+0x1ba>
 80004b8:	f104 0414 	add.w	r4, r4, #20
 80004bc:	f1c4 0220 	rsb	r2, r4, #32
 80004c0:	fa20 f004 	lsr.w	r0, r0, r4
 80004c4:	fa01 f302 	lsl.w	r3, r1, r2
 80004c8:	ea40 0003 	orr.w	r0, r0, r3
 80004cc:	fa21 f304 	lsr.w	r3, r1, r4
 80004d0:	ea45 0103 	orr.w	r1, r5, r3
 80004d4:	bd30      	pop	{r4, r5, pc}
 80004d6:	f1c4 040c 	rsb	r4, r4, #12
 80004da:	f1c4 0220 	rsb	r2, r4, #32
 80004de:	fa20 f002 	lsr.w	r0, r0, r2
 80004e2:	fa01 f304 	lsl.w	r3, r1, r4
 80004e6:	ea40 0003 	orr.w	r0, r0, r3
 80004ea:	4629      	mov	r1, r5
 80004ec:	bd30      	pop	{r4, r5, pc}
 80004ee:	fa21 f004 	lsr.w	r0, r1, r4
 80004f2:	4629      	mov	r1, r5
 80004f4:	bd30      	pop	{r4, r5, pc}
 80004f6:	f094 0f00 	teq	r4, #0
 80004fa:	f483 1380 	eor.w	r3, r3, #1048576	@ 0x100000
 80004fe:	bf06      	itte	eq
 8000500:	f481 1180 	eoreq.w	r1, r1, #1048576	@ 0x100000
 8000504:	3401      	addeq	r4, #1
 8000506:	3d01      	subne	r5, #1
 8000508:	e74e      	b.n	80003a8 <__adddf3+0x8c>
 800050a:	ea7f 5c64 	mvns.w	ip, r4, asr #21
 800050e:	bf18      	it	ne
 8000510:	ea7f 5c65 	mvnsne.w	ip, r5, asr #21
 8000514:	d029      	beq.n	800056a <__adddf3+0x24e>
 8000516:	ea94 0f05 	teq	r4, r5
 800051a:	bf08      	it	eq
 800051c:	ea90 0f02 	teqeq	r0, r2
 8000520:	d005      	beq.n	800052e <__adddf3+0x212>
 8000522:	ea54 0c00 	orrs.w	ip, r4, r0
 8000526:	bf04      	itt	eq
 8000528:	4619      	moveq	r1, r3
 800052a:	4610      	moveq	r0, r2
 800052c:	bd30      	pop	{r4, r5, pc}
 800052e:	ea91 0f03 	teq	r1, r3
 8000532:	bf1e      	ittt	ne
 8000534:	2100      	movne	r1, #0
 8000536:	2000      	movne	r0, #0
 8000538:	bd30      	popne	{r4, r5, pc}
 800053a:	ea5f 5c54 	movs.w	ip, r4, lsr #21
 800053e:	d105      	bne.n	800054c <__adddf3+0x230>
 8000540:	0040      	lsls	r0, r0, #1
 8000542:	4149      	adcs	r1, r1
 8000544:	bf28      	it	cs
 8000546:	f041 4100 	orrcs.w	r1, r1, #2147483648	@ 0x80000000
 800054a:	bd30      	pop	{r4, r5, pc}
 800054c:	f514 0480 	adds.w	r4, r4, #4194304	@ 0x400000
 8000550:	bf3c      	itt	cc
 8000552:	f501 1180 	addcc.w	r1, r1, #1048576	@ 0x100000
 8000556:	bd30      	popcc	{r4, r5, pc}
 8000558:	f001 4500 	and.w	r5, r1, #2147483648	@ 0x80000000
 800055c:	f045 41fe 	orr.w	r1, r5, #2130706432	@ 0x7f000000
 8000560:	f441 0170 	orr.w	r1, r1, #15728640	@ 0xf00000
 8000564:	f04f 0000 	mov.w	r0, #0
 8000568:	bd30      	pop	{r4, r5, pc}
 800056a:	ea7f 5c64 	mvns.w	ip, r4, asr #21
 800056e:	bf1a      	itte	ne
 8000570:	4619      	movne	r1, r3
 8000572:	4610      	movne	r0, r2
 8000574:	ea7f 5c65 	mvnseq.w	ip, r5, asr #21
 8000578:	bf1c      	itt	ne
 800057a:	460b      	movne	r3, r1
 800057c:	4602      	movne	r2, r0
 800057e:	ea50 3401 	orrs.w	r4, r0, r1, lsl #12
 8000582:	bf06      	itte	eq
 8000584:	ea52 3503 	orrseq.w	r5, r2, r3, lsl #12
 8000588:	ea91 0f03 	teqeq	r1, r3
 800058c:	f441 2100 	orrne.w	r1, r1, #524288	@ 0x80000
 8000590:	bd30      	pop	{r4, r5, pc}
 8000592:	bf00      	nop

08000594 <__aeabi_ui2d>:
 8000594:	f090 0f00 	teq	r0, #0
 8000598:	bf04      	itt	eq
 800059a:	2100      	moveq	r1, #0
 800059c:	4770      	bxeq	lr
 800059e:	b530      	push	{r4, r5, lr}
 80005a0:	f44f 6480 	mov.w	r4, #1024	@ 0x400
 80005a4:	f104 0432 	add.w	r4, r4, #50	@ 0x32
 80005a8:	f04f 0500 	mov.w	r5, #0
 80005ac:	f04f 0100 	mov.w	r1, #0
 80005b0:	e750      	b.n	8000454 <__adddf3+0x138>
 80005b2:	bf00      	nop

080005b4 <__aeabi_i2d>:
 80005b4:	f090 0f00 	teq	r0, #0
 80005b8:	bf04      	itt	eq
 80005ba:	2100      	moveq	r1, #0
 80005bc:	4770      	bxeq	lr
 80005be:	b530      	push	{r4, r5, lr}
 80005c0:	f44f 6480 	mov.w	r4, #1024	@ 0x400
 80005c4:	f104 0432 	add.w	r4, r4, #50	@ 0x32
 80005c8:	f010 4500 	ands.w	r5, r0, #2147483648	@ 0x80000000
 80005cc:	bf48      	it	mi
 80005ce:	4240      	negmi	r0, r0
 80005d0:	f04f 0100 	mov.w	r1, #0
 80005d4:	e73e      	b.n	8000454 <__adddf3+0x138>
 80005d6:	bf00      	nop

080005d8 <__aeabi_f2d>:
 80005d8:	0042      	lsls	r2, r0, #1
 80005da:	ea4f 01e2 	mov.w	r1, r2, asr #3
 80005de:	ea4f 0131 	mov.w	r1, r1, rrx
 80005e2:	ea4f 7002 	mov.w	r0, r2, lsl #28
 80005e6:	bf1f      	itttt	ne
 80005e8:	f012 437f 	andsne.w	r3, r2, #4278190080	@ 0xff000000
 80005ec:	f093 4f7f 	teqne	r3, #4278190080	@ 0xff000000
 80005f0:	f081 5160 	eorne.w	r1, r1, #939524096	@ 0x38000000
 80005f4:	4770      	bxne	lr
 80005f6:	f032 427f 	bics.w	r2, r2, #4278190080	@ 0xff000000
 80005fa:	bf08      	it	eq
 80005fc:	4770      	bxeq	lr
 80005fe:	f093 4f7f 	teq	r3, #4278190080	@ 0xff000000
 8000602:	bf04      	itt	eq
 8000604:	f441 2100 	orreq.w	r1, r1, #524288	@ 0x80000
 8000608:	4770      	bxeq	lr
 800060a:	b530      	push	{r4, r5, lr}
 800060c:	f44f 7460 	mov.w	r4, #896	@ 0x380
 8000610:	f001 4500 	and.w	r5, r1, #2147483648	@ 0x80000000
 8000614:	f021 4100 	bic.w	r1, r1, #2147483648	@ 0x80000000
 8000618:	e71c      	b.n	8000454 <__adddf3+0x138>
 800061a:	bf00      	nop

0800061c <__aeabi_ul2d>:
 800061c:	ea50 0201 	orrs.w	r2, r0, r1
 8000620:	bf08      	it	eq
 8000622:	4770      	bxeq	lr
 8000624:	b530      	push	{r4, r5, lr}
 8000626:	f04f 0500 	mov.w	r5, #0
 800062a:	e00a      	b.n	8000642 <__aeabi_l2d+0x16>

0800062c <__aeabi_l2d>:
 800062c:	ea50 0201 	orrs.w	r2, r0, r1
 8000630:	bf08      	it	eq
 8000632:	4770      	bxeq	lr
 8000634:	b530      	push	{r4, r5, lr}
 8000636:	f011 4500 	ands.w	r5, r1, #2147483648	@ 0x80000000
 800063a:	d502      	bpl.n	8000642 <__aeabi_l2d+0x16>
 800063c:	4240      	negs	r0, r0
 800063e:	eb61 0141 	sbc.w	r1, r1, r1, lsl #1
 8000642:	f44f 6480 	mov.w	r4, #1024	@ 0x400
 8000646:	f104 0432 	add.w	r4, r4, #50	@ 0x32
 800064a:	ea5f 5c91 	movs.w	ip, r1, lsr #22
 800064e:	f43f aed8 	beq.w	8000402 <__adddf3+0xe6>
 8000652:	f04f 0203 	mov.w	r2, #3
 8000656:	ea5f 0cdc 	movs.w	ip, ip, lsr #3
 800065a:	bf18      	it	ne
 800065c:	3203      	addne	r2, #3
 800065e:	ea5f 0cdc 	movs.w	ip, ip, lsr #3
 8000662:	bf18      	it	ne
 8000664:	3203      	addne	r2, #3
 8000666:	eb02 02dc 	add.w	r2, r2, ip, lsr #3
 800066a:	f1c2 0320 	rsb	r3, r2, #32
 800066e:	fa00 fc03 	lsl.w	ip, r0, r3
 8000672:	fa20 f002 	lsr.w	r0, r0, r2
 8000676:	fa01 fe03 	lsl.w	lr, r1, r3
 800067a:	ea40 000e 	orr.w	r0, r0, lr
 800067e:	fa21 f102 	lsr.w	r1, r1, r2
 8000682:	4414      	add	r4, r2
 8000684:	e6bd      	b.n	8000402 <__adddf3+0xe6>
 8000686:	bf00      	nop

08000688 <MX_ADC1_Init>:
 8000688:	b510      	push	{r4, lr}
 800068a:	2400      	movs	r4, #0
 800068c:	b08c      	sub	sp, #48	@ 0x30
 800068e:	2224      	movs	r2, #36	@ 0x24
 8000690:	4621      	mov	r1, r4
 8000692:	a803      	add	r0, sp, #12
 8000694:	9402      	str	r4, [sp, #8]
 8000696:	e9cd 4400 	strd	r4, r4, [sp]
 800069a:	f009 fc3f 	bl	8009f1c <memset>
 800069e:	4a1f      	ldr	r2, [pc, #124]	@ (800071c <MX_ADC1_Init+0x94>)
 80006a0:	4b1f      	ldr	r3, [pc, #124]	@ (8000720 <MX_ADC1_Init+0x98>)
 80006a2:	4610      	mov	r0, r2
 80006a4:	6114      	str	r4, [r2, #16]
 80006a6:	6013      	str	r3, [r2, #0]
 80006a8:	2304      	movs	r3, #4
 80006aa:	8314      	strh	r4, [r2, #24]
 80006ac:	6153      	str	r3, [r2, #20]
 80006ae:	2301      	movs	r3, #1
 80006b0:	f882 4020 	strb.w	r4, [r2, #32]
 80006b4:	6294      	str	r4, [r2, #40]	@ 0x28
 80006b6:	61d3      	str	r3, [r2, #28]
 80006b8:	f882 4044 	strb.w	r4, [r2, #68]	@ 0x44
 80006bc:	6493      	str	r3, [r2, #72]	@ 0x48
 80006be:	e9c2 4401 	strd	r4, r4, [r2, #4]
 80006c2:	e9c2 440b 	strd	r4, r4, [r2, #44]	@ 0x2c
 80006c6:	e9c2 440f 	strd	r4, r4, [r2, #60]	@ 0x3c
 80006ca:	f001 fa71 	bl	8001bb0 <HAL_ADC_Init>
 80006ce:	b9d8      	cbnz	r0, 8000708 <MX_ADC1_Init+0x80>
 80006d0:	2300      	movs	r3, #0
 80006d2:	4669      	mov	r1, sp
 80006d4:	4811      	ldr	r0, [pc, #68]	@ (800071c <MX_ADC1_Init+0x94>)
 80006d6:	9300      	str	r3, [sp, #0]
 80006d8:	f001 fbdc 	bl	8001e94 <HAL_ADCEx_MultiModeConfigChannel>
 80006dc:	b9d8      	cbnz	r0, 8000716 <MX_ADC1_Init+0x8e>
 80006de:	4811      	ldr	r0, [pc, #68]	@ (8000724 <MX_ADC1_Init+0x9c>)
 80006e0:	2206      	movs	r2, #6
 80006e2:	2300      	movs	r3, #0
 80006e4:	f240 74ff 	movw	r4, #2047	@ 0x7ff
 80006e8:	a903      	add	r1, sp, #12
 80006ea:	f88d 302d 	strb.w	r3, [sp, #45]	@ 0x2d
 80006ee:	e9cd 0203 	strd	r0, r2, [sp, #12]
 80006f2:	2204      	movs	r2, #4
 80006f4:	4809      	ldr	r0, [pc, #36]	@ (800071c <MX_ADC1_Init+0x94>)
 80006f6:	e9cd 3405 	strd	r3, r4, [sp, #20]
 80006fa:	e9cd 2307 	strd	r2, r3, [sp, #28]
 80006fe:	f000 fd11 	bl	8001124 <HAL_ADC_ConfigChannel>
 8000702:	b920      	cbnz	r0, 800070e <MX_ADC1_Init+0x86>
 8000704:	b00c      	add	sp, #48	@ 0x30
 8000706:	bd10      	pop	{r4, pc}
 8000708:	f000 fad8 	bl	8000cbc <Error_Handler>
 800070c:	e7e0      	b.n	80006d0 <MX_ADC1_Init+0x48>
 800070e:	f000 fad5 	bl	8000cbc <Error_Handler>
 8000712:	b00c      	add	sp, #48	@ 0x30
 8000714:	bd10      	pop	{r4, pc}
 8000716:	f000 fad1 	bl	8000cbc <Error_Handler>
 800071a:	e7e0      	b.n	80006de <MX_ADC1_Init+0x56>
 800071c:	24000080 	.word	0x24000080
 8000720:	40022000 	.word	0x40022000
 8000724:	3ef08000 	.word	0x3ef08000

08000728 <HAL_ADC_MspInit>:
 8000728:	b510      	push	{r4, lr}
 800072a:	b0b6      	sub	sp, #216	@ 0xd8
 800072c:	2100      	movs	r1, #0
 800072e:	4604      	mov	r4, r0
 8000730:	22b8      	movs	r2, #184	@ 0xb8
 8000732:	a808      	add	r0, sp, #32
 8000734:	9106      	str	r1, [sp, #24]
 8000736:	e9cd 1102 	strd	r1, r1, [sp, #8]
 800073a:	e9cd 1104 	strd	r1, r1, [sp, #16]
 800073e:	f009 fbed 	bl	8009f1c <memset>
 8000742:	4b25      	ldr	r3, [pc, #148]	@ (80007d8 <HAL_ADC_MspInit+0xb0>)
 8000744:	6822      	ldr	r2, [r4, #0]
 8000746:	429a      	cmp	r2, r3
 8000748:	d001      	beq.n	800074e <HAL_ADC_MspInit+0x26>
 800074a:	b036      	add	sp, #216	@ 0xd8
 800074c:	bd10      	pop	{r4, pc}
 800074e:	2302      	movs	r3, #2
 8000750:	2204      	movs	r2, #4
 8000752:	210c      	movs	r1, #12
 8000754:	a808      	add	r0, sp, #32
 8000756:	930c      	str	r3, [sp, #48]	@ 0x30
 8000758:	920a      	str	r2, [sp, #40]	@ 0x28
 800075a:	2202      	movs	r2, #2
 800075c:	930d      	str	r3, [sp, #52]	@ 0x34
 800075e:	23c0      	movs	r3, #192	@ 0xc0
 8000760:	910b      	str	r1, [sp, #44]	@ 0x2c
 8000762:	ed9f 7b19 	vldr	d7, [pc, #100]	@ 80007c8 <HAL_ADC_MspInit+0xa0>
 8000766:	e9cd 230e 	strd	r2, r3, [sp, #56]	@ 0x38
 800076a:	ed8d 7b08 	vstr	d7, [sp, #32]
 800076e:	f002 fe41 	bl	80033f4 <HAL_RCCEx_PeriphCLKConfig>
 8000772:	bb20      	cbnz	r0, 80007be <HAL_ADC_MspInit+0x96>
 8000774:	4b19      	ldr	r3, [pc, #100]	@ (80007dc <HAL_ADC_MspInit+0xb4>)
 8000776:	2400      	movs	r4, #0
 8000778:	a902      	add	r1, sp, #8
 800077a:	4819      	ldr	r0, [pc, #100]	@ (80007e0 <HAL_ADC_MspInit+0xb8>)
 800077c:	f8d3 20d8 	ldr.w	r2, [r3, #216]	@ 0xd8
 8000780:	f042 0220 	orr.w	r2, r2, #32
 8000784:	f8c3 20d8 	str.w	r2, [r3, #216]	@ 0xd8
 8000788:	f8d3 20d8 	ldr.w	r2, [r3, #216]	@ 0xd8
 800078c:	f002 0220 	and.w	r2, r2, #32
 8000790:	9200      	str	r2, [sp, #0]
 8000792:	9a00      	ldr	r2, [sp, #0]
 8000794:	f8d3 20e0 	ldr.w	r2, [r3, #224]	@ 0xe0
 8000798:	f042 0201 	orr.w	r2, r2, #1
 800079c:	f8c3 20e0 	str.w	r2, [r3, #224]	@ 0xe0
 80007a0:	f8d3 30e0 	ldr.w	r3, [r3, #224]	@ 0xe0
 80007a4:	9404      	str	r4, [sp, #16]
 80007a6:	f003 0301 	and.w	r3, r3, #1
 80007aa:	ed9f 7b09 	vldr	d7, [pc, #36]	@ 80007d0 <HAL_ADC_MspInit+0xa8>
 80007ae:	9301      	str	r3, [sp, #4]
 80007b0:	9b01      	ldr	r3, [sp, #4]
 80007b2:	ed8d 7b02 	vstr	d7, [sp, #8]
 80007b6:	f001 fda5 	bl	8002304 <HAL_GPIO_Init>
 80007ba:	b036      	add	sp, #216	@ 0xd8
 80007bc:	bd10      	pop	{r4, pc}
 80007be:	f000 fa7d 	bl	8000cbc <Error_Handler>
 80007c2:	e7d7      	b.n	8000774 <HAL_ADC_MspInit+0x4c>
 80007c4:	f3af 8000 	nop.w
 80007c8:	00080000 	.word	0x00080000
 80007cc:	00000000 	.word	0x00000000
 80007d0:	00000008 	.word	0x00000008
 80007d4:	00000003 	.word	0x00000003
 80007d8:	40022000 	.word	0x40022000
 80007dc:	58024400 	.word	0x58024400
 80007e0:	58020000 	.word	0x58020000
 80007e4:	00000000 	.word	0x00000000

080007e8 <MX_DAC1_Init>:
 80007e8:	b500      	push	{lr}
 80007ea:	b08b      	sub	sp, #44	@ 0x2c
 80007ec:	2224      	movs	r2, #36	@ 0x24
 80007ee:	2100      	movs	r1, #0
 80007f0:	4668      	mov	r0, sp
 80007f2:	f009 fb93 	bl	8009f1c <memset>
 80007f6:	4b12      	ldr	r3, [pc, #72]	@ (8000840 <MX_DAC1_Init+0x58>)
 80007f8:	4812      	ldr	r0, [pc, #72]	@ (8000844 <MX_DAC1_Init+0x5c>)
 80007fa:	6003      	str	r3, [r0, #0]
 80007fc:	f001 fc6a 	bl	80020d4 <HAL_DAC_Init>
 8000800:	b988      	cbnz	r0, 8000826 <MX_DAC1_Init+0x3e>
 8000802:	2200      	movs	r2, #0
 8000804:	2301      	movs	r3, #1
 8000806:	4669      	mov	r1, sp
 8000808:	480e      	ldr	r0, [pc, #56]	@ (8000844 <MX_DAC1_Init+0x5c>)
 800080a:	ed9f 7b0b 	vldr	d7, [pc, #44]	@ 8000838 <MX_DAC1_Init+0x50>
 800080e:	e9cd 2302 	strd	r2, r3, [sp, #8]
 8000812:	2300      	movs	r3, #0
 8000814:	2210      	movs	r2, #16
 8000816:	ed8d 7b00 	vstr	d7, [sp]
 800081a:	9304      	str	r3, [sp, #16]
 800081c:	f001 fcc4 	bl	80021a8 <HAL_DAC_ConfigChannel>
 8000820:	b920      	cbnz	r0, 800082c <MX_DAC1_Init+0x44>
 8000822:	b00b      	add	sp, #44	@ 0x2c
 8000824:	bd00      	pop	{pc}
 8000826:	f000 fa49 	bl	8000cbc <Error_Handler>
 800082a:	e7ea      	b.n	8000802 <MX_DAC1_Init+0x1a>
 800082c:	f000 fa46 	bl	8000cbc <Error_Handler>
 8000830:	b00b      	add	sp, #44	@ 0x2c
 8000832:	bd00      	pop	{pc}
 8000834:	f3af 8000 	nop.w
	...
 8000840:	40007400 	.word	0x40007400
 8000844:	240000f0 	.word	0x240000f0

08000848 <HAL_DAC_MspInit>:
 8000848:	4a1b      	ldr	r2, [pc, #108]	@ (80008b8 <HAL_DAC_MspInit+0x70>)
 800084a:	2300      	movs	r3, #0
 800084c:	6801      	ldr	r1, [r0, #0]
 800084e:	b500      	push	{lr}
 8000850:	4291      	cmp	r1, r2
 8000852:	b089      	sub	sp, #36	@ 0x24
 8000854:	e9cd 3302 	strd	r3, r3, [sp, #8]
 8000858:	e9cd 3304 	strd	r3, r3, [sp, #16]
 800085c:	9306      	str	r3, [sp, #24]
 800085e:	d001      	beq.n	8000864 <HAL_DAC_MspInit+0x1c>
 8000860:	b009      	add	sp, #36	@ 0x24
 8000862:	bd00      	pop	{pc}
 8000864:	4b15      	ldr	r3, [pc, #84]	@ (80008bc <HAL_DAC_MspInit+0x74>)
 8000866:	a902      	add	r1, sp, #8
 8000868:	4815      	ldr	r0, [pc, #84]	@ (80008c0 <HAL_DAC_MspInit+0x78>)
 800086a:	f8d3 20e8 	ldr.w	r2, [r3, #232]	@ 0xe8
 800086e:	f042 5200 	orr.w	r2, r2, #536870912	@ 0x20000000
 8000872:	f8c3 20e8 	str.w	r2, [r3, #232]	@ 0xe8
 8000876:	f8d3 20e8 	ldr.w	r2, [r3, #232]	@ 0xe8
 800087a:	f002 5200 	and.w	r2, r2, #536870912	@ 0x20000000
 800087e:	9200      	str	r2, [sp, #0]
 8000880:	9a00      	ldr	r2, [sp, #0]
 8000882:	f8d3 20e0 	ldr.w	r2, [r3, #224]	@ 0xe0
 8000886:	f042 0201 	orr.w	r2, r2, #1
 800088a:	f8c3 20e0 	str.w	r2, [r3, #224]	@ 0xe0
 800088e:	f8d3 30e0 	ldr.w	r3, [r3, #224]	@ 0xe0
 8000892:	f003 0301 	and.w	r3, r3, #1
 8000896:	ed9f 7b06 	vldr	d7, [pc, #24]	@ 80008b0 <HAL_DAC_MspInit+0x68>
 800089a:	9301      	str	r3, [sp, #4]
 800089c:	9b01      	ldr	r3, [sp, #4]
 800089e:	ed8d 7b02 	vstr	d7, [sp, #8]
 80008a2:	f001 fd2f 	bl	8002304 <HAL_GPIO_Init>
 80008a6:	b009      	add	sp, #36	@ 0x24
 80008a8:	bd00      	pop	{pc}
 80008aa:	bf00      	nop
 80008ac:	f3af 8000 	nop.w
 80008b0:	00000020 	.word	0x00000020
 80008b4:	00000003 	.word	0x00000003
 80008b8:	40007400 	.word	0x40007400
 80008bc:	58024400 	.word	0x58024400
 80008c0:	58020000 	.word	0x58020000

080008c4 <MX_GPIO_Init>:
 80008c4:	b5f0      	push	{r4, r5, r6, r7, lr}
 80008c6:	4b44      	ldr	r3, [pc, #272]	@ (80009d8 <MX_GPIO_Init+0x114>)
 80008c8:	b08d      	sub	sp, #52	@ 0x34
 80008ca:	2400      	movs	r4, #0
 80008cc:	f242 0102 	movw	r1, #8194	@ 0x2002
 80008d0:	4842      	ldr	r0, [pc, #264]	@ (80009dc <MX_GPIO_Init+0x118>)
 80008d2:	2501      	movs	r5, #1
 80008d4:	940a      	str	r4, [sp, #40]	@ 0x28
 80008d6:	2603      	movs	r6, #3
 80008d8:	f44f 4780 	mov.w	r7, #16384	@ 0x4000
 80008dc:	e9cd 4406 	strd	r4, r4, [sp, #24]
 80008e0:	e9cd 4408 	strd	r4, r4, [sp, #32]
 80008e4:	f8d3 20e0 	ldr.w	r2, [r3, #224]	@ 0xe0
 80008e8:	f042 0204 	orr.w	r2, r2, #4
 80008ec:	f8c3 20e0 	str.w	r2, [r3, #224]	@ 0xe0
 80008f0:	f8d3 20e0 	ldr.w	r2, [r3, #224]	@ 0xe0
 80008f4:	f002 0204 	and.w	r2, r2, #4
 80008f8:	9201      	str	r2, [sp, #4]
 80008fa:	9a01      	ldr	r2, [sp, #4]
 80008fc:	f8d3 20e0 	ldr.w	r2, [r3, #224]	@ 0xe0
 8000900:	f042 0201 	orr.w	r2, r2, #1
 8000904:	f8c3 20e0 	str.w	r2, [r3, #224]	@ 0xe0
 8000908:	f8d3 20e0 	ldr.w	r2, [r3, #224]	@ 0xe0
 800090c:	f002 0201 	and.w	r2, r2, #1
 8000910:	9202      	str	r2, [sp, #8]
 8000912:	9a02      	ldr	r2, [sp, #8]
 8000914:	f8d3 20e0 	ldr.w	r2, [r3, #224]	@ 0xe0
 8000918:	f042 0210 	orr.w	r2, r2, #16
 800091c:	f8c3 20e0 	str.w	r2, [r3, #224]	@ 0xe0
 8000920:	f8d3 20e0 	ldr.w	r2, [r3, #224]	@ 0xe0
 8000924:	f002 0210 	and.w	r2, r2, #16
 8000928:	9203      	str	r2, [sp, #12]
 800092a:	9a03      	ldr	r2, [sp, #12]
 800092c:	f8d3 20e0 	ldr.w	r2, [r3, #224]	@ 0xe0
 8000930:	f042 0202 	orr.w	r2, r2, #2
 8000934:	f8c3 20e0 	str.w	r2, [r3, #224]	@ 0xe0
 8000938:	f8d3 20e0 	ldr.w	r2, [r3, #224]	@ 0xe0
 800093c:	f002 0202 	and.w	r2, r2, #2
 8000940:	9204      	str	r2, [sp, #16]
 8000942:	9a04      	ldr	r2, [sp, #16]
 8000944:	f8d3 20e0 	ldr.w	r2, [r3, #224]	@ 0xe0
 8000948:	f042 0240 	orr.w	r2, r2, #64	@ 0x40
 800094c:	f8c3 20e0 	str.w	r2, [r3, #224]	@ 0xe0
 8000950:	4622      	mov	r2, r4
 8000952:	f8d3 30e0 	ldr.w	r3, [r3, #224]	@ 0xe0
 8000956:	f003 0340 	and.w	r3, r3, #64	@ 0x40
 800095a:	9305      	str	r3, [sp, #20]
 800095c:	9b05      	ldr	r3, [sp, #20]
 800095e:	f001 fedb 	bl	8002718 <HAL_GPIO_WritePin>
 8000962:	4622      	mov	r2, r4
 8000964:	f44f 4180 	mov.w	r1, #16384	@ 0x4000
 8000968:	481d      	ldr	r0, [pc, #116]	@ (80009e0 <MX_GPIO_Init+0x11c>)
 800096a:	f001 fed5 	bl	8002718 <HAL_GPIO_WritePin>
 800096e:	4622      	mov	r2, r4
 8000970:	f44f 4180 	mov.w	r1, #16384	@ 0x4000
 8000974:	481b      	ldr	r0, [pc, #108]	@ (80009e4 <MX_GPIO_Init+0x120>)
 8000976:	f001 fecf 	bl	8002718 <HAL_GPIO_WritePin>
 800097a:	f44f 5200 	mov.w	r2, #8192	@ 0x2000
 800097e:	2300      	movs	r3, #0
 8000980:	a906      	add	r1, sp, #24
 8000982:	4819      	ldr	r0, [pc, #100]	@ (80009e8 <MX_GPIO_Init+0x124>)
 8000984:	9408      	str	r4, [sp, #32]
 8000986:	e9cd 2306 	strd	r2, r3, [sp, #24]
 800098a:	f001 fcbb 	bl	8002304 <HAL_GPIO_Init>
 800098e:	f44f 5300 	mov.w	r3, #8192	@ 0x2000
 8000992:	a906      	add	r1, sp, #24
 8000994:	4811      	ldr	r0, [pc, #68]	@ (80009dc <MX_GPIO_Init+0x118>)
 8000996:	9408      	str	r4, [sp, #32]
 8000998:	9609      	str	r6, [sp, #36]	@ 0x24
 800099a:	e9cd 3506 	strd	r3, r5, [sp, #24]
 800099e:	f001 fcb1 	bl	8002304 <HAL_GPIO_Init>
 80009a2:	a906      	add	r1, sp, #24
 80009a4:	480e      	ldr	r0, [pc, #56]	@ (80009e0 <MX_GPIO_Init+0x11c>)
 80009a6:	9409      	str	r4, [sp, #36]	@ 0x24
 80009a8:	9706      	str	r7, [sp, #24]
 80009aa:	e9cd 5407 	strd	r5, r4, [sp, #28]
 80009ae:	f001 fca9 	bl	8002304 <HAL_GPIO_Init>
 80009b2:	a906      	add	r1, sp, #24
 80009b4:	480b      	ldr	r0, [pc, #44]	@ (80009e4 <MX_GPIO_Init+0x120>)
 80009b6:	9706      	str	r7, [sp, #24]
 80009b8:	9609      	str	r6, [sp, #36]	@ 0x24
 80009ba:	e9cd 5407 	strd	r5, r4, [sp, #28]
 80009be:	f001 fca1 	bl	8002304 <HAL_GPIO_Init>
 80009c2:	2302      	movs	r3, #2
 80009c4:	a906      	add	r1, sp, #24
 80009c6:	4805      	ldr	r0, [pc, #20]	@ (80009dc <MX_GPIO_Init+0x118>)
 80009c8:	e9cd 3506 	strd	r3, r5, [sp, #24]
 80009cc:	e9cd 4408 	strd	r4, r4, [sp, #32]
 80009d0:	f001 fc98 	bl	8002304 <HAL_GPIO_Init>
 80009d4:	b00d      	add	sp, #52	@ 0x34
 80009d6:	bdf0      	pop	{r4, r5, r6, r7, pc}
 80009d8:	58024400 	.word	0x58024400
 80009dc:	58021000 	.word	0x58021000
 80009e0:	58020400 	.word	0x58020400
 80009e4:	58021800 	.word	0x58021800
 80009e8:	58020800 	.word	0x58020800

080009ec <SystemClock_Config>:
 80009ec:	b510      	push	{r4, lr}
 80009ee:	b09e      	sub	sp, #120	@ 0x78
 80009f0:	224c      	movs	r2, #76	@ 0x4c
 80009f2:	2100      	movs	r1, #0
 80009f4:	a80a      	add	r0, sp, #40	@ 0x28
 80009f6:	f009 fa91 	bl	8009f1c <memset>
 80009fa:	2220      	movs	r2, #32
 80009fc:	2100      	movs	r1, #0
 80009fe:	a802      	add	r0, sp, #8
 8000a00:	f009 fa8c 	bl	8009f1c <memset>
 8000a04:	2002      	movs	r0, #2
 8000a06:	f001 fe95 	bl	8002734 <HAL_PWREx_ConfigSupply>
 8000a0a:	4a20      	ldr	r2, [pc, #128]	@ (8000a8c <SystemClock_Config+0xa0>)
 8000a0c:	2300      	movs	r3, #0
 8000a0e:	9301      	str	r3, [sp, #4]
 8000a10:	6993      	ldr	r3, [r2, #24]
 8000a12:	f423 4340 	bic.w	r3, r3, #49152	@ 0xc000
 8000a16:	6193      	str	r3, [r2, #24]
 8000a18:	6993      	ldr	r3, [r2, #24]
 8000a1a:	f403 4340 	and.w	r3, r3, #49152	@ 0xc000
 8000a1e:	9301      	str	r3, [sp, #4]
 8000a20:	9b01      	ldr	r3, [sp, #4]
 8000a22:	6993      	ldr	r3, [r2, #24]
 8000a24:	049b      	lsls	r3, r3, #18
 8000a26:	d5fc      	bpl.n	8000a22 <SystemClock_Config+0x36>
 8000a28:	2201      	movs	r2, #1
 8000a2a:	2302      	movs	r3, #2
 8000a2c:	2440      	movs	r4, #64	@ 0x40
 8000a2e:	a80a      	add	r0, sp, #40	@ 0x28
 8000a30:	920d      	str	r2, [sp, #52]	@ 0x34
 8000a32:	9217      	str	r2, [sp, #92]	@ 0x5c
 8000a34:	220c      	movs	r2, #12
 8000a36:	930a      	str	r3, [sp, #40]	@ 0x28
 8000a38:	9313      	str	r3, [sp, #76]	@ 0x4c
 8000a3a:	940e      	str	r4, [sp, #56]	@ 0x38
 8000a3c:	e9cd 3219 	strd	r3, r2, [sp, #100]	@ 0x64
 8000a40:	f44f 63c0 	mov.w	r3, #1536	@ 0x600
 8000a44:	2200      	movs	r2, #0
 8000a46:	931c      	str	r3, [sp, #112]	@ 0x70
 8000a48:	2304      	movs	r3, #4
 8000a4a:	9214      	str	r2, [sp, #80]	@ 0x50
 8000a4c:	9315      	str	r3, [sp, #84]	@ 0x54
 8000a4e:	9318      	str	r3, [sp, #96]	@ 0x60
 8000a50:	2311      	movs	r3, #17
 8000a52:	921b      	str	r2, [sp, #108]	@ 0x6c
 8000a54:	9316      	str	r3, [sp, #88]	@ 0x58
 8000a56:	f001 ff03 	bl	8002860 <HAL_RCC_OscConfig>
 8000a5a:	4603      	mov	r3, r0
 8000a5c:	b108      	cbz	r0, 8000a62 <SystemClock_Config+0x76>
 8000a5e:	b672      	cpsid	i
 8000a60:	e7fe      	b.n	8000a60 <SystemClock_Config+0x74>
 8000a62:	223f      	movs	r2, #63	@ 0x3f
 8000a64:	2103      	movs	r1, #3
 8000a66:	a802      	add	r0, sp, #8
 8000a68:	9304      	str	r3, [sp, #16]
 8000a6a:	9202      	str	r2, [sp, #8]
 8000a6c:	f44f 6280 	mov.w	r2, #1024	@ 0x400
 8000a70:	9103      	str	r1, [sp, #12]
 8000a72:	9409      	str	r4, [sp, #36]	@ 0x24
 8000a74:	e9cd 3405 	strd	r3, r4, [sp, #20]
 8000a78:	e9cd 4207 	strd	r4, r2, [sp, #28]
 8000a7c:	f002 fa28 	bl	8002ed0 <HAL_RCC_ClockConfig>
 8000a80:	b108      	cbz	r0, 8000a86 <SystemClock_Config+0x9a>
 8000a82:	b672      	cpsid	i
 8000a84:	e7fe      	b.n	8000a84 <SystemClock_Config+0x98>
 8000a86:	b01e      	add	sp, #120	@ 0x78
 8000a88:	bd10      	pop	{r4, pc}
 8000a8a:	bf00      	nop
 8000a8c:	58024800 	.word	0x58024800

08000a90 <main>:
 8000a90:	e92d 43f0 	stmdb	sp!, {r4, r5, r6, r7, r8, r9, lr}
 8000a94:	2400      	movs	r4, #0
 8000a96:	ed2d 8b04 	vpush	{d8-d9}
 8000a9a:	f5ad 7d11 	sub.w	sp, sp, #580	@ 0x244
 8000a9e:	e9cd 4400 	strd	r4, r4, [sp]
 8000aa2:	e9cd 4402 	strd	r4, r4, [sp, #8]
 8000aa6:	f001 fac7 	bl	8002038 <HAL_MPU_Disable>
 8000aaa:	2101      	movs	r1, #1
 8000aac:	f248 721f 	movw	r2, #34591	@ 0x871f
 8000ab0:	f240 1301 	movw	r3, #257	@ 0x101
 8000ab4:	4668      	mov	r0, sp
 8000ab6:	f8ad 1000 	strh.w	r1, [sp]
 8000aba:	9303      	str	r3, [sp, #12]
 8000abc:	e9cd 4201 	strd	r4, r2, [sp, #4]
 8000ac0:	f001 fad8 	bl	8002074 <HAL_MPU_ConfigRegion>
 8000ac4:	2004      	movs	r0, #4
 8000ac6:	f001 fac5 	bl	8002054 <HAL_MPU_Enable>
 8000aca:	f000 fa63 	bl	8000f94 <HAL_Init>
 8000ace:	f7ff ff8d 	bl	80009ec <SystemClock_Config>
 8000ad2:	f7ff fef7 	bl	80008c4 <MX_GPIO_Init>
 8000ad6:	f7ff fdd7 	bl	8000688 <MX_ADC1_Init>
 8000ada:	f7ff fe85 	bl	80007e8 <MX_DAC1_Init>
 8000ade:	f000 f98b 	bl	8000df8 <MX_TIM2_Init>
 8000ae2:	4b5f      	ldr	r3, [pc, #380]	@ (8000c60 <main+0x1d0>)
 8000ae4:	4668      	mov	r0, sp
 8000ae6:	681e      	ldr	r6, [r3, #0]
 8000ae8:	f006 fd50 	bl	800758c <Startup_Hcbd8c48e05b139646178cc6f7987b8955b6ce985_cb4a8a449b4ada864625ee5a4355578a3aaf08ed>
 8000aec:	9b8f      	ldr	r3, [sp, #572]	@ 0x23c
 8000aee:	ea46 0503 	orr.w	r5, r6, r3
 8000af2:	43b3      	bics	r3, r6
 8000af4:	d01e      	beq.n	8000b34 <main+0xa4>
 8000af6:	2201      	movs	r2, #1
 8000af8:	f44f 4180 	mov.w	r1, #16384	@ 0x4000
 8000afc:	4859      	ldr	r0, [pc, #356]	@ (8000c64 <main+0x1d4>)
 8000afe:	f001 fe0b 	bl	8002718 <HAL_GPIO_WritePin>
 8000b02:	f000 fa83 	bl	800100c <HAL_GetTick>
 8000b06:	4604      	mov	r4, r0
 8000b08:	f000 fa80 	bl	800100c <HAL_GetTick>
 8000b0c:	1b00      	subs	r0, r0, r4
 8000b0e:	f5b0 6ffa 	cmp.w	r0, #2000	@ 0x7d0
 8000b12:	d3f9      	bcc.n	8000b08 <main+0x78>
 8000b14:	2200      	movs	r2, #0
 8000b16:	f44f 4180 	mov.w	r1, #16384	@ 0x4000
 8000b1a:	4852      	ldr	r0, [pc, #328]	@ (8000c64 <main+0x1d4>)
 8000b1c:	f001 fdfc 	bl	8002718 <HAL_GPIO_WritePin>
 8000b20:	f000 fa74 	bl	800100c <HAL_GetTick>
 8000b24:	4604      	mov	r4, r0
 8000b26:	f000 fa71 	bl	800100c <HAL_GetTick>
 8000b2a:	1b03      	subs	r3, r0, r4
 8000b2c:	f5b3 6ffa 	cmp.w	r3, #2000	@ 0x7d0
 8000b30:	d3f9      	bcc.n	8000b26 <main+0x96>
 8000b32:	e7e0      	b.n	8000af6 <main+0x66>
 8000b34:	4e4c      	ldr	r6, [pc, #304]	@ (8000c68 <main+0x1d8>)
 8000b36:	2110      	movs	r1, #16
 8000b38:	484c      	ldr	r0, [pc, #304]	@ (8000c6c <main+0x1dc>)
 8000b3a:	466f      	mov	r7, sp
 8000b3c:	7034      	strb	r4, [r6, #0]
 8000b3e:	f001 fadf 	bl	8002100 <HAL_DAC_Start>
 8000b42:	484b      	ldr	r0, [pc, #300]	@ (8000c70 <main+0x1e0>)
 8000b44:	f003 ffde 	bl	8004b04 <HAL_TIM_Base_Start_IT>
 8000b48:	b662      	cpsie	i
 8000b4a:	eddf 8a4a 	vldr	s17, [pc, #296]	@ 8000c74 <main+0x1e4>
 8000b4e:	46a8      	mov	r8, r5
 8000b50:	ed9f 8a49 	vldr	s16, [pc, #292]	@ 8000c78 <main+0x1e8>
 8000b54:	ed9f 9a49 	vldr	s18, [pc, #292]	@ 8000c7c <main+0x1ec>
 8000b58:	f8df 9130 	ldr.w	r9, [pc, #304]	@ 8000c8c <main+0x1fc>
 8000b5c:	7833      	ldrb	r3, [r6, #0]
 8000b5e:	b99b      	cbnz	r3, 8000b88 <main+0xf8>
 8000b60:	4545      	cmp	r5, r8
 8000b62:	d102      	bne.n	8000b6a <main+0xda>
 8000b64:	7833      	ldrb	r3, [r6, #0]
 8000b66:	2b01      	cmp	r3, #1
 8000b68:	d908      	bls.n	8000b7c <main+0xec>
 8000b6a:	f000 fa4f 	bl	800100c <HAL_GetTick>
 8000b6e:	2201      	movs	r2, #1
 8000b70:	4604      	mov	r4, r0
 8000b72:	f44f 4180 	mov.w	r1, #16384	@ 0x4000
 8000b76:	483b      	ldr	r0, [pc, #236]	@ (8000c64 <main+0x1d4>)
 8000b78:	f001 fdce 	bl	8002718 <HAL_GPIO_WritePin>
 8000b7c:	2c00      	cmp	r4, #0
 8000b7e:	d14e      	bne.n	8000c1e <main+0x18e>
 8000b80:	7833      	ldrb	r3, [r6, #0]
 8000b82:	2400      	movs	r4, #0
 8000b84:	2b00      	cmp	r3, #0
 8000b86:	d0eb      	beq.n	8000b60 <main+0xd0>
 8000b88:	2201      	movs	r2, #1
 8000b8a:	f44f 4180 	mov.w	r1, #16384	@ 0x4000
 8000b8e:	483c      	ldr	r0, [pc, #240]	@ (8000c80 <main+0x1f0>)
 8000b90:	f001 fdc2 	bl	8002718 <HAL_GPIO_WritePin>
 8000b94:	f44f 5100 	mov.w	r1, #8192	@ 0x2000
 8000b98:	483a      	ldr	r0, [pc, #232]	@ (8000c84 <main+0x1f4>)
 8000b9a:	f001 fdb7 	bl	800270c <HAL_GPIO_ReadPin>
 8000b9e:	4603      	mov	r3, r0
 8000ba0:	4839      	ldr	r0, [pc, #228]	@ (8000c88 <main+0x1f8>)
 8000ba2:	f1a3 0301 	sub.w	r3, r3, #1
 8000ba6:	fab3 f383 	clz	r3, r3
 8000baa:	095b      	lsrs	r3, r3, #5
 8000bac:	703b      	strb	r3, [r7, #0]
 8000bae:	f000 fe89 	bl	80018c4 <HAL_ADC_Start>
 8000bb2:	2101      	movs	r1, #1
 8000bb4:	4834      	ldr	r0, [pc, #208]	@ (8000c88 <main+0x1f8>)
 8000bb6:	f000 fa2f 	bl	8001018 <HAL_ADC_PollForConversion>
 8000bba:	2800      	cmp	r0, #0
 8000bbc:	d03f      	beq.n	8000c3e <main+0x1ae>
 8000bbe:	f8d9 5000 	ldr.w	r5, [r9]
 8000bc2:	ea48 0505 	orr.w	r5, r8, r5
 8000bc6:	4830      	ldr	r0, [pc, #192]	@ (8000c88 <main+0x1f8>)
 8000bc8:	f000 ff34 	bl	8001a34 <HAL_ADC_Stop>
 8000bcc:	4638      	mov	r0, r7
 8000bce:	f006 fdb7 	bl	8007740 <DoStep_Hcbd8c48e05b139646178cc6f7987b8955b6ce985_cb4a8a449b4ada864625ee5a4355578a3aaf08ed>
 8000bd2:	edd7 7a06 	vldr	s15, [r7, #24]
 8000bd6:	f8d7 323c 	ldr.w	r3, [r7, #572]	@ 0x23c
 8000bda:	ee67 7aa8 	vmul.f32	s15, s15, s17
 8000bde:	431d      	orrs	r5, r3
 8000be0:	eef5 7ac0 	vcmpe.f32	s15, #0.0
 8000be4:	eef1 fa10 	vmrs	APSR_nzcv, fpscr
 8000be8:	d427      	bmi.n	8000c3a <main+0x1aa>
 8000bea:	eef4 7ac8 	vcmpe.f32	s15, s16
 8000bee:	eef1 fa10 	vmrs	APSR_nzcv, fpscr
 8000bf2:	fe78 7a27 	vselgt.f32	s15, s16, s15
 8000bf6:	eefc 7ae7 	vcvt.u32.f32	s15, s15
 8000bfa:	ee17 3a90 	vmov	r3, s15
 8000bfe:	2200      	movs	r2, #0
 8000c00:	2110      	movs	r1, #16
 8000c02:	481a      	ldr	r0, [pc, #104]	@ (8000c6c <main+0x1dc>)
 8000c04:	f001 fab2 	bl	800216c <HAL_DAC_SetValue>
 8000c08:	2200      	movs	r2, #0
 8000c0a:	f44f 4180 	mov.w	r1, #16384	@ 0x4000
 8000c0e:	481c      	ldr	r0, [pc, #112]	@ (8000c80 <main+0x1f0>)
 8000c10:	f001 fd82 	bl	8002718 <HAL_GPIO_WritePin>
 8000c14:	7833      	ldrb	r3, [r6, #0]
 8000c16:	3b01      	subs	r3, #1
 8000c18:	b2db      	uxtb	r3, r3
 8000c1a:	7033      	strb	r3, [r6, #0]
 8000c1c:	e7a0      	b.n	8000b60 <main+0xd0>
 8000c1e:	f000 f9f5 	bl	800100c <HAL_GetTick>
 8000c22:	f247 5230 	movw	r2, #30000	@ 0x7530
 8000c26:	1b03      	subs	r3, r0, r4
 8000c28:	4293      	cmp	r3, r2
 8000c2a:	d997      	bls.n	8000b5c <main+0xcc>
 8000c2c:	2200      	movs	r2, #0
 8000c2e:	f44f 4180 	mov.w	r1, #16384	@ 0x4000
 8000c32:	480c      	ldr	r0, [pc, #48]	@ (8000c64 <main+0x1d4>)
 8000c34:	f001 fd70 	bl	8002718 <HAL_GPIO_WritePin>
 8000c38:	e7a2      	b.n	8000b80 <main+0xf0>
 8000c3a:	2300      	movs	r3, #0
 8000c3c:	e7df      	b.n	8000bfe <main+0x16e>
 8000c3e:	4812      	ldr	r0, [pc, #72]	@ (8000c88 <main+0x1f8>)
 8000c40:	4645      	mov	r5, r8
 8000c42:	f000 fa6b 	bl	800111c <HAL_ADC_GetValue>
 8000c46:	ee07 0a90 	vmov	s15, r0
 8000c4a:	eeb7 7a08 	vmov.f32	s14, #120	@ 0x3fc00000  1.5
 8000c4e:	eef8 7a67 	vcvt.f32.u32	s15, s15
 8000c52:	ee67 7a89 	vmul.f32	s15, s15, s18
 8000c56:	ee77 7ac7 	vsub.f32	s15, s15, s14
 8000c5a:	edc7 7a01 	vstr	s15, [r7, #4]
 8000c5e:	e7b2      	b.n	8000bc6 <main+0x136>
 8000c60:	0800a72c 	.word	0x0800a72c
 8000c64:	58020400 	.word	0x58020400
 8000c68:	24000104 	.word	0x24000104
 8000c6c:	240000f0 	.word	0x240000f0
 8000c70:	24000108 	.word	0x24000108
 8000c74:	449b1d17 	.word	0x449b1d17
 8000c78:	457ff000 	.word	0x457ff000
 8000c7c:	38533406 	.word	0x38533406
 8000c80:	58021800 	.word	0x58021800
 8000c84:	58020800 	.word	0x58020800
 8000c88:	24000080 	.word	0x24000080
 8000c8c:	0800a724 	.word	0x0800a724

08000c90 <HAL_TIM_PeriodElapsedCallback>:
 8000c90:	6803      	ldr	r3, [r0, #0]
 8000c92:	f1b3 4f80 	cmp.w	r3, #1073741824	@ 0x40000000
 8000c96:	d000      	beq.n	8000c9a <HAL_TIM_PeriodElapsedCallback+0xa>
 8000c98:	4770      	bx	lr
 8000c9a:	4a06      	ldr	r2, [pc, #24]	@ (8000cb4 <HAL_TIM_PeriodElapsedCallback+0x24>)
 8000c9c:	7813      	ldrb	r3, [r2, #0]
 8000c9e:	2bff      	cmp	r3, #255	@ 0xff
 8000ca0:	d003      	beq.n	8000caa <HAL_TIM_PeriodElapsedCallback+0x1a>
 8000ca2:	7813      	ldrb	r3, [r2, #0]
 8000ca4:	3301      	adds	r3, #1
 8000ca6:	b2db      	uxtb	r3, r3
 8000ca8:	7013      	strb	r3, [r2, #0]
 8000caa:	f44f 5100 	mov.w	r1, #8192	@ 0x2000
 8000cae:	4802      	ldr	r0, [pc, #8]	@ (8000cb8 <HAL_TIM_PeriodElapsedCallback+0x28>)
 8000cb0:	f001 bd36 	b.w	8002720 <HAL_GPIO_TogglePin>
 8000cb4:	24000104 	.word	0x24000104
 8000cb8:	58021000 	.word	0x58021000

08000cbc <Error_Handler>:
 8000cbc:	b672      	cpsid	i
 8000cbe:	e7fe      	b.n	8000cbe <Error_Handler+0x2>

08000cc0 <HAL_MspInit>:
 8000cc0:	4b07      	ldr	r3, [pc, #28]	@ (8000ce0 <HAL_MspInit+0x20>)
 8000cc2:	b082      	sub	sp, #8
 8000cc4:	f8d3 20f4 	ldr.w	r2, [r3, #244]	@ 0xf4
 8000cc8:	f042 0202 	orr.w	r2, r2, #2
 8000ccc:	f8c3 20f4 	str.w	r2, [r3, #244]	@ 0xf4
 8000cd0:	f8d3 30f4 	ldr.w	r3, [r3, #244]	@ 0xf4
 8000cd4:	f003 0302 	and.w	r3, r3, #2
 8000cd8:	9301      	str	r3, [sp, #4]
 8000cda:	9b01      	ldr	r3, [sp, #4]
 8000cdc:	b002      	add	sp, #8
 8000cde:	4770      	bx	lr
 8000ce0:	58024400 	.word	0x58024400

08000ce4 <NMI_Handler>:
 8000ce4:	e7fe      	b.n	8000ce4 <NMI_Handler>
 8000ce6:	bf00      	nop

08000ce8 <HardFault_Handler>:
 8000ce8:	e7fe      	b.n	8000ce8 <HardFault_Handler>
 8000cea:	bf00      	nop

08000cec <MemManage_Handler>:
 8000cec:	e7fe      	b.n	8000cec <MemManage_Handler>
 8000cee:	bf00      	nop

08000cf0 <BusFault_Handler>:
 8000cf0:	e7fe      	b.n	8000cf0 <BusFault_Handler>
 8000cf2:	bf00      	nop

08000cf4 <UsageFault_Handler>:
 8000cf4:	e7fe      	b.n	8000cf4 <UsageFault_Handler>
 8000cf6:	bf00      	nop

08000cf8 <SVC_Handler>:
 8000cf8:	4770      	bx	lr
 8000cfa:	bf00      	nop

08000cfc <DebugMon_Handler>:
 8000cfc:	4770      	bx	lr
 8000cfe:	bf00      	nop

08000d00 <PendSV_Handler>:
 8000d00:	4770      	bx	lr
 8000d02:	bf00      	nop

08000d04 <SysTick_Handler>:
 8000d04:	f000 b976 	b.w	8000ff4 <HAL_IncTick>

08000d08 <TIM2_IRQHandler>:
 8000d08:	4801      	ldr	r0, [pc, #4]	@ (8000d10 <TIM2_IRQHandler+0x8>)
 8000d0a:	f004 b91b 	b.w	8004f44 <HAL_TIM_IRQHandler>
 8000d0e:	bf00      	nop
 8000d10:	24000108 	.word	0x24000108

08000d14 <SystemInit>:
 8000d14:	492a      	ldr	r1, [pc, #168]	@ (8000dc0 <SystemInit+0xac>)
 8000d16:	4a2b      	ldr	r2, [pc, #172]	@ (8000dc4 <SystemInit+0xb0>)
 8000d18:	f8d1 3088 	ldr.w	r3, [r1, #136]	@ 0x88
 8000d1c:	f443 0370 	orr.w	r3, r3, #15728640	@ 0xf00000
 8000d20:	b410      	push	{r4}
 8000d22:	f8c1 3088 	str.w	r3, [r1, #136]	@ 0x88
 8000d26:	6813      	ldr	r3, [r2, #0]
 8000d28:	f003 030f 	and.w	r3, r3, #15
 8000d2c:	2b06      	cmp	r3, #6
 8000d2e:	d805      	bhi.n	8000d3c <SystemInit+0x28>
 8000d30:	6813      	ldr	r3, [r2, #0]
 8000d32:	f023 030f 	bic.w	r3, r3, #15
 8000d36:	f043 0307 	orr.w	r3, r3, #7
 8000d3a:	6013      	str	r3, [r2, #0]
 8000d3c:	4b22      	ldr	r3, [pc, #136]	@ (8000dc8 <SystemInit+0xb4>)
 8000d3e:	2400      	movs	r4, #0
 8000d40:	4a22      	ldr	r2, [pc, #136]	@ (8000dcc <SystemInit+0xb8>)
 8000d42:	6819      	ldr	r1, [r3, #0]
 8000d44:	481f      	ldr	r0, [pc, #124]	@ (8000dc4 <SystemInit+0xb0>)
 8000d46:	f041 0101 	orr.w	r1, r1, #1
 8000d4a:	6019      	str	r1, [r3, #0]
 8000d4c:	611c      	str	r4, [r3, #16]
 8000d4e:	6819      	ldr	r1, [r3, #0]
 8000d50:	400a      	ands	r2, r1
 8000d52:	601a      	str	r2, [r3, #0]
 8000d54:	6803      	ldr	r3, [r0, #0]
 8000d56:	0719      	lsls	r1, r3, #28
 8000d58:	d505      	bpl.n	8000d66 <SystemInit+0x52>
 8000d5a:	6803      	ldr	r3, [r0, #0]
 8000d5c:	f023 030f 	bic.w	r3, r3, #15
 8000d60:	f043 0307 	orr.w	r3, r3, #7
 8000d64:	6003      	str	r3, [r0, #0]
 8000d66:	4b18      	ldr	r3, [pc, #96]	@ (8000dc8 <SystemInit+0xb4>)
 8000d68:	2200      	movs	r2, #0
 8000d6a:	4919      	ldr	r1, [pc, #100]	@ (8000dd0 <SystemInit+0xbc>)
 8000d6c:	4c19      	ldr	r4, [pc, #100]	@ (8000dd4 <SystemInit+0xc0>)
 8000d6e:	481a      	ldr	r0, [pc, #104]	@ (8000dd8 <SystemInit+0xc4>)
 8000d70:	619a      	str	r2, [r3, #24]
 8000d72:	61da      	str	r2, [r3, #28]
 8000d74:	621a      	str	r2, [r3, #32]
 8000d76:	629c      	str	r4, [r3, #40]	@ 0x28
 8000d78:	62d8      	str	r0, [r3, #44]	@ 0x2c
 8000d7a:	6319      	str	r1, [r3, #48]	@ 0x30
 8000d7c:	635a      	str	r2, [r3, #52]	@ 0x34
 8000d7e:	6399      	str	r1, [r3, #56]	@ 0x38
 8000d80:	63da      	str	r2, [r3, #60]	@ 0x3c
 8000d82:	6419      	str	r1, [r3, #64]	@ 0x40
 8000d84:	645a      	str	r2, [r3, #68]	@ 0x44
 8000d86:	6819      	ldr	r1, [r3, #0]
 8000d88:	f421 2180 	bic.w	r1, r1, #262144	@ 0x40000
 8000d8c:	6019      	str	r1, [r3, #0]
 8000d8e:	661a      	str	r2, [r3, #96]	@ 0x60
 8000d90:	f8d3 20d4 	ldr.w	r2, [r3, #212]	@ 0xd4
 8000d94:	04d2      	lsls	r2, r2, #19
 8000d96:	d40f      	bmi.n	8000db8 <SystemInit+0xa4>
 8000d98:	f8d3 20d4 	ldr.w	r2, [r3, #212]	@ 0xd4
 8000d9c:	f243 00d2 	movw	r0, #12498	@ 0x30d2
 8000da0:	490e      	ldr	r1, [pc, #56]	@ (8000ddc <SystemInit+0xc8>)
 8000da2:	f442 5280 	orr.w	r2, r2, #4096	@ 0x1000
 8000da6:	f8c3 20d4 	str.w	r2, [r3, #212]	@ 0xd4
 8000daa:	6008      	str	r0, [r1, #0]
 8000dac:	f8d3 20d4 	ldr.w	r2, [r3, #212]	@ 0xd4
 8000db0:	f422 5280 	bic.w	r2, r2, #4096	@ 0x1000
 8000db4:	f8c3 20d4 	str.w	r2, [r3, #212]	@ 0xd4
 8000db8:	f85d 4b04 	ldr.w	r4, [sp], #4
 8000dbc:	4770      	bx	lr
 8000dbe:	bf00      	nop
 8000dc0:	e000ed00 	.word	0xe000ed00
 8000dc4:	52002000 	.word	0x52002000
 8000dc8:	58024400 	.word	0x58024400
 8000dcc:	eaf6ed7f 	.word	0xeaf6ed7f
 8000dd0:	01010280 	.word	0x01010280
 8000dd4:	02020200 	.word	0x02020200
 8000dd8:	01ff0000 	.word	0x01ff0000
 8000ddc:	52004000 	.word	0x52004000

08000de0 <ExitRun0Mode>:
 8000de0:	4b04      	ldr	r3, [pc, #16]	@ (8000df4 <ExitRun0Mode+0x14>)
 8000de2:	68da      	ldr	r2, [r3, #12]
 8000de4:	f042 0202 	orr.w	r2, r2, #2
 8000de8:	60da      	str	r2, [r3, #12]
 8000dea:	685a      	ldr	r2, [r3, #4]
 8000dec:	0492      	lsls	r2, r2, #18
 8000dee:	d5fc      	bpl.n	8000dea <ExitRun0Mode+0xa>
 8000df0:	4770      	bx	lr
 8000df2:	bf00      	nop
 8000df4:	58024800 	.word	0x58024800

08000df8 <MX_TIM2_Init>:
 8000df8:	b510      	push	{r4, lr}
 8000dfa:	f04f 4080 	mov.w	r0, #1073741824	@ 0x40000000
 8000dfe:	4c2a      	ldr	r4, [pc, #168]	@ (8000ea8 <MX_TIM2_Init+0xb0>)
 8000e00:	f44f 7189 	mov.w	r1, #274	@ 0x112
 8000e04:	b090      	sub	sp, #64	@ 0x40
 8000e06:	2300      	movs	r3, #0
 8000e08:	22c7      	movs	r2, #199	@ 0xc7
 8000e0a:	e9c4 0100 	strd	r0, r1, [r4]
 8000e0e:	4620      	mov	r0, r4
 8000e10:	9304      	str	r3, [sp, #16]
 8000e12:	9301      	str	r3, [sp, #4]
 8000e14:	9308      	str	r3, [sp, #32]
 8000e16:	6123      	str	r3, [r4, #16]
 8000e18:	61a3      	str	r3, [r4, #24]
 8000e1a:	9307      	str	r3, [sp, #28]
 8000e1c:	e9c4 3202 	strd	r3, r2, [r4, #8]
 8000e20:	e9cd 3305 	strd	r3, r3, [sp, #20]
 8000e24:	e9cd 3302 	strd	r3, r3, [sp, #8]
 8000e28:	e9cd 3309 	strd	r3, r3, [sp, #36]	@ 0x24
 8000e2c:	e9cd 330b 	strd	r3, r3, [sp, #44]	@ 0x2c
 8000e30:	e9cd 330d 	strd	r3, r3, [sp, #52]	@ 0x34
 8000e34:	f003 fdb6 	bl	80049a4 <HAL_TIM_Base_Init>
 8000e38:	bb08      	cbnz	r0, 8000e7e <MX_TIM2_Init+0x86>
 8000e3a:	f44f 5380 	mov.w	r3, #4096	@ 0x1000
 8000e3e:	a904      	add	r1, sp, #16
 8000e40:	4819      	ldr	r0, [pc, #100]	@ (8000ea8 <MX_TIM2_Init+0xb0>)
 8000e42:	9304      	str	r3, [sp, #16]
 8000e44:	f003 ff6e 	bl	8004d24 <HAL_TIM_ConfigClockSource>
 8000e48:	bb30      	cbnz	r0, 8000e98 <MX_TIM2_Init+0xa0>
 8000e4a:	4817      	ldr	r0, [pc, #92]	@ (8000ea8 <MX_TIM2_Init+0xb0>)
 8000e4c:	f003 feba 	bl	8004bc4 <HAL_TIM_OC_Init>
 8000e50:	b9f8      	cbnz	r0, 8000e92 <MX_TIM2_Init+0x9a>
 8000e52:	2300      	movs	r3, #0
 8000e54:	a901      	add	r1, sp, #4
 8000e56:	4814      	ldr	r0, [pc, #80]	@ (8000ea8 <MX_TIM2_Init+0xb0>)
 8000e58:	9301      	str	r3, [sp, #4]
 8000e5a:	9303      	str	r3, [sp, #12]
 8000e5c:	f004 fa20 	bl	80052a0 <HAL_TIMEx_MasterConfigSynchronization>
 8000e60:	b9a0      	cbnz	r0, 8000e8c <MX_TIM2_Init+0x94>
 8000e62:	2200      	movs	r2, #0
 8000e64:	a908      	add	r1, sp, #32
 8000e66:	4810      	ldr	r0, [pc, #64]	@ (8000ea8 <MX_TIM2_Init+0xb0>)
 8000e68:	920a      	str	r2, [sp, #40]	@ 0x28
 8000e6a:	920c      	str	r2, [sp, #48]	@ 0x30
 8000e6c:	ed9f 7b0c 	vldr	d7, [pc, #48]	@ 8000ea0 <MX_TIM2_Init+0xa8>
 8000e70:	ed8d 7b08 	vstr	d7, [sp, #32]
 8000e74:	f004 f954 	bl	8005120 <HAL_TIM_OC_ConfigChannel>
 8000e78:	b920      	cbnz	r0, 8000e84 <MX_TIM2_Init+0x8c>
 8000e7a:	b010      	add	sp, #64	@ 0x40
 8000e7c:	bd10      	pop	{r4, pc}
 8000e7e:	f7ff ff1d 	bl	8000cbc <Error_Handler>
 8000e82:	e7da      	b.n	8000e3a <MX_TIM2_Init+0x42>
 8000e84:	f7ff ff1a 	bl	8000cbc <Error_Handler>
 8000e88:	b010      	add	sp, #64	@ 0x40
 8000e8a:	bd10      	pop	{r4, pc}
 8000e8c:	f7ff ff16 	bl	8000cbc <Error_Handler>
 8000e90:	e7e7      	b.n	8000e62 <MX_TIM2_Init+0x6a>
 8000e92:	f7ff ff13 	bl	8000cbc <Error_Handler>
 8000e96:	e7dc      	b.n	8000e52 <MX_TIM2_Init+0x5a>
 8000e98:	f7ff ff10 	bl	8000cbc <Error_Handler>
 8000e9c:	e7d5      	b.n	8000e4a <MX_TIM2_Init+0x52>
 8000e9e:	bf00      	nop
	...
 8000ea8:	24000108 	.word	0x24000108

08000eac <HAL_TIM_Base_MspInit>:
 8000eac:	6803      	ldr	r3, [r0, #0]
 8000eae:	f1b3 4f80 	cmp.w	r3, #1073741824	@ 0x40000000
 8000eb2:	d000      	beq.n	8000eb6 <HAL_TIM_Base_MspInit+0xa>
 8000eb4:	4770      	bx	lr
 8000eb6:	4b0d      	ldr	r3, [pc, #52]	@ (8000eec <HAL_TIM_Base_MspInit+0x40>)
 8000eb8:	2200      	movs	r2, #0
 8000eba:	201c      	movs	r0, #28
 8000ebc:	4611      	mov	r1, r2
 8000ebe:	b510      	push	{r4, lr}
 8000ec0:	f8d3 40e8 	ldr.w	r4, [r3, #232]	@ 0xe8
 8000ec4:	b082      	sub	sp, #8
 8000ec6:	f044 0401 	orr.w	r4, r4, #1
 8000eca:	f8c3 40e8 	str.w	r4, [r3, #232]	@ 0xe8
 8000ece:	f8d3 30e8 	ldr.w	r3, [r3, #232]	@ 0xe8
 8000ed2:	f003 0301 	and.w	r3, r3, #1
 8000ed6:	9301      	str	r3, [sp, #4]
 8000ed8:	9b01      	ldr	r3, [sp, #4]
 8000eda:	f001 f84f 	bl	8001f7c <HAL_NVIC_SetPriority>
 8000ede:	201c      	movs	r0, #28
 8000ee0:	b002      	add	sp, #8
 8000ee2:	e8bd 4010 	ldmia.w	sp!, {r4, lr}
 8000ee6:	f001 b883 	b.w	8001ff0 <HAL_NVIC_EnableIRQ>
 8000eea:	bf00      	nop
 8000eec:	58024400 	.word	0x58024400

08000ef0 <Reset_Handler>:
 8000ef0:	f8df d038 	ldr.w	sp, [pc, #56]	@ 8000f2c <LoopForever+0x2>
 8000ef4:	f7ff ff74 	bl	8000de0 <ExitRun0Mode>
 8000ef8:	f7ff ff0c 	bl	8000d14 <SystemInit>
 8000efc:	480c      	ldr	r0, [pc, #48]	@ (8000f30 <LoopForever+0x6>)
 8000efe:	490d      	ldr	r1, [pc, #52]	@ (8000f34 <LoopForever+0xa>)
 8000f00:	4a0d      	ldr	r2, [pc, #52]	@ (8000f38 <LoopForever+0xe>)
 8000f02:	2300      	movs	r3, #0
 8000f04:	e002      	b.n	8000f0c <LoopCopyDataInit>

08000f06 <CopyDataInit>:
 8000f06:	58d4      	ldr	r4, [r2, r3]
 8000f08:	50c4      	str	r4, [r0, r3]
 8000f0a:	3304      	adds	r3, #4

08000f0c <LoopCopyDataInit>:
 8000f0c:	18c4      	adds	r4, r0, r3
 8000f0e:	428c      	cmp	r4, r1
 8000f10:	d3f9      	bcc.n	8000f06 <CopyDataInit>
 8000f12:	4a0a      	ldr	r2, [pc, #40]	@ (8000f3c <LoopForever+0x12>)
 8000f14:	4c0a      	ldr	r4, [pc, #40]	@ (8000f40 <LoopForever+0x16>)
 8000f16:	2300      	movs	r3, #0
 8000f18:	e001      	b.n	8000f1e <LoopFillZerobss>

08000f1a <FillZerobss>:
 8000f1a:	6013      	str	r3, [r2, #0]
 8000f1c:	3204      	adds	r2, #4

08000f1e <LoopFillZerobss>:
 8000f1e:	42a2      	cmp	r2, r4
 8000f20:	d3fb      	bcc.n	8000f1a <FillZerobss>
 8000f22:	f009 f809 	bl	8009f38 <__libc_init_array>
 8000f26:	f7ff fdb3 	bl	8000a90 <main>

08000f2a <LoopForever>:
 8000f2a:	e7fe      	b.n	8000f2a <LoopForever>
 8000f2c:	24050000 	.word	0x24050000
 8000f30:	24000000 	.word	0x24000000
 8000f34:	24000064 	.word	0x24000064
 8000f38:	0800a8b0 	.word	0x0800a8b0
 8000f3c:	24000064 	.word	0x24000064
 8000f40:	24000294 	.word	0x24000294

08000f44 <ADC3_IRQHandler>:
 8000f44:	e7fe      	b.n	8000f44 <ADC3_IRQHandler>
	...

08000f48 <HAL_InitTick>:
 8000f48:	4b0f      	ldr	r3, [pc, #60]	@ (8000f88 <HAL_InitTick+0x40>)
 8000f4a:	781b      	ldrb	r3, [r3, #0]
 8000f4c:	b90b      	cbnz	r3, 8000f52 <HAL_InitTick+0xa>
 8000f4e:	2001      	movs	r0, #1
 8000f50:	4770      	bx	lr
 8000f52:	b510      	push	{r4, lr}
 8000f54:	4604      	mov	r4, r0
 8000f56:	f44f 707a 	mov.w	r0, #1000	@ 0x3e8
 8000f5a:	4a0c      	ldr	r2, [pc, #48]	@ (8000f8c <HAL_InitTick+0x44>)
 8000f5c:	fbb0 f3f3 	udiv	r3, r0, r3
 8000f60:	6810      	ldr	r0, [r2, #0]
 8000f62:	fbb0 f0f3 	udiv	r0, r0, r3
 8000f66:	f001 f851 	bl	800200c <HAL_SYSTICK_Config>
 8000f6a:	2c0f      	cmp	r4, #15
 8000f6c:	d800      	bhi.n	8000f70 <HAL_InitTick+0x28>
 8000f6e:	b108      	cbz	r0, 8000f74 <HAL_InitTick+0x2c>
 8000f70:	2001      	movs	r0, #1
 8000f72:	bd10      	pop	{r4, pc}
 8000f74:	2200      	movs	r2, #0
 8000f76:	4621      	mov	r1, r4
 8000f78:	f04f 30ff 	mov.w	r0, #4294967295
 8000f7c:	f000 fffe 	bl	8001f7c <HAL_NVIC_SetPriority>
 8000f80:	4b03      	ldr	r3, [pc, #12]	@ (8000f90 <HAL_InitTick+0x48>)
 8000f82:	2000      	movs	r0, #0
 8000f84:	601c      	str	r4, [r3, #0]
 8000f86:	bd10      	pop	{r4, pc}
 8000f88:	24000008 	.word	0x24000008
 8000f8c:	24000004 	.word	0x24000004
 8000f90:	2400000c 	.word	0x2400000c

08000f94 <HAL_Init>:
 8000f94:	b510      	push	{r4, lr}
 8000f96:	2003      	movs	r0, #3
 8000f98:	4c12      	ldr	r4, [pc, #72]	@ (8000fe4 <HAL_Init+0x50>)
 8000f9a:	f000 ffdd 	bl	8001f58 <HAL_NVIC_SetPriorityGrouping>
 8000f9e:	f001 ff09 	bl	8002db4 <HAL_RCC_GetSysClockFreq>
 8000fa2:	4b11      	ldr	r3, [pc, #68]	@ (8000fe8 <HAL_Init+0x54>)
 8000fa4:	4911      	ldr	r1, [pc, #68]	@ (8000fec <HAL_Init+0x58>)
 8000fa6:	699a      	ldr	r2, [r3, #24]
 8000fa8:	699b      	ldr	r3, [r3, #24]
 8000faa:	f3c2 2203 	ubfx	r2, r2, #8, #4
 8000fae:	f003 030f 	and.w	r3, r3, #15
 8000fb2:	5ca2      	ldrb	r2, [r4, r2]
 8000fb4:	5ce3      	ldrb	r3, [r4, r3]
 8000fb6:	f002 021f 	and.w	r2, r2, #31
 8000fba:	4c0d      	ldr	r4, [pc, #52]	@ (8000ff0 <HAL_Init+0x5c>)
 8000fbc:	f003 031f 	and.w	r3, r3, #31
 8000fc0:	40d0      	lsrs	r0, r2
 8000fc2:	fa20 f303 	lsr.w	r3, r0, r3
 8000fc6:	6020      	str	r0, [r4, #0]
 8000fc8:	2000      	movs	r0, #0
 8000fca:	600b      	str	r3, [r1, #0]
 8000fcc:	f7ff ffbc 	bl	8000f48 <HAL_InitTick>
 8000fd0:	b110      	cbz	r0, 8000fd8 <HAL_Init+0x44>
 8000fd2:	2401      	movs	r4, #1
 8000fd4:	4620      	mov	r0, r4
 8000fd6:	bd10      	pop	{r4, pc}
 8000fd8:	4604      	mov	r4, r0
 8000fda:	f7ff fe71 	bl	8000cc0 <HAL_MspInit>
 8000fde:	4620      	mov	r0, r4
 8000fe0:	bd10      	pop	{r4, pc}
 8000fe2:	bf00      	nop
 8000fe4:	0800a6d0 	.word	0x0800a6d0
 8000fe8:	58024400 	.word	0x58024400
 8000fec:	24000000 	.word	0x24000000
 8000ff0:	24000004 	.word	0x24000004

08000ff4 <HAL_IncTick>:
 8000ff4:	4a03      	ldr	r2, [pc, #12]	@ (8001004 <HAL_IncTick+0x10>)
 8000ff6:	4b04      	ldr	r3, [pc, #16]	@ (8001008 <HAL_IncTick+0x14>)
 8000ff8:	6811      	ldr	r1, [r2, #0]
 8000ffa:	781b      	ldrb	r3, [r3, #0]
 8000ffc:	440b      	add	r3, r1
 8000ffe:	6013      	str	r3, [r2, #0]
 8001000:	4770      	bx	lr
 8001002:	bf00      	nop
 8001004:	24000154 	.word	0x24000154
 8001008:	24000008 	.word	0x24000008

0800100c <HAL_GetTick>:
 800100c:	4b01      	ldr	r3, [pc, #4]	@ (8001014 <HAL_GetTick+0x8>)
 800100e:	6818      	ldr	r0, [r3, #0]
 8001010:	4770      	bx	lr
 8001012:	bf00      	nop
 8001014:	24000154 	.word	0x24000154

08001018 <HAL_ADC_PollForConversion>:
 8001018:	4b3c      	ldr	r3, [pc, #240]	@ (800110c <HAL_ADC_PollForConversion+0xf4>)
 800101a:	6802      	ldr	r2, [r0, #0]
 800101c:	429a      	cmp	r2, r3
 800101e:	e92d 41f0 	stmdb	sp!, {r4, r5, r6, r7, r8, lr}
 8001022:	4605      	mov	r5, r0
 8001024:	4688      	mov	r8, r1
 8001026:	d064      	beq.n	80010f2 <HAL_ADC_PollForConversion+0xda>
 8001028:	f503 7380 	add.w	r3, r3, #256	@ 0x100
 800102c:	429a      	cmp	r2, r3
 800102e:	d060      	beq.n	80010f2 <HAL_ADC_PollForConversion+0xda>
 8001030:	4c37      	ldr	r4, [pc, #220]	@ (8001110 <HAL_ADC_PollForConversion+0xf8>)
 8001032:	696f      	ldr	r7, [r5, #20]
 8001034:	68a6      	ldr	r6, [r4, #8]
 8001036:	2f08      	cmp	r7, #8
 8001038:	f006 061f 	and.w	r6, r6, #31
 800103c:	d013      	beq.n	8001066 <HAL_ADC_PollForConversion+0x4e>
 800103e:	f240 2321 	movw	r3, #545	@ 0x221
 8001042:	40f3      	lsrs	r3, r6
 8001044:	07db      	lsls	r3, r3, #31
 8001046:	d40a      	bmi.n	800105e <HAL_ADC_PollForConversion+0x46>
 8001048:	68a3      	ldr	r3, [r4, #8]
 800104a:	f413 4f40 	tst.w	r3, #49152	@ 0xc000
 800104e:	d009      	beq.n	8001064 <HAL_ADC_PollForConversion+0x4c>
 8001050:	6e2b      	ldr	r3, [r5, #96]	@ 0x60
 8001052:	2001      	movs	r0, #1
 8001054:	f043 0320 	orr.w	r3, r3, #32
 8001058:	662b      	str	r3, [r5, #96]	@ 0x60
 800105a:	e8bd 81f0 	ldmia.w	sp!, {r4, r5, r6, r7, r8, pc}
 800105e:	68d3      	ldr	r3, [r2, #12]
 8001060:	07df      	lsls	r7, r3, #31
 8001062:	d4f5      	bmi.n	8001050 <HAL_ADC_PollForConversion+0x38>
 8001064:	2704      	movs	r7, #4
 8001066:	f7ff ffd1 	bl	800100c <HAL_GetTick>
 800106a:	f1b8 3fff 	cmp.w	r8, #4294967295
 800106e:	4604      	mov	r4, r0
 8001070:	682a      	ldr	r2, [r5, #0]
 8001072:	d016      	beq.n	80010a2 <HAL_ADC_PollForConversion+0x8a>
 8001074:	6813      	ldr	r3, [r2, #0]
 8001076:	423b      	tst	r3, r7
 8001078:	d116      	bne.n	80010a8 <HAL_ADC_PollForConversion+0x90>
 800107a:	f7ff ffc7 	bl	800100c <HAL_GetTick>
 800107e:	1b00      	subs	r0, r0, r4
 8001080:	682a      	ldr	r2, [r5, #0]
 8001082:	4540      	cmp	r0, r8
 8001084:	d802      	bhi.n	800108c <HAL_ADC_PollForConversion+0x74>
 8001086:	f1b8 0f00 	cmp.w	r8, #0
 800108a:	d1f3      	bne.n	8001074 <HAL_ADC_PollForConversion+0x5c>
 800108c:	6813      	ldr	r3, [r2, #0]
 800108e:	403b      	ands	r3, r7
 8001090:	d1f0      	bne.n	8001074 <HAL_ADC_PollForConversion+0x5c>
 8001092:	6e2a      	ldr	r2, [r5, #96]	@ 0x60
 8001094:	2003      	movs	r0, #3
 8001096:	f885 305c 	strb.w	r3, [r5, #92]	@ 0x5c
 800109a:	f042 0204 	orr.w	r2, r2, #4
 800109e:	662a      	str	r2, [r5, #96]	@ 0x60
 80010a0:	e025      	b.n	80010ee <HAL_ADC_PollForConversion+0xd6>
 80010a2:	6813      	ldr	r3, [r2, #0]
 80010a4:	421f      	tst	r7, r3
 80010a6:	d0fc      	beq.n	80010a2 <HAL_ADC_PollForConversion+0x8a>
 80010a8:	6e2b      	ldr	r3, [r5, #96]	@ 0x60
 80010aa:	f443 7300 	orr.w	r3, r3, #512	@ 0x200
 80010ae:	662b      	str	r3, [r5, #96]	@ 0x60
 80010b0:	68d3      	ldr	r3, [r2, #12]
 80010b2:	f413 6f40 	tst.w	r3, #3072	@ 0xc00
 80010b6:	d10f      	bne.n	80010d8 <HAL_ADC_PollForConversion+0xc0>
 80010b8:	7e6b      	ldrb	r3, [r5, #25]
 80010ba:	b96b      	cbnz	r3, 80010d8 <HAL_ADC_PollForConversion+0xc0>
 80010bc:	6813      	ldr	r3, [r2, #0]
 80010be:	071c      	lsls	r4, r3, #28
 80010c0:	d50a      	bpl.n	80010d8 <HAL_ADC_PollForConversion+0xc0>
 80010c2:	6e2b      	ldr	r3, [r5, #96]	@ 0x60
 80010c4:	f423 7380 	bic.w	r3, r3, #256	@ 0x100
 80010c8:	662b      	str	r3, [r5, #96]	@ 0x60
 80010ca:	6e2b      	ldr	r3, [r5, #96]	@ 0x60
 80010cc:	04d8      	lsls	r0, r3, #19
 80010ce:	d403      	bmi.n	80010d8 <HAL_ADC_PollForConversion+0xc0>
 80010d0:	6e2b      	ldr	r3, [r5, #96]	@ 0x60
 80010d2:	f043 0301 	orr.w	r3, r3, #1
 80010d6:	662b      	str	r3, [r5, #96]	@ 0x60
 80010d8:	4b0e      	ldr	r3, [pc, #56]	@ (8001114 <HAL_ADC_PollForConversion+0xfc>)
 80010da:	429a      	cmp	r2, r3
 80010dc:	d00b      	beq.n	80010f6 <HAL_ADC_PollForConversion+0xde>
 80010de:	2f08      	cmp	r7, #8
 80010e0:	68d3      	ldr	r3, [r2, #12]
 80010e2:	d011      	beq.n	8001108 <HAL_ADC_PollForConversion+0xf0>
 80010e4:	045b      	lsls	r3, r3, #17
 80010e6:	d401      	bmi.n	80010ec <HAL_ADC_PollForConversion+0xd4>
 80010e8:	230c      	movs	r3, #12
 80010ea:	6013      	str	r3, [r2, #0]
 80010ec:	2000      	movs	r0, #0
 80010ee:	e8bd 81f0 	ldmia.w	sp!, {r4, r5, r6, r7, r8, pc}
 80010f2:	4c09      	ldr	r4, [pc, #36]	@ (8001118 <HAL_ADC_PollForConversion+0x100>)
 80010f4:	e79d      	b.n	8001032 <HAL_ADC_PollForConversion+0x1a>
 80010f6:	f240 2321 	movw	r3, #545	@ 0x221
 80010fa:	40f3      	lsrs	r3, r6
 80010fc:	07d9      	lsls	r1, r3, #31
 80010fe:	d4ee      	bmi.n	80010de <HAL_ADC_PollForConversion+0xc6>
 8001100:	4b02      	ldr	r3, [pc, #8]	@ (800110c <HAL_ADC_PollForConversion+0xf4>)
 8001102:	2f08      	cmp	r7, #8
 8001104:	68db      	ldr	r3, [r3, #12]
 8001106:	d1ed      	bne.n	80010e4 <HAL_ADC_PollForConversion+0xcc>
 8001108:	6017      	str	r7, [r2, #0]
 800110a:	e7ef      	b.n	80010ec <HAL_ADC_PollForConversion+0xd4>
 800110c:	40022000 	.word	0x40022000
 8001110:	58026300 	.word	0x58026300
 8001114:	40022100 	.word	0x40022100
 8001118:	40022300 	.word	0x40022300

0800111c <HAL_ADC_GetValue>:
 800111c:	6803      	ldr	r3, [r0, #0]
 800111e:	6c18      	ldr	r0, [r3, #64]	@ 0x40
 8001120:	4770      	bx	lr
 8001122:	bf00      	nop

08001124 <HAL_ADC_ConfigChannel>:
 8001124:	b5f0      	push	{r4, r5, r6, r7, lr}
 8001126:	2200      	movs	r2, #0
 8001128:	b083      	sub	sp, #12
 800112a:	9201      	str	r2, [sp, #4]
 800112c:	f890 205c 	ldrb.w	r2, [r0, #92]	@ 0x5c
 8001130:	2a01      	cmp	r2, #1
 8001132:	f000 80c5 	beq.w	80012c0 <HAL_ADC_ConfigChannel+0x19c>
 8001136:	4603      	mov	r3, r0
 8001138:	2001      	movs	r0, #1
 800113a:	681a      	ldr	r2, [r3, #0]
 800113c:	f883 005c 	strb.w	r0, [r3, #92]	@ 0x5c
 8001140:	6894      	ldr	r4, [r2, #8]
 8001142:	0764      	lsls	r4, r4, #29
 8001144:	d509      	bpl.n	800115a <HAL_ADC_ConfigChannel+0x36>
 8001146:	6e1a      	ldr	r2, [r3, #96]	@ 0x60
 8001148:	2001      	movs	r0, #1
 800114a:	f042 0220 	orr.w	r2, r2, #32
 800114e:	661a      	str	r2, [r3, #96]	@ 0x60
 8001150:	2200      	movs	r2, #0
 8001152:	f883 205c 	strb.w	r2, [r3, #92]	@ 0x5c
 8001156:	b003      	add	sp, #12
 8001158:	bdf0      	pop	{r4, r5, r6, r7, pc}
 800115a:	680c      	ldr	r4, [r1, #0]
 800115c:	2c00      	cmp	r4, #0
 800115e:	ea4f 6c94 	mov.w	ip, r4, lsr #26
 8001162:	db0d      	blt.n	8001180 <HAL_ADC_ConfigChannel+0x5c>
 8001164:	4da4      	ldr	r5, [pc, #656]	@ (80013f8 <HAL_ADC_ConfigChannel+0x2d4>)
 8001166:	42aa      	cmp	r2, r5
 8001168:	d00a      	beq.n	8001180 <HAL_ADC_ConfigChannel+0x5c>
 800116a:	f3c4 0513 	ubfx	r5, r4, #0, #20
 800116e:	2d00      	cmp	r5, #0
 8001170:	f040 80a9 	bne.w	80012c6 <HAL_ADC_ConfigChannel+0x1a2>
 8001174:	fa00 f00c 	lsl.w	r0, r0, ip
 8001178:	69d4      	ldr	r4, [r2, #28]
 800117a:	4320      	orrs	r0, r4
 800117c:	61d0      	str	r0, [r2, #28]
 800117e:	e001      	b.n	8001184 <HAL_ADC_ConfigChannel+0x60>
 8001180:	f00c 0c1f 	and.w	ip, ip, #31
 8001184:	6848      	ldr	r0, [r1, #4]
 8001186:	251f      	movs	r5, #31
 8001188:	f102 0430 	add.w	r4, r2, #48	@ 0x30
 800118c:	ea4f 1e90 	mov.w	lr, r0, lsr #6
 8001190:	4028      	ands	r0, r5
 8001192:	f00e 0e0c 	and.w	lr, lr, #12
 8001196:	4085      	lsls	r5, r0
 8001198:	fa0c fc00 	lsl.w	ip, ip, r0
 800119c:	f854 000e 	ldr.w	r0, [r4, lr]
 80011a0:	ea20 0005 	bic.w	r0, r0, r5
 80011a4:	ea40 000c 	orr.w	r0, r0, ip
 80011a8:	f844 000e 	str.w	r0, [r4, lr]
 80011ac:	6890      	ldr	r0, [r2, #8]
 80011ae:	f010 0f04 	tst.w	r0, #4
 80011b2:	6890      	ldr	r0, [r2, #8]
 80011b4:	d165      	bne.n	8001282 <HAL_ADC_ConfigChannel+0x15e>
 80011b6:	0707      	lsls	r7, r0, #28
 80011b8:	d463      	bmi.n	8001282 <HAL_ADC_ConfigChannel+0x15e>
 80011ba:	680c      	ldr	r4, [r1, #0]
 80011bc:	f102 0c14 	add.w	ip, r2, #20
 80011c0:	f04f 0e07 	mov.w	lr, #7
 80011c4:	688e      	ldr	r6, [r1, #8]
 80011c6:	0de5      	lsrs	r5, r4, #23
 80011c8:	f3c4 5404 	ubfx	r4, r4, #20, #5
 80011cc:	f005 0504 	and.w	r5, r5, #4
 80011d0:	fa0e fe04 	lsl.w	lr, lr, r4
 80011d4:	fa06 f404 	lsl.w	r4, r6, r4
 80011d8:	4e87      	ldr	r6, [pc, #540]	@ (80013f8 <HAL_ADC_ConfigChannel+0x2d4>)
 80011da:	f85c 0005 	ldr.w	r0, [ip, r5]
 80011de:	42b2      	cmp	r2, r6
 80011e0:	ea20 000e 	bic.w	r0, r0, lr
 80011e4:	ea40 0004 	orr.w	r0, r0, r4
 80011e8:	f84c 0005 	str.w	r0, [ip, r5]
 80011ec:	6808      	ldr	r0, [r1, #0]
 80011ee:	e9d1 4504 	ldrd	r4, r5, [r1, #16]
 80011f2:	d071      	beq.n	80012d8 <HAL_ADC_ConfigChannel+0x1b4>
 80011f4:	4e81      	ldr	r6, [pc, #516]	@ (80013fc <HAL_ADC_ConfigChannel+0x2d8>)
 80011f6:	6836      	ldr	r6, [r6, #0]
 80011f8:	f006 4670 	and.w	r6, r6, #4026531840	@ 0xf0000000
 80011fc:	f1b6 5f80 	cmp.w	r6, #268435456	@ 0x10000000
 8001200:	68d6      	ldr	r6, [r2, #12]
 8001202:	d004      	beq.n	800120e <HAL_ADC_ConfigChannel+0xea>
 8001204:	f016 0f10 	tst.w	r6, #16
 8001208:	68d6      	ldr	r6, [r2, #12]
 800120a:	f040 80ef 	bne.w	80013ec <HAL_ADC_ConfigChannel+0x2c8>
 800120e:	f3c6 0682 	ubfx	r6, r6, #2, #3
 8001212:	0076      	lsls	r6, r6, #1
 8001214:	40b5      	lsls	r5, r6
 8001216:	2c04      	cmp	r4, #4
 8001218:	f000 8144 	beq.w	80014a4 <HAL_ADC_ConfigChannel+0x380>
 800121c:	f102 0660 	add.w	r6, r2, #96	@ 0x60
 8001220:	f000 4cf8 	and.w	ip, r0, #2080374784	@ 0x7c000000
 8001224:	f856 0024 	ldr.w	r0, [r6, r4, lsl #2]
 8001228:	f000 4000 	and.w	r0, r0, #2147483648	@ 0x80000000
 800122c:	ea40 000c 	orr.w	r0, r0, ip
 8001230:	4328      	orrs	r0, r5
 8001232:	f846 0024 	str.w	r0, [r6, r4, lsl #2]
 8001236:	f891 4021 	ldrb.w	r4, [r1, #33]	@ 0x21
 800123a:	690d      	ldr	r5, [r1, #16]
 800123c:	f1a4 0401 	sub.w	r4, r4, #1
 8001240:	f856 0025 	ldr.w	r0, [r6, r5, lsl #2]
 8001244:	fab4 f484 	clz	r4, r4
 8001248:	f020 4000 	bic.w	r0, r0, #2147483648	@ 0x80000000
 800124c:	0964      	lsrs	r4, r4, #5
 800124e:	ea40 70c4 	orr.w	r0, r0, r4, lsl #31
 8001252:	f846 0025 	str.w	r0, [r6, r5, lsl #2]
 8001256:	7e08      	ldrb	r0, [r1, #24]
 8001258:	690d      	ldr	r5, [r1, #16]
 800125a:	f1a0 0001 	sub.w	r0, r0, #1
 800125e:	6914      	ldr	r4, [r2, #16]
 8001260:	f005 051f 	and.w	r5, r5, #31
 8001264:	fab0 f080 	clz	r0, r0
 8001268:	f424 44f0 	bic.w	r4, r4, #30720	@ 0x7800
 800126c:	0940      	lsrs	r0, r0, #5
 800126e:	02c0      	lsls	r0, r0, #11
 8001270:	40a8      	lsls	r0, r5
 8001272:	4320      	orrs	r0, r4
 8001274:	6110      	str	r0, [r2, #16]
 8001276:	6890      	ldr	r0, [r2, #8]
 8001278:	07c0      	lsls	r0, r0, #31
 800127a:	d41f      	bmi.n	80012bc <HAL_ADC_ConfigChannel+0x198>
 800127c:	6808      	ldr	r0, [r1, #0]
 800127e:	68cd      	ldr	r5, [r1, #12]
 8001280:	e007      	b.n	8001292 <HAL_ADC_ConfigChannel+0x16e>
 8001282:	6890      	ldr	r0, [r2, #8]
 8001284:	07c6      	lsls	r6, r0, #31
 8001286:	d419      	bmi.n	80012bc <HAL_ADC_ConfigChannel+0x198>
 8001288:	6808      	ldr	r0, [r1, #0]
 800128a:	68cd      	ldr	r5, [r1, #12]
 800128c:	495a      	ldr	r1, [pc, #360]	@ (80013f8 <HAL_ADC_ConfigChannel+0x2d4>)
 800128e:	428a      	cmp	r2, r1
 8001290:	d057      	beq.n	8001342 <HAL_ADC_ConfigChannel+0x21e>
 8001292:	f005 0c18 	and.w	ip, r5, #24
 8001296:	4c5a      	ldr	r4, [pc, #360]	@ (8001400 <HAL_ADC_ConfigChannel+0x2dc>)
 8001298:	f8d2 10c0 	ldr.w	r1, [r2, #192]	@ 0xc0
 800129c:	fa24 f40c 	lsr.w	r4, r4, ip
 80012a0:	f3c0 0c13 	ubfx	ip, r0, #0, #20
 80012a4:	4004      	ands	r4, r0
 80012a6:	ea21 010c 	bic.w	r1, r1, ip
 80012aa:	4321      	orrs	r1, r4
 80012ac:	f8c2 10c0 	str.w	r1, [r2, #192]	@ 0xc0
 80012b0:	4954      	ldr	r1, [pc, #336]	@ (8001404 <HAL_ADC_ConfigChannel+0x2e0>)
 80012b2:	428d      	cmp	r5, r1
 80012b4:	f000 808e 	beq.w	80013d4 <HAL_ADC_ConfigChannel+0x2b0>
 80012b8:	2800      	cmp	r0, #0
 80012ba:	db76      	blt.n	80013aa <HAL_ADC_ConfigChannel+0x286>
 80012bc:	2000      	movs	r0, #0
 80012be:	e747      	b.n	8001150 <HAL_ADC_ConfigChannel+0x2c>
 80012c0:	2002      	movs	r0, #2
 80012c2:	b003      	add	sp, #12
 80012c4:	bdf0      	pop	{r4, r5, r6, r7, pc}
 80012c6:	fa94 f4a4 	rbit	r4, r4
 80012ca:	2c00      	cmp	r4, #0
 80012cc:	f43f af54 	beq.w	8001178 <HAL_ADC_ConfigChannel+0x54>
 80012d0:	fab4 f484 	clz	r4, r4
 80012d4:	40a0      	lsls	r0, r4
 80012d6:	e74f      	b.n	8001178 <HAL_ADC_ConfigChannel+0x54>
 80012d8:	2c04      	cmp	r4, #4
 80012da:	68d6      	ldr	r6, [r2, #12]
 80012dc:	f000 8130 	beq.w	8001540 <HAL_ADC_ConfigChannel+0x41c>
 80012e0:	f3c6 06c1 	ubfx	r6, r6, #3, #2
 80012e4:	f000 47f8 	and.w	r7, r0, #2080374784	@ 0x7c000000
 80012e8:	0070      	lsls	r0, r6, #1
 80012ea:	4e47      	ldr	r6, [pc, #284]	@ (8001408 <HAL_ADC_ConfigChannel+0x2e4>)
 80012ec:	fa05 f000 	lsl.w	r0, r5, r0
 80012f0:	4d46      	ldr	r5, [pc, #280]	@ (800140c <HAL_ADC_ConfigChannel+0x2e8>)
 80012f2:	4338      	orrs	r0, r7
 80012f4:	f855 7024 	ldr.w	r7, [r5, r4, lsl #2]
 80012f8:	403e      	ands	r6, r7
 80012fa:	4330      	orrs	r0, r6
 80012fc:	f040 4000 	orr.w	r0, r0, #2147483648	@ 0x80000000
 8001300:	f845 0024 	str.w	r0, [r5, r4, lsl #2]
 8001304:	690c      	ldr	r4, [r1, #16]
 8001306:	69ce      	ldr	r6, [r1, #28]
 8001308:	f855 0024 	ldr.w	r0, [r5, r4, lsl #2]
 800130c:	f020 7080 	bic.w	r0, r0, #16777216	@ 0x1000000
 8001310:	4330      	orrs	r0, r6
 8001312:	f845 0024 	str.w	r0, [r5, r4, lsl #2]
 8001316:	f891 4020 	ldrb.w	r4, [r1, #32]
 800131a:	690e      	ldr	r6, [r1, #16]
 800131c:	f1a4 0401 	sub.w	r4, r4, #1
 8001320:	f855 0026 	ldr.w	r0, [r5, r6, lsl #2]
 8001324:	fab4 f484 	clz	r4, r4
 8001328:	f020 7000 	bic.w	r0, r0, #33554432	@ 0x2000000
 800132c:	0964      	lsrs	r4, r4, #5
 800132e:	ea40 6044 	orr.w	r0, r0, r4, lsl #25
 8001332:	f845 0026 	str.w	r0, [r5, r6, lsl #2]
 8001336:	4830      	ldr	r0, [pc, #192]	@ (80013f8 <HAL_ADC_ConfigChannel+0x2d4>)
 8001338:	6880      	ldr	r0, [r0, #8]
 800133a:	07c4      	lsls	r4, r0, #31
 800133c:	d4be      	bmi.n	80012bc <HAL_ADC_ConfigChannel+0x198>
 800133e:	6808      	ldr	r0, [r1, #0]
 8001340:	68cd      	ldr	r5, [r1, #12]
 8001342:	4e2d      	ldr	r6, [pc, #180]	@ (80013f8 <HAL_ADC_ConfigChannel+0x2d4>)
 8001344:	f005 0118 	and.w	r1, r5, #24
 8001348:	4c2d      	ldr	r4, [pc, #180]	@ (8001400 <HAL_ADC_ConfigChannel+0x2dc>)
 800134a:	f3c0 0c13 	ubfx	ip, r0, #0, #20
 800134e:	2800      	cmp	r0, #0
 8001350:	fa24 f401 	lsr.w	r4, r4, r1
 8001354:	f8d6 10b0 	ldr.w	r1, [r6, #176]	@ 0xb0
 8001358:	ea04 0400 	and.w	r4, r4, r0
 800135c:	ea21 010c 	bic.w	r1, r1, ip
 8001360:	ea41 0104 	orr.w	r1, r1, r4
 8001364:	f8c6 10b0 	str.w	r1, [r6, #176]	@ 0xb0
 8001368:	daa8      	bge.n	80012bc <HAL_ADC_ConfigChannel+0x198>
 800136a:	4c29      	ldr	r4, [pc, #164]	@ (8001410 <HAL_ADC_ConfigChannel+0x2ec>)
 800136c:	4922      	ldr	r1, [pc, #136]	@ (80013f8 <HAL_ADC_ConfigChannel+0x2d4>)
 800136e:	68a6      	ldr	r6, [r4, #8]
 8001370:	688d      	ldr	r5, [r1, #8]
 8001372:	07ed      	lsls	r5, r5, #31
 8001374:	f53f aee7 	bmi.w	8001146 <HAL_ADC_ConfigChannel+0x22>
 8001378:	4d26      	ldr	r5, [pc, #152]	@ (8001414 <HAL_ADC_ConfigChannel+0x2f0>)
 800137a:	f006 77e0 	and.w	r7, r6, #29360128	@ 0x1c00000
 800137e:	42a8      	cmp	r0, r5
 8001380:	f000 8119 	beq.w	80015b6 <HAL_ADC_ConfigChannel+0x492>
 8001384:	4d24      	ldr	r5, [pc, #144]	@ (8001418 <HAL_ADC_ConfigChannel+0x2f4>)
 8001386:	42a8      	cmp	r0, r5
 8001388:	f000 8107 	beq.w	800159a <HAL_ADC_ConfigChannel+0x476>
 800138c:	4d23      	ldr	r5, [pc, #140]	@ (800141c <HAL_ADC_ConfigChannel+0x2f8>)
 800138e:	42a8      	cmp	r0, r5
 8001390:	d194      	bne.n	80012bc <HAL_ADC_ConfigChannel+0x198>
 8001392:	0275      	lsls	r5, r6, #9
 8001394:	d492      	bmi.n	80012bc <HAL_ADC_ConfigChannel+0x198>
 8001396:	428a      	cmp	r2, r1
 8001398:	d190      	bne.n	80012bc <HAL_ADC_ConfigChannel+0x198>
 800139a:	68a2      	ldr	r2, [r4, #8]
 800139c:	f022 72e0 	bic.w	r2, r2, #29360128	@ 0x1c00000
 80013a0:	433a      	orrs	r2, r7
 80013a2:	f442 0280 	orr.w	r2, r2, #4194304	@ 0x400000
 80013a6:	60a2      	str	r2, [r4, #8]
 80013a8:	e788      	b.n	80012bc <HAL_ADC_ConfigChannel+0x198>
 80013aa:	491d      	ldr	r1, [pc, #116]	@ (8001420 <HAL_ADC_ConfigChannel+0x2fc>)
 80013ac:	428a      	cmp	r2, r1
 80013ae:	d003      	beq.n	80013b8 <HAL_ADC_ConfigChannel+0x294>
 80013b0:	f501 7180 	add.w	r1, r1, #256	@ 0x100
 80013b4:	428a      	cmp	r2, r1
 80013b6:	d1d8      	bne.n	800136a <HAL_ADC_ConfigChannel+0x246>
 80013b8:	491a      	ldr	r1, [pc, #104]	@ (8001424 <HAL_ADC_ConfigChannel+0x300>)
 80013ba:	4a19      	ldr	r2, [pc, #100]	@ (8001420 <HAL_ADC_ConfigChannel+0x2fc>)
 80013bc:	6889      	ldr	r1, [r1, #8]
 80013be:	6892      	ldr	r2, [r2, #8]
 80013c0:	f012 0f01 	tst.w	r2, #1
 80013c4:	4a18      	ldr	r2, [pc, #96]	@ (8001428 <HAL_ADC_ConfigChannel+0x304>)
 80013c6:	6892      	ldr	r2, [r2, #8]
 80013c8:	f47f aebd 	bne.w	8001146 <HAL_ADC_ConfigChannel+0x22>
 80013cc:	07d4      	lsls	r4, r2, #31
 80013ce:	f53f aeba 	bmi.w	8001146 <HAL_ADC_ConfigChannel+0x22>
 80013d2:	e773      	b.n	80012bc <HAL_ADC_ConfigChannel+0x198>
 80013d4:	4912      	ldr	r1, [pc, #72]	@ (8001420 <HAL_ADC_ConfigChannel+0x2fc>)
 80013d6:	428a      	cmp	r2, r1
 80013d8:	d028      	beq.n	800142c <HAL_ADC_ConfigChannel+0x308>
 80013da:	4913      	ldr	r1, [pc, #76]	@ (8001428 <HAL_ADC_ConfigChannel+0x304>)
 80013dc:	428a      	cmp	r2, r1
 80013de:	f000 8089 	beq.w	80014f4 <HAL_ADC_ConfigChannel+0x3d0>
 80013e2:	69d1      	ldr	r1, [r2, #28]
 80013e4:	f041 0101 	orr.w	r1, r1, #1
 80013e8:	61d1      	str	r1, [r2, #28]
 80013ea:	e765      	b.n	80012b8 <HAL_ADC_ConfigChannel+0x194>
 80013ec:	0876      	lsrs	r6, r6, #1
 80013ee:	f006 0608 	and.w	r6, r6, #8
 80013f2:	40b5      	lsls	r5, r6
 80013f4:	e70f      	b.n	8001216 <HAL_ADC_ConfigChannel+0xf2>
 80013f6:	bf00      	nop
 80013f8:	58026000 	.word	0x58026000
 80013fc:	5c001000 	.word	0x5c001000
 8001400:	000fffff 	.word	0x000fffff
 8001404:	47ff0000 	.word	0x47ff0000
 8001408:	03fff000 	.word	0x03fff000
 800140c:	58026060 	.word	0x58026060
 8001410:	58026300 	.word	0x58026300
 8001414:	c7520000 	.word	0xc7520000
 8001418:	c3210000 	.word	0xc3210000
 800141c:	cb840000 	.word	0xcb840000
 8001420:	40022000 	.word	0x40022000
 8001424:	40022300 	.word	0x40022300
 8001428:	40022100 	.word	0x40022100
 800142c:	49a7      	ldr	r1, [pc, #668]	@ (80016cc <HAL_ADC_ConfigChannel+0x5a8>)
 800142e:	4288      	cmp	r0, r1
 8001430:	f000 80af 	beq.w	8001592 <HAL_ADC_ConfigChannel+0x46e>
 8001434:	49a6      	ldr	r1, [pc, #664]	@ (80016d0 <HAL_ADC_ConfigChannel+0x5ac>)
 8001436:	4288      	cmp	r0, r1
 8001438:	f000 80ad 	beq.w	8001596 <HAL_ADC_ConfigChannel+0x472>
 800143c:	49a5      	ldr	r1, [pc, #660]	@ (80016d4 <HAL_ADC_ConfigChannel+0x5b0>)
 800143e:	4288      	cmp	r0, r1
 8001440:	f000 80dd 	beq.w	80015fe <HAL_ADC_ConfigChannel+0x4da>
 8001444:	49a4      	ldr	r1, [pc, #656]	@ (80016d8 <HAL_ADC_ConfigChannel+0x5b4>)
 8001446:	4288      	cmp	r0, r1
 8001448:	f000 8139 	beq.w	80016be <HAL_ADC_ConfigChannel+0x59a>
 800144c:	f101 6186 	add.w	r1, r1, #70254592	@ 0x4300000
 8001450:	3110      	adds	r1, #16
 8001452:	4288      	cmp	r0, r1
 8001454:	f000 8135 	beq.w	80016c2 <HAL_ADC_ConfigChannel+0x59e>
 8001458:	49a0      	ldr	r1, [pc, #640]	@ (80016dc <HAL_ADC_ConfigChannel+0x5b8>)
 800145a:	4288      	cmp	r0, r1
 800145c:	f000 8133 	beq.w	80016c6 <HAL_ADC_ConfigChannel+0x5a2>
 8001460:	f101 2104 	add.w	r1, r1, #67109888	@ 0x4000400
 8001464:	f501 1140 	add.w	r1, r1, #3145728	@ 0x300000
 8001468:	4288      	cmp	r0, r1
 800146a:	f000 8151 	beq.w	8001710 <HAL_ADC_ConfigChannel+0x5ec>
 800146e:	f101 6186 	add.w	r1, r1, #70254592	@ 0x4300000
 8001472:	f501 6100 	add.w	r1, r1, #2048	@ 0x800
 8001476:	4288      	cmp	r0, r1
 8001478:	d060      	beq.n	800153c <HAL_ADC_ConfigChannel+0x418>
 800147a:	4999      	ldr	r1, [pc, #612]	@ (80016e0 <HAL_ADC_ConfigChannel+0x5bc>)
 800147c:	4288      	cmp	r0, r1
 800147e:	f000 8149 	beq.w	8001714 <HAL_ADC_ConfigChannel+0x5f0>
 8001482:	4998      	ldr	r1, [pc, #608]	@ (80016e4 <HAL_ADC_ConfigChannel+0x5c0>)
 8001484:	4288      	cmp	r0, r1
 8001486:	d1ac      	bne.n	80013e2 <HAL_ADC_ConfigChannel+0x2be>
 8001488:	4997      	ldr	r1, [pc, #604]	@ (80016e8 <HAL_ADC_ConfigChannel+0x5c4>)
 800148a:	fa91 f1a1 	rbit	r1, r1
 800148e:	2900      	cmp	r1, #0
 8001490:	f000 80b3 	beq.w	80015fa <HAL_ADC_ConfigChannel+0x4d6>
 8001494:	fab1 f181 	clz	r1, r1
 8001498:	2001      	movs	r0, #1
 800149a:	4088      	lsls	r0, r1
 800149c:	69d1      	ldr	r1, [r2, #28]
 800149e:	4301      	orrs	r1, r0
 80014a0:	61d1      	str	r1, [r2, #28]
 80014a2:	e70b      	b.n	80012bc <HAL_ADC_ConfigChannel+0x198>
 80014a4:	6e15      	ldr	r5, [r2, #96]	@ 0x60
 80014a6:	0684      	lsls	r4, r0, #26
 80014a8:	f005 45f8 	and.w	r5, r5, #2080374784	@ 0x7c000000
 80014ac:	ebb5 6f80 	cmp.w	r5, r0, lsl #26
 80014b0:	d103      	bne.n	80014ba <HAL_ADC_ConfigChannel+0x396>
 80014b2:	6e10      	ldr	r0, [r2, #96]	@ 0x60
 80014b4:	f020 4000 	bic.w	r0, r0, #2147483648	@ 0x80000000
 80014b8:	6610      	str	r0, [r2, #96]	@ 0x60
 80014ba:	6e50      	ldr	r0, [r2, #100]	@ 0x64
 80014bc:	f000 40f8 	and.w	r0, r0, #2080374784	@ 0x7c000000
 80014c0:	4284      	cmp	r4, r0
 80014c2:	d103      	bne.n	80014cc <HAL_ADC_ConfigChannel+0x3a8>
 80014c4:	6e50      	ldr	r0, [r2, #100]	@ 0x64
 80014c6:	f020 4000 	bic.w	r0, r0, #2147483648	@ 0x80000000
 80014ca:	6650      	str	r0, [r2, #100]	@ 0x64
 80014cc:	6e90      	ldr	r0, [r2, #104]	@ 0x68
 80014ce:	f000 40f8 	and.w	r0, r0, #2080374784	@ 0x7c000000
 80014d2:	4284      	cmp	r4, r0
 80014d4:	d103      	bne.n	80014de <HAL_ADC_ConfigChannel+0x3ba>
 80014d6:	6e90      	ldr	r0, [r2, #104]	@ 0x68
 80014d8:	f020 4000 	bic.w	r0, r0, #2147483648	@ 0x80000000
 80014dc:	6690      	str	r0, [r2, #104]	@ 0x68
 80014de:	6ed0      	ldr	r0, [r2, #108]	@ 0x6c
 80014e0:	f000 40f8 	and.w	r0, r0, #2080374784	@ 0x7c000000
 80014e4:	4284      	cmp	r4, r0
 80014e6:	f47f aec6 	bne.w	8001276 <HAL_ADC_ConfigChannel+0x152>
 80014ea:	6ed0      	ldr	r0, [r2, #108]	@ 0x6c
 80014ec:	f020 4000 	bic.w	r0, r0, #2147483648	@ 0x80000000
 80014f0:	66d0      	str	r0, [r2, #108]	@ 0x6c
 80014f2:	e6c0      	b.n	8001276 <HAL_ADC_ConfigChannel+0x152>
 80014f4:	4975      	ldr	r1, [pc, #468]	@ (80016cc <HAL_ADC_ConfigChannel+0x5a8>)
 80014f6:	4288      	cmp	r0, r1
 80014f8:	d04b      	beq.n	8001592 <HAL_ADC_ConfigChannel+0x46e>
 80014fa:	4975      	ldr	r1, [pc, #468]	@ (80016d0 <HAL_ADC_ConfigChannel+0x5ac>)
 80014fc:	4288      	cmp	r0, r1
 80014fe:	d04a      	beq.n	8001596 <HAL_ADC_ConfigChannel+0x472>
 8001500:	4974      	ldr	r1, [pc, #464]	@ (80016d4 <HAL_ADC_ConfigChannel+0x5b0>)
 8001502:	4288      	cmp	r0, r1
 8001504:	d07b      	beq.n	80015fe <HAL_ADC_ConfigChannel+0x4da>
 8001506:	4974      	ldr	r1, [pc, #464]	@ (80016d8 <HAL_ADC_ConfigChannel+0x5b4>)
 8001508:	4288      	cmp	r0, r1
 800150a:	f000 80d8 	beq.w	80016be <HAL_ADC_ConfigChannel+0x59a>
 800150e:	f101 6186 	add.w	r1, r1, #70254592	@ 0x4300000
 8001512:	3110      	adds	r1, #16
 8001514:	4288      	cmp	r0, r1
 8001516:	f000 80d4 	beq.w	80016c2 <HAL_ADC_ConfigChannel+0x59e>
 800151a:	4970      	ldr	r1, [pc, #448]	@ (80016dc <HAL_ADC_ConfigChannel+0x5b8>)
 800151c:	4288      	cmp	r0, r1
 800151e:	f000 80d2 	beq.w	80016c6 <HAL_ADC_ConfigChannel+0x5a2>
 8001522:	f101 2104 	add.w	r1, r1, #67109888	@ 0x4000400
 8001526:	f501 1140 	add.w	r1, r1, #3145728	@ 0x300000
 800152a:	4288      	cmp	r0, r1
 800152c:	f000 80f0 	beq.w	8001710 <HAL_ADC_ConfigChannel+0x5ec>
 8001530:	f101 6186 	add.w	r1, r1, #70254592	@ 0x4300000
 8001534:	f501 6100 	add.w	r1, r1, #2048	@ 0x800
 8001538:	4288      	cmp	r0, r1
 800153a:	d1a2      	bne.n	8001482 <HAL_ADC_ConfigChannel+0x35e>
 800153c:	496b      	ldr	r1, [pc, #428]	@ (80016ec <HAL_ADC_ConfigChannel+0x5c8>)
 800153e:	e7a4      	b.n	800148a <HAL_ADC_ConfigChannel+0x366>
 8001540:	6e14      	ldr	r4, [r2, #96]	@ 0x60
 8001542:	f3c0 0513 	ubfx	r5, r0, #0, #20
 8001546:	6e14      	ldr	r4, [r2, #96]	@ 0x60
 8001548:	f3c4 6484 	ubfx	r4, r4, #26, #5
 800154c:	2d00      	cmp	r5, #0
 800154e:	d158      	bne.n	8001602 <HAL_ADC_ConfigChannel+0x4de>
 8001550:	f3c0 6084 	ubfx	r0, r0, #26, #5
 8001554:	4284      	cmp	r4, r0
 8001556:	d07f      	beq.n	8001658 <HAL_ADC_ConfigChannel+0x534>
 8001558:	6e54      	ldr	r4, [r2, #100]	@ 0x64
 800155a:	6e54      	ldr	r4, [r2, #100]	@ 0x64
 800155c:	f3c4 6484 	ubfx	r4, r4, #26, #5
 8001560:	4284      	cmp	r4, r0
 8001562:	f000 809b 	beq.w	800169c <HAL_ADC_ConfigChannel+0x578>
 8001566:	4c62      	ldr	r4, [pc, #392]	@ (80016f0 <HAL_ADC_ConfigChannel+0x5cc>)
 8001568:	6ea5      	ldr	r5, [r4, #104]	@ 0x68
 800156a:	6ea4      	ldr	r4, [r4, #104]	@ 0x68
 800156c:	f3c4 6484 	ubfx	r4, r4, #26, #5
 8001570:	4284      	cmp	r4, r0
 8001572:	f000 8082 	beq.w	800167a <HAL_ADC_ConfigChannel+0x556>
 8001576:	4c5e      	ldr	r4, [pc, #376]	@ (80016f0 <HAL_ADC_ConfigChannel+0x5cc>)
 8001578:	6ee5      	ldr	r5, [r4, #108]	@ 0x6c
 800157a:	6ee4      	ldr	r4, [r4, #108]	@ 0x6c
 800157c:	f3c4 6484 	ubfx	r4, r4, #26, #5
 8001580:	42a0      	cmp	r0, r4
 8001582:	f47f aed8 	bne.w	8001336 <HAL_ADC_ConfigChannel+0x212>
 8001586:	4c5a      	ldr	r4, [pc, #360]	@ (80016f0 <HAL_ADC_ConfigChannel+0x5cc>)
 8001588:	6ee0      	ldr	r0, [r4, #108]	@ 0x6c
 800158a:	f020 4000 	bic.w	r0, r0, #2147483648	@ 0x80000000
 800158e:	66e0      	str	r0, [r4, #108]	@ 0x6c
 8001590:	e6d1      	b.n	8001336 <HAL_ADC_ConfigChannel+0x212>
 8001592:	2101      	movs	r1, #1
 8001594:	e779      	b.n	800148a <HAL_ADC_ConfigChannel+0x366>
 8001596:	4957      	ldr	r1, [pc, #348]	@ (80016f4 <HAL_ADC_ConfigChannel+0x5d0>)
 8001598:	e777      	b.n	800148a <HAL_ADC_ConfigChannel+0x366>
 800159a:	01f6      	lsls	r6, r6, #7
 800159c:	f53f ae8e 	bmi.w	80012bc <HAL_ADC_ConfigChannel+0x198>
 80015a0:	428a      	cmp	r2, r1
 80015a2:	f47f ae8b 	bne.w	80012bc <HAL_ADC_ConfigChannel+0x198>
 80015a6:	68a2      	ldr	r2, [r4, #8]
 80015a8:	f022 72e0 	bic.w	r2, r2, #29360128	@ 0x1c00000
 80015ac:	433a      	orrs	r2, r7
 80015ae:	f042 7280 	orr.w	r2, r2, #16777216	@ 0x1000000
 80015b2:	60a2      	str	r2, [r4, #8]
 80015b4:	e682      	b.n	80012bc <HAL_ADC_ConfigChannel+0x198>
 80015b6:	0230      	lsls	r0, r6, #8
 80015b8:	f53f ae80 	bmi.w	80012bc <HAL_ADC_ConfigChannel+0x198>
 80015bc:	428a      	cmp	r2, r1
 80015be:	f47f ae7d 	bne.w	80012bc <HAL_ADC_ConfigChannel+0x198>
 80015c2:	68a2      	ldr	r2, [r4, #8]
 80015c4:	494c      	ldr	r1, [pc, #304]	@ (80016f8 <HAL_ADC_ConfigChannel+0x5d4>)
 80015c6:	f022 72e0 	bic.w	r2, r2, #29360128	@ 0x1c00000
 80015ca:	433a      	orrs	r2, r7
 80015cc:	f442 0200 	orr.w	r2, r2, #8388608	@ 0x800000
 80015d0:	60a2      	str	r2, [r4, #8]
 80015d2:	680a      	ldr	r2, [r1, #0]
 80015d4:	4949      	ldr	r1, [pc, #292]	@ (80016fc <HAL_ADC_ConfigChannel+0x5d8>)
 80015d6:	0992      	lsrs	r2, r2, #6
 80015d8:	fba1 1202 	umull	r1, r2, r1, r2
 80015dc:	0992      	lsrs	r2, r2, #6
 80015de:	3201      	adds	r2, #1
 80015e0:	0052      	lsls	r2, r2, #1
 80015e2:	9201      	str	r2, [sp, #4]
 80015e4:	9a01      	ldr	r2, [sp, #4]
 80015e6:	2a00      	cmp	r2, #0
 80015e8:	f43f ae68 	beq.w	80012bc <HAL_ADC_ConfigChannel+0x198>
 80015ec:	9a01      	ldr	r2, [sp, #4]
 80015ee:	3a01      	subs	r2, #1
 80015f0:	9201      	str	r2, [sp, #4]
 80015f2:	9a01      	ldr	r2, [sp, #4]
 80015f4:	2a00      	cmp	r2, #0
 80015f6:	d1f9      	bne.n	80015ec <HAL_ADC_ConfigChannel+0x4c8>
 80015f8:	e660      	b.n	80012bc <HAL_ADC_ConfigChannel+0x198>
 80015fa:	2001      	movs	r0, #1
 80015fc:	e74e      	b.n	800149c <HAL_ADC_ConfigChannel+0x378>
 80015fe:	4940      	ldr	r1, [pc, #256]	@ (8001700 <HAL_ADC_ConfigChannel+0x5dc>)
 8001600:	e743      	b.n	800148a <HAL_ADC_ConfigChannel+0x366>
 8001602:	fa90 f5a0 	rbit	r5, r0
 8001606:	b11d      	cbz	r5, 8001610 <HAL_ADC_ConfigChannel+0x4ec>
 8001608:	fab5 f585 	clz	r5, r5
 800160c:	42ac      	cmp	r4, r5
 800160e:	d023      	beq.n	8001658 <HAL_ADC_ConfigChannel+0x534>
 8001610:	6e54      	ldr	r4, [r2, #100]	@ 0x64
 8001612:	6e54      	ldr	r4, [r2, #100]	@ 0x64
 8001614:	f3c4 6484 	ubfx	r4, r4, #26, #5
 8001618:	fa90 f5a0 	rbit	r5, r0
 800161c:	b11d      	cbz	r5, 8001626 <HAL_ADC_ConfigChannel+0x502>
 800161e:	fab5 f585 	clz	r5, r5
 8001622:	42a5      	cmp	r5, r4
 8001624:	d03a      	beq.n	800169c <HAL_ADC_ConfigChannel+0x578>
 8001626:	4c32      	ldr	r4, [pc, #200]	@ (80016f0 <HAL_ADC_ConfigChannel+0x5cc>)
 8001628:	6ea5      	ldr	r5, [r4, #104]	@ 0x68
 800162a:	6ea4      	ldr	r4, [r4, #104]	@ 0x68
 800162c:	f3c4 6484 	ubfx	r4, r4, #26, #5
 8001630:	fa90 f5a0 	rbit	r5, r0
 8001634:	b11d      	cbz	r5, 800163e <HAL_ADC_ConfigChannel+0x51a>
 8001636:	fab5 f585 	clz	r5, r5
 800163a:	42a5      	cmp	r5, r4
 800163c:	d01d      	beq.n	800167a <HAL_ADC_ConfigChannel+0x556>
 800163e:	4c2c      	ldr	r4, [pc, #176]	@ (80016f0 <HAL_ADC_ConfigChannel+0x5cc>)
 8001640:	6ee5      	ldr	r5, [r4, #108]	@ 0x6c
 8001642:	6ee4      	ldr	r4, [r4, #108]	@ 0x6c
 8001644:	f3c4 6484 	ubfx	r4, r4, #26, #5
 8001648:	fa90 f0a0 	rbit	r0, r0
 800164c:	2800      	cmp	r0, #0
 800164e:	f43f ae72 	beq.w	8001336 <HAL_ADC_ConfigChannel+0x212>
 8001652:	fab0 f080 	clz	r0, r0
 8001656:	e793      	b.n	8001580 <HAL_ADC_ConfigChannel+0x45c>
 8001658:	4825      	ldr	r0, [pc, #148]	@ (80016f0 <HAL_ADC_ConfigChannel+0x5cc>)
 800165a:	6e04      	ldr	r4, [r0, #96]	@ 0x60
 800165c:	f024 4400 	bic.w	r4, r4, #2147483648	@ 0x80000000
 8001660:	6604      	str	r4, [r0, #96]	@ 0x60
 8001662:	6e44      	ldr	r4, [r0, #100]	@ 0x64
 8001664:	6e44      	ldr	r4, [r0, #100]	@ 0x64
 8001666:	6808      	ldr	r0, [r1, #0]
 8001668:	f3c4 6484 	ubfx	r4, r4, #26, #5
 800166c:	f3c0 0513 	ubfx	r5, r0, #0, #20
 8001670:	2d00      	cmp	r5, #0
 8001672:	d1d1      	bne.n	8001618 <HAL_ADC_ConfigChannel+0x4f4>
 8001674:	f3c0 6084 	ubfx	r0, r0, #26, #5
 8001678:	e772      	b.n	8001560 <HAL_ADC_ConfigChannel+0x43c>
 800167a:	481d      	ldr	r0, [pc, #116]	@ (80016f0 <HAL_ADC_ConfigChannel+0x5cc>)
 800167c:	6e84      	ldr	r4, [r0, #104]	@ 0x68
 800167e:	f024 4400 	bic.w	r4, r4, #2147483648	@ 0x80000000
 8001682:	6684      	str	r4, [r0, #104]	@ 0x68
 8001684:	6ec4      	ldr	r4, [r0, #108]	@ 0x6c
 8001686:	6ec4      	ldr	r4, [r0, #108]	@ 0x6c
 8001688:	6808      	ldr	r0, [r1, #0]
 800168a:	f3c4 6484 	ubfx	r4, r4, #26, #5
 800168e:	f3c0 0513 	ubfx	r5, r0, #0, #20
 8001692:	2d00      	cmp	r5, #0
 8001694:	d1d8      	bne.n	8001648 <HAL_ADC_ConfigChannel+0x524>
 8001696:	f3c0 6084 	ubfx	r0, r0, #26, #5
 800169a:	e771      	b.n	8001580 <HAL_ADC_ConfigChannel+0x45c>
 800169c:	4814      	ldr	r0, [pc, #80]	@ (80016f0 <HAL_ADC_ConfigChannel+0x5cc>)
 800169e:	6e44      	ldr	r4, [r0, #100]	@ 0x64
 80016a0:	f024 4400 	bic.w	r4, r4, #2147483648	@ 0x80000000
 80016a4:	6644      	str	r4, [r0, #100]	@ 0x64
 80016a6:	6e84      	ldr	r4, [r0, #104]	@ 0x68
 80016a8:	6e84      	ldr	r4, [r0, #104]	@ 0x68
 80016aa:	6808      	ldr	r0, [r1, #0]
 80016ac:	f3c4 6484 	ubfx	r4, r4, #26, #5
 80016b0:	f3c0 0513 	ubfx	r5, r0, #0, #20
 80016b4:	2d00      	cmp	r5, #0
 80016b6:	d1bb      	bne.n	8001630 <HAL_ADC_ConfigChannel+0x50c>
 80016b8:	f3c0 6084 	ubfx	r0, r0, #26, #5
 80016bc:	e758      	b.n	8001570 <HAL_ADC_ConfigChannel+0x44c>
 80016be:	4911      	ldr	r1, [pc, #68]	@ (8001704 <HAL_ADC_ConfigChannel+0x5e0>)
 80016c0:	e6e3      	b.n	800148a <HAL_ADC_ConfigChannel+0x366>
 80016c2:	4911      	ldr	r1, [pc, #68]	@ (8001708 <HAL_ADC_ConfigChannel+0x5e4>)
 80016c4:	e6e1      	b.n	800148a <HAL_ADC_ConfigChannel+0x366>
 80016c6:	4911      	ldr	r1, [pc, #68]	@ (800170c <HAL_ADC_ConfigChannel+0x5e8>)
 80016c8:	e6df      	b.n	800148a <HAL_ADC_ConfigChannel+0x366>
 80016ca:	bf00      	nop
 80016cc:	04300002 	.word	0x04300002
 80016d0:	08600004 	.word	0x08600004
 80016d4:	0c900008 	.word	0x0c900008
 80016d8:	10c00010 	.word	0x10c00010
 80016dc:	2a000400 	.word	0x2a000400
 80016e0:	43210000 	.word	0x43210000
 80016e4:	4b840000 	.word	0x4b840000
 80016e8:	4fb80000 	.word	0x4fb80000
 80016ec:	36902000 	.word	0x36902000
 80016f0:	58026000 	.word	0x58026000
 80016f4:	19200040 	.word	0x19200040
 80016f8:	24000004 	.word	0x24000004
 80016fc:	053e2d63 	.word	0x053e2d63
 8001700:	1d500080 	.word	0x1d500080
 8001704:	21800100 	.word	0x21800100
 8001708:	25b00200 	.word	0x25b00200
 800170c:	2e300800 	.word	0x2e300800
 8001710:	4901      	ldr	r1, [pc, #4]	@ (8001718 <HAL_ADC_ConfigChannel+0x5f4>)
 8001712:	e6ba      	b.n	800148a <HAL_ADC_ConfigChannel+0x366>
 8001714:	4901      	ldr	r1, [pc, #4]	@ (800171c <HAL_ADC_ConfigChannel+0x5f8>)
 8001716:	e6b8      	b.n	800148a <HAL_ADC_ConfigChannel+0x366>
 8001718:	32601000 	.word	0x32601000
 800171c:	47520000 	.word	0x47520000

08001720 <ADC_ConversionStop>:
 8001720:	6803      	ldr	r3, [r0, #0]
 8001722:	689a      	ldr	r2, [r3, #8]
 8001724:	f012 0f04 	tst.w	r2, #4
 8001728:	689a      	ldr	r2, [r3, #8]
 800172a:	b570      	push	{r4, r5, r6, lr}
 800172c:	4604      	mov	r4, r0
 800172e:	d101      	bne.n	8001734 <ADC_ConversionStop+0x14>
 8001730:	0716      	lsls	r6, r2, #28
 8001732:	d53a      	bpl.n	80017aa <ADC_ConversionStop+0x8a>
 8001734:	68da      	ldr	r2, [r3, #12]
 8001736:	0195      	lsls	r5, r2, #6
 8001738:	d504      	bpl.n	8001744 <ADC_ConversionStop+0x24>
 800173a:	8b20      	ldrh	r0, [r4, #24]
 800173c:	f240 1201 	movw	r2, #257	@ 0x101
 8001740:	4290      	cmp	r0, r2
 8001742:	d041      	beq.n	80017c8 <ADC_ConversionStop+0xa8>
 8001744:	2902      	cmp	r1, #2
 8001746:	689a      	ldr	r2, [r3, #8]
 8001748:	d031      	beq.n	80017ae <ADC_ConversionStop+0x8e>
 800174a:	0750      	lsls	r0, r2, #29
 800174c:	d502      	bpl.n	8001754 <ADC_ConversionStop+0x34>
 800174e:	689a      	ldr	r2, [r3, #8]
 8001750:	0792      	lsls	r2, r2, #30
 8001752:	d553      	bpl.n	80017fc <ADC_ConversionStop+0xdc>
 8001754:	2901      	cmp	r1, #1
 8001756:	d04f      	beq.n	80017f8 <ADC_ConversionStop+0xd8>
 8001758:	689a      	ldr	r2, [r3, #8]
 800175a:	0710      	lsls	r0, r2, #28
 800175c:	d508      	bpl.n	8001770 <ADC_ConversionStop+0x50>
 800175e:	689a      	ldr	r2, [r3, #8]
 8001760:	0792      	lsls	r2, r2, #30
 8001762:	d405      	bmi.n	8001770 <ADC_ConversionStop+0x50>
 8001764:	6898      	ldr	r0, [r3, #8]
 8001766:	4a29      	ldr	r2, [pc, #164]	@ (800180c <ADC_ConversionStop+0xec>)
 8001768:	4002      	ands	r2, r0
 800176a:	f042 0220 	orr.w	r2, r2, #32
 800176e:	609a      	str	r2, [r3, #8]
 8001770:	2903      	cmp	r1, #3
 8001772:	d141      	bne.n	80017f8 <ADC_ConversionStop+0xd8>
 8001774:	250c      	movs	r5, #12
 8001776:	f7ff fc49 	bl	800100c <HAL_GetTick>
 800177a:	6823      	ldr	r3, [r4, #0]
 800177c:	4606      	mov	r6, r0
 800177e:	689b      	ldr	r3, [r3, #8]
 8001780:	422b      	tst	r3, r5
 8001782:	d012      	beq.n	80017aa <ADC_ConversionStop+0x8a>
 8001784:	f7ff fc42 	bl	800100c <HAL_GetTick>
 8001788:	1b80      	subs	r0, r0, r6
 800178a:	6823      	ldr	r3, [r4, #0]
 800178c:	2805      	cmp	r0, #5
 800178e:	d9f6      	bls.n	800177e <ADC_ConversionStop+0x5e>
 8001790:	689a      	ldr	r2, [r3, #8]
 8001792:	422a      	tst	r2, r5
 8001794:	d0f3      	beq.n	800177e <ADC_ConversionStop+0x5e>
 8001796:	6e23      	ldr	r3, [r4, #96]	@ 0x60
 8001798:	2001      	movs	r0, #1
 800179a:	f043 0310 	orr.w	r3, r3, #16
 800179e:	6623      	str	r3, [r4, #96]	@ 0x60
 80017a0:	6e63      	ldr	r3, [r4, #100]	@ 0x64
 80017a2:	f043 0301 	orr.w	r3, r3, #1
 80017a6:	6663      	str	r3, [r4, #100]	@ 0x64
 80017a8:	bd70      	pop	{r4, r5, r6, pc}
 80017aa:	2000      	movs	r0, #0
 80017ac:	bd70      	pop	{r4, r5, r6, pc}
 80017ae:	0716      	lsls	r6, r2, #28
 80017b0:	d508      	bpl.n	80017c4 <ADC_ConversionStop+0xa4>
 80017b2:	689a      	ldr	r2, [r3, #8]
 80017b4:	0795      	lsls	r5, r2, #30
 80017b6:	d405      	bmi.n	80017c4 <ADC_ConversionStop+0xa4>
 80017b8:	6899      	ldr	r1, [r3, #8]
 80017ba:	4a14      	ldr	r2, [pc, #80]	@ (800180c <ADC_ConversionStop+0xec>)
 80017bc:	400a      	ands	r2, r1
 80017be:	f042 0220 	orr.w	r2, r2, #32
 80017c2:	609a      	str	r2, [r3, #8]
 80017c4:	2508      	movs	r5, #8
 80017c6:	e7d6      	b.n	8001776 <ADC_ConversionStop+0x56>
 80017c8:	681a      	ldr	r2, [r3, #0]
 80017ca:	0650      	lsls	r0, r2, #25
 80017cc:	d406      	bmi.n	80017dc <ADC_ConversionStop+0xbc>
 80017ce:	4a10      	ldr	r2, [pc, #64]	@ (8001810 <ADC_ConversionStop+0xf0>)
 80017d0:	e001      	b.n	80017d6 <ADC_ConversionStop+0xb6>
 80017d2:	3a01      	subs	r2, #1
 80017d4:	d0df      	beq.n	8001796 <ADC_ConversionStop+0x76>
 80017d6:	6819      	ldr	r1, [r3, #0]
 80017d8:	0649      	lsls	r1, r1, #25
 80017da:	d5fa      	bpl.n	80017d2 <ADC_ConversionStop+0xb2>
 80017dc:	2240      	movs	r2, #64	@ 0x40
 80017de:	601a      	str	r2, [r3, #0]
 80017e0:	689a      	ldr	r2, [r3, #8]
 80017e2:	0756      	lsls	r6, r2, #29
 80017e4:	d508      	bpl.n	80017f8 <ADC_ConversionStop+0xd8>
 80017e6:	689a      	ldr	r2, [r3, #8]
 80017e8:	0795      	lsls	r5, r2, #30
 80017ea:	d405      	bmi.n	80017f8 <ADC_ConversionStop+0xd8>
 80017ec:	6899      	ldr	r1, [r3, #8]
 80017ee:	4a07      	ldr	r2, [pc, #28]	@ (800180c <ADC_ConversionStop+0xec>)
 80017f0:	400a      	ands	r2, r1
 80017f2:	f042 0210 	orr.w	r2, r2, #16
 80017f6:	609a      	str	r2, [r3, #8]
 80017f8:	2504      	movs	r5, #4
 80017fa:	e7bc      	b.n	8001776 <ADC_ConversionStop+0x56>
 80017fc:	6898      	ldr	r0, [r3, #8]
 80017fe:	4a03      	ldr	r2, [pc, #12]	@ (800180c <ADC_ConversionStop+0xec>)
 8001800:	4002      	ands	r2, r0
 8001802:	f042 0210 	orr.w	r2, r2, #16
 8001806:	609a      	str	r2, [r3, #8]
 8001808:	e7a4      	b.n	8001754 <ADC_ConversionStop+0x34>
 800180a:	bf00      	nop
 800180c:	7fffffc0 	.word	0x7fffffc0
 8001810:	000cdc00 	.word	0x000cdc00

08001814 <ADC_Enable>:
 8001814:	6803      	ldr	r3, [r0, #0]
 8001816:	689a      	ldr	r2, [r3, #8]
 8001818:	07d1      	lsls	r1, r2, #31
 800181a:	d501      	bpl.n	8001820 <ADC_Enable+0xc>
 800181c:	2000      	movs	r0, #0
 800181e:	4770      	bx	lr
 8001820:	6899      	ldr	r1, [r3, #8]
 8001822:	4a23      	ldr	r2, [pc, #140]	@ (80018b0 <ADC_Enable+0x9c>)
 8001824:	4211      	tst	r1, r2
 8001826:	b570      	push	{r4, r5, r6, lr}
 8001828:	4605      	mov	r5, r0
 800182a:	d009      	beq.n	8001840 <ADC_Enable+0x2c>
 800182c:	6e2b      	ldr	r3, [r5, #96]	@ 0x60
 800182e:	2001      	movs	r0, #1
 8001830:	f043 0310 	orr.w	r3, r3, #16
 8001834:	662b      	str	r3, [r5, #96]	@ 0x60
 8001836:	6e6b      	ldr	r3, [r5, #100]	@ 0x64
 8001838:	f043 0301 	orr.w	r3, r3, #1
 800183c:	666b      	str	r3, [r5, #100]	@ 0x64
 800183e:	bd70      	pop	{r4, r5, r6, pc}
 8001840:	6899      	ldr	r1, [r3, #8]
 8001842:	4a1c      	ldr	r2, [pc, #112]	@ (80018b4 <ADC_Enable+0xa0>)
 8001844:	400a      	ands	r2, r1
 8001846:	f042 0201 	orr.w	r2, r2, #1
 800184a:	609a      	str	r2, [r3, #8]
 800184c:	f7ff fbde 	bl	800100c <HAL_GetTick>
 8001850:	682b      	ldr	r3, [r5, #0]
 8001852:	4a19      	ldr	r2, [pc, #100]	@ (80018b8 <ADC_Enable+0xa4>)
 8001854:	4606      	mov	r6, r0
 8001856:	4293      	cmp	r3, r2
 8001858:	d022      	beq.n	80018a0 <ADC_Enable+0x8c>
 800185a:	f502 7280 	add.w	r2, r2, #256	@ 0x100
 800185e:	4293      	cmp	r3, r2
 8001860:	d01e      	beq.n	80018a0 <ADC_Enable+0x8c>
 8001862:	f102 52c0 	add.w	r2, r2, #402653184	@ 0x18000000
 8001866:	f502 4284 	add.w	r2, r2, #16896	@ 0x4200
 800186a:	6892      	ldr	r2, [r2, #8]
 800186c:	681a      	ldr	r2, [r3, #0]
 800186e:	07d2      	lsls	r2, r2, #31
 8001870:	d414      	bmi.n	800189c <ADC_Enable+0x88>
 8001872:	4c10      	ldr	r4, [pc, #64]	@ (80018b4 <ADC_Enable+0xa0>)
 8001874:	689a      	ldr	r2, [r3, #8]
 8001876:	07d0      	lsls	r0, r2, #31
 8001878:	d404      	bmi.n	8001884 <ADC_Enable+0x70>
 800187a:	689a      	ldr	r2, [r3, #8]
 800187c:	4022      	ands	r2, r4
 800187e:	f042 0201 	orr.w	r2, r2, #1
 8001882:	609a      	str	r2, [r3, #8]
 8001884:	f7ff fbc2 	bl	800100c <HAL_GetTick>
 8001888:	1b82      	subs	r2, r0, r6
 800188a:	682b      	ldr	r3, [r5, #0]
 800188c:	2a02      	cmp	r2, #2
 800188e:	d902      	bls.n	8001896 <ADC_Enable+0x82>
 8001890:	681a      	ldr	r2, [r3, #0]
 8001892:	07d1      	lsls	r1, r2, #31
 8001894:	d5ca      	bpl.n	800182c <ADC_Enable+0x18>
 8001896:	681a      	ldr	r2, [r3, #0]
 8001898:	07d2      	lsls	r2, r2, #31
 800189a:	d5eb      	bpl.n	8001874 <ADC_Enable+0x60>
 800189c:	2000      	movs	r0, #0
 800189e:	bd70      	pop	{r4, r5, r6, pc}
 80018a0:	4a06      	ldr	r2, [pc, #24]	@ (80018bc <ADC_Enable+0xa8>)
 80018a2:	6892      	ldr	r2, [r2, #8]
 80018a4:	06d4      	lsls	r4, r2, #27
 80018a6:	d0e1      	beq.n	800186c <ADC_Enable+0x58>
 80018a8:	4a05      	ldr	r2, [pc, #20]	@ (80018c0 <ADC_Enable+0xac>)
 80018aa:	4293      	cmp	r3, r2
 80018ac:	d1de      	bne.n	800186c <ADC_Enable+0x58>
 80018ae:	e7f5      	b.n	800189c <ADC_Enable+0x88>
 80018b0:	8000003f 	.word	0x8000003f
 80018b4:	7fffffc0 	.word	0x7fffffc0
 80018b8:	40022000 	.word	0x40022000
 80018bc:	40022300 	.word	0x40022300
 80018c0:	40022100 	.word	0x40022100

080018c4 <HAL_ADC_Start>:
 80018c4:	4a38      	ldr	r2, [pc, #224]	@ (80019a8 <HAL_ADC_Start+0xe4>)
 80018c6:	6803      	ldr	r3, [r0, #0]
 80018c8:	4293      	cmp	r3, r2
 80018ca:	b570      	push	{r4, r5, r6, lr}
 80018cc:	4604      	mov	r4, r0
 80018ce:	d049      	beq.n	8001964 <HAL_ADC_Start+0xa0>
 80018d0:	f502 7280 	add.w	r2, r2, #256	@ 0x100
 80018d4:	4293      	cmp	r3, r2
 80018d6:	d045      	beq.n	8001964 <HAL_ADC_Start+0xa0>
 80018d8:	4a34      	ldr	r2, [pc, #208]	@ (80019ac <HAL_ADC_Start+0xe8>)
 80018da:	6896      	ldr	r6, [r2, #8]
 80018dc:	689d      	ldr	r5, [r3, #8]
 80018de:	f015 0504 	ands.w	r5, r5, #4
 80018e2:	d145      	bne.n	8001970 <HAL_ADC_Start+0xac>
 80018e4:	f894 305c 	ldrb.w	r3, [r4, #92]	@ 0x5c
 80018e8:	2b01      	cmp	r3, #1
 80018ea:	d041      	beq.n	8001970 <HAL_ADC_Start+0xac>
 80018ec:	2301      	movs	r3, #1
 80018ee:	4620      	mov	r0, r4
 80018f0:	f884 305c 	strb.w	r3, [r4, #92]	@ 0x5c
 80018f4:	f7ff ff8e 	bl	8001814 <ADC_Enable>
 80018f8:	2800      	cmp	r0, #0
 80018fa:	d13b      	bne.n	8001974 <HAL_ADC_Start+0xb0>
 80018fc:	6e23      	ldr	r3, [r4, #96]	@ 0x60
 80018fe:	f006 061f 	and.w	r6, r6, #31
 8001902:	4a2b      	ldr	r2, [pc, #172]	@ (80019b0 <HAL_ADC_Start+0xec>)
 8001904:	401a      	ands	r2, r3
 8001906:	6823      	ldr	r3, [r4, #0]
 8001908:	f442 7280 	orr.w	r2, r2, #256	@ 0x100
 800190c:	6622      	str	r2, [r4, #96]	@ 0x60
 800190e:	4a29      	ldr	r2, [pc, #164]	@ (80019b4 <HAL_ADC_Start+0xf0>)
 8001910:	4293      	cmp	r3, r2
 8001912:	d032      	beq.n	800197a <HAL_ADC_Start+0xb6>
 8001914:	4619      	mov	r1, r3
 8001916:	6e22      	ldr	r2, [r4, #96]	@ 0x60
 8001918:	f422 1280 	bic.w	r2, r2, #1048576	@ 0x100000
 800191c:	6622      	str	r2, [r4, #96]	@ 0x60
 800191e:	6e22      	ldr	r2, [r4, #96]	@ 0x60
 8001920:	f412 5280 	ands.w	r2, r2, #4096	@ 0x1000
 8001924:	d03d      	beq.n	80019a2 <HAL_ADC_Start+0xde>
 8001926:	6e62      	ldr	r2, [r4, #100]	@ 0x64
 8001928:	f022 0206 	bic.w	r2, r2, #6
 800192c:	6662      	str	r2, [r4, #100]	@ 0x64
 800192e:	221c      	movs	r2, #28
 8001930:	428b      	cmp	r3, r1
 8001932:	601a      	str	r2, [r3, #0]
 8001934:	f04f 0200 	mov.w	r2, #0
 8001938:	f884 205c 	strb.w	r2, [r4, #92]	@ 0x5c
 800193c:	d021      	beq.n	8001982 <HAL_ADC_Start+0xbe>
 800193e:	f240 2221 	movw	r2, #545	@ 0x221
 8001942:	40f2      	lsrs	r2, r6
 8001944:	07d5      	lsls	r5, r2, #31
 8001946:	d41c      	bmi.n	8001982 <HAL_ADC_Start+0xbe>
 8001948:	6e23      	ldr	r3, [r4, #96]	@ 0x60
 800194a:	f443 1380 	orr.w	r3, r3, #1048576	@ 0x100000
 800194e:	6623      	str	r3, [r4, #96]	@ 0x60
 8001950:	68cb      	ldr	r3, [r1, #12]
 8001952:	019b      	lsls	r3, r3, #6
 8001954:	d505      	bpl.n	8001962 <HAL_ADC_Start+0x9e>
 8001956:	6e23      	ldr	r3, [r4, #96]	@ 0x60
 8001958:	f423 5340 	bic.w	r3, r3, #12288	@ 0x3000
 800195c:	f443 5380 	orr.w	r3, r3, #4096	@ 0x1000
 8001960:	6623      	str	r3, [r4, #96]	@ 0x60
 8001962:	bd70      	pop	{r4, r5, r6, pc}
 8001964:	4a14      	ldr	r2, [pc, #80]	@ (80019b8 <HAL_ADC_Start+0xf4>)
 8001966:	6896      	ldr	r6, [r2, #8]
 8001968:	689d      	ldr	r5, [r3, #8]
 800196a:	f015 0504 	ands.w	r5, r5, #4
 800196e:	d0b9      	beq.n	80018e4 <HAL_ADC_Start+0x20>
 8001970:	2002      	movs	r0, #2
 8001972:	bd70      	pop	{r4, r5, r6, pc}
 8001974:	f884 505c 	strb.w	r5, [r4, #92]	@ 0x5c
 8001978:	bd70      	pop	{r4, r5, r6, pc}
 800197a:	490b      	ldr	r1, [pc, #44]	@ (80019a8 <HAL_ADC_Start+0xe4>)
 800197c:	2e00      	cmp	r6, #0
 800197e:	d1ce      	bne.n	800191e <HAL_ADC_Start+0x5a>
 8001980:	e7c9      	b.n	8001916 <HAL_ADC_Start+0x52>
 8001982:	68da      	ldr	r2, [r3, #12]
 8001984:	0192      	lsls	r2, r2, #6
 8001986:	d505      	bpl.n	8001994 <HAL_ADC_Start+0xd0>
 8001988:	6e22      	ldr	r2, [r4, #96]	@ 0x60
 800198a:	f422 5240 	bic.w	r2, r2, #12288	@ 0x3000
 800198e:	f442 5280 	orr.w	r2, r2, #4096	@ 0x1000
 8001992:	6622      	str	r2, [r4, #96]	@ 0x60
 8001994:	6899      	ldr	r1, [r3, #8]
 8001996:	4a09      	ldr	r2, [pc, #36]	@ (80019bc <HAL_ADC_Start+0xf8>)
 8001998:	400a      	ands	r2, r1
 800199a:	f042 0204 	orr.w	r2, r2, #4
 800199e:	609a      	str	r2, [r3, #8]
 80019a0:	bd70      	pop	{r4, r5, r6, pc}
 80019a2:	6662      	str	r2, [r4, #100]	@ 0x64
 80019a4:	e7c3      	b.n	800192e <HAL_ADC_Start+0x6a>
 80019a6:	bf00      	nop
 80019a8:	40022000 	.word	0x40022000
 80019ac:	58026300 	.word	0x58026300
 80019b0:	fffff0fe 	.word	0xfffff0fe
 80019b4:	40022100 	.word	0x40022100
 80019b8:	40022300 	.word	0x40022300
 80019bc:	7fffffc0 	.word	0x7fffffc0

080019c0 <ADC_Disable>:
 80019c0:	b538      	push	{r3, r4, r5, lr}
 80019c2:	6803      	ldr	r3, [r0, #0]
 80019c4:	689a      	ldr	r2, [r3, #8]
 80019c6:	0795      	lsls	r5, r2, #30
 80019c8:	d502      	bpl.n	80019d0 <ADC_Disable+0x10>
 80019ca:	689b      	ldr	r3, [r3, #8]
 80019cc:	2000      	movs	r0, #0
 80019ce:	bd38      	pop	{r3, r4, r5, pc}
 80019d0:	689a      	ldr	r2, [r3, #8]
 80019d2:	07d4      	lsls	r4, r2, #31
 80019d4:	d5fa      	bpl.n	80019cc <ADC_Disable+0xc>
 80019d6:	689a      	ldr	r2, [r3, #8]
 80019d8:	4604      	mov	r4, r0
 80019da:	f002 020d 	and.w	r2, r2, #13
 80019de:	2a01      	cmp	r2, #1
 80019e0:	d009      	beq.n	80019f6 <ADC_Disable+0x36>
 80019e2:	6e23      	ldr	r3, [r4, #96]	@ 0x60
 80019e4:	2001      	movs	r0, #1
 80019e6:	f043 0310 	orr.w	r3, r3, #16
 80019ea:	6623      	str	r3, [r4, #96]	@ 0x60
 80019ec:	6e63      	ldr	r3, [r4, #100]	@ 0x64
 80019ee:	f043 0301 	orr.w	r3, r3, #1
 80019f2:	6663      	str	r3, [r4, #100]	@ 0x64
 80019f4:	bd38      	pop	{r3, r4, r5, pc}
 80019f6:	6898      	ldr	r0, [r3, #8]
 80019f8:	2103      	movs	r1, #3
 80019fa:	4a0d      	ldr	r2, [pc, #52]	@ (8001a30 <ADC_Disable+0x70>)
 80019fc:	4002      	ands	r2, r0
 80019fe:	f042 0202 	orr.w	r2, r2, #2
 8001a02:	609a      	str	r2, [r3, #8]
 8001a04:	6019      	str	r1, [r3, #0]
 8001a06:	f7ff fb01 	bl	800100c <HAL_GetTick>
 8001a0a:	6823      	ldr	r3, [r4, #0]
 8001a0c:	4605      	mov	r5, r0
 8001a0e:	689b      	ldr	r3, [r3, #8]
 8001a10:	07d9      	lsls	r1, r3, #31
 8001a12:	d403      	bmi.n	8001a1c <ADC_Disable+0x5c>
 8001a14:	e7da      	b.n	80019cc <ADC_Disable+0xc>
 8001a16:	689b      	ldr	r3, [r3, #8]
 8001a18:	07db      	lsls	r3, r3, #31
 8001a1a:	d5d7      	bpl.n	80019cc <ADC_Disable+0xc>
 8001a1c:	f7ff faf6 	bl	800100c <HAL_GetTick>
 8001a20:	1b40      	subs	r0, r0, r5
 8001a22:	6823      	ldr	r3, [r4, #0]
 8001a24:	2802      	cmp	r0, #2
 8001a26:	d9f6      	bls.n	8001a16 <ADC_Disable+0x56>
 8001a28:	689a      	ldr	r2, [r3, #8]
 8001a2a:	07d2      	lsls	r2, r2, #31
 8001a2c:	d5f3      	bpl.n	8001a16 <ADC_Disable+0x56>
 8001a2e:	e7d8      	b.n	80019e2 <ADC_Disable+0x22>
 8001a30:	7fffffc0 	.word	0x7fffffc0

08001a34 <HAL_ADC_Stop>:
 8001a34:	f890 305c 	ldrb.w	r3, [r0, #92]	@ 0x5c
 8001a38:	2b01      	cmp	r3, #1
 8001a3a:	d01c      	beq.n	8001a76 <HAL_ADC_Stop+0x42>
 8001a3c:	2301      	movs	r3, #1
 8001a3e:	2103      	movs	r1, #3
 8001a40:	b510      	push	{r4, lr}
 8001a42:	f880 305c 	strb.w	r3, [r0, #92]	@ 0x5c
 8001a46:	4604      	mov	r4, r0
 8001a48:	f7ff fe6a 	bl	8001720 <ADC_ConversionStop>
 8001a4c:	b120      	cbz	r0, 8001a58 <HAL_ADC_Stop+0x24>
 8001a4e:	2300      	movs	r3, #0
 8001a50:	2001      	movs	r0, #1
 8001a52:	f884 305c 	strb.w	r3, [r4, #92]	@ 0x5c
 8001a56:	bd10      	pop	{r4, pc}
 8001a58:	4620      	mov	r0, r4
 8001a5a:	f7ff ffb1 	bl	80019c0 <ADC_Disable>
 8001a5e:	2800      	cmp	r0, #0
 8001a60:	d1f5      	bne.n	8001a4e <HAL_ADC_Stop+0x1a>
 8001a62:	6e22      	ldr	r2, [r4, #96]	@ 0x60
 8001a64:	4b05      	ldr	r3, [pc, #20]	@ (8001a7c <HAL_ADC_Stop+0x48>)
 8001a66:	4013      	ands	r3, r2
 8001a68:	f043 0301 	orr.w	r3, r3, #1
 8001a6c:	6623      	str	r3, [r4, #96]	@ 0x60
 8001a6e:	2300      	movs	r3, #0
 8001a70:	f884 305c 	strb.w	r3, [r4, #92]	@ 0x5c
 8001a74:	bd10      	pop	{r4, pc}
 8001a76:	2002      	movs	r0, #2
 8001a78:	4770      	bx	lr
 8001a7a:	bf00      	nop
 8001a7c:	ffffeefe 	.word	0xffffeefe

08001a80 <ADC_ConfigureBoostMode>:
 8001a80:	4a45      	ldr	r2, [pc, #276]	@ (8001b98 <ADC_ConfigureBoostMode+0x118>)
 8001a82:	6803      	ldr	r3, [r0, #0]
 8001a84:	4293      	cmp	r3, r2
 8001a86:	b510      	push	{r4, lr}
 8001a88:	4604      	mov	r4, r0
 8001a8a:	d023      	beq.n	8001ad4 <ADC_ConfigureBoostMode+0x54>
 8001a8c:	f502 7280 	add.w	r2, r2, #256	@ 0x100
 8001a90:	4293      	cmp	r3, r2
 8001a92:	d01f      	beq.n	8001ad4 <ADC_ConfigureBoostMode+0x54>
 8001a94:	4b41      	ldr	r3, [pc, #260]	@ (8001b9c <ADC_ConfigureBoostMode+0x11c>)
 8001a96:	689b      	ldr	r3, [r3, #8]
 8001a98:	f413 3f40 	tst.w	r3, #196608	@ 0x30000
 8001a9c:	d01f      	beq.n	8001ade <ADC_ConfigureBoostMode+0x5e>
 8001a9e:	f001 fb41 	bl	8003124 <HAL_RCC_GetHCLKFreq>
 8001aa2:	6863      	ldr	r3, [r4, #4]
 8001aa4:	f5b3 3f00 	cmp.w	r3, #131072	@ 0x20000
 8001aa8:	d060      	beq.n	8001b6c <ADC_ConfigureBoostMode+0xec>
 8001aaa:	f5b3 3f40 	cmp.w	r3, #196608	@ 0x30000
 8001aae:	d065      	beq.n	8001b7c <ADC_ConfigureBoostMode+0xfc>
 8001ab0:	f5b3 3f80 	cmp.w	r3, #65536	@ 0x10000
 8001ab4:	d05a      	beq.n	8001b6c <ADC_ConfigureBoostMode+0xec>
 8001ab6:	4b3a      	ldr	r3, [pc, #232]	@ (8001ba0 <ADC_ConfigureBoostMode+0x120>)
 8001ab8:	4298      	cmp	r0, r3
 8001aba:	d939      	bls.n	8001b30 <ADC_ConfigureBoostMode+0xb0>
 8001abc:	4b39      	ldr	r3, [pc, #228]	@ (8001ba4 <ADC_ConfigureBoostMode+0x124>)
 8001abe:	4298      	cmp	r0, r3
 8001ac0:	d944      	bls.n	8001b4c <ADC_ConfigureBoostMode+0xcc>
 8001ac2:	4b39      	ldr	r3, [pc, #228]	@ (8001ba8 <ADC_ConfigureBoostMode+0x128>)
 8001ac4:	4298      	cmp	r0, r3
 8001ac6:	d949      	bls.n	8001b5c <ADC_ConfigureBoostMode+0xdc>
 8001ac8:	6822      	ldr	r2, [r4, #0]
 8001aca:	6893      	ldr	r3, [r2, #8]
 8001acc:	f443 7340 	orr.w	r3, r3, #768	@ 0x300
 8001ad0:	6093      	str	r3, [r2, #8]
 8001ad2:	bd10      	pop	{r4, pc}
 8001ad4:	4b35      	ldr	r3, [pc, #212]	@ (8001bac <ADC_ConfigureBoostMode+0x12c>)
 8001ad6:	689b      	ldr	r3, [r3, #8]
 8001ad8:	f413 3f40 	tst.w	r3, #196608	@ 0x30000
 8001adc:	d1df      	bne.n	8001a9e <ADC_ConfigureBoostMode+0x1e>
 8001ade:	f44f 2000 	mov.w	r0, #524288	@ 0x80000
 8001ae2:	2100      	movs	r1, #0
 8001ae4:	f002 fd38 	bl	8004558 <HAL_RCCEx_GetPeriphCLKFreq>
 8001ae8:	6863      	ldr	r3, [r4, #4]
 8001aea:	f5b3 1f10 	cmp.w	r3, #2359296	@ 0x240000
 8001aee:	d041      	beq.n	8001b74 <ADC_ConfigureBoostMode+0xf4>
 8001af0:	d814      	bhi.n	8001b1c <ADC_ConfigureBoostMode+0x9c>
 8001af2:	f5b3 1fe0 	cmp.w	r3, #1835008	@ 0x1c0000
 8001af6:	d03f      	beq.n	8001b78 <ADC_ConfigureBoostMode+0xf8>
 8001af8:	d842      	bhi.n	8001b80 <ADC_ConfigureBoostMode+0x100>
 8001afa:	f5b3 1f80 	cmp.w	r3, #1048576	@ 0x100000
 8001afe:	d008      	beq.n	8001b12 <ADC_ConfigureBoostMode+0x92>
 8001b00:	d843      	bhi.n	8001b8a <ADC_ConfigureBoostMode+0x10a>
 8001b02:	f5b3 2f00 	cmp.w	r3, #524288	@ 0x80000
 8001b06:	d004      	beq.n	8001b12 <ADC_ConfigureBoostMode+0x92>
 8001b08:	f423 2200 	bic.w	r2, r3, #524288	@ 0x80000
 8001b0c:	f5b2 2f80 	cmp.w	r2, #262144	@ 0x40000
 8001b10:	d1d1      	bne.n	8001ab6 <ADC_ConfigureBoostMode+0x36>
 8001b12:	0c9b      	lsrs	r3, r3, #18
 8001b14:	005b      	lsls	r3, r3, #1
 8001b16:	fbb0 f0f3 	udiv	r0, r0, r3
 8001b1a:	e7cc      	b.n	8001ab6 <ADC_ConfigureBoostMode+0x36>
 8001b1c:	f5b3 1f20 	cmp.w	r3, #2621440	@ 0x280000
 8001b20:	d00c      	beq.n	8001b3c <ADC_ConfigureBoostMode+0xbc>
 8001b22:	f5b3 1f30 	cmp.w	r3, #2883584	@ 0x2c0000
 8001b26:	d1c6      	bne.n	8001ab6 <ADC_ConfigureBoostMode+0x36>
 8001b28:	4b1d      	ldr	r3, [pc, #116]	@ (8001ba0 <ADC_ConfigureBoostMode+0x120>)
 8001b2a:	ebb3 2f10 	cmp.w	r3, r0, lsr #8
 8001b2e:	d30d      	bcc.n	8001b4c <ADC_ConfigureBoostMode+0xcc>
 8001b30:	6822      	ldr	r2, [r4, #0]
 8001b32:	6893      	ldr	r3, [r2, #8]
 8001b34:	f423 7340 	bic.w	r3, r3, #768	@ 0x300
 8001b38:	6093      	str	r3, [r2, #8]
 8001b3a:	bd10      	pop	{r4, pc}
 8001b3c:	4b18      	ldr	r3, [pc, #96]	@ (8001ba0 <ADC_ConfigureBoostMode+0x120>)
 8001b3e:	09c2      	lsrs	r2, r0, #7
 8001b40:	ebb3 1fd0 	cmp.w	r3, r0, lsr #7
 8001b44:	d2f4      	bcs.n	8001b30 <ADC_ConfigureBoostMode+0xb0>
 8001b46:	4b17      	ldr	r3, [pc, #92]	@ (8001ba4 <ADC_ConfigureBoostMode+0x124>)
 8001b48:	429a      	cmp	r2, r3
 8001b4a:	d807      	bhi.n	8001b5c <ADC_ConfigureBoostMode+0xdc>
 8001b4c:	6822      	ldr	r2, [r4, #0]
 8001b4e:	6893      	ldr	r3, [r2, #8]
 8001b50:	f423 7340 	bic.w	r3, r3, #768	@ 0x300
 8001b54:	f443 7380 	orr.w	r3, r3, #256	@ 0x100
 8001b58:	6093      	str	r3, [r2, #8]
 8001b5a:	bd10      	pop	{r4, pc}
 8001b5c:	6822      	ldr	r2, [r4, #0]
 8001b5e:	6893      	ldr	r3, [r2, #8]
 8001b60:	f423 7340 	bic.w	r3, r3, #768	@ 0x300
 8001b64:	f443 7300 	orr.w	r3, r3, #512	@ 0x200
 8001b68:	6093      	str	r3, [r2, #8]
 8001b6a:	bd10      	pop	{r4, pc}
 8001b6c:	0c1b      	lsrs	r3, r3, #16
 8001b6e:	fbb0 f0f3 	udiv	r0, r0, r3
 8001b72:	e7a0      	b.n	8001ab6 <ADC_ConfigureBoostMode+0x36>
 8001b74:	0980      	lsrs	r0, r0, #6
 8001b76:	e79e      	b.n	8001ab6 <ADC_ConfigureBoostMode+0x36>
 8001b78:	0900      	lsrs	r0, r0, #4
 8001b7a:	e79c      	b.n	8001ab6 <ADC_ConfigureBoostMode+0x36>
 8001b7c:	0880      	lsrs	r0, r0, #2
 8001b7e:	e79a      	b.n	8001ab6 <ADC_ConfigureBoostMode+0x36>
 8001b80:	f5b3 1f00 	cmp.w	r3, #2097152	@ 0x200000
 8001b84:	d197      	bne.n	8001ab6 <ADC_ConfigureBoostMode+0x36>
 8001b86:	0940      	lsrs	r0, r0, #5
 8001b88:	e795      	b.n	8001ab6 <ADC_ConfigureBoostMode+0x36>
 8001b8a:	f5b3 1fa0 	cmp.w	r3, #1310720	@ 0x140000
 8001b8e:	d0c0      	beq.n	8001b12 <ADC_ConfigureBoostMode+0x92>
 8001b90:	f5b3 1fc0 	cmp.w	r3, #1572864	@ 0x180000
 8001b94:	d0bd      	beq.n	8001b12 <ADC_ConfigureBoostMode+0x92>
 8001b96:	e78e      	b.n	8001ab6 <ADC_ConfigureBoostMode+0x36>
 8001b98:	40022000 	.word	0x40022000
 8001b9c:	58026300 	.word	0x58026300
 8001ba0:	00bebc21 	.word	0x00bebc21
 8001ba4:	017d7841 	.word	0x017d7841
 8001ba8:	02faf081 	.word	0x02faf081
 8001bac:	40022300 	.word	0x40022300

08001bb0 <HAL_ADC_Init>:
 8001bb0:	b5f0      	push	{r4, r5, r6, r7, lr}
 8001bb2:	2300      	movs	r3, #0
 8001bb4:	b083      	sub	sp, #12
 8001bb6:	9301      	str	r3, [sp, #4]
 8001bb8:	2800      	cmp	r0, #0
 8001bba:	d039      	beq.n	8001c30 <HAL_ADC_Init+0x80>
 8001bbc:	6e05      	ldr	r5, [r0, #96]	@ 0x60
 8001bbe:	4604      	mov	r4, r0
 8001bc0:	2d00      	cmp	r5, #0
 8001bc2:	f000 80b4 	beq.w	8001d2e <HAL_ADC_Init+0x17e>
 8001bc6:	6822      	ldr	r2, [r4, #0]
 8001bc8:	6893      	ldr	r3, [r2, #8]
 8001bca:	0098      	lsls	r0, r3, #2
 8001bcc:	d503      	bpl.n	8001bd6 <HAL_ADC_Init+0x26>
 8001bce:	6891      	ldr	r1, [r2, #8]
 8001bd0:	4ba1      	ldr	r3, [pc, #644]	@ (8001e58 <HAL_ADC_Init+0x2a8>)
 8001bd2:	400b      	ands	r3, r1
 8001bd4:	6093      	str	r3, [r2, #8]
 8001bd6:	6893      	ldr	r3, [r2, #8]
 8001bd8:	00d9      	lsls	r1, r3, #3
 8001bda:	d416      	bmi.n	8001c0a <HAL_ADC_Init+0x5a>
 8001bdc:	4b9f      	ldr	r3, [pc, #636]	@ (8001e5c <HAL_ADC_Init+0x2ac>)
 8001bde:	49a0      	ldr	r1, [pc, #640]	@ (8001e60 <HAL_ADC_Init+0x2b0>)
 8001be0:	681b      	ldr	r3, [r3, #0]
 8001be2:	6890      	ldr	r0, [r2, #8]
 8001be4:	099b      	lsrs	r3, r3, #6
 8001be6:	fba1 1303 	umull	r1, r3, r1, r3
 8001bea:	499e      	ldr	r1, [pc, #632]	@ (8001e64 <HAL_ADC_Init+0x2b4>)
 8001bec:	099b      	lsrs	r3, r3, #6
 8001bee:	4001      	ands	r1, r0
 8001bf0:	3301      	adds	r3, #1
 8001bf2:	f041 5180 	orr.w	r1, r1, #268435456	@ 0x10000000
 8001bf6:	6091      	str	r1, [r2, #8]
 8001bf8:	9301      	str	r3, [sp, #4]
 8001bfa:	9b01      	ldr	r3, [sp, #4]
 8001bfc:	b12b      	cbz	r3, 8001c0a <HAL_ADC_Init+0x5a>
 8001bfe:	9b01      	ldr	r3, [sp, #4]
 8001c00:	3b01      	subs	r3, #1
 8001c02:	9301      	str	r3, [sp, #4]
 8001c04:	9b01      	ldr	r3, [sp, #4]
 8001c06:	2b00      	cmp	r3, #0
 8001c08:	d1f9      	bne.n	8001bfe <HAL_ADC_Init+0x4e>
 8001c0a:	6893      	ldr	r3, [r2, #8]
 8001c0c:	00db      	lsls	r3, r3, #3
 8001c0e:	d413      	bmi.n	8001c38 <HAL_ADC_Init+0x88>
 8001c10:	6e23      	ldr	r3, [r4, #96]	@ 0x60
 8001c12:	2501      	movs	r5, #1
 8001c14:	f043 0310 	orr.w	r3, r3, #16
 8001c18:	6623      	str	r3, [r4, #96]	@ 0x60
 8001c1a:	6e63      	ldr	r3, [r4, #100]	@ 0x64
 8001c1c:	432b      	orrs	r3, r5
 8001c1e:	6663      	str	r3, [r4, #100]	@ 0x64
 8001c20:	6893      	ldr	r3, [r2, #8]
 8001c22:	075f      	lsls	r7, r3, #29
 8001c24:	d50c      	bpl.n	8001c40 <HAL_ADC_Init+0x90>
 8001c26:	6e23      	ldr	r3, [r4, #96]	@ 0x60
 8001c28:	6e23      	ldr	r3, [r4, #96]	@ 0x60
 8001c2a:	f043 0310 	orr.w	r3, r3, #16
 8001c2e:	6623      	str	r3, [r4, #96]	@ 0x60
 8001c30:	2501      	movs	r5, #1
 8001c32:	4628      	mov	r0, r5
 8001c34:	b003      	add	sp, #12
 8001c36:	bdf0      	pop	{r4, r5, r6, r7, pc}
 8001c38:	6893      	ldr	r3, [r2, #8]
 8001c3a:	2500      	movs	r5, #0
 8001c3c:	075f      	lsls	r7, r3, #29
 8001c3e:	d4f2      	bmi.n	8001c26 <HAL_ADC_Init+0x76>
 8001c40:	6e20      	ldr	r0, [r4, #96]	@ 0x60
 8001c42:	f010 0010 	ands.w	r0, r0, #16
 8001c46:	d1ef      	bne.n	8001c28 <HAL_ADC_Init+0x78>
 8001c48:	6e23      	ldr	r3, [r4, #96]	@ 0x60
 8001c4a:	f423 7381 	bic.w	r3, r3, #258	@ 0x102
 8001c4e:	f043 0302 	orr.w	r3, r3, #2
 8001c52:	6623      	str	r3, [r4, #96]	@ 0x60
 8001c54:	6893      	ldr	r3, [r2, #8]
 8001c56:	07de      	lsls	r6, r3, #31
 8001c58:	d40d      	bmi.n	8001c76 <HAL_ADC_Init+0xc6>
 8001c5a:	4b83      	ldr	r3, [pc, #524]	@ (8001e68 <HAL_ADC_Init+0x2b8>)
 8001c5c:	429a      	cmp	r2, r3
 8001c5e:	f000 809f 	beq.w	8001da0 <HAL_ADC_Init+0x1f0>
 8001c62:	f503 7380 	add.w	r3, r3, #256	@ 0x100
 8001c66:	429a      	cmp	r2, r3
 8001c68:	f000 809a 	beq.w	8001da0 <HAL_ADC_Init+0x1f0>
 8001c6c:	4b7f      	ldr	r3, [pc, #508]	@ (8001e6c <HAL_ADC_Init+0x2bc>)
 8001c6e:	689b      	ldr	r3, [r3, #8]
 8001c70:	07d9      	lsls	r1, r3, #31
 8001c72:	f140 80ad 	bpl.w	8001dd0 <HAL_ADC_Init+0x220>
 8001c76:	4b7d      	ldr	r3, [pc, #500]	@ (8001e6c <HAL_ADC_Init+0x2bc>)
 8001c78:	429a      	cmp	r2, r3
 8001c7a:	d066      	beq.n	8001d4a <HAL_ADC_Init+0x19a>
 8001c7c:	68a1      	ldr	r1, [r4, #8]
 8001c7e:	6be3      	ldr	r3, [r4, #60]	@ 0x3c
 8001c80:	f894 0020 	ldrb.w	r0, [r4, #32]
 8001c84:	430b      	orrs	r3, r1
 8001c86:	7e61      	ldrb	r1, [r4, #25]
 8001c88:	2801      	cmp	r0, #1
 8001c8a:	ea43 3341 	orr.w	r3, r3, r1, lsl #13
 8001c8e:	6aa1      	ldr	r1, [r4, #40]	@ 0x28
 8001c90:	ea43 4300 	orr.w	r3, r3, r0, lsl #16
 8001c94:	f000 8097 	beq.w	8001dc6 <HAL_ADC_Init+0x216>
 8001c98:	b141      	cbz	r1, 8001cac <HAL_ADC_Init+0xfc>
 8001c9a:	6ae0      	ldr	r0, [r4, #44]	@ 0x2c
 8001c9c:	f401 7178 	and.w	r1, r1, #992	@ 0x3e0
 8001ca0:	4318      	orrs	r0, r3
 8001ca2:	ea41 0300 	orr.w	r3, r1, r0
 8001ca6:	4971      	ldr	r1, [pc, #452]	@ (8001e6c <HAL_ADC_Init+0x2bc>)
 8001ca8:	428a      	cmp	r2, r1
 8001caa:	d06c      	beq.n	8001d86 <HAL_ADC_Init+0x1d6>
 8001cac:	68d0      	ldr	r0, [r2, #12]
 8001cae:	4970      	ldr	r1, [pc, #448]	@ (8001e70 <HAL_ADC_Init+0x2c0>)
 8001cb0:	4001      	ands	r1, r0
 8001cb2:	4319      	orrs	r1, r3
 8001cb4:	60d1      	str	r1, [r2, #12]
 8001cb6:	6893      	ldr	r3, [r2, #8]
 8001cb8:	f013 0f04 	tst.w	r3, #4
 8001cbc:	6893      	ldr	r3, [r2, #8]
 8001cbe:	d126      	bne.n	8001d0e <HAL_ADC_Init+0x15e>
 8001cc0:	071b      	lsls	r3, r3, #28
 8001cc2:	d424      	bmi.n	8001d0e <HAL_ADC_Init+0x15e>
 8001cc4:	4b69      	ldr	r3, [pc, #420]	@ (8001e6c <HAL_ADC_Init+0x2bc>)
 8001cc6:	7e21      	ldrb	r1, [r4, #24]
 8001cc8:	429a      	cmp	r2, r3
 8001cca:	f894 6044 	ldrb.w	r6, [r4, #68]	@ 0x44
 8001cce:	ea4f 3181 	mov.w	r1, r1, lsl #14
 8001cd2:	6c20      	ldr	r0, [r4, #64]	@ 0x40
 8001cd4:	f8d2 c00c 	ldr.w	ip, [r2, #12]
 8001cd8:	f000 8089 	beq.w	8001dee <HAL_ADC_Init+0x23e>
 8001cdc:	4b65      	ldr	r3, [pc, #404]	@ (8001e74 <HAL_ADC_Init+0x2c4>)
 8001cde:	2e01      	cmp	r6, #1
 8001ce0:	ea0c 0303 	and.w	r3, ip, r3
 8001ce4:	ea43 0301 	orr.w	r3, r3, r1
 8001ce8:	6b21      	ldr	r1, [r4, #48]	@ 0x30
 8001cea:	ea43 0301 	orr.w	r3, r3, r1
 8001cee:	60d3      	str	r3, [r2, #12]
 8001cf0:	f000 8093 	beq.w	8001e1a <HAL_ADC_Init+0x26a>
 8001cf4:	6913      	ldr	r3, [r2, #16]
 8001cf6:	f023 0301 	bic.w	r3, r3, #1
 8001cfa:	6113      	str	r3, [r2, #16]
 8001cfc:	6913      	ldr	r3, [r2, #16]
 8001cfe:	f023 4370 	bic.w	r3, r3, #4026531840	@ 0xf0000000
 8001d02:	4303      	orrs	r3, r0
 8001d04:	4620      	mov	r0, r4
 8001d06:	6113      	str	r3, [r2, #16]
 8001d08:	f7ff feba 	bl	8001a80 <ADC_ConfigureBoostMode>
 8001d0c:	6822      	ldr	r2, [r4, #0]
 8001d0e:	6923      	ldr	r3, [r4, #16]
 8001d10:	2b01      	cmp	r3, #1
 8001d12:	d012      	beq.n	8001d3a <HAL_ADC_Init+0x18a>
 8001d14:	6b13      	ldr	r3, [r2, #48]	@ 0x30
 8001d16:	f023 030f 	bic.w	r3, r3, #15
 8001d1a:	6313      	str	r3, [r2, #48]	@ 0x30
 8001d1c:	6e23      	ldr	r3, [r4, #96]	@ 0x60
 8001d1e:	4628      	mov	r0, r5
 8001d20:	f023 0303 	bic.w	r3, r3, #3
 8001d24:	f043 0301 	orr.w	r3, r3, #1
 8001d28:	6623      	str	r3, [r4, #96]	@ 0x60
 8001d2a:	b003      	add	sp, #12
 8001d2c:	bdf0      	pop	{r4, r5, r6, r7, pc}
 8001d2e:	f7fe fcfb 	bl	8000728 <HAL_ADC_MspInit>
 8001d32:	6665      	str	r5, [r4, #100]	@ 0x64
 8001d34:	f884 505c 	strb.w	r5, [r4, #92]	@ 0x5c
 8001d38:	e745      	b.n	8001bc6 <HAL_ADC_Init+0x16>
 8001d3a:	6b11      	ldr	r1, [r2, #48]	@ 0x30
 8001d3c:	69e3      	ldr	r3, [r4, #28]
 8001d3e:	f021 010f 	bic.w	r1, r1, #15
 8001d42:	3b01      	subs	r3, #1
 8001d44:	430b      	orrs	r3, r1
 8001d46:	6313      	str	r3, [r2, #48]	@ 0x30
 8001d48:	e7e8      	b.n	8001d1c <HAL_ADC_Init+0x16c>
 8001d4a:	6be3      	ldr	r3, [r4, #60]	@ 0x3c
 8001d4c:	68e1      	ldr	r1, [r4, #12]
 8001d4e:	7e66      	ldrb	r6, [r4, #25]
 8001d50:	4319      	orrs	r1, r3
 8001d52:	68a3      	ldr	r3, [r4, #8]
 8001d54:	3b0c      	subs	r3, #12
 8001d56:	ea41 3146 	orr.w	r1, r1, r6, lsl #13
 8001d5a:	2b10      	cmp	r3, #16
 8001d5c:	d802      	bhi.n	8001d64 <HAL_ADC_Init+0x1b4>
 8001d5e:	4846      	ldr	r0, [pc, #280]	@ (8001e78 <HAL_ADC_Init+0x2c8>)
 8001d60:	f850 0023 	ldr.w	r0, [r0, r3, lsl #2]
 8001d64:	f894 c020 	ldrb.w	ip, [r4, #32]
 8001d68:	ea41 410c 	orr.w	r1, r1, ip, lsl #16
 8001d6c:	f1bc 0f01 	cmp.w	ip, #1
 8001d70:	ea41 0300 	orr.w	r3, r1, r0
 8001d74:	6aa1      	ldr	r1, [r4, #40]	@ 0x28
 8001d76:	d033      	beq.n	8001de0 <HAL_ADC_Init+0x230>
 8001d78:	b129      	cbz	r1, 8001d86 <HAL_ADC_Init+0x1d6>
 8001d7a:	6ae0      	ldr	r0, [r4, #44]	@ 0x2c
 8001d7c:	f401 7178 	and.w	r1, r1, #992	@ 0x3e0
 8001d80:	4318      	orrs	r0, r3
 8001d82:	ea41 0300 	orr.w	r3, r1, r0
 8001d86:	4839      	ldr	r0, [pc, #228]	@ (8001e6c <HAL_ADC_Init+0x2bc>)
 8001d88:	493c      	ldr	r1, [pc, #240]	@ (8001e7c <HAL_ADC_Init+0x2cc>)
 8001d8a:	68c6      	ldr	r6, [r0, #12]
 8001d8c:	4031      	ands	r1, r6
 8001d8e:	4319      	orrs	r1, r3
 8001d90:	60c1      	str	r1, [r0, #12]
 8001d92:	6903      	ldr	r3, [r0, #16]
 8001d94:	6b61      	ldr	r1, [r4, #52]	@ 0x34
 8001d96:	f023 6340 	bic.w	r3, r3, #201326592	@ 0xc000000
 8001d9a:	430b      	orrs	r3, r1
 8001d9c:	6103      	str	r3, [r0, #16]
 8001d9e:	e78a      	b.n	8001cb6 <HAL_ADC_Init+0x106>
 8001da0:	4b31      	ldr	r3, [pc, #196]	@ (8001e68 <HAL_ADC_Init+0x2b8>)
 8001da2:	689b      	ldr	r3, [r3, #8]
 8001da4:	f013 0f01 	tst.w	r3, #1
 8001da8:	4b35      	ldr	r3, [pc, #212]	@ (8001e80 <HAL_ADC_Init+0x2d0>)
 8001daa:	689b      	ldr	r3, [r3, #8]
 8001dac:	f47f af66 	bne.w	8001c7c <HAL_ADC_Init+0xcc>
 8001db0:	07d8      	lsls	r0, r3, #31
 8001db2:	f53f af63 	bmi.w	8001c7c <HAL_ADC_Init+0xcc>
 8001db6:	4933      	ldr	r1, [pc, #204]	@ (8001e84 <HAL_ADC_Init+0x2d4>)
 8001db8:	6860      	ldr	r0, [r4, #4]
 8001dba:	688b      	ldr	r3, [r1, #8]
 8001dbc:	f423 137c 	bic.w	r3, r3, #4128768	@ 0x3f0000
 8001dc0:	4303      	orrs	r3, r0
 8001dc2:	608b      	str	r3, [r1, #8]
 8001dc4:	e75a      	b.n	8001c7c <HAL_ADC_Init+0xcc>
 8001dc6:	6a60      	ldr	r0, [r4, #36]	@ 0x24
 8001dc8:	3801      	subs	r0, #1
 8001dca:	ea43 4340 	orr.w	r3, r3, r0, lsl #17
 8001dce:	e763      	b.n	8001c98 <HAL_ADC_Init+0xe8>
 8001dd0:	492d      	ldr	r1, [pc, #180]	@ (8001e88 <HAL_ADC_Init+0x2d8>)
 8001dd2:	6866      	ldr	r6, [r4, #4]
 8001dd4:	688b      	ldr	r3, [r1, #8]
 8001dd6:	f423 137c 	bic.w	r3, r3, #4128768	@ 0x3f0000
 8001dda:	4333      	orrs	r3, r6
 8001ddc:	608b      	str	r3, [r1, #8]
 8001dde:	e74a      	b.n	8001c76 <HAL_ADC_Init+0xc6>
 8001de0:	6a60      	ldr	r0, [r4, #36]	@ 0x24
 8001de2:	3801      	subs	r0, #1
 8001de4:	ea43 4340 	orr.w	r3, r3, r0, lsl #17
 8001de8:	2900      	cmp	r1, #0
 8001dea:	d1c6      	bne.n	8001d7a <HAL_ADC_Init+0x1ca>
 8001dec:	e7cb      	b.n	8001d86 <HAL_ADC_Init+0x1d6>
 8001dee:	f894 3038 	ldrb.w	r3, [r4, #56]	@ 0x38
 8001df2:	2e01      	cmp	r6, #1
 8001df4:	ea41 0343 	orr.w	r3, r1, r3, lsl #1
 8001df8:	491e      	ldr	r1, [pc, #120]	@ (8001e74 <HAL_ADC_Init+0x2c4>)
 8001dfa:	ea0c 0101 	and.w	r1, ip, r1
 8001dfe:	ea43 0301 	orr.w	r3, r3, r1
 8001e02:	60d3      	str	r3, [r2, #12]
 8001e04:	d019      	beq.n	8001e3a <HAL_ADC_Init+0x28a>
 8001e06:	6913      	ldr	r3, [r2, #16]
 8001e08:	f023 0301 	bic.w	r3, r3, #1
 8001e0c:	6113      	str	r3, [r2, #16]
 8001e0e:	6913      	ldr	r3, [r2, #16]
 8001e10:	f023 4370 	bic.w	r3, r3, #4026531840	@ 0xf0000000
 8001e14:	4303      	orrs	r3, r0
 8001e16:	6113      	str	r3, [r2, #16]
 8001e18:	e779      	b.n	8001d0e <HAL_ADC_Init+0x15e>
 8001e1a:	6ca3      	ldr	r3, [r4, #72]	@ 0x48
 8001e1c:	6916      	ldr	r6, [r2, #16]
 8001e1e:	1e59      	subs	r1, r3, #1
 8001e20:	e9d4 3713 	ldrd	r3, r7, [r4, #76]	@ 0x4c
 8001e24:	433b      	orrs	r3, r7
 8001e26:	ea43 4301 	orr.w	r3, r3, r1, lsl #16
 8001e2a:	6d61      	ldr	r1, [r4, #84]	@ 0x54
 8001e2c:	430b      	orrs	r3, r1
 8001e2e:	4917      	ldr	r1, [pc, #92]	@ (8001e8c <HAL_ADC_Init+0x2dc>)
 8001e30:	4031      	ands	r1, r6
 8001e32:	430b      	orrs	r3, r1
 8001e34:	f043 0301 	orr.w	r3, r3, #1
 8001e38:	e75f      	b.n	8001cfa <HAL_ADC_Init+0x14a>
 8001e3a:	6d61      	ldr	r1, [r4, #84]	@ 0x54
 8001e3c:	6ca3      	ldr	r3, [r4, #72]	@ 0x48
 8001e3e:	6916      	ldr	r6, [r2, #16]
 8001e40:	430b      	orrs	r3, r1
 8001e42:	4913      	ldr	r1, [pc, #76]	@ (8001e90 <HAL_ADC_Init+0x2e0>)
 8001e44:	4031      	ands	r1, r6
 8001e46:	430b      	orrs	r3, r1
 8001e48:	6ce1      	ldr	r1, [r4, #76]	@ 0x4c
 8001e4a:	430b      	orrs	r3, r1
 8001e4c:	6d21      	ldr	r1, [r4, #80]	@ 0x50
 8001e4e:	430b      	orrs	r3, r1
 8001e50:	f043 0301 	orr.w	r3, r3, #1
 8001e54:	e7da      	b.n	8001e0c <HAL_ADC_Init+0x25c>
 8001e56:	bf00      	nop
 8001e58:	5fffffc0 	.word	0x5fffffc0
 8001e5c:	24000004 	.word	0x24000004
 8001e60:	053e2d63 	.word	0x053e2d63
 8001e64:	6fffffc0 	.word	0x6fffffc0
 8001e68:	40022000 	.word	0x40022000
 8001e6c:	58026000 	.word	0x58026000
 8001e70:	fff0c003 	.word	0xfff0c003
 8001e74:	ffffbffc 	.word	0xffffbffc
 8001e78:	0800a6e0 	.word	0x0800a6e0
 8001e7c:	fff04007 	.word	0xfff04007
 8001e80:	40022100 	.word	0x40022100
 8001e84:	40022300 	.word	0x40022300
 8001e88:	58026300 	.word	0x58026300
 8001e8c:	fc00f81e 	.word	0xfc00f81e
 8001e90:	fc00f81f 	.word	0xfc00f81f

08001e94 <HAL_ADCEx_MultiModeConfigChannel>:
 8001e94:	f890 205c 	ldrb.w	r2, [r0, #92]	@ 0x5c
 8001e98:	2a01      	cmp	r2, #1
 8001e9a:	d035      	beq.n	8001f08 <HAL_ADCEx_MultiModeConfigChannel+0x74>
 8001e9c:	4603      	mov	r3, r0
 8001e9e:	2200      	movs	r2, #0
 8001ea0:	2001      	movs	r0, #1
 8001ea2:	b4f0      	push	{r4, r5, r6, r7}
 8001ea4:	4d28      	ldr	r5, [pc, #160]	@ (8001f48 <HAL_ADCEx_MultiModeConfigChannel+0xb4>)
 8001ea6:	b09c      	sub	sp, #112	@ 0x70
 8001ea8:	681c      	ldr	r4, [r3, #0]
 8001eaa:	9218      	str	r2, [sp, #96]	@ 0x60
 8001eac:	42ac      	cmp	r4, r5
 8001eae:	f883 005c 	strb.w	r0, [r3, #92]	@ 0x5c
 8001eb2:	9219      	str	r2, [sp, #100]	@ 0x64
 8001eb4:	d008      	beq.n	8001ec8 <HAL_ADCEx_MultiModeConfigChannel+0x34>
 8001eb6:	6e19      	ldr	r1, [r3, #96]	@ 0x60
 8001eb8:	f883 205c 	strb.w	r2, [r3, #92]	@ 0x5c
 8001ebc:	f041 0120 	orr.w	r1, r1, #32
 8001ec0:	6619      	str	r1, [r3, #96]	@ 0x60
 8001ec2:	b01c      	add	sp, #112	@ 0x70
 8001ec4:	bcf0      	pop	{r4, r5, r6, r7}
 8001ec6:	4770      	bx	lr
 8001ec8:	4a20      	ldr	r2, [pc, #128]	@ (8001f4c <HAL_ADCEx_MultiModeConfigChannel+0xb8>)
 8001eca:	6890      	ldr	r0, [r2, #8]
 8001ecc:	0740      	lsls	r0, r0, #29
 8001ece:	d50b      	bpl.n	8001ee8 <HAL_ADCEx_MultiModeConfigChannel+0x54>
 8001ed0:	68a2      	ldr	r2, [r4, #8]
 8001ed2:	6e1a      	ldr	r2, [r3, #96]	@ 0x60
 8001ed4:	2001      	movs	r0, #1
 8001ed6:	f042 0220 	orr.w	r2, r2, #32
 8001eda:	661a      	str	r2, [r3, #96]	@ 0x60
 8001edc:	2200      	movs	r2, #0
 8001ede:	f883 205c 	strb.w	r2, [r3, #92]	@ 0x5c
 8001ee2:	b01c      	add	sp, #112	@ 0x70
 8001ee4:	bcf0      	pop	{r4, r5, r6, r7}
 8001ee6:	4770      	bx	lr
 8001ee8:	68a0      	ldr	r0, [r4, #8]
 8001eea:	0745      	lsls	r5, r0, #29
 8001eec:	d4f1      	bmi.n	8001ed2 <HAL_ADCEx_MultiModeConfigChannel+0x3e>
 8001eee:	6808      	ldr	r0, [r1, #0]
 8001ef0:	b9a0      	cbnz	r0, 8001f1c <HAL_ADCEx_MultiModeConfigChannel+0x88>
 8001ef2:	4917      	ldr	r1, [pc, #92]	@ (8001f50 <HAL_ADCEx_MultiModeConfigChannel+0xbc>)
 8001ef4:	6888      	ldr	r0, [r1, #8]
 8001ef6:	f420 4040 	bic.w	r0, r0, #49152	@ 0xc000
 8001efa:	6088      	str	r0, [r1, #8]
 8001efc:	68a0      	ldr	r0, [r4, #8]
 8001efe:	07c0      	lsls	r0, r0, #31
 8001f00:	d504      	bpl.n	8001f0c <HAL_ADCEx_MultiModeConfigChannel+0x78>
 8001f02:	6892      	ldr	r2, [r2, #8]
 8001f04:	2000      	movs	r0, #0
 8001f06:	e7e9      	b.n	8001edc <HAL_ADCEx_MultiModeConfigChannel+0x48>
 8001f08:	2002      	movs	r0, #2
 8001f0a:	4770      	bx	lr
 8001f0c:	6892      	ldr	r2, [r2, #8]
 8001f0e:	07d5      	lsls	r5, r2, #31
 8001f10:	d4f8      	bmi.n	8001f04 <HAL_ADCEx_MultiModeConfigChannel+0x70>
 8001f12:	6888      	ldr	r0, [r1, #8]
 8001f14:	4a0f      	ldr	r2, [pc, #60]	@ (8001f54 <HAL_ADCEx_MultiModeConfigChannel+0xc0>)
 8001f16:	4002      	ands	r2, r0
 8001f18:	608a      	str	r2, [r1, #8]
 8001f1a:	e7f3      	b.n	8001f04 <HAL_ADCEx_MultiModeConfigChannel+0x70>
 8001f1c:	4e0c      	ldr	r6, [pc, #48]	@ (8001f50 <HAL_ADCEx_MultiModeConfigChannel+0xbc>)
 8001f1e:	684f      	ldr	r7, [r1, #4]
 8001f20:	68b5      	ldr	r5, [r6, #8]
 8001f22:	f425 4540 	bic.w	r5, r5, #49152	@ 0xc000
 8001f26:	433d      	orrs	r5, r7
 8001f28:	60b5      	str	r5, [r6, #8]
 8001f2a:	68a4      	ldr	r4, [r4, #8]
 8001f2c:	07e4      	lsls	r4, r4, #31
 8001f2e:	d4e8      	bmi.n	8001f02 <HAL_ADCEx_MultiModeConfigChannel+0x6e>
 8001f30:	6892      	ldr	r2, [r2, #8]
 8001f32:	07d7      	lsls	r7, r2, #31
 8001f34:	d4e6      	bmi.n	8001f04 <HAL_ADCEx_MultiModeConfigChannel+0x70>
 8001f36:	688a      	ldr	r2, [r1, #8]
 8001f38:	68b4      	ldr	r4, [r6, #8]
 8001f3a:	4310      	orrs	r0, r2
 8001f3c:	4a05      	ldr	r2, [pc, #20]	@ (8001f54 <HAL_ADCEx_MultiModeConfigChannel+0xc0>)
 8001f3e:	4022      	ands	r2, r4
 8001f40:	4310      	orrs	r0, r2
 8001f42:	60b0      	str	r0, [r6, #8]
 8001f44:	e7de      	b.n	8001f04 <HAL_ADCEx_MultiModeConfigChannel+0x70>
 8001f46:	bf00      	nop
 8001f48:	40022000 	.word	0x40022000
 8001f4c:	40022100 	.word	0x40022100
 8001f50:	40022300 	.word	0x40022300
 8001f54:	fffff0e0 	.word	0xfffff0e0

08001f58 <HAL_NVIC_SetPriorityGrouping>:
 8001f58:	4906      	ldr	r1, [pc, #24]	@ (8001f74 <HAL_NVIC_SetPriorityGrouping+0x1c>)
 8001f5a:	f64f 0cff 	movw	ip, #63743	@ 0xf8ff
 8001f5e:	0200      	lsls	r0, r0, #8
 8001f60:	4b05      	ldr	r3, [pc, #20]	@ (8001f78 <HAL_NVIC_SetPriorityGrouping+0x20>)
 8001f62:	68ca      	ldr	r2, [r1, #12]
 8001f64:	f400 60e0 	and.w	r0, r0, #1792	@ 0x700
 8001f68:	ea02 020c 	and.w	r2, r2, ip
 8001f6c:	4310      	orrs	r0, r2
 8001f6e:	4303      	orrs	r3, r0
 8001f70:	60cb      	str	r3, [r1, #12]
 8001f72:	4770      	bx	lr
 8001f74:	e000ed00 	.word	0xe000ed00
 8001f78:	05fa0000 	.word	0x05fa0000

08001f7c <HAL_NVIC_SetPriority>:
 8001f7c:	4b19      	ldr	r3, [pc, #100]	@ (8001fe4 <HAL_NVIC_SetPriority+0x68>)
 8001f7e:	68db      	ldr	r3, [r3, #12]
 8001f80:	f3c3 2302 	ubfx	r3, r3, #8, #3
 8001f84:	b500      	push	{lr}
 8001f86:	f1c3 0e07 	rsb	lr, r3, #7
 8001f8a:	f103 0c04 	add.w	ip, r3, #4
 8001f8e:	f1be 0f04 	cmp.w	lr, #4
 8001f92:	bf28      	it	cs
 8001f94:	f04f 0e04 	movcs.w	lr, #4
 8001f98:	f1bc 0f06 	cmp.w	ip, #6
 8001f9c:	d919      	bls.n	8001fd2 <HAL_NVIC_SetPriority+0x56>
 8001f9e:	f1a3 0c03 	sub.w	ip, r3, #3
 8001fa2:	f04f 33ff 	mov.w	r3, #4294967295
 8001fa6:	fa03 f30c 	lsl.w	r3, r3, ip
 8001faa:	ea22 0203 	bic.w	r2, r2, r3
 8001fae:	f04f 33ff 	mov.w	r3, #4294967295
 8001fb2:	2800      	cmp	r0, #0
 8001fb4:	fa03 f30e 	lsl.w	r3, r3, lr
 8001fb8:	ea21 0303 	bic.w	r3, r1, r3
 8001fbc:	fa03 f30c 	lsl.w	r3, r3, ip
 8001fc0:	ea43 0302 	orr.w	r3, r3, r2
 8001fc4:	ea4f 1303 	mov.w	r3, r3, lsl #4
 8001fc8:	b2db      	uxtb	r3, r3
 8001fca:	db05      	blt.n	8001fd8 <HAL_NVIC_SetPriority+0x5c>
 8001fcc:	4a06      	ldr	r2, [pc, #24]	@ (8001fe8 <HAL_NVIC_SetPriority+0x6c>)
 8001fce:	5413      	strb	r3, [r2, r0]
 8001fd0:	bd00      	pop	{pc}
 8001fd2:	2200      	movs	r2, #0
 8001fd4:	4694      	mov	ip, r2
 8001fd6:	e7ea      	b.n	8001fae <HAL_NVIC_SetPriority+0x32>
 8001fd8:	f000 000f 	and.w	r0, r0, #15
 8001fdc:	4a03      	ldr	r2, [pc, #12]	@ (8001fec <HAL_NVIC_SetPriority+0x70>)
 8001fde:	5413      	strb	r3, [r2, r0]
 8001fe0:	bd00      	pop	{pc}
 8001fe2:	bf00      	nop
 8001fe4:	e000ed00 	.word	0xe000ed00
 8001fe8:	e000e400 	.word	0xe000e400
 8001fec:	e000ed14 	.word	0xe000ed14

08001ff0 <HAL_NVIC_EnableIRQ>:
 8001ff0:	2800      	cmp	r0, #0
 8001ff2:	db07      	blt.n	8002004 <HAL_NVIC_EnableIRQ+0x14>
 8001ff4:	2301      	movs	r3, #1
 8001ff6:	f000 011f 	and.w	r1, r0, #31
 8001ffa:	4a03      	ldr	r2, [pc, #12]	@ (8002008 <HAL_NVIC_EnableIRQ+0x18>)
 8001ffc:	0940      	lsrs	r0, r0, #5
 8001ffe:	408b      	lsls	r3, r1
 8002000:	f842 3020 	str.w	r3, [r2, r0, lsl #2]
 8002004:	4770      	bx	lr
 8002006:	bf00      	nop
 8002008:	e000e100 	.word	0xe000e100

0800200c <HAL_SYSTICK_Config>:
 800200c:	1e43      	subs	r3, r0, #1
 800200e:	f1b3 7f80 	cmp.w	r3, #16777216	@ 0x1000000
 8002012:	d301      	bcc.n	8002018 <HAL_SYSTICK_Config+0xc>
 8002014:	2001      	movs	r0, #1
 8002016:	4770      	bx	lr
 8002018:	f04f 22e0 	mov.w	r2, #3758153728	@ 0xe000e000
 800201c:	2000      	movs	r0, #0
 800201e:	4905      	ldr	r1, [pc, #20]	@ (8002034 <HAL_SYSTICK_Config+0x28>)
 8002020:	f04f 0cf0 	mov.w	ip, #240	@ 0xf0
 8002024:	6153      	str	r3, [r2, #20]
 8002026:	2307      	movs	r3, #7
 8002028:	f881 c023 	strb.w	ip, [r1, #35]	@ 0x23
 800202c:	6190      	str	r0, [r2, #24]
 800202e:	6113      	str	r3, [r2, #16]
 8002030:	4770      	bx	lr
 8002032:	bf00      	nop
 8002034:	e000ed00 	.word	0xe000ed00

08002038 <HAL_MPU_Disable>:
 8002038:	f3bf 8f5f 	dmb	sy
 800203c:	4b04      	ldr	r3, [pc, #16]	@ (8002050 <HAL_MPU_Disable+0x18>)
 800203e:	2100      	movs	r1, #0
 8002040:	6a5a      	ldr	r2, [r3, #36]	@ 0x24
 8002042:	f422 3280 	bic.w	r2, r2, #65536	@ 0x10000
 8002046:	625a      	str	r2, [r3, #36]	@ 0x24
 8002048:	f8c3 1094 	str.w	r1, [r3, #148]	@ 0x94
 800204c:	4770      	bx	lr
 800204e:	bf00      	nop
 8002050:	e000ed00 	.word	0xe000ed00

08002054 <HAL_MPU_Enable>:
 8002054:	4b06      	ldr	r3, [pc, #24]	@ (8002070 <HAL_MPU_Enable+0x1c>)
 8002056:	f040 0001 	orr.w	r0, r0, #1
 800205a:	f8c3 0094 	str.w	r0, [r3, #148]	@ 0x94
 800205e:	6a5a      	ldr	r2, [r3, #36]	@ 0x24
 8002060:	f442 3280 	orr.w	r2, r2, #65536	@ 0x10000
 8002064:	625a      	str	r2, [r3, #36]	@ 0x24
 8002066:	f3bf 8f4f 	dsb	sy
 800206a:	f3bf 8f6f 	isb	sy
 800206e:	4770      	bx	lr
 8002070:	e000ed00 	.word	0xe000ed00

08002074 <HAL_MPU_ConfigRegion>:
 8002074:	4a16      	ldr	r2, [pc, #88]	@ (80020d0 <HAL_MPU_ConfigRegion+0x5c>)
 8002076:	7843      	ldrb	r3, [r0, #1]
 8002078:	f8c2 3098 	str.w	r3, [r2, #152]	@ 0x98
 800207c:	f8d2 30a0 	ldr.w	r3, [r2, #160]	@ 0xa0
 8002080:	f023 0301 	bic.w	r3, r3, #1
 8002084:	f8c2 30a0 	str.w	r3, [r2, #160]	@ 0xa0
 8002088:	6843      	ldr	r3, [r0, #4]
 800208a:	f8c2 309c 	str.w	r3, [r2, #156]	@ 0x9c
 800208e:	7ac3      	ldrb	r3, [r0, #11]
 8002090:	f890 c00c 	ldrb.w	ip, [r0, #12]
 8002094:	061b      	lsls	r3, r3, #24
 8002096:	7801      	ldrb	r1, [r0, #0]
 8002098:	ea43 730c 	orr.w	r3, r3, ip, lsl #28
 800209c:	f890 c00a 	ldrb.w	ip, [r0, #10]
 80020a0:	430b      	orrs	r3, r1
 80020a2:	7b41      	ldrb	r1, [r0, #13]
 80020a4:	ea43 43cc 	orr.w	r3, r3, ip, lsl #19
 80020a8:	f890 c00e 	ldrb.w	ip, [r0, #14]
 80020ac:	ea43 4381 	orr.w	r3, r3, r1, lsl #18
 80020b0:	7bc1      	ldrb	r1, [r0, #15]
 80020b2:	ea43 434c 	orr.w	r3, r3, ip, lsl #17
 80020b6:	f890 c009 	ldrb.w	ip, [r0, #9]
 80020ba:	ea43 4301 	orr.w	r3, r3, r1, lsl #16
 80020be:	7a01      	ldrb	r1, [r0, #8]
 80020c0:	ea43 230c 	orr.w	r3, r3, ip, lsl #8
 80020c4:	ea43 0341 	orr.w	r3, r3, r1, lsl #1
 80020c8:	f8c2 30a0 	str.w	r3, [r2, #160]	@ 0xa0
 80020cc:	4770      	bx	lr
 80020ce:	bf00      	nop
 80020d0:	e000ed00 	.word	0xe000ed00

080020d4 <HAL_DAC_Init>:
 80020d4:	b188      	cbz	r0, 80020fa <HAL_DAC_Init+0x26>
 80020d6:	b510      	push	{r4, lr}
 80020d8:	7903      	ldrb	r3, [r0, #4]
 80020da:	4604      	mov	r4, r0
 80020dc:	f003 02ff 	and.w	r2, r3, #255	@ 0xff
 80020e0:	b13b      	cbz	r3, 80020f2 <HAL_DAC_Init+0x1e>
 80020e2:	2300      	movs	r3, #0
 80020e4:	2102      	movs	r1, #2
 80020e6:	2201      	movs	r2, #1
 80020e8:	7121      	strb	r1, [r4, #4]
 80020ea:	4618      	mov	r0, r3
 80020ec:	6123      	str	r3, [r4, #16]
 80020ee:	7122      	strb	r2, [r4, #4]
 80020f0:	bd10      	pop	{r4, pc}
 80020f2:	7142      	strb	r2, [r0, #5]
 80020f4:	f7fe fba8 	bl	8000848 <HAL_DAC_MspInit>
 80020f8:	e7f3      	b.n	80020e2 <HAL_DAC_Init+0xe>
 80020fa:	2001      	movs	r0, #1
 80020fc:	4770      	bx	lr
 80020fe:	bf00      	nop

08002100 <HAL_DAC_Start>:
 8002100:	b380      	cbz	r0, 8002164 <HAL_DAC_Start+0x64>
 8002102:	7942      	ldrb	r2, [r0, #5]
 8002104:	4603      	mov	r3, r0
 8002106:	2a01      	cmp	r2, #1
 8002108:	d02e      	beq.n	8002168 <HAL_DAC_Start+0x68>
 800210a:	2202      	movs	r2, #2
 800210c:	6800      	ldr	r0, [r0, #0]
 800210e:	f001 0c10 	and.w	ip, r1, #16
 8002112:	b410      	push	{r4}
 8002114:	711a      	strb	r2, [r3, #4]
 8002116:	2201      	movs	r2, #1
 8002118:	6804      	ldr	r4, [r0, #0]
 800211a:	fa02 f20c 	lsl.w	r2, r2, ip
 800211e:	4322      	orrs	r2, r4
 8002120:	6002      	str	r2, [r0, #0]
 8002122:	6802      	ldr	r2, [r0, #0]
 8002124:	b979      	cbnz	r1, 8002146 <HAL_DAC_Start+0x46>
 8002126:	f002 023e 	and.w	r2, r2, #62	@ 0x3e
 800212a:	2a02      	cmp	r2, #2
 800212c:	d103      	bne.n	8002136 <HAL_DAC_Start+0x36>
 800212e:	6842      	ldr	r2, [r0, #4]
 8002130:	f042 0201 	orr.w	r2, r2, #1
 8002134:	6042      	str	r2, [r0, #4]
 8002136:	2200      	movs	r2, #0
 8002138:	2101      	movs	r1, #1
 800213a:	715a      	strb	r2, [r3, #5]
 800213c:	4610      	mov	r0, r2
 800213e:	7119      	strb	r1, [r3, #4]
 8002140:	f85d 4b04 	ldr.w	r4, [sp], #4
 8002144:	4770      	bx	lr
 8002146:	f1bc 0f00 	cmp.w	ip, #0
 800214a:	f402 1278 	and.w	r2, r2, #4063232	@ 0x3e0000
 800214e:	bf0c      	ite	eq
 8002150:	2102      	moveq	r1, #2
 8002152:	f44f 3100 	movne.w	r1, #131072	@ 0x20000
 8002156:	428a      	cmp	r2, r1
 8002158:	d1ed      	bne.n	8002136 <HAL_DAC_Start+0x36>
 800215a:	6842      	ldr	r2, [r0, #4]
 800215c:	f042 0202 	orr.w	r2, r2, #2
 8002160:	6042      	str	r2, [r0, #4]
 8002162:	e7e8      	b.n	8002136 <HAL_DAC_Start+0x36>
 8002164:	2001      	movs	r0, #1
 8002166:	4770      	bx	lr
 8002168:	2002      	movs	r0, #2
 800216a:	4770      	bx	lr

0800216c <HAL_DAC_SetValue>:
 800216c:	b410      	push	{r4}
 800216e:	2400      	movs	r4, #0
 8002170:	b083      	sub	sp, #12
 8002172:	9401      	str	r4, [sp, #4]
 8002174:	b190      	cbz	r0, 800219c <HAL_DAC_SetValue+0x30>
 8002176:	6800      	ldr	r0, [r0, #0]
 8002178:	9001      	str	r0, [sp, #4]
 800217a:	b151      	cbz	r1, 8002192 <HAL_DAC_SetValue+0x26>
 800217c:	9901      	ldr	r1, [sp, #4]
 800217e:	3114      	adds	r1, #20
 8002180:	440a      	add	r2, r1
 8002182:	9201      	str	r2, [sp, #4]
 8002184:	9a01      	ldr	r2, [sp, #4]
 8002186:	2000      	movs	r0, #0
 8002188:	6013      	str	r3, [r2, #0]
 800218a:	b003      	add	sp, #12
 800218c:	f85d 4b04 	ldr.w	r4, [sp], #4
 8002190:	4770      	bx	lr
 8002192:	9901      	ldr	r1, [sp, #4]
 8002194:	3108      	adds	r1, #8
 8002196:	440a      	add	r2, r1
 8002198:	9201      	str	r2, [sp, #4]
 800219a:	e7f3      	b.n	8002184 <HAL_DAC_SetValue+0x18>
 800219c:	2001      	movs	r0, #1
 800219e:	b003      	add	sp, #12
 80021a0:	f85d 4b04 	ldr.w	r4, [sp], #4
 80021a4:	4770      	bx	lr
 80021a6:	bf00      	nop

080021a8 <HAL_DAC_ConfigChannel>:
 80021a8:	2800      	cmp	r0, #0
 80021aa:	f000 809e 	beq.w	80022ea <HAL_DAC_ConfigChannel+0x142>
 80021ae:	e92d 41f0 	stmdb	sp!, {r4, r5, r6, r7, r8, lr}
 80021b2:	460d      	mov	r5, r1
 80021b4:	2900      	cmp	r1, #0
 80021b6:	d04e      	beq.n	8002256 <HAL_DAC_ConfigChannel+0xae>
 80021b8:	7943      	ldrb	r3, [r0, #5]
 80021ba:	4604      	mov	r4, r0
 80021bc:	6809      	ldr	r1, [r1, #0]
 80021be:	2b01      	cmp	r3, #1
 80021c0:	f000 8091 	beq.w	80022e6 <HAL_DAC_ConfigChannel+0x13e>
 80021c4:	2301      	movs	r3, #1
 80021c6:	2904      	cmp	r1, #4
 80021c8:	4616      	mov	r6, r2
 80021ca:	7143      	strb	r3, [r0, #5]
 80021cc:	f04f 0302 	mov.w	r3, #2
 80021d0:	7103      	strb	r3, [r0, #4]
 80021d2:	d043      	beq.n	800225c <HAL_DAC_ConfigChannel+0xb4>
 80021d4:	f002 0210 	and.w	r2, r2, #16
 80021d8:	6803      	ldr	r3, [r0, #0]
 80021da:	6928      	ldr	r0, [r5, #16]
 80021dc:	2801      	cmp	r0, #1
 80021de:	d108      	bne.n	80021f2 <HAL_DAC_ConfigChannel+0x4a>
 80021e0:	201f      	movs	r0, #31
 80021e2:	6b9e      	ldr	r6, [r3, #56]	@ 0x38
 80021e4:	4090      	lsls	r0, r2
 80021e6:	ea26 0600 	bic.w	r6, r6, r0
 80021ea:	6968      	ldr	r0, [r5, #20]
 80021ec:	4090      	lsls	r0, r2
 80021ee:	4330      	orrs	r0, r6
 80021f0:	6398      	str	r0, [r3, #56]	@ 0x38
 80021f2:	2007      	movs	r0, #7
 80021f4:	6bde      	ldr	r6, [r3, #60]	@ 0x3c
 80021f6:	4090      	lsls	r0, r2
 80021f8:	ea26 0600 	bic.w	r6, r6, r0
 80021fc:	e9d5 7002 	ldrd	r7, r0, [r5, #8]
 8002200:	2801      	cmp	r0, #1
 8002202:	d06c      	beq.n	80022de <HAL_DAC_ConfigChannel+0x136>
 8002204:	2802      	cmp	r0, #2
 8002206:	d06c      	beq.n	80022e2 <HAL_DAC_ConfigChannel+0x13a>
 8002208:	fab7 f087 	clz	r0, r7
 800220c:	0940      	lsrs	r0, r0, #5
 800220e:	4339      	orrs	r1, r7
 8002210:	4301      	orrs	r1, r0
 8002212:	6868      	ldr	r0, [r5, #4]
 8002214:	f44f 4580 	mov.w	r5, #16384	@ 0x4000
 8002218:	4091      	lsls	r1, r2
 800221a:	4090      	lsls	r0, r2
 800221c:	4095      	lsls	r5, r2
 800221e:	4331      	orrs	r1, r6
 8002220:	2601      	movs	r6, #1
 8002222:	63d9      	str	r1, [r3, #60]	@ 0x3c
 8002224:	6819      	ldr	r1, [r3, #0]
 8002226:	ea21 0105 	bic.w	r1, r1, r5
 800222a:	f640 75fe 	movw	r5, #4094	@ 0xffe
 800222e:	6019      	str	r1, [r3, #0]
 8002230:	4095      	lsls	r5, r2
 8002232:	6819      	ldr	r1, [r3, #0]
 8002234:	ea21 0105 	bic.w	r1, r1, r5
 8002238:	2500      	movs	r5, #0
 800223a:	4301      	orrs	r1, r0
 800223c:	20c0      	movs	r0, #192	@ 0xc0
 800223e:	6019      	str	r1, [r3, #0]
 8002240:	fa00 f102 	lsl.w	r1, r0, r2
 8002244:	681a      	ldr	r2, [r3, #0]
 8002246:	4628      	mov	r0, r5
 8002248:	ea22 0201 	bic.w	r2, r2, r1
 800224c:	601a      	str	r2, [r3, #0]
 800224e:	7126      	strb	r6, [r4, #4]
 8002250:	7165      	strb	r5, [r4, #5]
 8002252:	e8bd 81f0 	ldmia.w	sp!, {r4, r5, r6, r7, r8, pc}
 8002256:	2001      	movs	r0, #1
 8002258:	e8bd 81f0 	ldmia.w	sp!, {r4, r5, r6, r7, r8, pc}
 800225c:	f7fe fed6 	bl	800100c <HAL_GetTick>
 8002260:	6823      	ldr	r3, [r4, #0]
 8002262:	4607      	mov	r7, r0
 8002264:	6b5a      	ldr	r2, [r3, #52]	@ 0x34
 8002266:	b9fe      	cbnz	r6, 80022a8 <HAL_DAC_ConfigChannel+0x100>
 8002268:	f8df 8094 	ldr.w	r8, [pc, #148]	@ 8002300 <HAL_DAC_ConfigChannel+0x158>
 800226c:	ea12 0f08 	tst.w	r2, r8
 8002270:	d00d      	beq.n	800228e <HAL_DAC_ConfigChannel+0xe6>
 8002272:	f7fe fecb 	bl	800100c <HAL_GetTick>
 8002276:	1bc0      	subs	r0, r0, r7
 8002278:	6823      	ldr	r3, [r4, #0]
 800227a:	2801      	cmp	r0, #1
 800227c:	d903      	bls.n	8002286 <HAL_DAC_ConfigChannel+0xde>
 800227e:	6b5a      	ldr	r2, [r3, #52]	@ 0x34
 8002280:	ea12 0f08 	tst.w	r2, r8
 8002284:	d133      	bne.n	80022ee <HAL_DAC_ConfigChannel+0x146>
 8002286:	6b5a      	ldr	r2, [r3, #52]	@ 0x34
 8002288:	ea12 0f08 	tst.w	r2, r8
 800228c:	d1f1      	bne.n	8002272 <HAL_DAC_ConfigChannel+0xca>
 800228e:	69aa      	ldr	r2, [r5, #24]
 8002290:	641a      	str	r2, [r3, #64]	@ 0x40
 8002292:	e00d      	b.n	80022b0 <HAL_DAC_ConfigChannel+0x108>
 8002294:	f7fe feba 	bl	800100c <HAL_GetTick>
 8002298:	1bc0      	subs	r0, r0, r7
 800229a:	6823      	ldr	r3, [r4, #0]
 800229c:	2801      	cmp	r0, #1
 800229e:	d902      	bls.n	80022a6 <HAL_DAC_ConfigChannel+0xfe>
 80022a0:	6b5a      	ldr	r2, [r3, #52]	@ 0x34
 80022a2:	2a00      	cmp	r2, #0
 80022a4:	db23      	blt.n	80022ee <HAL_DAC_ConfigChannel+0x146>
 80022a6:	6b5a      	ldr	r2, [r3, #52]	@ 0x34
 80022a8:	2a00      	cmp	r2, #0
 80022aa:	dbf3      	blt.n	8002294 <HAL_DAC_ConfigChannel+0xec>
 80022ac:	69aa      	ldr	r2, [r5, #24]
 80022ae:	645a      	str	r2, [r3, #68]	@ 0x44
 80022b0:	f006 0210 	and.w	r2, r6, #16
 80022b4:	f240 30ff 	movw	r0, #1023	@ 0x3ff
 80022b8:	6c99      	ldr	r1, [r3, #72]	@ 0x48
 80022ba:	4090      	lsls	r0, r2
 80022bc:	ea21 0100 	bic.w	r1, r1, r0
 80022c0:	69e8      	ldr	r0, [r5, #28]
 80022c2:	4090      	lsls	r0, r2
 80022c4:	4301      	orrs	r1, r0
 80022c6:	20ff      	movs	r0, #255	@ 0xff
 80022c8:	6499      	str	r1, [r3, #72]	@ 0x48
 80022ca:	4090      	lsls	r0, r2
 80022cc:	6cd9      	ldr	r1, [r3, #76]	@ 0x4c
 80022ce:	ea21 0100 	bic.w	r1, r1, r0
 80022d2:	6a28      	ldr	r0, [r5, #32]
 80022d4:	4090      	lsls	r0, r2
 80022d6:	4301      	orrs	r1, r0
 80022d8:	64d9      	str	r1, [r3, #76]	@ 0x4c
 80022da:	6829      	ldr	r1, [r5, #0]
 80022dc:	e77d      	b.n	80021da <HAL_DAC_ConfigChannel+0x32>
 80022de:	2000      	movs	r0, #0
 80022e0:	e795      	b.n	800220e <HAL_DAC_ConfigChannel+0x66>
 80022e2:	2001      	movs	r0, #1
 80022e4:	e793      	b.n	800220e <HAL_DAC_ConfigChannel+0x66>
 80022e6:	2002      	movs	r0, #2
 80022e8:	e7b3      	b.n	8002252 <HAL_DAC_ConfigChannel+0xaa>
 80022ea:	2001      	movs	r0, #1
 80022ec:	4770      	bx	lr
 80022ee:	6923      	ldr	r3, [r4, #16]
 80022f0:	2203      	movs	r2, #3
 80022f2:	2003      	movs	r0, #3
 80022f4:	f043 0308 	orr.w	r3, r3, #8
 80022f8:	6123      	str	r3, [r4, #16]
 80022fa:	7122      	strb	r2, [r4, #4]
 80022fc:	e7a9      	b.n	8002252 <HAL_DAC_ConfigChannel+0xaa>
 80022fe:	bf00      	nop
 8002300:	20008000 	.word	0x20008000

08002304 <HAL_GPIO_Init>:
 8002304:	680b      	ldr	r3, [r1, #0]
 8002306:	2b00      	cmp	r3, #0
 8002308:	f000 81e9 	beq.w	80026de <HAL_GPIO_Init+0x3da>
 800230c:	4ac2      	ldr	r2, [pc, #776]	@ (8002618 <HAL_GPIO_Init+0x314>)
 800230e:	4290      	cmp	r0, r2
 8002310:	f04f 0200 	mov.w	r2, #0
 8002314:	e92d 4ff0 	stmdb	sp!, {r4, r5, r6, r7, r8, r9, sl, fp, lr}
 8002318:	f04f 48b0 	mov.w	r8, #1476395008	@ 0x58000000
 800231c:	b085      	sub	sp, #20
 800231e:	f000 80d2 	beq.w	80024c6 <HAL_GPIO_Init+0x1c2>
 8002322:	2401      	movs	r4, #1
 8002324:	fa04 f502 	lsl.w	r5, r4, r2
 8002328:	ea15 0903 	ands.w	r9, r5, r3
 800232c:	f000 8113 	beq.w	8002556 <HAL_GPIO_Init+0x252>
 8002330:	684f      	ldr	r7, [r1, #4]
 8002332:	fa02 f404 	lsl.w	r4, r2, r4
 8002336:	f04f 0c03 	mov.w	ip, #3
 800233a:	688e      	ldr	r6, [r1, #8]
 800233c:	f007 0e03 	and.w	lr, r7, #3
 8002340:	fa0c fc04 	lsl.w	ip, ip, r4
 8002344:	f10e 3aff 	add.w	sl, lr, #4294967295
 8002348:	ea6f 0c0c 	mvn.w	ip, ip
 800234c:	f1ba 0f01 	cmp.w	sl, #1
 8002350:	f240 8109 	bls.w	8002566 <HAL_GPIO_Init+0x262>
 8002354:	f1be 0f03 	cmp.w	lr, #3
 8002358:	d101      	bne.n	800235e <HAL_GPIO_Init+0x5a>
 800235a:	2e01      	cmp	r6, #1
 800235c:	d005      	beq.n	800236a <HAL_GPIO_Init+0x66>
 800235e:	68c5      	ldr	r5, [r0, #12]
 8002360:	40a6      	lsls	r6, r4
 8002362:	ea05 050c 	and.w	r5, r5, ip
 8002366:	432e      	orrs	r6, r5
 8002368:	60c6      	str	r6, [r0, #12]
 800236a:	6805      	ldr	r5, [r0, #0]
 800236c:	fa0e f404 	lsl.w	r4, lr, r4
 8002370:	f417 3f40 	tst.w	r7, #196608	@ 0x30000
 8002374:	ea05 050c 	and.w	r5, r5, ip
 8002378:	ea44 0405 	orr.w	r4, r4, r5
 800237c:	6004      	str	r4, [r0, #0]
 800237e:	f000 80ea 	beq.w	8002556 <HAL_GPIO_Init+0x252>
 8002382:	4da6      	ldr	r5, [pc, #664]	@ (800261c <HAL_GPIO_Init+0x318>)
 8002384:	f002 0603 	and.w	r6, r2, #3
 8002388:	f04f 0c0f 	mov.w	ip, #15
 800238c:	f8d5 40f4 	ldr.w	r4, [r5, #244]	@ 0xf4
 8002390:	00b6      	lsls	r6, r6, #2
 8002392:	f044 0402 	orr.w	r4, r4, #2
 8002396:	fa0c fc06 	lsl.w	ip, ip, r6
 800239a:	f8c5 40f4 	str.w	r4, [r5, #244]	@ 0xf4
 800239e:	f8d5 40f4 	ldr.w	r4, [r5, #244]	@ 0xf4
 80023a2:	f022 0503 	bic.w	r5, r2, #3
 80023a6:	f105 45b0 	add.w	r5, r5, #1476395008	@ 0x58000000
 80023aa:	f004 0402 	and.w	r4, r4, #2
 80023ae:	f505 6580 	add.w	r5, r5, #1024	@ 0x400
 80023b2:	9403      	str	r4, [sp, #12]
 80023b4:	9c03      	ldr	r4, [sp, #12]
 80023b6:	68ac      	ldr	r4, [r5, #8]
 80023b8:	ea24 0e0c 	bic.w	lr, r4, ip
 80023bc:	4c98      	ldr	r4, [pc, #608]	@ (8002620 <HAL_GPIO_Init+0x31c>)
 80023be:	42a0      	cmp	r0, r4
 80023c0:	f000 8178 	beq.w	80026b4 <HAL_GPIO_Init+0x3b0>
 80023c4:	4c97      	ldr	r4, [pc, #604]	@ (8002624 <HAL_GPIO_Init+0x320>)
 80023c6:	42a0      	cmp	r0, r4
 80023c8:	f000 8098 	beq.w	80024fc <HAL_GPIO_Init+0x1f8>
 80023cc:	f8df c258 	ldr.w	ip, [pc, #600]	@ 8002628 <HAL_GPIO_Init+0x324>
 80023d0:	4560      	cmp	r0, ip
 80023d2:	f000 817d 	beq.w	80026d0 <HAL_GPIO_Init+0x3cc>
 80023d6:	f8df c254 	ldr.w	ip, [pc, #596]	@ 800262c <HAL_GPIO_Init+0x328>
 80023da:	4560      	cmp	r0, ip
 80023dc:	f000 8180 	beq.w	80026e0 <HAL_GPIO_Init+0x3dc>
 80023e0:	f8df c24c 	ldr.w	ip, [pc, #588]	@ 8002630 <HAL_GPIO_Init+0x32c>
 80023e4:	4560      	cmp	r0, ip
 80023e6:	f000 816c 	beq.w	80026c2 <HAL_GPIO_Init+0x3be>
 80023ea:	f8df c248 	ldr.w	ip, [pc, #584]	@ 8002634 <HAL_GPIO_Init+0x330>
 80023ee:	4560      	cmp	r0, ip
 80023f0:	f000 817d 	beq.w	80026ee <HAL_GPIO_Init+0x3ea>
 80023f4:	f8df c240 	ldr.w	ip, [pc, #576]	@ 8002638 <HAL_GPIO_Init+0x334>
 80023f8:	4560      	cmp	r0, ip
 80023fa:	f000 817f 	beq.w	80026fc <HAL_GPIO_Init+0x3f8>
 80023fe:	f8df c23c 	ldr.w	ip, [pc, #572]	@ 800263c <HAL_GPIO_Init+0x338>
 8002402:	4560      	cmp	r0, ip
 8002404:	bf0c      	ite	eq
 8002406:	f04f 0c09 	moveq.w	ip, #9
 800240a:	f04f 0c0a 	movne.w	ip, #10
 800240e:	fa0c f606 	lsl.w	r6, ip, r6
 8002412:	ea4e 0406 	orr.w	r4, lr, r6
 8002416:	e077      	b.n	8002508 <HAL_GPIO_Init+0x204>
 8002418:	2e01      	cmp	r6, #1
 800241a:	d006      	beq.n	800242a <HAL_GPIO_Init+0x126>
 800241c:	68c5      	ldr	r5, [r0, #12]
 800241e:	fa06 f60e 	lsl.w	r6, r6, lr
 8002422:	ea0c 0505 	and.w	r5, ip, r5
 8002426:	432e      	orrs	r6, r5
 8002428:	60c6      	str	r6, [r0, #12]
 800242a:	6805      	ldr	r5, [r0, #0]
 800242c:	fa04 f40e 	lsl.w	r4, r4, lr
 8002430:	f417 3f40 	tst.w	r7, #196608	@ 0x30000
 8002434:	ea05 050c 	and.w	r5, r5, ip
 8002438:	ea44 0405 	orr.w	r4, r4, r5
 800243c:	6004      	str	r4, [r0, #0]
 800243e:	d03e      	beq.n	80024be <HAL_GPIO_Init+0x1ba>
 8002440:	4d76      	ldr	r5, [pc, #472]	@ (800261c <HAL_GPIO_Init+0x318>)
 8002442:	260f      	movs	r6, #15
 8002444:	f8d5 40f4 	ldr.w	r4, [r5, #244]	@ 0xf4
 8002448:	f044 0402 	orr.w	r4, r4, #2
 800244c:	f8c5 40f4 	str.w	r4, [r5, #244]	@ 0xf4
 8002450:	f8d5 40f4 	ldr.w	r4, [r5, #244]	@ 0xf4
 8002454:	f022 0503 	bic.w	r5, r2, #3
 8002458:	f004 0402 	and.w	r4, r4, #2
 800245c:	f105 45b0 	add.w	r5, r5, #1476395008	@ 0x58000000
 8002460:	9403      	str	r4, [sp, #12]
 8002462:	f505 6580 	add.w	r5, r5, #1024	@ 0x400
 8002466:	9c03      	ldr	r4, [sp, #12]
 8002468:	f002 0403 	and.w	r4, r2, #3
 800246c:	00a4      	lsls	r4, r4, #2
 800246e:	fa06 f404 	lsl.w	r4, r6, r4
 8002472:	68ae      	ldr	r6, [r5, #8]
 8002474:	ea26 0404 	bic.w	r4, r6, r4
 8002478:	02fe      	lsls	r6, r7, #11
 800247a:	60ac      	str	r4, [r5, #8]
 800247c:	ea6f 0509 	mvn.w	r5, r9
 8002480:	f8d8 4000 	ldr.w	r4, [r8]
 8002484:	f100 80a9 	bmi.w	80025da <HAL_GPIO_Init+0x2d6>
 8002488:	402c      	ands	r4, r5
 800248a:	02be      	lsls	r6, r7, #10
 800248c:	f8c8 4000 	str.w	r4, [r8]
 8002490:	f8d8 4004 	ldr.w	r4, [r8, #4]
 8002494:	f100 80aa 	bmi.w	80025ec <HAL_GPIO_Init+0x2e8>
 8002498:	402c      	ands	r4, r5
 800249a:	03be      	lsls	r6, r7, #14
 800249c:	f8c8 4004 	str.w	r4, [r8, #4]
 80024a0:	f8d8 4084 	ldr.w	r4, [r8, #132]	@ 0x84
 80024a4:	f100 80ab 	bmi.w	80025fe <HAL_GPIO_Init+0x2fa>
 80024a8:	402c      	ands	r4, r5
 80024aa:	03ff      	lsls	r7, r7, #15
 80024ac:	f8c8 4084 	str.w	r4, [r8, #132]	@ 0x84
 80024b0:	f8d8 4080 	ldr.w	r4, [r8, #128]	@ 0x80
 80024b4:	f100 80ac 	bmi.w	8002610 <HAL_GPIO_Init+0x30c>
 80024b8:	402c      	ands	r4, r5
 80024ba:	f8c8 4080 	str.w	r4, [r8, #128]	@ 0x80
 80024be:	3201      	adds	r2, #1
 80024c0:	fa33 f402 	lsrs.w	r4, r3, r2
 80024c4:	d04c      	beq.n	8002560 <HAL_GPIO_Init+0x25c>
 80024c6:	2401      	movs	r4, #1
 80024c8:	fa04 f502 	lsl.w	r5, r4, r2
 80024cc:	ea13 0905 	ands.w	r9, r3, r5
 80024d0:	d0f5      	beq.n	80024be <HAL_GPIO_Init+0x1ba>
 80024d2:	684f      	ldr	r7, [r1, #4]
 80024d4:	fa02 fe04 	lsl.w	lr, r2, r4
 80024d8:	f04f 0c03 	mov.w	ip, #3
 80024dc:	688e      	ldr	r6, [r1, #8]
 80024de:	f007 0403 	and.w	r4, r7, #3
 80024e2:	fa0c fc0e 	lsl.w	ip, ip, lr
 80024e6:	f104 3aff 	add.w	sl, r4, #4294967295
 80024ea:	ea6f 0c0c 	mvn.w	ip, ip
 80024ee:	f1ba 0f01 	cmp.w	sl, #1
 80024f2:	f240 80a5 	bls.w	8002640 <HAL_GPIO_Init+0x33c>
 80024f6:	2c03      	cmp	r4, #3
 80024f8:	d08e      	beq.n	8002418 <HAL_GPIO_Init+0x114>
 80024fa:	e78f      	b.n	800241c <HAL_GPIO_Init+0x118>
 80024fc:	f04f 0c02 	mov.w	ip, #2
 8002500:	fa0c f606 	lsl.w	r6, ip, r6
 8002504:	ea4e 0406 	orr.w	r4, lr, r6
 8002508:	60ac      	str	r4, [r5, #8]
 800250a:	02fe      	lsls	r6, r7, #11
 800250c:	f8d8 4000 	ldr.w	r4, [r8]
 8002510:	ea6f 0509 	mvn.w	r5, r9
 8002514:	bf4c      	ite	mi
 8002516:	ea49 0404 	orrmi.w	r4, r9, r4
 800251a:	402c      	andpl	r4, r5
 800251c:	02be      	lsls	r6, r7, #10
 800251e:	f8c8 4000 	str.w	r4, [r8]
 8002522:	f8d8 4004 	ldr.w	r4, [r8, #4]
 8002526:	bf54      	ite	pl
 8002528:	402c      	andpl	r4, r5
 800252a:	ea49 0404 	orrmi.w	r4, r9, r4
 800252e:	03be      	lsls	r6, r7, #14
 8002530:	f8c8 4004 	str.w	r4, [r8, #4]
 8002534:	f8d8 4084 	ldr.w	r4, [r8, #132]	@ 0x84
 8002538:	bf54      	ite	pl
 800253a:	402c      	andpl	r4, r5
 800253c:	ea49 0404 	orrmi.w	r4, r9, r4
 8002540:	03fe      	lsls	r6, r7, #15
 8002542:	f8c8 4084 	str.w	r4, [r8, #132]	@ 0x84
 8002546:	f8d8 4080 	ldr.w	r4, [r8, #128]	@ 0x80
 800254a:	bf54      	ite	pl
 800254c:	402c      	andpl	r4, r5
 800254e:	ea49 0404 	orrmi.w	r4, r9, r4
 8002552:	f8c8 4080 	str.w	r4, [r8, #128]	@ 0x80
 8002556:	3201      	adds	r2, #1
 8002558:	fa33 f402 	lsrs.w	r4, r3, r2
 800255c:	f47f aee1 	bne.w	8002322 <HAL_GPIO_Init+0x1e>
 8002560:	b005      	add	sp, #20
 8002562:	e8bd 8ff0 	ldmia.w	sp!, {r4, r5, r6, r7, r8, r9, sl, fp, pc}
 8002566:	40a6      	lsls	r6, r4
 8002568:	f8d0 b008 	ldr.w	fp, [r0, #8]
 800256c:	f1be 0f02 	cmp.w	lr, #2
 8002570:	9601      	str	r6, [sp, #4]
 8002572:	ea0b 0b0c 	and.w	fp, fp, ip
 8002576:	68ce      	ldr	r6, [r1, #12]
 8002578:	fa06 fa04 	lsl.w	sl, r6, r4
 800257c:	9e01      	ldr	r6, [sp, #4]
 800257e:	ea4a 0a0b 	orr.w	sl, sl, fp
 8002582:	f8c0 a008 	str.w	sl, [r0, #8]
 8002586:	f3c7 1a00 	ubfx	sl, r7, #4, #1
 800258a:	f8d0 b004 	ldr.w	fp, [r0, #4]
 800258e:	fa0a fa02 	lsl.w	sl, sl, r2
 8002592:	ea2b 0505 	bic.w	r5, fp, r5
 8002596:	ea4a 0505 	orr.w	r5, sl, r5
 800259a:	6045      	str	r5, [r0, #4]
 800259c:	68c5      	ldr	r5, [r0, #12]
 800259e:	ea05 050c 	and.w	r5, r5, ip
 80025a2:	ea46 0605 	orr.w	r6, r6, r5
 80025a6:	60c6      	str	r6, [r0, #12]
 80025a8:	f47f aedf 	bne.w	800236a <HAL_GPIO_Init+0x66>
 80025ac:	f002 0607 	and.w	r6, r2, #7
 80025b0:	690d      	ldr	r5, [r1, #16]
 80025b2:	ea4f 0ad2 	mov.w	sl, r2, lsr #3
 80025b6:	00b6      	lsls	r6, r6, #2
 80025b8:	eb00 0a8a 	add.w	sl, r0, sl, lsl #2
 80025bc:	40b5      	lsls	r5, r6
 80025be:	f8da b020 	ldr.w	fp, [sl, #32]
 80025c2:	9501      	str	r5, [sp, #4]
 80025c4:	250f      	movs	r5, #15
 80025c6:	fa05 f606 	lsl.w	r6, r5, r6
 80025ca:	9d01      	ldr	r5, [sp, #4]
 80025cc:	ea2b 0b06 	bic.w	fp, fp, r6
 80025d0:	ea45 050b 	orr.w	r5, r5, fp
 80025d4:	f8ca 5020 	str.w	r5, [sl, #32]
 80025d8:	e6c7      	b.n	800236a <HAL_GPIO_Init+0x66>
 80025da:	ea44 0409 	orr.w	r4, r4, r9
 80025de:	02be      	lsls	r6, r7, #10
 80025e0:	f8c8 4000 	str.w	r4, [r8]
 80025e4:	f8d8 4004 	ldr.w	r4, [r8, #4]
 80025e8:	f57f af56 	bpl.w	8002498 <HAL_GPIO_Init+0x194>
 80025ec:	ea49 0404 	orr.w	r4, r9, r4
 80025f0:	03be      	lsls	r6, r7, #14
 80025f2:	f8c8 4004 	str.w	r4, [r8, #4]
 80025f6:	f8d8 4084 	ldr.w	r4, [r8, #132]	@ 0x84
 80025fa:	f57f af55 	bpl.w	80024a8 <HAL_GPIO_Init+0x1a4>
 80025fe:	ea44 0409 	orr.w	r4, r4, r9
 8002602:	03ff      	lsls	r7, r7, #15
 8002604:	f8c8 4084 	str.w	r4, [r8, #132]	@ 0x84
 8002608:	f8d8 4080 	ldr.w	r4, [r8, #128]	@ 0x80
 800260c:	f57f af54 	bpl.w	80024b8 <HAL_GPIO_Init+0x1b4>
 8002610:	ea44 0409 	orr.w	r4, r4, r9
 8002614:	e751      	b.n	80024ba <HAL_GPIO_Init+0x1b6>
 8002616:	bf00      	nop
 8002618:	58020000 	.word	0x58020000
 800261c:	58024400 	.word	0x58024400
 8002620:	58020400 	.word	0x58020400
 8002624:	58020800 	.word	0x58020800
 8002628:	58020c00 	.word	0x58020c00
 800262c:	58021000 	.word	0x58021000
 8002630:	58021400 	.word	0x58021400
 8002634:	58021800 	.word	0x58021800
 8002638:	58021c00 	.word	0x58021c00
 800263c:	58022400 	.word	0x58022400
 8002640:	fa06 f60e 	lsl.w	r6, r6, lr
 8002644:	f8d0 b008 	ldr.w	fp, [r0, #8]
 8002648:	2c02      	cmp	r4, #2
 800264a:	9601      	str	r6, [sp, #4]
 800264c:	ea0c 0b0b 	and.w	fp, ip, fp
 8002650:	68ce      	ldr	r6, [r1, #12]
 8002652:	fa06 fa0e 	lsl.w	sl, r6, lr
 8002656:	9e01      	ldr	r6, [sp, #4]
 8002658:	ea4a 0a0b 	orr.w	sl, sl, fp
 800265c:	f8c0 a008 	str.w	sl, [r0, #8]
 8002660:	f3c7 1a00 	ubfx	sl, r7, #4, #1
 8002664:	f8d0 b004 	ldr.w	fp, [r0, #4]
 8002668:	fa0a fa02 	lsl.w	sl, sl, r2
 800266c:	ea2b 0505 	bic.w	r5, fp, r5
 8002670:	ea4a 0505 	orr.w	r5, sl, r5
 8002674:	6045      	str	r5, [r0, #4]
 8002676:	68c5      	ldr	r5, [r0, #12]
 8002678:	ea0c 0505 	and.w	r5, ip, r5
 800267c:	ea46 0605 	orr.w	r6, r6, r5
 8002680:	60c6      	str	r6, [r0, #12]
 8002682:	f47f aed2 	bne.w	800242a <HAL_GPIO_Init+0x126>
 8002686:	f002 0607 	and.w	r6, r2, #7
 800268a:	690d      	ldr	r5, [r1, #16]
 800268c:	ea4f 0ad2 	mov.w	sl, r2, lsr #3
 8002690:	00b6      	lsls	r6, r6, #2
 8002692:	eb00 0a8a 	add.w	sl, r0, sl, lsl #2
 8002696:	40b5      	lsls	r5, r6
 8002698:	f8da b020 	ldr.w	fp, [sl, #32]
 800269c:	9501      	str	r5, [sp, #4]
 800269e:	250f      	movs	r5, #15
 80026a0:	fa05 f606 	lsl.w	r6, r5, r6
 80026a4:	9d01      	ldr	r5, [sp, #4]
 80026a6:	ea2b 0b06 	bic.w	fp, fp, r6
 80026aa:	ea45 050b 	orr.w	r5, r5, fp
 80026ae:	f8ca 5020 	str.w	r5, [sl, #32]
 80026b2:	e6ba      	b.n	800242a <HAL_GPIO_Init+0x126>
 80026b4:	f04f 0c01 	mov.w	ip, #1
 80026b8:	fa0c f606 	lsl.w	r6, ip, r6
 80026bc:	ea4e 0406 	orr.w	r4, lr, r6
 80026c0:	e722      	b.n	8002508 <HAL_GPIO_Init+0x204>
 80026c2:	f04f 0c05 	mov.w	ip, #5
 80026c6:	fa0c f606 	lsl.w	r6, ip, r6
 80026ca:	ea4e 0406 	orr.w	r4, lr, r6
 80026ce:	e71b      	b.n	8002508 <HAL_GPIO_Init+0x204>
 80026d0:	f04f 0c03 	mov.w	ip, #3
 80026d4:	fa0c f606 	lsl.w	r6, ip, r6
 80026d8:	ea4e 0406 	orr.w	r4, lr, r6
 80026dc:	e714      	b.n	8002508 <HAL_GPIO_Init+0x204>
 80026de:	4770      	bx	lr
 80026e0:	f04f 0c04 	mov.w	ip, #4
 80026e4:	fa0c f606 	lsl.w	r6, ip, r6
 80026e8:	ea4e 0406 	orr.w	r4, lr, r6
 80026ec:	e70c      	b.n	8002508 <HAL_GPIO_Init+0x204>
 80026ee:	f04f 0c06 	mov.w	ip, #6
 80026f2:	fa0c f606 	lsl.w	r6, ip, r6
 80026f6:	ea4e 0406 	orr.w	r4, lr, r6
 80026fa:	e705      	b.n	8002508 <HAL_GPIO_Init+0x204>
 80026fc:	f04f 0c07 	mov.w	ip, #7
 8002700:	fa0c f606 	lsl.w	r6, ip, r6
 8002704:	ea4e 0406 	orr.w	r4, lr, r6
 8002708:	e6fe      	b.n	8002508 <HAL_GPIO_Init+0x204>
 800270a:	bf00      	nop

0800270c <HAL_GPIO_ReadPin>:
 800270c:	6903      	ldr	r3, [r0, #16]
 800270e:	4019      	ands	r1, r3
 8002710:	1e08      	subs	r0, r1, #0
 8002712:	bf18      	it	ne
 8002714:	2001      	movne	r0, #1
 8002716:	4770      	bx	lr

08002718 <HAL_GPIO_WritePin>:
 8002718:	b902      	cbnz	r2, 800271c <HAL_GPIO_WritePin+0x4>
 800271a:	0409      	lsls	r1, r1, #16
 800271c:	6181      	str	r1, [r0, #24]
 800271e:	4770      	bx	lr

08002720 <HAL_GPIO_TogglePin>:
 8002720:	6943      	ldr	r3, [r0, #20]
 8002722:	ea01 0203 	and.w	r2, r1, r3
 8002726:	ea21 0103 	bic.w	r1, r1, r3
 800272a:	ea41 4102 	orr.w	r1, r1, r2, lsl #16
 800272e:	6181      	str	r1, [r0, #24]
 8002730:	4770      	bx	lr
 8002732:	bf00      	nop

08002734 <HAL_PWREx_ConfigSupply>:
 8002734:	b538      	push	{r3, r4, r5, lr}
 8002736:	4c10      	ldr	r4, [pc, #64]	@ (8002778 <HAL_PWREx_ConfigSupply+0x44>)
 8002738:	68e3      	ldr	r3, [r4, #12]
 800273a:	f013 0f04 	tst.w	r3, #4
 800273e:	68e3      	ldr	r3, [r4, #12]
 8002740:	d105      	bne.n	800274e <HAL_PWREx_ConfigSupply+0x1a>
 8002742:	f003 0307 	and.w	r3, r3, #7
 8002746:	1a18      	subs	r0, r3, r0
 8002748:	bf18      	it	ne
 800274a:	2001      	movne	r0, #1
 800274c:	bd38      	pop	{r3, r4, r5, pc}
 800274e:	f023 0307 	bic.w	r3, r3, #7
 8002752:	4303      	orrs	r3, r0
 8002754:	60e3      	str	r3, [r4, #12]
 8002756:	f7fe fc59 	bl	800100c <HAL_GetTick>
 800275a:	4605      	mov	r5, r0
 800275c:	e005      	b.n	800276a <HAL_PWREx_ConfigSupply+0x36>
 800275e:	f7fe fc55 	bl	800100c <HAL_GetTick>
 8002762:	1b40      	subs	r0, r0, r5
 8002764:	f5b0 7f7a 	cmp.w	r0, #1000	@ 0x3e8
 8002768:	d804      	bhi.n	8002774 <HAL_PWREx_ConfigSupply+0x40>
 800276a:	6863      	ldr	r3, [r4, #4]
 800276c:	049b      	lsls	r3, r3, #18
 800276e:	d5f6      	bpl.n	800275e <HAL_PWREx_ConfigSupply+0x2a>
 8002770:	2000      	movs	r0, #0
 8002772:	bd38      	pop	{r3, r4, r5, pc}
 8002774:	2001      	movs	r0, #1
 8002776:	bd38      	pop	{r3, r4, r5, pc}
 8002778:	58024800 	.word	0x58024800

0800277c <HAL_RCC_GetSysClockFreq.part.0>:
 800277c:	4b33      	ldr	r3, [pc, #204]	@ (800284c <HAL_RCC_GetSysClockFreq.part.0+0xd0>)
 800277e:	b430      	push	{r4, r5}
 8002780:	6a99      	ldr	r1, [r3, #40]	@ 0x28
 8002782:	6a9c      	ldr	r4, [r3, #40]	@ 0x28
 8002784:	6add      	ldr	r5, [r3, #44]	@ 0x2c
 8002786:	f414 7f7c 	tst.w	r4, #1008	@ 0x3f0
 800278a:	6b5a      	ldr	r2, [r3, #52]	@ 0x34
 800278c:	f3c4 1005 	ubfx	r0, r4, #4, #6
 8002790:	d036      	beq.n	8002800 <HAL_RCC_GetSysClockFreq.part.0+0x84>
 8002792:	f3c2 02cc 	ubfx	r2, r2, #3, #13
 8002796:	f005 0501 	and.w	r5, r5, #1
 800279a:	f001 0103 	and.w	r1, r1, #3
 800279e:	ee07 0a90 	vmov	s15, r0
 80027a2:	fb05 f202 	mul.w	r2, r5, r2
 80027a6:	2901      	cmp	r1, #1
 80027a8:	eeb8 7ae7 	vcvt.f32.s32	s14, s15
 80027ac:	ee06 2a90 	vmov	s13, r2
 80027b0:	eefa 6ae9 	vcvt.f32.s32	s13, s13, #13
 80027b4:	d002      	beq.n	80027bc <HAL_RCC_GetSysClockFreq.part.0+0x40>
 80027b6:	2902      	cmp	r1, #2
 80027b8:	d042      	beq.n	8002840 <HAL_RCC_GetSysClockFreq.part.0+0xc4>
 80027ba:	b319      	cbz	r1, 8002804 <HAL_RCC_GetSysClockFreq.part.0+0x88>
 80027bc:	eddf 7a24 	vldr	s15, [pc, #144]	@ 8002850 <HAL_RCC_GetSysClockFreq.part.0+0xd4>
 80027c0:	ee87 6a87 	vdiv.f32	s12, s15, s14
 80027c4:	6b1b      	ldr	r3, [r3, #48]	@ 0x30
 80027c6:	f3c3 0308 	ubfx	r3, r3, #0, #9
 80027ca:	ee07 3a90 	vmov	s15, r3
 80027ce:	eef7 5a00 	vmov.f32	s11, #112	@ 0x3f800000  1.0
 80027d2:	eef8 7ae7 	vcvt.f32.s32	s15, s15
 80027d6:	ee77 7aa6 	vadd.f32	s15, s15, s13
 80027da:	ee77 7aa5 	vadd.f32	s15, s15, s11
 80027de:	ee67 7a86 	vmul.f32	s15, s15, s12
 80027e2:	4b1a      	ldr	r3, [pc, #104]	@ (800284c <HAL_RCC_GetSysClockFreq.part.0+0xd0>)
 80027e4:	6b1b      	ldr	r3, [r3, #48]	@ 0x30
 80027e6:	f3c3 2346 	ubfx	r3, r3, #9, #7
 80027ea:	3301      	adds	r3, #1
 80027ec:	ee07 3a10 	vmov	s14, r3
 80027f0:	eef8 6ac7 	vcvt.f32.s32	s13, s14
 80027f4:	ee87 7aa6 	vdiv.f32	s14, s15, s13
 80027f8:	eefc 7ac7 	vcvt.u32.f32	s15, s14
 80027fc:	ee17 0a90 	vmov	r0, s15
 8002800:	bc30      	pop	{r4, r5}
 8002802:	4770      	bx	lr
 8002804:	681a      	ldr	r2, [r3, #0]
 8002806:	0692      	lsls	r2, r2, #26
 8002808:	d51d      	bpl.n	8002846 <HAL_RCC_GetSysClockFreq.part.0+0xca>
 800280a:	6819      	ldr	r1, [r3, #0]
 800280c:	eef7 5a00 	vmov.f32	s11, #112	@ 0x3f800000  1.0
 8002810:	4a10      	ldr	r2, [pc, #64]	@ (8002854 <HAL_RCC_GetSysClockFreq.part.0+0xd8>)
 8002812:	6b1b      	ldr	r3, [r3, #48]	@ 0x30
 8002814:	f3c1 01c1 	ubfx	r1, r1, #3, #2
 8002818:	f3c3 0308 	ubfx	r3, r3, #0, #9
 800281c:	40ca      	lsrs	r2, r1
 800281e:	ee07 3a90 	vmov	s15, r3
 8002822:	ee06 2a10 	vmov	s12, r2
 8002826:	eef8 7ae7 	vcvt.f32.s32	s15, s15
 800282a:	eeb8 6ac6 	vcvt.f32.s32	s12, s12
 800282e:	ee77 6aa6 	vadd.f32	s13, s15, s13
 8002832:	eec6 7a07 	vdiv.f32	s15, s12, s14
 8002836:	ee36 7aa5 	vadd.f32	s14, s13, s11
 800283a:	ee67 7a87 	vmul.f32	s15, s15, s14
 800283e:	e7d0      	b.n	80027e2 <HAL_RCC_GetSysClockFreq.part.0+0x66>
 8002840:	eddf 7a05 	vldr	s15, [pc, #20]	@ 8002858 <HAL_RCC_GetSysClockFreq.part.0+0xdc>
 8002844:	e7bc      	b.n	80027c0 <HAL_RCC_GetSysClockFreq.part.0+0x44>
 8002846:	eddf 7a05 	vldr	s15, [pc, #20]	@ 800285c <HAL_RCC_GetSysClockFreq.part.0+0xe0>
 800284a:	e7b9      	b.n	80027c0 <HAL_RCC_GetSysClockFreq.part.0+0x44>
 800284c:	58024400 	.word	0x58024400
 8002850:	4a742400 	.word	0x4a742400
 8002854:	03d09000 	.word	0x03d09000
 8002858:	4af42400 	.word	0x4af42400
 800285c:	4c742400 	.word	0x4c742400

08002860 <HAL_RCC_OscConfig>:
 8002860:	2800      	cmp	r0, #0
 8002862:	f000 81bd 	beq.w	8002be0 <HAL_RCC_OscConfig+0x380>
 8002866:	b5f8      	push	{r3, r4, r5, r6, r7, lr}
 8002868:	6803      	ldr	r3, [r0, #0]
 800286a:	4604      	mov	r4, r0
 800286c:	07d9      	lsls	r1, r3, #31
 800286e:	d52e      	bpl.n	80028ce <HAL_RCC_OscConfig+0x6e>
 8002870:	4993      	ldr	r1, [pc, #588]	@ (8002ac0 <HAL_RCC_OscConfig+0x260>)
 8002872:	690a      	ldr	r2, [r1, #16]
 8002874:	6a89      	ldr	r1, [r1, #40]	@ 0x28
 8002876:	f002 0238 	and.w	r2, r2, #56	@ 0x38
 800287a:	2a10      	cmp	r2, #16
 800287c:	f000 80f0 	beq.w	8002a60 <HAL_RCC_OscConfig+0x200>
 8002880:	2a18      	cmp	r2, #24
 8002882:	f000 80e8 	beq.w	8002a56 <HAL_RCC_OscConfig+0x1f6>
 8002886:	6863      	ldr	r3, [r4, #4]
 8002888:	f5b3 3f80 	cmp.w	r3, #65536	@ 0x10000
 800288c:	f000 8108 	beq.w	8002aa0 <HAL_RCC_OscConfig+0x240>
 8002890:	2b00      	cmp	r3, #0
 8002892:	f000 8146 	beq.w	8002b22 <HAL_RCC_OscConfig+0x2c2>
 8002896:	f5b3 2fa0 	cmp.w	r3, #327680	@ 0x50000
 800289a:	4b89      	ldr	r3, [pc, #548]	@ (8002ac0 <HAL_RCC_OscConfig+0x260>)
 800289c:	681a      	ldr	r2, [r3, #0]
 800289e:	f000 8253 	beq.w	8002d48 <HAL_RCC_OscConfig+0x4e8>
 80028a2:	f422 3280 	bic.w	r2, r2, #65536	@ 0x10000
 80028a6:	601a      	str	r2, [r3, #0]
 80028a8:	681a      	ldr	r2, [r3, #0]
 80028aa:	f422 2280 	bic.w	r2, r2, #262144	@ 0x40000
 80028ae:	601a      	str	r2, [r3, #0]
 80028b0:	f7fe fbac 	bl	800100c <HAL_GetTick>
 80028b4:	4e82      	ldr	r6, [pc, #520]	@ (8002ac0 <HAL_RCC_OscConfig+0x260>)
 80028b6:	4605      	mov	r5, r0
 80028b8:	e005      	b.n	80028c6 <HAL_RCC_OscConfig+0x66>
 80028ba:	f7fe fba7 	bl	800100c <HAL_GetTick>
 80028be:	1b40      	subs	r0, r0, r5
 80028c0:	2864      	cmp	r0, #100	@ 0x64
 80028c2:	f200 812c 	bhi.w	8002b1e <HAL_RCC_OscConfig+0x2be>
 80028c6:	6833      	ldr	r3, [r6, #0]
 80028c8:	039b      	lsls	r3, r3, #14
 80028ca:	d5f6      	bpl.n	80028ba <HAL_RCC_OscConfig+0x5a>
 80028cc:	6823      	ldr	r3, [r4, #0]
 80028ce:	079d      	lsls	r5, r3, #30
 80028d0:	d47e      	bmi.n	80029d0 <HAL_RCC_OscConfig+0x170>
 80028d2:	06d9      	lsls	r1, r3, #27
 80028d4:	d528      	bpl.n	8002928 <HAL_RCC_OscConfig+0xc8>
 80028d6:	497a      	ldr	r1, [pc, #488]	@ (8002ac0 <HAL_RCC_OscConfig+0x260>)
 80028d8:	690a      	ldr	r2, [r1, #16]
 80028da:	6a89      	ldr	r1, [r1, #40]	@ 0x28
 80028dc:	f002 0238 	and.w	r2, r2, #56	@ 0x38
 80028e0:	2a08      	cmp	r2, #8
 80028e2:	f000 80cd 	beq.w	8002a80 <HAL_RCC_OscConfig+0x220>
 80028e6:	2a18      	cmp	r2, #24
 80028e8:	f000 80c5 	beq.w	8002a76 <HAL_RCC_OscConfig+0x216>
 80028ec:	69e3      	ldr	r3, [r4, #28]
 80028ee:	4d74      	ldr	r5, [pc, #464]	@ (8002ac0 <HAL_RCC_OscConfig+0x260>)
 80028f0:	2b00      	cmp	r3, #0
 80028f2:	f000 814e 	beq.w	8002b92 <HAL_RCC_OscConfig+0x332>
 80028f6:	682b      	ldr	r3, [r5, #0]
 80028f8:	f043 0380 	orr.w	r3, r3, #128	@ 0x80
 80028fc:	602b      	str	r3, [r5, #0]
 80028fe:	f7fe fb85 	bl	800100c <HAL_GetTick>
 8002902:	4606      	mov	r6, r0
 8002904:	e005      	b.n	8002912 <HAL_RCC_OscConfig+0xb2>
 8002906:	f7fe fb81 	bl	800100c <HAL_GetTick>
 800290a:	1b80      	subs	r0, r0, r6
 800290c:	2802      	cmp	r0, #2
 800290e:	f200 8106 	bhi.w	8002b1e <HAL_RCC_OscConfig+0x2be>
 8002912:	682b      	ldr	r3, [r5, #0]
 8002914:	05db      	lsls	r3, r3, #23
 8002916:	d5f6      	bpl.n	8002906 <HAL_RCC_OscConfig+0xa6>
 8002918:	68eb      	ldr	r3, [r5, #12]
 800291a:	6a22      	ldr	r2, [r4, #32]
 800291c:	f023 537c 	bic.w	r3, r3, #1056964608	@ 0x3f000000
 8002920:	ea43 6302 	orr.w	r3, r3, r2, lsl #24
 8002924:	60eb      	str	r3, [r5, #12]
 8002926:	6823      	ldr	r3, [r4, #0]
 8002928:	071d      	lsls	r5, r3, #28
 800292a:	d516      	bpl.n	800295a <HAL_RCC_OscConfig+0xfa>
 800292c:	6963      	ldr	r3, [r4, #20]
 800292e:	4d64      	ldr	r5, [pc, #400]	@ (8002ac0 <HAL_RCC_OscConfig+0x260>)
 8002930:	2b00      	cmp	r3, #0
 8002932:	f000 810c 	beq.w	8002b4e <HAL_RCC_OscConfig+0x2ee>
 8002936:	6f6b      	ldr	r3, [r5, #116]	@ 0x74
 8002938:	f043 0301 	orr.w	r3, r3, #1
 800293c:	676b      	str	r3, [r5, #116]	@ 0x74
 800293e:	f7fe fb65 	bl	800100c <HAL_GetTick>
 8002942:	4606      	mov	r6, r0
 8002944:	e005      	b.n	8002952 <HAL_RCC_OscConfig+0xf2>
 8002946:	f7fe fb61 	bl	800100c <HAL_GetTick>
 800294a:	1b80      	subs	r0, r0, r6
 800294c:	2802      	cmp	r0, #2
 800294e:	f200 80e6 	bhi.w	8002b1e <HAL_RCC_OscConfig+0x2be>
 8002952:	6f6b      	ldr	r3, [r5, #116]	@ 0x74
 8002954:	0798      	lsls	r0, r3, #30
 8002956:	d5f6      	bpl.n	8002946 <HAL_RCC_OscConfig+0xe6>
 8002958:	6823      	ldr	r3, [r4, #0]
 800295a:	069a      	lsls	r2, r3, #26
 800295c:	d516      	bpl.n	800298c <HAL_RCC_OscConfig+0x12c>
 800295e:	69a3      	ldr	r3, [r4, #24]
 8002960:	4d57      	ldr	r5, [pc, #348]	@ (8002ac0 <HAL_RCC_OscConfig+0x260>)
 8002962:	2b00      	cmp	r3, #0
 8002964:	f000 8104 	beq.w	8002b70 <HAL_RCC_OscConfig+0x310>
 8002968:	682b      	ldr	r3, [r5, #0]
 800296a:	f443 5380 	orr.w	r3, r3, #4096	@ 0x1000
 800296e:	602b      	str	r3, [r5, #0]
 8002970:	f7fe fb4c 	bl	800100c <HAL_GetTick>
 8002974:	4606      	mov	r6, r0
 8002976:	e005      	b.n	8002984 <HAL_RCC_OscConfig+0x124>
 8002978:	f7fe fb48 	bl	800100c <HAL_GetTick>
 800297c:	1b80      	subs	r0, r0, r6
 800297e:	2802      	cmp	r0, #2
 8002980:	f200 80cd 	bhi.w	8002b1e <HAL_RCC_OscConfig+0x2be>
 8002984:	682b      	ldr	r3, [r5, #0]
 8002986:	049f      	lsls	r7, r3, #18
 8002988:	d5f6      	bpl.n	8002978 <HAL_RCC_OscConfig+0x118>
 800298a:	6823      	ldr	r3, [r4, #0]
 800298c:	0759      	lsls	r1, r3, #29
 800298e:	f100 808d 	bmi.w	8002aac <HAL_RCC_OscConfig+0x24c>
 8002992:	6a63      	ldr	r3, [r4, #36]	@ 0x24
 8002994:	b1d3      	cbz	r3, 80029cc <HAL_RCC_OscConfig+0x16c>
 8002996:	4d4a      	ldr	r5, [pc, #296]	@ (8002ac0 <HAL_RCC_OscConfig+0x260>)
 8002998:	692a      	ldr	r2, [r5, #16]
 800299a:	f002 0238 	and.w	r2, r2, #56	@ 0x38
 800299e:	2a18      	cmp	r2, #24
 80029a0:	f000 8185 	beq.w	8002cae <HAL_RCC_OscConfig+0x44e>
 80029a4:	2b02      	cmp	r3, #2
 80029a6:	682b      	ldr	r3, [r5, #0]
 80029a8:	f023 7380 	bic.w	r3, r3, #16777216	@ 0x1000000
 80029ac:	602b      	str	r3, [r5, #0]
 80029ae:	f000 8119 	beq.w	8002be4 <HAL_RCC_OscConfig+0x384>
 80029b2:	f7fe fb2b 	bl	800100c <HAL_GetTick>
 80029b6:	4604      	mov	r4, r0
 80029b8:	e005      	b.n	80029c6 <HAL_RCC_OscConfig+0x166>
 80029ba:	f7fe fb27 	bl	800100c <HAL_GetTick>
 80029be:	1b00      	subs	r0, r0, r4
 80029c0:	2802      	cmp	r0, #2
 80029c2:	f200 80ac 	bhi.w	8002b1e <HAL_RCC_OscConfig+0x2be>
 80029c6:	682b      	ldr	r3, [r5, #0]
 80029c8:	019b      	lsls	r3, r3, #6
 80029ca:	d4f6      	bmi.n	80029ba <HAL_RCC_OscConfig+0x15a>
 80029cc:	2000      	movs	r0, #0
 80029ce:	bdf8      	pop	{r3, r4, r5, r6, r7, pc}
 80029d0:	4a3b      	ldr	r2, [pc, #236]	@ (8002ac0 <HAL_RCC_OscConfig+0x260>)
 80029d2:	6913      	ldr	r3, [r2, #16]
 80029d4:	6a92      	ldr	r2, [r2, #40]	@ 0x28
 80029d6:	f013 0338 	ands.w	r3, r3, #56	@ 0x38
 80029da:	d122      	bne.n	8002a22 <HAL_RCC_OscConfig+0x1c2>
 80029dc:	4b38      	ldr	r3, [pc, #224]	@ (8002ac0 <HAL_RCC_OscConfig+0x260>)
 80029de:	68e2      	ldr	r2, [r4, #12]
 80029e0:	681b      	ldr	r3, [r3, #0]
 80029e2:	0759      	lsls	r1, r3, #29
 80029e4:	d501      	bpl.n	80029ea <HAL_RCC_OscConfig+0x18a>
 80029e6:	2a00      	cmp	r2, #0
 80029e8:	d043      	beq.n	8002a72 <HAL_RCC_OscConfig+0x212>
 80029ea:	4d35      	ldr	r5, [pc, #212]	@ (8002ac0 <HAL_RCC_OscConfig+0x260>)
 80029ec:	682b      	ldr	r3, [r5, #0]
 80029ee:	f023 0319 	bic.w	r3, r3, #25
 80029f2:	4313      	orrs	r3, r2
 80029f4:	602b      	str	r3, [r5, #0]
 80029f6:	f7fe fb09 	bl	800100c <HAL_GetTick>
 80029fa:	4606      	mov	r6, r0
 80029fc:	e005      	b.n	8002a0a <HAL_RCC_OscConfig+0x1aa>
 80029fe:	f7fe fb05 	bl	800100c <HAL_GetTick>
 8002a02:	1b80      	subs	r0, r0, r6
 8002a04:	2802      	cmp	r0, #2
 8002a06:	f200 808a 	bhi.w	8002b1e <HAL_RCC_OscConfig+0x2be>
 8002a0a:	682b      	ldr	r3, [r5, #0]
 8002a0c:	075b      	lsls	r3, r3, #29
 8002a0e:	d5f6      	bpl.n	80029fe <HAL_RCC_OscConfig+0x19e>
 8002a10:	686b      	ldr	r3, [r5, #4]
 8002a12:	6922      	ldr	r2, [r4, #16]
 8002a14:	f023 43fe 	bic.w	r3, r3, #2130706432	@ 0x7f000000
 8002a18:	ea43 6302 	orr.w	r3, r3, r2, lsl #24
 8002a1c:	606b      	str	r3, [r5, #4]
 8002a1e:	6823      	ldr	r3, [r4, #0]
 8002a20:	e757      	b.n	80028d2 <HAL_RCC_OscConfig+0x72>
 8002a22:	2b18      	cmp	r3, #24
 8002a24:	f000 80d8 	beq.w	8002bd8 <HAL_RCC_OscConfig+0x378>
 8002a28:	4d25      	ldr	r5, [pc, #148]	@ (8002ac0 <HAL_RCC_OscConfig+0x260>)
 8002a2a:	68e2      	ldr	r2, [r4, #12]
 8002a2c:	682b      	ldr	r3, [r5, #0]
 8002a2e:	2a00      	cmp	r2, #0
 8002a30:	f000 80c1 	beq.w	8002bb6 <HAL_RCC_OscConfig+0x356>
 8002a34:	f023 0319 	bic.w	r3, r3, #25
 8002a38:	4313      	orrs	r3, r2
 8002a3a:	602b      	str	r3, [r5, #0]
 8002a3c:	f7fe fae6 	bl	800100c <HAL_GetTick>
 8002a40:	4606      	mov	r6, r0
 8002a42:	e004      	b.n	8002a4e <HAL_RCC_OscConfig+0x1ee>
 8002a44:	f7fe fae2 	bl	800100c <HAL_GetTick>
 8002a48:	1b80      	subs	r0, r0, r6
 8002a4a:	2802      	cmp	r0, #2
 8002a4c:	d867      	bhi.n	8002b1e <HAL_RCC_OscConfig+0x2be>
 8002a4e:	682b      	ldr	r3, [r5, #0]
 8002a50:	075f      	lsls	r7, r3, #29
 8002a52:	d5f7      	bpl.n	8002a44 <HAL_RCC_OscConfig+0x1e4>
 8002a54:	e7dc      	b.n	8002a10 <HAL_RCC_OscConfig+0x1b0>
 8002a56:	f001 0103 	and.w	r1, r1, #3
 8002a5a:	2902      	cmp	r1, #2
 8002a5c:	f47f af13 	bne.w	8002886 <HAL_RCC_OscConfig+0x26>
 8002a60:	4a17      	ldr	r2, [pc, #92]	@ (8002ac0 <HAL_RCC_OscConfig+0x260>)
 8002a62:	6812      	ldr	r2, [r2, #0]
 8002a64:	0392      	lsls	r2, r2, #14
 8002a66:	f57f af32 	bpl.w	80028ce <HAL_RCC_OscConfig+0x6e>
 8002a6a:	6862      	ldr	r2, [r4, #4]
 8002a6c:	2a00      	cmp	r2, #0
 8002a6e:	f47f af2e 	bne.w	80028ce <HAL_RCC_OscConfig+0x6e>
 8002a72:	2001      	movs	r0, #1
 8002a74:	bdf8      	pop	{r3, r4, r5, r6, r7, pc}
 8002a76:	f001 0103 	and.w	r1, r1, #3
 8002a7a:	2901      	cmp	r1, #1
 8002a7c:	f47f af36 	bne.w	80028ec <HAL_RCC_OscConfig+0x8c>
 8002a80:	4a0f      	ldr	r2, [pc, #60]	@ (8002ac0 <HAL_RCC_OscConfig+0x260>)
 8002a82:	6812      	ldr	r2, [r2, #0]
 8002a84:	05d2      	lsls	r2, r2, #23
 8002a86:	d502      	bpl.n	8002a8e <HAL_RCC_OscConfig+0x22e>
 8002a88:	69e2      	ldr	r2, [r4, #28]
 8002a8a:	2a80      	cmp	r2, #128	@ 0x80
 8002a8c:	d1f1      	bne.n	8002a72 <HAL_RCC_OscConfig+0x212>
 8002a8e:	490c      	ldr	r1, [pc, #48]	@ (8002ac0 <HAL_RCC_OscConfig+0x260>)
 8002a90:	6a20      	ldr	r0, [r4, #32]
 8002a92:	68ca      	ldr	r2, [r1, #12]
 8002a94:	f022 527c 	bic.w	r2, r2, #1056964608	@ 0x3f000000
 8002a98:	ea42 6200 	orr.w	r2, r2, r0, lsl #24
 8002a9c:	60ca      	str	r2, [r1, #12]
 8002a9e:	e743      	b.n	8002928 <HAL_RCC_OscConfig+0xc8>
 8002aa0:	4a07      	ldr	r2, [pc, #28]	@ (8002ac0 <HAL_RCC_OscConfig+0x260>)
 8002aa2:	6813      	ldr	r3, [r2, #0]
 8002aa4:	f443 3380 	orr.w	r3, r3, #65536	@ 0x10000
 8002aa8:	6013      	str	r3, [r2, #0]
 8002aaa:	e701      	b.n	80028b0 <HAL_RCC_OscConfig+0x50>
 8002aac:	4d05      	ldr	r5, [pc, #20]	@ (8002ac4 <HAL_RCC_OscConfig+0x264>)
 8002aae:	682b      	ldr	r3, [r5, #0]
 8002ab0:	f443 7380 	orr.w	r3, r3, #256	@ 0x100
 8002ab4:	602b      	str	r3, [r5, #0]
 8002ab6:	f7fe faa9 	bl	800100c <HAL_GetTick>
 8002aba:	4606      	mov	r6, r0
 8002abc:	e009      	b.n	8002ad2 <HAL_RCC_OscConfig+0x272>
 8002abe:	bf00      	nop
 8002ac0:	58024400 	.word	0x58024400
 8002ac4:	58024800 	.word	0x58024800
 8002ac8:	f7fe faa0 	bl	800100c <HAL_GetTick>
 8002acc:	1b80      	subs	r0, r0, r6
 8002ace:	2864      	cmp	r0, #100	@ 0x64
 8002ad0:	d825      	bhi.n	8002b1e <HAL_RCC_OscConfig+0x2be>
 8002ad2:	682b      	ldr	r3, [r5, #0]
 8002ad4:	05da      	lsls	r2, r3, #23
 8002ad6:	d5f7      	bpl.n	8002ac8 <HAL_RCC_OscConfig+0x268>
 8002ad8:	68a3      	ldr	r3, [r4, #8]
 8002ada:	2b01      	cmp	r3, #1
 8002adc:	f000 815a 	beq.w	8002d94 <HAL_RCC_OscConfig+0x534>
 8002ae0:	2b00      	cmp	r3, #0
 8002ae2:	f000 8139 	beq.w	8002d58 <HAL_RCC_OscConfig+0x4f8>
 8002ae6:	2b05      	cmp	r3, #5
 8002ae8:	4ba8      	ldr	r3, [pc, #672]	@ (8002d8c <HAL_RCC_OscConfig+0x52c>)
 8002aea:	6f1a      	ldr	r2, [r3, #112]	@ 0x70
 8002aec:	f000 8158 	beq.w	8002da0 <HAL_RCC_OscConfig+0x540>
 8002af0:	f022 0201 	bic.w	r2, r2, #1
 8002af4:	671a      	str	r2, [r3, #112]	@ 0x70
 8002af6:	6f1a      	ldr	r2, [r3, #112]	@ 0x70
 8002af8:	f022 0204 	bic.w	r2, r2, #4
 8002afc:	671a      	str	r2, [r3, #112]	@ 0x70
 8002afe:	f7fe fa85 	bl	800100c <HAL_GetTick>
 8002b02:	4ea2      	ldr	r6, [pc, #648]	@ (8002d8c <HAL_RCC_OscConfig+0x52c>)
 8002b04:	f241 3788 	movw	r7, #5000	@ 0x1388
 8002b08:	4605      	mov	r5, r0
 8002b0a:	e004      	b.n	8002b16 <HAL_RCC_OscConfig+0x2b6>
 8002b0c:	f7fe fa7e 	bl	800100c <HAL_GetTick>
 8002b10:	1b40      	subs	r0, r0, r5
 8002b12:	42b8      	cmp	r0, r7
 8002b14:	d803      	bhi.n	8002b1e <HAL_RCC_OscConfig+0x2be>
 8002b16:	6f33      	ldr	r3, [r6, #112]	@ 0x70
 8002b18:	079b      	lsls	r3, r3, #30
 8002b1a:	d5f7      	bpl.n	8002b0c <HAL_RCC_OscConfig+0x2ac>
 8002b1c:	e739      	b.n	8002992 <HAL_RCC_OscConfig+0x132>
 8002b1e:	2003      	movs	r0, #3
 8002b20:	bdf8      	pop	{r3, r4, r5, r6, r7, pc}
 8002b22:	4d9a      	ldr	r5, [pc, #616]	@ (8002d8c <HAL_RCC_OscConfig+0x52c>)
 8002b24:	682b      	ldr	r3, [r5, #0]
 8002b26:	f423 3380 	bic.w	r3, r3, #65536	@ 0x10000
 8002b2a:	602b      	str	r3, [r5, #0]
 8002b2c:	682b      	ldr	r3, [r5, #0]
 8002b2e:	f423 2380 	bic.w	r3, r3, #262144	@ 0x40000
 8002b32:	602b      	str	r3, [r5, #0]
 8002b34:	f7fe fa6a 	bl	800100c <HAL_GetTick>
 8002b38:	4606      	mov	r6, r0
 8002b3a:	e004      	b.n	8002b46 <HAL_RCC_OscConfig+0x2e6>
 8002b3c:	f7fe fa66 	bl	800100c <HAL_GetTick>
 8002b40:	1b80      	subs	r0, r0, r6
 8002b42:	2864      	cmp	r0, #100	@ 0x64
 8002b44:	d8eb      	bhi.n	8002b1e <HAL_RCC_OscConfig+0x2be>
 8002b46:	682b      	ldr	r3, [r5, #0]
 8002b48:	039f      	lsls	r7, r3, #14
 8002b4a:	d4f7      	bmi.n	8002b3c <HAL_RCC_OscConfig+0x2dc>
 8002b4c:	e6be      	b.n	80028cc <HAL_RCC_OscConfig+0x6c>
 8002b4e:	6f6b      	ldr	r3, [r5, #116]	@ 0x74
 8002b50:	f023 0301 	bic.w	r3, r3, #1
 8002b54:	676b      	str	r3, [r5, #116]	@ 0x74
 8002b56:	f7fe fa59 	bl	800100c <HAL_GetTick>
 8002b5a:	4606      	mov	r6, r0
 8002b5c:	e004      	b.n	8002b68 <HAL_RCC_OscConfig+0x308>
 8002b5e:	f7fe fa55 	bl	800100c <HAL_GetTick>
 8002b62:	1b80      	subs	r0, r0, r6
 8002b64:	2802      	cmp	r0, #2
 8002b66:	d8da      	bhi.n	8002b1e <HAL_RCC_OscConfig+0x2be>
 8002b68:	6f6b      	ldr	r3, [r5, #116]	@ 0x74
 8002b6a:	0799      	lsls	r1, r3, #30
 8002b6c:	d4f7      	bmi.n	8002b5e <HAL_RCC_OscConfig+0x2fe>
 8002b6e:	e6f3      	b.n	8002958 <HAL_RCC_OscConfig+0xf8>
 8002b70:	682b      	ldr	r3, [r5, #0]
 8002b72:	f423 5380 	bic.w	r3, r3, #4096	@ 0x1000
 8002b76:	602b      	str	r3, [r5, #0]
 8002b78:	f7fe fa48 	bl	800100c <HAL_GetTick>
 8002b7c:	4606      	mov	r6, r0
 8002b7e:	e004      	b.n	8002b8a <HAL_RCC_OscConfig+0x32a>
 8002b80:	f7fe fa44 	bl	800100c <HAL_GetTick>
 8002b84:	1b80      	subs	r0, r0, r6
 8002b86:	2802      	cmp	r0, #2
 8002b88:	d8c9      	bhi.n	8002b1e <HAL_RCC_OscConfig+0x2be>
 8002b8a:	682b      	ldr	r3, [r5, #0]
 8002b8c:	0498      	lsls	r0, r3, #18
 8002b8e:	d4f7      	bmi.n	8002b80 <HAL_RCC_OscConfig+0x320>
 8002b90:	e6fb      	b.n	800298a <HAL_RCC_OscConfig+0x12a>
 8002b92:	682b      	ldr	r3, [r5, #0]
 8002b94:	f023 0380 	bic.w	r3, r3, #128	@ 0x80
 8002b98:	602b      	str	r3, [r5, #0]
 8002b9a:	f7fe fa37 	bl	800100c <HAL_GetTick>
 8002b9e:	4606      	mov	r6, r0
 8002ba0:	e004      	b.n	8002bac <HAL_RCC_OscConfig+0x34c>
 8002ba2:	f7fe fa33 	bl	800100c <HAL_GetTick>
 8002ba6:	1b80      	subs	r0, r0, r6
 8002ba8:	2802      	cmp	r0, #2
 8002baa:	d8b8      	bhi.n	8002b1e <HAL_RCC_OscConfig+0x2be>
 8002bac:	682b      	ldr	r3, [r5, #0]
 8002bae:	05df      	lsls	r7, r3, #23
 8002bb0:	d4f7      	bmi.n	8002ba2 <HAL_RCC_OscConfig+0x342>
 8002bb2:	6823      	ldr	r3, [r4, #0]
 8002bb4:	e6b8      	b.n	8002928 <HAL_RCC_OscConfig+0xc8>
 8002bb6:	f023 0301 	bic.w	r3, r3, #1
 8002bba:	602b      	str	r3, [r5, #0]
 8002bbc:	f7fe fa26 	bl	800100c <HAL_GetTick>
 8002bc0:	4606      	mov	r6, r0
 8002bc2:	e004      	b.n	8002bce <HAL_RCC_OscConfig+0x36e>
 8002bc4:	f7fe fa22 	bl	800100c <HAL_GetTick>
 8002bc8:	1b80      	subs	r0, r0, r6
 8002bca:	2802      	cmp	r0, #2
 8002bcc:	d8a7      	bhi.n	8002b1e <HAL_RCC_OscConfig+0x2be>
 8002bce:	682b      	ldr	r3, [r5, #0]
 8002bd0:	0758      	lsls	r0, r3, #29
 8002bd2:	d4f7      	bmi.n	8002bc4 <HAL_RCC_OscConfig+0x364>
 8002bd4:	6823      	ldr	r3, [r4, #0]
 8002bd6:	e67c      	b.n	80028d2 <HAL_RCC_OscConfig+0x72>
 8002bd8:	0790      	lsls	r0, r2, #30
 8002bda:	f47f af25 	bne.w	8002a28 <HAL_RCC_OscConfig+0x1c8>
 8002bde:	e6fd      	b.n	80029dc <HAL_RCC_OscConfig+0x17c>
 8002be0:	2001      	movs	r0, #1
 8002be2:	4770      	bx	lr
 8002be4:	f7fe fa12 	bl	800100c <HAL_GetTick>
 8002be8:	4606      	mov	r6, r0
 8002bea:	e004      	b.n	8002bf6 <HAL_RCC_OscConfig+0x396>
 8002bec:	f7fe fa0e 	bl	800100c <HAL_GetTick>
 8002bf0:	1b80      	subs	r0, r0, r6
 8002bf2:	2802      	cmp	r0, #2
 8002bf4:	d893      	bhi.n	8002b1e <HAL_RCC_OscConfig+0x2be>
 8002bf6:	682b      	ldr	r3, [r5, #0]
 8002bf8:	0199      	lsls	r1, r3, #6
 8002bfa:	d4f7      	bmi.n	8002bec <HAL_RCC_OscConfig+0x38c>
 8002bfc:	6aa9      	ldr	r1, [r5, #40]	@ 0x28
 8002bfe:	4b64      	ldr	r3, [pc, #400]	@ (8002d90 <HAL_RCC_OscConfig+0x530>)
 8002c00:	6aa2      	ldr	r2, [r4, #40]	@ 0x28
 8002c02:	400b      	ands	r3, r1
 8002c04:	4313      	orrs	r3, r2
 8002c06:	6ae2      	ldr	r2, [r4, #44]	@ 0x2c
 8002c08:	ea43 1302 	orr.w	r3, r3, r2, lsl #4
 8002c0c:	62ab      	str	r3, [r5, #40]	@ 0x28
 8002c0e:	6b21      	ldr	r1, [r4, #48]	@ 0x30
 8002c10:	e9d4 320d 	ldrd	r3, r2, [r4, #52]	@ 0x34
 8002c14:	3901      	subs	r1, #1
 8002c16:	3b01      	subs	r3, #1
 8002c18:	3a01      	subs	r2, #1
 8002c1a:	f3c1 0108 	ubfx	r1, r1, #0, #9
 8002c1e:	025b      	lsls	r3, r3, #9
 8002c20:	0412      	lsls	r2, r2, #16
 8002c22:	b29b      	uxth	r3, r3
 8002c24:	f402 02fe 	and.w	r2, r2, #8323072	@ 0x7f0000
 8002c28:	4313      	orrs	r3, r2
 8002c2a:	6be2      	ldr	r2, [r4, #60]	@ 0x3c
 8002c2c:	3a01      	subs	r2, #1
 8002c2e:	430b      	orrs	r3, r1
 8002c30:	0612      	lsls	r2, r2, #24
 8002c32:	f002 42fe 	and.w	r2, r2, #2130706432	@ 0x7f000000
 8002c36:	4313      	orrs	r3, r2
 8002c38:	632b      	str	r3, [r5, #48]	@ 0x30
 8002c3a:	6aeb      	ldr	r3, [r5, #44]	@ 0x2c
 8002c3c:	f023 0301 	bic.w	r3, r3, #1
 8002c40:	62eb      	str	r3, [r5, #44]	@ 0x2c
 8002c42:	6b6b      	ldr	r3, [r5, #52]	@ 0x34
 8002c44:	6ca2      	ldr	r2, [r4, #72]	@ 0x48
 8002c46:	f36f 03cf 	bfc	r3, #3, #13
 8002c4a:	ea43 03c2 	orr.w	r3, r3, r2, lsl #3
 8002c4e:	636b      	str	r3, [r5, #52]	@ 0x34
 8002c50:	6aeb      	ldr	r3, [r5, #44]	@ 0x2c
 8002c52:	6c22      	ldr	r2, [r4, #64]	@ 0x40
 8002c54:	f023 030c 	bic.w	r3, r3, #12
 8002c58:	4313      	orrs	r3, r2
 8002c5a:	62eb      	str	r3, [r5, #44]	@ 0x2c
 8002c5c:	6aeb      	ldr	r3, [r5, #44]	@ 0x2c
 8002c5e:	6c62      	ldr	r2, [r4, #68]	@ 0x44
 8002c60:	f023 0302 	bic.w	r3, r3, #2
 8002c64:	4313      	orrs	r3, r2
 8002c66:	62eb      	str	r3, [r5, #44]	@ 0x2c
 8002c68:	6aeb      	ldr	r3, [r5, #44]	@ 0x2c
 8002c6a:	f443 3380 	orr.w	r3, r3, #65536	@ 0x10000
 8002c6e:	62eb      	str	r3, [r5, #44]	@ 0x2c
 8002c70:	6aeb      	ldr	r3, [r5, #44]	@ 0x2c
 8002c72:	f443 3300 	orr.w	r3, r3, #131072	@ 0x20000
 8002c76:	62eb      	str	r3, [r5, #44]	@ 0x2c
 8002c78:	6aeb      	ldr	r3, [r5, #44]	@ 0x2c
 8002c7a:	f443 2380 	orr.w	r3, r3, #262144	@ 0x40000
 8002c7e:	62eb      	str	r3, [r5, #44]	@ 0x2c
 8002c80:	6aeb      	ldr	r3, [r5, #44]	@ 0x2c
 8002c82:	f043 0301 	orr.w	r3, r3, #1
 8002c86:	62eb      	str	r3, [r5, #44]	@ 0x2c
 8002c88:	682b      	ldr	r3, [r5, #0]
 8002c8a:	f043 7380 	orr.w	r3, r3, #16777216	@ 0x1000000
 8002c8e:	602b      	str	r3, [r5, #0]
 8002c90:	f7fe f9bc 	bl	800100c <HAL_GetTick>
 8002c94:	4d3d      	ldr	r5, [pc, #244]	@ (8002d8c <HAL_RCC_OscConfig+0x52c>)
 8002c96:	4604      	mov	r4, r0
 8002c98:	e005      	b.n	8002ca6 <HAL_RCC_OscConfig+0x446>
 8002c9a:	f7fe f9b7 	bl	800100c <HAL_GetTick>
 8002c9e:	1b00      	subs	r0, r0, r4
 8002ca0:	2802      	cmp	r0, #2
 8002ca2:	f63f af3c 	bhi.w	8002b1e <HAL_RCC_OscConfig+0x2be>
 8002ca6:	682b      	ldr	r3, [r5, #0]
 8002ca8:	019a      	lsls	r2, r3, #6
 8002caa:	d5f6      	bpl.n	8002c9a <HAL_RCC_OscConfig+0x43a>
 8002cac:	e68e      	b.n	80029cc <HAL_RCC_OscConfig+0x16c>
 8002cae:	2b01      	cmp	r3, #1
 8002cb0:	6aaa      	ldr	r2, [r5, #40]	@ 0x28
 8002cb2:	6b28      	ldr	r0, [r5, #48]	@ 0x30
 8002cb4:	f43f aedd 	beq.w	8002a72 <HAL_RCC_OscConfig+0x212>
 8002cb8:	f002 0303 	and.w	r3, r2, #3
 8002cbc:	6aa1      	ldr	r1, [r4, #40]	@ 0x28
 8002cbe:	428b      	cmp	r3, r1
 8002cc0:	f47f aed7 	bne.w	8002a72 <HAL_RCC_OscConfig+0x212>
 8002cc4:	f3c2 1205 	ubfx	r2, r2, #4, #6
 8002cc8:	6ae3      	ldr	r3, [r4, #44]	@ 0x2c
 8002cca:	429a      	cmp	r2, r3
 8002ccc:	f47f aed1 	bne.w	8002a72 <HAL_RCC_OscConfig+0x212>
 8002cd0:	6b23      	ldr	r3, [r4, #48]	@ 0x30
 8002cd2:	f3c0 0208 	ubfx	r2, r0, #0, #9
 8002cd6:	3b01      	subs	r3, #1
 8002cd8:	429a      	cmp	r2, r3
 8002cda:	f47f aeca 	bne.w	8002a72 <HAL_RCC_OscConfig+0x212>
 8002cde:	6b63      	ldr	r3, [r4, #52]	@ 0x34
 8002ce0:	f3c0 2246 	ubfx	r2, r0, #9, #7
 8002ce4:	3b01      	subs	r3, #1
 8002ce6:	429a      	cmp	r2, r3
 8002ce8:	f47f aec3 	bne.w	8002a72 <HAL_RCC_OscConfig+0x212>
 8002cec:	6ba3      	ldr	r3, [r4, #56]	@ 0x38
 8002cee:	f3c0 4206 	ubfx	r2, r0, #16, #7
 8002cf2:	3b01      	subs	r3, #1
 8002cf4:	429a      	cmp	r2, r3
 8002cf6:	f47f aebc 	bne.w	8002a72 <HAL_RCC_OscConfig+0x212>
 8002cfa:	6be3      	ldr	r3, [r4, #60]	@ 0x3c
 8002cfc:	f3c0 6006 	ubfx	r0, r0, #24, #7
 8002d00:	3b01      	subs	r3, #1
 8002d02:	4298      	cmp	r0, r3
 8002d04:	f47f aeb5 	bne.w	8002a72 <HAL_RCC_OscConfig+0x212>
 8002d08:	6b6b      	ldr	r3, [r5, #52]	@ 0x34
 8002d0a:	6ca2      	ldr	r2, [r4, #72]	@ 0x48
 8002d0c:	f3c3 03cc 	ubfx	r3, r3, #3, #13
 8002d10:	429a      	cmp	r2, r3
 8002d12:	f43f ae5b 	beq.w	80029cc <HAL_RCC_OscConfig+0x16c>
 8002d16:	4a1d      	ldr	r2, [pc, #116]	@ (8002d8c <HAL_RCC_OscConfig+0x52c>)
 8002d18:	6ad3      	ldr	r3, [r2, #44]	@ 0x2c
 8002d1a:	f023 0301 	bic.w	r3, r3, #1
 8002d1e:	62d3      	str	r3, [r2, #44]	@ 0x2c
 8002d20:	f7fe f974 	bl	800100c <HAL_GetTick>
 8002d24:	4605      	mov	r5, r0
 8002d26:	f7fe f971 	bl	800100c <HAL_GetTick>
 8002d2a:	42a8      	cmp	r0, r5
 8002d2c:	d0fb      	beq.n	8002d26 <HAL_RCC_OscConfig+0x4c6>
 8002d2e:	4a17      	ldr	r2, [pc, #92]	@ (8002d8c <HAL_RCC_OscConfig+0x52c>)
 8002d30:	6ca1      	ldr	r1, [r4, #72]	@ 0x48
 8002d32:	6b53      	ldr	r3, [r2, #52]	@ 0x34
 8002d34:	f36f 03cf 	bfc	r3, #3, #13
 8002d38:	ea43 03c1 	orr.w	r3, r3, r1, lsl #3
 8002d3c:	6353      	str	r3, [r2, #52]	@ 0x34
 8002d3e:	6ad3      	ldr	r3, [r2, #44]	@ 0x2c
 8002d40:	f043 0301 	orr.w	r3, r3, #1
 8002d44:	62d3      	str	r3, [r2, #44]	@ 0x2c
 8002d46:	e641      	b.n	80029cc <HAL_RCC_OscConfig+0x16c>
 8002d48:	f442 2280 	orr.w	r2, r2, #262144	@ 0x40000
 8002d4c:	601a      	str	r2, [r3, #0]
 8002d4e:	681a      	ldr	r2, [r3, #0]
 8002d50:	f442 3280 	orr.w	r2, r2, #65536	@ 0x10000
 8002d54:	601a      	str	r2, [r3, #0]
 8002d56:	e5ab      	b.n	80028b0 <HAL_RCC_OscConfig+0x50>
 8002d58:	4d0c      	ldr	r5, [pc, #48]	@ (8002d8c <HAL_RCC_OscConfig+0x52c>)
 8002d5a:	f241 3788 	movw	r7, #5000	@ 0x1388
 8002d5e:	6f2b      	ldr	r3, [r5, #112]	@ 0x70
 8002d60:	f023 0301 	bic.w	r3, r3, #1
 8002d64:	672b      	str	r3, [r5, #112]	@ 0x70
 8002d66:	6f2b      	ldr	r3, [r5, #112]	@ 0x70
 8002d68:	f023 0304 	bic.w	r3, r3, #4
 8002d6c:	672b      	str	r3, [r5, #112]	@ 0x70
 8002d6e:	f7fe f94d 	bl	800100c <HAL_GetTick>
 8002d72:	4606      	mov	r6, r0
 8002d74:	e005      	b.n	8002d82 <HAL_RCC_OscConfig+0x522>
 8002d76:	f7fe f949 	bl	800100c <HAL_GetTick>
 8002d7a:	1b80      	subs	r0, r0, r6
 8002d7c:	42b8      	cmp	r0, r7
 8002d7e:	f63f aece 	bhi.w	8002b1e <HAL_RCC_OscConfig+0x2be>
 8002d82:	6f2b      	ldr	r3, [r5, #112]	@ 0x70
 8002d84:	0798      	lsls	r0, r3, #30
 8002d86:	d4f6      	bmi.n	8002d76 <HAL_RCC_OscConfig+0x516>
 8002d88:	e603      	b.n	8002992 <HAL_RCC_OscConfig+0x132>
 8002d8a:	bf00      	nop
 8002d8c:	58024400 	.word	0x58024400
 8002d90:	fffffc0c 	.word	0xfffffc0c
 8002d94:	4a06      	ldr	r2, [pc, #24]	@ (8002db0 <HAL_RCC_OscConfig+0x550>)
 8002d96:	6f13      	ldr	r3, [r2, #112]	@ 0x70
 8002d98:	f043 0301 	orr.w	r3, r3, #1
 8002d9c:	6713      	str	r3, [r2, #112]	@ 0x70
 8002d9e:	e6ae      	b.n	8002afe <HAL_RCC_OscConfig+0x29e>
 8002da0:	f042 0204 	orr.w	r2, r2, #4
 8002da4:	671a      	str	r2, [r3, #112]	@ 0x70
 8002da6:	6f1a      	ldr	r2, [r3, #112]	@ 0x70
 8002da8:	f042 0201 	orr.w	r2, r2, #1
 8002dac:	671a      	str	r2, [r3, #112]	@ 0x70
 8002dae:	e6a6      	b.n	8002afe <HAL_RCC_OscConfig+0x29e>
 8002db0:	58024400 	.word	0x58024400

08002db4 <HAL_RCC_GetSysClockFreq>:
 8002db4:	4a3f      	ldr	r2, [pc, #252]	@ (8002eb4 <HAL_RCC_GetSysClockFreq+0x100>)
 8002db6:	6913      	ldr	r3, [r2, #16]
 8002db8:	f003 0338 	and.w	r3, r3, #56	@ 0x38
 8002dbc:	2b10      	cmp	r3, #16
 8002dbe:	d04f      	beq.n	8002e60 <HAL_RCC_GetSysClockFreq+0xac>
 8002dc0:	2b18      	cmp	r3, #24
 8002dc2:	d00a      	beq.n	8002dda <HAL_RCC_GetSysClockFreq+0x26>
 8002dc4:	2b00      	cmp	r3, #0
 8002dc6:	d14d      	bne.n	8002e64 <HAL_RCC_GetSysClockFreq+0xb0>
 8002dc8:	6813      	ldr	r3, [r2, #0]
 8002dca:	0699      	lsls	r1, r3, #26
 8002dcc:	d54c      	bpl.n	8002e68 <HAL_RCC_GetSysClockFreq+0xb4>
 8002dce:	6813      	ldr	r3, [r2, #0]
 8002dd0:	4839      	ldr	r0, [pc, #228]	@ (8002eb8 <HAL_RCC_GetSysClockFreq+0x104>)
 8002dd2:	f3c3 03c1 	ubfx	r3, r3, #3, #2
 8002dd6:	40d8      	lsrs	r0, r3
 8002dd8:	4770      	bx	lr
 8002dda:	6a91      	ldr	r1, [r2, #40]	@ 0x28
 8002ddc:	b430      	push	{r4, r5}
 8002dde:	6a94      	ldr	r4, [r2, #40]	@ 0x28
 8002de0:	6ad5      	ldr	r5, [r2, #44]	@ 0x2c
 8002de2:	f414 7f7c 	tst.w	r4, #1008	@ 0x3f0
 8002de6:	6b53      	ldr	r3, [r2, #52]	@ 0x34
 8002de8:	f3c4 1005 	ubfx	r0, r4, #4, #6
 8002dec:	d036      	beq.n	8002e5c <HAL_RCC_GetSysClockFreq+0xa8>
 8002dee:	f3c3 03cc 	ubfx	r3, r3, #3, #13
 8002df2:	f005 0501 	and.w	r5, r5, #1
 8002df6:	f001 0103 	and.w	r1, r1, #3
 8002dfa:	ee07 0a90 	vmov	s15, r0
 8002dfe:	fb05 f303 	mul.w	r3, r5, r3
 8002e02:	2901      	cmp	r1, #1
 8002e04:	eef8 7ae7 	vcvt.f32.s32	s15, s15
 8002e08:	ee06 3a90 	vmov	s13, r3
 8002e0c:	eefa 6ae9 	vcvt.f32.s32	s13, s13, #13
 8002e10:	d002      	beq.n	8002e18 <HAL_RCC_GetSysClockFreq+0x64>
 8002e12:	2902      	cmp	r1, #2
 8002e14:	d048      	beq.n	8002ea8 <HAL_RCC_GetSysClockFreq+0xf4>
 8002e16:	b349      	cbz	r1, 8002e6c <HAL_RCC_GetSysClockFreq+0xb8>
 8002e18:	ed9f 7a28 	vldr	s14, [pc, #160]	@ 8002ebc <HAL_RCC_GetSysClockFreq+0x108>
 8002e1c:	ee87 6a27 	vdiv.f32	s12, s14, s15
 8002e20:	6b13      	ldr	r3, [r2, #48]	@ 0x30
 8002e22:	f3c3 0308 	ubfx	r3, r3, #0, #9
 8002e26:	ee07 3a10 	vmov	s14, r3
 8002e2a:	eef7 5a00 	vmov.f32	s11, #112	@ 0x3f800000  1.0
 8002e2e:	eeb8 7ac7 	vcvt.f32.s32	s14, s14
 8002e32:	ee37 7a26 	vadd.f32	s14, s14, s13
 8002e36:	ee37 7a25 	vadd.f32	s14, s14, s11
 8002e3a:	ee27 7a06 	vmul.f32	s14, s14, s12
 8002e3e:	4b1d      	ldr	r3, [pc, #116]	@ (8002eb4 <HAL_RCC_GetSysClockFreq+0x100>)
 8002e40:	6b1b      	ldr	r3, [r3, #48]	@ 0x30
 8002e42:	f3c3 2346 	ubfx	r3, r3, #9, #7
 8002e46:	3301      	adds	r3, #1
 8002e48:	ee07 3a90 	vmov	s15, r3
 8002e4c:	eef8 6ae7 	vcvt.f32.s32	s13, s15
 8002e50:	eec7 7a26 	vdiv.f32	s15, s14, s13
 8002e54:	eefc 7ae7 	vcvt.u32.f32	s15, s15
 8002e58:	ee17 0a90 	vmov	r0, s15
 8002e5c:	bc30      	pop	{r4, r5}
 8002e5e:	4770      	bx	lr
 8002e60:	4817      	ldr	r0, [pc, #92]	@ (8002ec0 <HAL_RCC_GetSysClockFreq+0x10c>)
 8002e62:	4770      	bx	lr
 8002e64:	4817      	ldr	r0, [pc, #92]	@ (8002ec4 <HAL_RCC_GetSysClockFreq+0x110>)
 8002e66:	4770      	bx	lr
 8002e68:	4813      	ldr	r0, [pc, #76]	@ (8002eb8 <HAL_RCC_GetSysClockFreq+0x104>)
 8002e6a:	4770      	bx	lr
 8002e6c:	6813      	ldr	r3, [r2, #0]
 8002e6e:	069b      	lsls	r3, r3, #26
 8002e70:	d51d      	bpl.n	8002eae <HAL_RCC_GetSysClockFreq+0xfa>
 8002e72:	6810      	ldr	r0, [r2, #0]
 8002e74:	eef7 5a00 	vmov.f32	s11, #112	@ 0x3f800000  1.0
 8002e78:	6b13      	ldr	r3, [r2, #48]	@ 0x30
 8002e7a:	490f      	ldr	r1, [pc, #60]	@ (8002eb8 <HAL_RCC_GetSysClockFreq+0x104>)
 8002e7c:	f3c0 02c1 	ubfx	r2, r0, #3, #2
 8002e80:	f3c3 0308 	ubfx	r3, r3, #0, #9
 8002e84:	40d1      	lsrs	r1, r2
 8002e86:	ee07 3a10 	vmov	s14, r3
 8002e8a:	ee06 1a10 	vmov	s12, r1
 8002e8e:	eeb8 7ac7 	vcvt.f32.s32	s14, s14
 8002e92:	eeb8 6ac6 	vcvt.f32.s32	s12, s12
 8002e96:	ee77 6a26 	vadd.f32	s13, s14, s13
 8002e9a:	ee86 7a27 	vdiv.f32	s14, s12, s15
 8002e9e:	ee76 7aa5 	vadd.f32	s15, s13, s11
 8002ea2:	ee27 7a27 	vmul.f32	s14, s14, s15
 8002ea6:	e7ca      	b.n	8002e3e <HAL_RCC_GetSysClockFreq+0x8a>
 8002ea8:	ed9f 7a07 	vldr	s14, [pc, #28]	@ 8002ec8 <HAL_RCC_GetSysClockFreq+0x114>
 8002eac:	e7b6      	b.n	8002e1c <HAL_RCC_GetSysClockFreq+0x68>
 8002eae:	ed9f 7a07 	vldr	s14, [pc, #28]	@ 8002ecc <HAL_RCC_GetSysClockFreq+0x118>
 8002eb2:	e7b3      	b.n	8002e1c <HAL_RCC_GetSysClockFreq+0x68>
 8002eb4:	58024400 	.word	0x58024400
 8002eb8:	03d09000 	.word	0x03d09000
 8002ebc:	4a742400 	.word	0x4a742400
 8002ec0:	007a1200 	.word	0x007a1200
 8002ec4:	003d0900 	.word	0x003d0900
 8002ec8:	4af42400 	.word	0x4af42400
 8002ecc:	4c742400 	.word	0x4c742400

08002ed0 <HAL_RCC_ClockConfig>:
 8002ed0:	2800      	cmp	r0, #0
 8002ed2:	f000 810e 	beq.w	80030f2 <HAL_RCC_ClockConfig+0x222>
 8002ed6:	4a8d      	ldr	r2, [pc, #564]	@ (800310c <HAL_RCC_ClockConfig+0x23c>)
 8002ed8:	6813      	ldr	r3, [r2, #0]
 8002eda:	f003 030f 	and.w	r3, r3, #15
 8002ede:	428b      	cmp	r3, r1
 8002ee0:	e92d 41f0 	stmdb	sp!, {r4, r5, r6, r7, r8, lr}
 8002ee4:	4604      	mov	r4, r0
 8002ee6:	460d      	mov	r5, r1
 8002ee8:	d20c      	bcs.n	8002f04 <HAL_RCC_ClockConfig+0x34>
 8002eea:	6813      	ldr	r3, [r2, #0]
 8002eec:	f023 030f 	bic.w	r3, r3, #15
 8002ef0:	430b      	orrs	r3, r1
 8002ef2:	6013      	str	r3, [r2, #0]
 8002ef4:	6813      	ldr	r3, [r2, #0]
 8002ef6:	f003 030f 	and.w	r3, r3, #15
 8002efa:	428b      	cmp	r3, r1
 8002efc:	d002      	beq.n	8002f04 <HAL_RCC_ClockConfig+0x34>
 8002efe:	2001      	movs	r0, #1
 8002f00:	e8bd 81f0 	ldmia.w	sp!, {r4, r5, r6, r7, r8, pc}
 8002f04:	6823      	ldr	r3, [r4, #0]
 8002f06:	0758      	lsls	r0, r3, #29
 8002f08:	d50b      	bpl.n	8002f22 <HAL_RCC_ClockConfig+0x52>
 8002f0a:	4981      	ldr	r1, [pc, #516]	@ (8003110 <HAL_RCC_ClockConfig+0x240>)
 8002f0c:	6920      	ldr	r0, [r4, #16]
 8002f0e:	698a      	ldr	r2, [r1, #24]
 8002f10:	f002 0270 	and.w	r2, r2, #112	@ 0x70
 8002f14:	4290      	cmp	r0, r2
 8002f16:	d904      	bls.n	8002f22 <HAL_RCC_ClockConfig+0x52>
 8002f18:	698a      	ldr	r2, [r1, #24]
 8002f1a:	f022 0270 	bic.w	r2, r2, #112	@ 0x70
 8002f1e:	4302      	orrs	r2, r0
 8002f20:	618a      	str	r2, [r1, #24]
 8002f22:	0719      	lsls	r1, r3, #28
 8002f24:	d50b      	bpl.n	8002f3e <HAL_RCC_ClockConfig+0x6e>
 8002f26:	497a      	ldr	r1, [pc, #488]	@ (8003110 <HAL_RCC_ClockConfig+0x240>)
 8002f28:	6960      	ldr	r0, [r4, #20]
 8002f2a:	69ca      	ldr	r2, [r1, #28]
 8002f2c:	f002 0270 	and.w	r2, r2, #112	@ 0x70
 8002f30:	4290      	cmp	r0, r2
 8002f32:	d904      	bls.n	8002f3e <HAL_RCC_ClockConfig+0x6e>
 8002f34:	69ca      	ldr	r2, [r1, #28]
 8002f36:	f022 0270 	bic.w	r2, r2, #112	@ 0x70
 8002f3a:	4302      	orrs	r2, r0
 8002f3c:	61ca      	str	r2, [r1, #28]
 8002f3e:	06da      	lsls	r2, r3, #27
 8002f40:	d50b      	bpl.n	8002f5a <HAL_RCC_ClockConfig+0x8a>
 8002f42:	4973      	ldr	r1, [pc, #460]	@ (8003110 <HAL_RCC_ClockConfig+0x240>)
 8002f44:	69a0      	ldr	r0, [r4, #24]
 8002f46:	69ca      	ldr	r2, [r1, #28]
 8002f48:	f402 62e0 	and.w	r2, r2, #1792	@ 0x700
 8002f4c:	4290      	cmp	r0, r2
 8002f4e:	d904      	bls.n	8002f5a <HAL_RCC_ClockConfig+0x8a>
 8002f50:	69ca      	ldr	r2, [r1, #28]
 8002f52:	f422 62e0 	bic.w	r2, r2, #1792	@ 0x700
 8002f56:	4302      	orrs	r2, r0
 8002f58:	61ca      	str	r2, [r1, #28]
 8002f5a:	069f      	lsls	r7, r3, #26
 8002f5c:	d50b      	bpl.n	8002f76 <HAL_RCC_ClockConfig+0xa6>
 8002f5e:	496c      	ldr	r1, [pc, #432]	@ (8003110 <HAL_RCC_ClockConfig+0x240>)
 8002f60:	69e0      	ldr	r0, [r4, #28]
 8002f62:	6a0a      	ldr	r2, [r1, #32]
 8002f64:	f002 0270 	and.w	r2, r2, #112	@ 0x70
 8002f68:	4290      	cmp	r0, r2
 8002f6a:	d904      	bls.n	8002f76 <HAL_RCC_ClockConfig+0xa6>
 8002f6c:	6a0a      	ldr	r2, [r1, #32]
 8002f6e:	f022 0270 	bic.w	r2, r2, #112	@ 0x70
 8002f72:	4302      	orrs	r2, r0
 8002f74:	620a      	str	r2, [r1, #32]
 8002f76:	079e      	lsls	r6, r3, #30
 8002f78:	f003 0201 	and.w	r2, r3, #1
 8002f7c:	f140 80ab 	bpl.w	80030d6 <HAL_RCC_ClockConfig+0x206>
 8002f80:	4e63      	ldr	r6, [pc, #396]	@ (8003110 <HAL_RCC_ClockConfig+0x240>)
 8002f82:	68e0      	ldr	r0, [r4, #12]
 8002f84:	69b1      	ldr	r1, [r6, #24]
 8002f86:	f001 010f 	and.w	r1, r1, #15
 8002f8a:	4288      	cmp	r0, r1
 8002f8c:	d904      	bls.n	8002f98 <HAL_RCC_ClockConfig+0xc8>
 8002f8e:	69b1      	ldr	r1, [r6, #24]
 8002f90:	f021 010f 	bic.w	r1, r1, #15
 8002f94:	4301      	orrs	r1, r0
 8002f96:	61b1      	str	r1, [r6, #24]
 8002f98:	2a00      	cmp	r2, #0
 8002f9a:	d030      	beq.n	8002ffe <HAL_RCC_ClockConfig+0x12e>
 8002f9c:	4a5c      	ldr	r2, [pc, #368]	@ (8003110 <HAL_RCC_ClockConfig+0x240>)
 8002f9e:	68a1      	ldr	r1, [r4, #8]
 8002fa0:	6993      	ldr	r3, [r2, #24]
 8002fa2:	f423 6370 	bic.w	r3, r3, #3840	@ 0xf00
 8002fa6:	430b      	orrs	r3, r1
 8002fa8:	6193      	str	r3, [r2, #24]
 8002faa:	6861      	ldr	r1, [r4, #4]
 8002fac:	6813      	ldr	r3, [r2, #0]
 8002fae:	2902      	cmp	r1, #2
 8002fb0:	f000 80a1 	beq.w	80030f6 <HAL_RCC_ClockConfig+0x226>
 8002fb4:	2903      	cmp	r1, #3
 8002fb6:	f000 8098 	beq.w	80030ea <HAL_RCC_ClockConfig+0x21a>
 8002fba:	2901      	cmp	r1, #1
 8002fbc:	f000 80a1 	beq.w	8003102 <HAL_RCC_ClockConfig+0x232>
 8002fc0:	075f      	lsls	r7, r3, #29
 8002fc2:	d59c      	bpl.n	8002efe <HAL_RCC_ClockConfig+0x2e>
 8002fc4:	4e52      	ldr	r6, [pc, #328]	@ (8003110 <HAL_RCC_ClockConfig+0x240>)
 8002fc6:	f241 3888 	movw	r8, #5000	@ 0x1388
 8002fca:	6933      	ldr	r3, [r6, #16]
 8002fcc:	f023 0307 	bic.w	r3, r3, #7
 8002fd0:	430b      	orrs	r3, r1
 8002fd2:	6133      	str	r3, [r6, #16]
 8002fd4:	f7fe f81a 	bl	800100c <HAL_GetTick>
 8002fd8:	4607      	mov	r7, r0
 8002fda:	e005      	b.n	8002fe8 <HAL_RCC_ClockConfig+0x118>
 8002fdc:	f7fe f816 	bl	800100c <HAL_GetTick>
 8002fe0:	1bc0      	subs	r0, r0, r7
 8002fe2:	4540      	cmp	r0, r8
 8002fe4:	f200 808b 	bhi.w	80030fe <HAL_RCC_ClockConfig+0x22e>
 8002fe8:	6933      	ldr	r3, [r6, #16]
 8002fea:	6862      	ldr	r2, [r4, #4]
 8002fec:	f003 0338 	and.w	r3, r3, #56	@ 0x38
 8002ff0:	ebb3 0fc2 	cmp.w	r3, r2, lsl #3
 8002ff4:	d1f2      	bne.n	8002fdc <HAL_RCC_ClockConfig+0x10c>
 8002ff6:	6823      	ldr	r3, [r4, #0]
 8002ff8:	079e      	lsls	r6, r3, #30
 8002ffa:	d506      	bpl.n	800300a <HAL_RCC_ClockConfig+0x13a>
 8002ffc:	68e0      	ldr	r0, [r4, #12]
 8002ffe:	4944      	ldr	r1, [pc, #272]	@ (8003110 <HAL_RCC_ClockConfig+0x240>)
 8003000:	698a      	ldr	r2, [r1, #24]
 8003002:	f002 020f 	and.w	r2, r2, #15
 8003006:	4282      	cmp	r2, r0
 8003008:	d869      	bhi.n	80030de <HAL_RCC_ClockConfig+0x20e>
 800300a:	4940      	ldr	r1, [pc, #256]	@ (800310c <HAL_RCC_ClockConfig+0x23c>)
 800300c:	680a      	ldr	r2, [r1, #0]
 800300e:	f002 020f 	and.w	r2, r2, #15
 8003012:	42aa      	cmp	r2, r5
 8003014:	d90a      	bls.n	800302c <HAL_RCC_ClockConfig+0x15c>
 8003016:	680a      	ldr	r2, [r1, #0]
 8003018:	f022 020f 	bic.w	r2, r2, #15
 800301c:	432a      	orrs	r2, r5
 800301e:	600a      	str	r2, [r1, #0]
 8003020:	680a      	ldr	r2, [r1, #0]
 8003022:	f002 020f 	and.w	r2, r2, #15
 8003026:	42aa      	cmp	r2, r5
 8003028:	f47f af69 	bne.w	8002efe <HAL_RCC_ClockConfig+0x2e>
 800302c:	0758      	lsls	r0, r3, #29
 800302e:	d50b      	bpl.n	8003048 <HAL_RCC_ClockConfig+0x178>
 8003030:	4937      	ldr	r1, [pc, #220]	@ (8003110 <HAL_RCC_ClockConfig+0x240>)
 8003032:	6920      	ldr	r0, [r4, #16]
 8003034:	698a      	ldr	r2, [r1, #24]
 8003036:	f002 0270 	and.w	r2, r2, #112	@ 0x70
 800303a:	4290      	cmp	r0, r2
 800303c:	d204      	bcs.n	8003048 <HAL_RCC_ClockConfig+0x178>
 800303e:	698a      	ldr	r2, [r1, #24]
 8003040:	f022 0270 	bic.w	r2, r2, #112	@ 0x70
 8003044:	4302      	orrs	r2, r0
 8003046:	618a      	str	r2, [r1, #24]
 8003048:	0719      	lsls	r1, r3, #28
 800304a:	d50b      	bpl.n	8003064 <HAL_RCC_ClockConfig+0x194>
 800304c:	4930      	ldr	r1, [pc, #192]	@ (8003110 <HAL_RCC_ClockConfig+0x240>)
 800304e:	6960      	ldr	r0, [r4, #20]
 8003050:	69ca      	ldr	r2, [r1, #28]
 8003052:	f002 0270 	and.w	r2, r2, #112	@ 0x70
 8003056:	4290      	cmp	r0, r2
 8003058:	d204      	bcs.n	8003064 <HAL_RCC_ClockConfig+0x194>
 800305a:	69ca      	ldr	r2, [r1, #28]
 800305c:	f022 0270 	bic.w	r2, r2, #112	@ 0x70
 8003060:	4302      	orrs	r2, r0
 8003062:	61ca      	str	r2, [r1, #28]
 8003064:	06da      	lsls	r2, r3, #27
 8003066:	d50b      	bpl.n	8003080 <HAL_RCC_ClockConfig+0x1b0>
 8003068:	4929      	ldr	r1, [pc, #164]	@ (8003110 <HAL_RCC_ClockConfig+0x240>)
 800306a:	69a0      	ldr	r0, [r4, #24]
 800306c:	69ca      	ldr	r2, [r1, #28]
 800306e:	f402 62e0 	and.w	r2, r2, #1792	@ 0x700
 8003072:	4290      	cmp	r0, r2
 8003074:	d204      	bcs.n	8003080 <HAL_RCC_ClockConfig+0x1b0>
 8003076:	69ca      	ldr	r2, [r1, #28]
 8003078:	f422 62e0 	bic.w	r2, r2, #1792	@ 0x700
 800307c:	4302      	orrs	r2, r0
 800307e:	61ca      	str	r2, [r1, #28]
 8003080:	069b      	lsls	r3, r3, #26
 8003082:	d50b      	bpl.n	800309c <HAL_RCC_ClockConfig+0x1cc>
 8003084:	4a22      	ldr	r2, [pc, #136]	@ (8003110 <HAL_RCC_ClockConfig+0x240>)
 8003086:	69e1      	ldr	r1, [r4, #28]
 8003088:	6a13      	ldr	r3, [r2, #32]
 800308a:	f003 0370 	and.w	r3, r3, #112	@ 0x70
 800308e:	4299      	cmp	r1, r3
 8003090:	d204      	bcs.n	800309c <HAL_RCC_ClockConfig+0x1cc>
 8003092:	6a13      	ldr	r3, [r2, #32]
 8003094:	f023 0370 	bic.w	r3, r3, #112	@ 0x70
 8003098:	430b      	orrs	r3, r1
 800309a:	6213      	str	r3, [r2, #32]
 800309c:	f7ff fe8a 	bl	8002db4 <HAL_RCC_GetSysClockFreq>
 80030a0:	4a1b      	ldr	r2, [pc, #108]	@ (8003110 <HAL_RCC_ClockConfig+0x240>)
 80030a2:	4603      	mov	r3, r0
 80030a4:	481b      	ldr	r0, [pc, #108]	@ (8003114 <HAL_RCC_ClockConfig+0x244>)
 80030a6:	6991      	ldr	r1, [r2, #24]
 80030a8:	6992      	ldr	r2, [r2, #24]
 80030aa:	f3c1 2103 	ubfx	r1, r1, #8, #4
 80030ae:	4d1a      	ldr	r5, [pc, #104]	@ (8003118 <HAL_RCC_ClockConfig+0x248>)
 80030b0:	f002 020f 	and.w	r2, r2, #15
 80030b4:	4c19      	ldr	r4, [pc, #100]	@ (800311c <HAL_RCC_ClockConfig+0x24c>)
 80030b6:	5c41      	ldrb	r1, [r0, r1]
 80030b8:	5c82      	ldrb	r2, [r0, r2]
 80030ba:	f001 011f 	and.w	r1, r1, #31
 80030be:	4818      	ldr	r0, [pc, #96]	@ (8003120 <HAL_RCC_ClockConfig+0x250>)
 80030c0:	f002 021f 	and.w	r2, r2, #31
 80030c4:	40cb      	lsrs	r3, r1
 80030c6:	6800      	ldr	r0, [r0, #0]
 80030c8:	602b      	str	r3, [r5, #0]
 80030ca:	40d3      	lsrs	r3, r2
 80030cc:	6023      	str	r3, [r4, #0]
 80030ce:	e8bd 41f0 	ldmia.w	sp!, {r4, r5, r6, r7, r8, lr}
 80030d2:	f7fd bf39 	b.w	8000f48 <HAL_InitTick>
 80030d6:	2a00      	cmp	r2, #0
 80030d8:	f47f af60 	bne.w	8002f9c <HAL_RCC_ClockConfig+0xcc>
 80030dc:	e795      	b.n	800300a <HAL_RCC_ClockConfig+0x13a>
 80030de:	698a      	ldr	r2, [r1, #24]
 80030e0:	f022 020f 	bic.w	r2, r2, #15
 80030e4:	4302      	orrs	r2, r0
 80030e6:	618a      	str	r2, [r1, #24]
 80030e8:	e78f      	b.n	800300a <HAL_RCC_ClockConfig+0x13a>
 80030ea:	019a      	lsls	r2, r3, #6
 80030ec:	f53f af6a 	bmi.w	8002fc4 <HAL_RCC_ClockConfig+0xf4>
 80030f0:	e705      	b.n	8002efe <HAL_RCC_ClockConfig+0x2e>
 80030f2:	2001      	movs	r0, #1
 80030f4:	4770      	bx	lr
 80030f6:	0398      	lsls	r0, r3, #14
 80030f8:	f53f af64 	bmi.w	8002fc4 <HAL_RCC_ClockConfig+0xf4>
 80030fc:	e6ff      	b.n	8002efe <HAL_RCC_ClockConfig+0x2e>
 80030fe:	2003      	movs	r0, #3
 8003100:	e6fe      	b.n	8002f00 <HAL_RCC_ClockConfig+0x30>
 8003102:	05db      	lsls	r3, r3, #23
 8003104:	f53f af5e 	bmi.w	8002fc4 <HAL_RCC_ClockConfig+0xf4>
 8003108:	e6f9      	b.n	8002efe <HAL_RCC_ClockConfig+0x2e>
 800310a:	bf00      	nop
 800310c:	52002000 	.word	0x52002000
 8003110:	58024400 	.word	0x58024400
 8003114:	0800a6d0 	.word	0x0800a6d0
 8003118:	24000004 	.word	0x24000004
 800311c:	24000000 	.word	0x24000000
 8003120:	2400000c 	.word	0x2400000c

08003124 <HAL_RCC_GetHCLKFreq>:
 8003124:	4a18      	ldr	r2, [pc, #96]	@ (8003188 <HAL_RCC_GetHCLKFreq+0x64>)
 8003126:	b538      	push	{r3, r4, r5, lr}
 8003128:	6913      	ldr	r3, [r2, #16]
 800312a:	f003 0338 	and.w	r3, r3, #56	@ 0x38
 800312e:	2b10      	cmp	r3, #16
 8003130:	d024      	beq.n	800317c <HAL_RCC_GetHCLKFreq+0x58>
 8003132:	2b18      	cmp	r3, #24
 8003134:	d009      	beq.n	800314a <HAL_RCC_GetHCLKFreq+0x26>
 8003136:	bb1b      	cbnz	r3, 8003180 <HAL_RCC_GetHCLKFreq+0x5c>
 8003138:	6813      	ldr	r3, [r2, #0]
 800313a:	069b      	lsls	r3, r3, #26
 800313c:	d522      	bpl.n	8003184 <HAL_RCC_GetHCLKFreq+0x60>
 800313e:	6812      	ldr	r2, [r2, #0]
 8003140:	4b12      	ldr	r3, [pc, #72]	@ (800318c <HAL_RCC_GetHCLKFreq+0x68>)
 8003142:	f3c2 02c1 	ubfx	r2, r2, #3, #2
 8003146:	40d3      	lsrs	r3, r2
 8003148:	e002      	b.n	8003150 <HAL_RCC_GetHCLKFreq+0x2c>
 800314a:	f7ff fb17 	bl	800277c <HAL_RCC_GetSysClockFreq.part.0>
 800314e:	4603      	mov	r3, r0
 8003150:	480d      	ldr	r0, [pc, #52]	@ (8003188 <HAL_RCC_GetHCLKFreq+0x64>)
 8003152:	4c0f      	ldr	r4, [pc, #60]	@ (8003190 <HAL_RCC_GetHCLKFreq+0x6c>)
 8003154:	6982      	ldr	r2, [r0, #24]
 8003156:	6980      	ldr	r0, [r0, #24]
 8003158:	f3c2 2203 	ubfx	r2, r2, #8, #4
 800315c:	4d0d      	ldr	r5, [pc, #52]	@ (8003194 <HAL_RCC_GetHCLKFreq+0x70>)
 800315e:	f000 000f 	and.w	r0, r0, #15
 8003162:	490d      	ldr	r1, [pc, #52]	@ (8003198 <HAL_RCC_GetHCLKFreq+0x74>)
 8003164:	5ca2      	ldrb	r2, [r4, r2]
 8003166:	5c20      	ldrb	r0, [r4, r0]
 8003168:	f002 021f 	and.w	r2, r2, #31
 800316c:	f000 001f 	and.w	r0, r0, #31
 8003170:	40d3      	lsrs	r3, r2
 8003172:	fa23 f000 	lsr.w	r0, r3, r0
 8003176:	600b      	str	r3, [r1, #0]
 8003178:	6028      	str	r0, [r5, #0]
 800317a:	bd38      	pop	{r3, r4, r5, pc}
 800317c:	4b07      	ldr	r3, [pc, #28]	@ (800319c <HAL_RCC_GetHCLKFreq+0x78>)
 800317e:	e7e7      	b.n	8003150 <HAL_RCC_GetHCLKFreq+0x2c>
 8003180:	4b07      	ldr	r3, [pc, #28]	@ (80031a0 <HAL_RCC_GetHCLKFreq+0x7c>)
 8003182:	e7e5      	b.n	8003150 <HAL_RCC_GetHCLKFreq+0x2c>
 8003184:	4b01      	ldr	r3, [pc, #4]	@ (800318c <HAL_RCC_GetHCLKFreq+0x68>)
 8003186:	e7e3      	b.n	8003150 <HAL_RCC_GetHCLKFreq+0x2c>
 8003188:	58024400 	.word	0x58024400
 800318c:	03d09000 	.word	0x03d09000
 8003190:	0800a6d0 	.word	0x0800a6d0
 8003194:	24000000 	.word	0x24000000
 8003198:	24000004 	.word	0x24000004
 800319c:	007a1200 	.word	0x007a1200
 80031a0:	003d0900 	.word	0x003d0900

080031a4 <HAL_RCC_GetPCLK1Freq>:
 80031a4:	4a1c      	ldr	r2, [pc, #112]	@ (8003218 <HAL_RCC_GetPCLK1Freq+0x74>)
 80031a6:	b538      	push	{r3, r4, r5, lr}
 80031a8:	6913      	ldr	r3, [r2, #16]
 80031aa:	f003 0338 	and.w	r3, r3, #56	@ 0x38
 80031ae:	2b10      	cmp	r3, #16
 80031b0:	d02b      	beq.n	800320a <HAL_RCC_GetPCLK1Freq+0x66>
 80031b2:	2b18      	cmp	r3, #24
 80031b4:	d009      	beq.n	80031ca <HAL_RCC_GetPCLK1Freq+0x26>
 80031b6:	bb53      	cbnz	r3, 800320e <HAL_RCC_GetPCLK1Freq+0x6a>
 80031b8:	6813      	ldr	r3, [r2, #0]
 80031ba:	069b      	lsls	r3, r3, #26
 80031bc:	d529      	bpl.n	8003212 <HAL_RCC_GetPCLK1Freq+0x6e>
 80031be:	6812      	ldr	r2, [r2, #0]
 80031c0:	4b16      	ldr	r3, [pc, #88]	@ (800321c <HAL_RCC_GetPCLK1Freq+0x78>)
 80031c2:	f3c2 02c1 	ubfx	r2, r2, #3, #2
 80031c6:	40d3      	lsrs	r3, r2
 80031c8:	e002      	b.n	80031d0 <HAL_RCC_GetPCLK1Freq+0x2c>
 80031ca:	f7ff fad7 	bl	800277c <HAL_RCC_GetSysClockFreq.part.0>
 80031ce:	4603      	mov	r3, r0
 80031d0:	4a11      	ldr	r2, [pc, #68]	@ (8003218 <HAL_RCC_GetPCLK1Freq+0x74>)
 80031d2:	4913      	ldr	r1, [pc, #76]	@ (8003220 <HAL_RCC_GetPCLK1Freq+0x7c>)
 80031d4:	6990      	ldr	r0, [r2, #24]
 80031d6:	4d13      	ldr	r5, [pc, #76]	@ (8003224 <HAL_RCC_GetPCLK1Freq+0x80>)
 80031d8:	f3c0 2003 	ubfx	r0, r0, #8, #4
 80031dc:	4c12      	ldr	r4, [pc, #72]	@ (8003228 <HAL_RCC_GetPCLK1Freq+0x84>)
 80031de:	5c08      	ldrb	r0, [r1, r0]
 80031e0:	f000 001f 	and.w	r0, r0, #31
 80031e4:	40c3      	lsrs	r3, r0
 80031e6:	6990      	ldr	r0, [r2, #24]
 80031e8:	f000 000f 	and.w	r0, r0, #15
 80031ec:	602b      	str	r3, [r5, #0]
 80031ee:	5c08      	ldrb	r0, [r1, r0]
 80031f0:	f000 001f 	and.w	r0, r0, #31
 80031f4:	40c3      	lsrs	r3, r0
 80031f6:	6023      	str	r3, [r4, #0]
 80031f8:	69d2      	ldr	r2, [r2, #28]
 80031fa:	f3c2 1202 	ubfx	r2, r2, #4, #3
 80031fe:	5c88      	ldrb	r0, [r1, r2]
 8003200:	f000 001f 	and.w	r0, r0, #31
 8003204:	fa23 f000 	lsr.w	r0, r3, r0
 8003208:	bd38      	pop	{r3, r4, r5, pc}
 800320a:	4b08      	ldr	r3, [pc, #32]	@ (800322c <HAL_RCC_GetPCLK1Freq+0x88>)
 800320c:	e7e0      	b.n	80031d0 <HAL_RCC_GetPCLK1Freq+0x2c>
 800320e:	4b08      	ldr	r3, [pc, #32]	@ (8003230 <HAL_RCC_GetPCLK1Freq+0x8c>)
 8003210:	e7de      	b.n	80031d0 <HAL_RCC_GetPCLK1Freq+0x2c>
 8003212:	4b02      	ldr	r3, [pc, #8]	@ (800321c <HAL_RCC_GetPCLK1Freq+0x78>)
 8003214:	e7dc      	b.n	80031d0 <HAL_RCC_GetPCLK1Freq+0x2c>
 8003216:	bf00      	nop
 8003218:	58024400 	.word	0x58024400
 800321c:	03d09000 	.word	0x03d09000
 8003220:	0800a6d0 	.word	0x0800a6d0
 8003224:	24000004 	.word	0x24000004
 8003228:	24000000 	.word	0x24000000
 800322c:	007a1200 	.word	0x007a1200
 8003230:	003d0900 	.word	0x003d0900

08003234 <RCCEx_PLL2_Config.part.0>:
 8003234:	b5f8      	push	{r3, r4, r5, r6, r7, lr}
 8003236:	4c36      	ldr	r4, [pc, #216]	@ (8003310 <RCCEx_PLL2_Config.part.0+0xdc>)
 8003238:	4606      	mov	r6, r0
 800323a:	460f      	mov	r7, r1
 800323c:	6823      	ldr	r3, [r4, #0]
 800323e:	f023 6380 	bic.w	r3, r3, #67108864	@ 0x4000000
 8003242:	6023      	str	r3, [r4, #0]
 8003244:	f7fd fee2 	bl	800100c <HAL_GetTick>
 8003248:	4605      	mov	r5, r0
 800324a:	e004      	b.n	8003256 <RCCEx_PLL2_Config.part.0+0x22>
 800324c:	f7fd fede 	bl	800100c <HAL_GetTick>
 8003250:	1b40      	subs	r0, r0, r5
 8003252:	2802      	cmp	r0, #2
 8003254:	d856      	bhi.n	8003304 <RCCEx_PLL2_Config.part.0+0xd0>
 8003256:	6823      	ldr	r3, [r4, #0]
 8003258:	011a      	lsls	r2, r3, #4
 800325a:	d4f7      	bmi.n	800324c <RCCEx_PLL2_Config.part.0+0x18>
 800325c:	6aa3      	ldr	r3, [r4, #40]	@ 0x28
 800325e:	6832      	ldr	r2, [r6, #0]
 8003260:	f423 337c 	bic.w	r3, r3, #258048	@ 0x3f000
 8003264:	ea43 3302 	orr.w	r3, r3, r2, lsl #12
 8003268:	62a3      	str	r3, [r4, #40]	@ 0x28
 800326a:	e9d6 3202 	ldrd	r3, r2, [r6, #8]
 800326e:	3b01      	subs	r3, #1
 8003270:	3a01      	subs	r2, #1
 8003272:	025b      	lsls	r3, r3, #9
 8003274:	0412      	lsls	r2, r2, #16
 8003276:	b29b      	uxth	r3, r3
 8003278:	f402 02fe 	and.w	r2, r2, #8323072	@ 0x7f0000
 800327c:	4313      	orrs	r3, r2
 800327e:	6872      	ldr	r2, [r6, #4]
 8003280:	3a01      	subs	r2, #1
 8003282:	f3c2 0208 	ubfx	r2, r2, #0, #9
 8003286:	4313      	orrs	r3, r2
 8003288:	6932      	ldr	r2, [r6, #16]
 800328a:	3a01      	subs	r2, #1
 800328c:	0612      	lsls	r2, r2, #24
 800328e:	f002 42fe 	and.w	r2, r2, #2130706432	@ 0x7f000000
 8003292:	4313      	orrs	r3, r2
 8003294:	63a3      	str	r3, [r4, #56]	@ 0x38
 8003296:	6ae3      	ldr	r3, [r4, #44]	@ 0x2c
 8003298:	6972      	ldr	r2, [r6, #20]
 800329a:	f023 03c0 	bic.w	r3, r3, #192	@ 0xc0
 800329e:	4313      	orrs	r3, r2
 80032a0:	62e3      	str	r3, [r4, #44]	@ 0x2c
 80032a2:	6ae3      	ldr	r3, [r4, #44]	@ 0x2c
 80032a4:	69b2      	ldr	r2, [r6, #24]
 80032a6:	f023 0320 	bic.w	r3, r3, #32
 80032aa:	4313      	orrs	r3, r2
 80032ac:	62e3      	str	r3, [r4, #44]	@ 0x2c
 80032ae:	6ae3      	ldr	r3, [r4, #44]	@ 0x2c
 80032b0:	f023 0310 	bic.w	r3, r3, #16
 80032b4:	62e3      	str	r3, [r4, #44]	@ 0x2c
 80032b6:	6be3      	ldr	r3, [r4, #60]	@ 0x3c
 80032b8:	69f2      	ldr	r2, [r6, #28]
 80032ba:	f36f 03cf 	bfc	r3, #3, #13
 80032be:	ea43 03c2 	orr.w	r3, r3, r2, lsl #3
 80032c2:	63e3      	str	r3, [r4, #60]	@ 0x3c
 80032c4:	6ae3      	ldr	r3, [r4, #44]	@ 0x2c
 80032c6:	f043 0310 	orr.w	r3, r3, #16
 80032ca:	62e3      	str	r3, [r4, #44]	@ 0x2c
 80032cc:	6ae3      	ldr	r3, [r4, #44]	@ 0x2c
 80032ce:	b1df      	cbz	r7, 8003308 <RCCEx_PLL2_Config.part.0+0xd4>
 80032d0:	2f01      	cmp	r7, #1
 80032d2:	bf0c      	ite	eq
 80032d4:	f443 1380 	orreq.w	r3, r3, #1048576	@ 0x100000
 80032d8:	f443 1300 	orrne.w	r3, r3, #2097152	@ 0x200000
 80032dc:	62e3      	str	r3, [r4, #44]	@ 0x2c
 80032de:	4c0c      	ldr	r4, [pc, #48]	@ (8003310 <RCCEx_PLL2_Config.part.0+0xdc>)
 80032e0:	6823      	ldr	r3, [r4, #0]
 80032e2:	f043 6380 	orr.w	r3, r3, #67108864	@ 0x4000000
 80032e6:	6023      	str	r3, [r4, #0]
 80032e8:	f7fd fe90 	bl	800100c <HAL_GetTick>
 80032ec:	4605      	mov	r5, r0
 80032ee:	e004      	b.n	80032fa <RCCEx_PLL2_Config.part.0+0xc6>
 80032f0:	f7fd fe8c 	bl	800100c <HAL_GetTick>
 80032f4:	1b40      	subs	r0, r0, r5
 80032f6:	2802      	cmp	r0, #2
 80032f8:	d804      	bhi.n	8003304 <RCCEx_PLL2_Config.part.0+0xd0>
 80032fa:	6823      	ldr	r3, [r4, #0]
 80032fc:	011b      	lsls	r3, r3, #4
 80032fe:	d5f7      	bpl.n	80032f0 <RCCEx_PLL2_Config.part.0+0xbc>
 8003300:	2000      	movs	r0, #0
 8003302:	bdf8      	pop	{r3, r4, r5, r6, r7, pc}
 8003304:	2003      	movs	r0, #3
 8003306:	bdf8      	pop	{r3, r4, r5, r6, r7, pc}
 8003308:	f443 2300 	orr.w	r3, r3, #524288	@ 0x80000
 800330c:	62e3      	str	r3, [r4, #44]	@ 0x2c
 800330e:	e7e6      	b.n	80032de <RCCEx_PLL2_Config.part.0+0xaa>
 8003310:	58024400 	.word	0x58024400

08003314 <RCCEx_PLL3_Config.part.0>:
 8003314:	b5f8      	push	{r3, r4, r5, r6, r7, lr}
 8003316:	4c36      	ldr	r4, [pc, #216]	@ (80033f0 <RCCEx_PLL3_Config.part.0+0xdc>)
 8003318:	4606      	mov	r6, r0
 800331a:	460f      	mov	r7, r1
 800331c:	6823      	ldr	r3, [r4, #0]
 800331e:	f023 5380 	bic.w	r3, r3, #268435456	@ 0x10000000
 8003322:	6023      	str	r3, [r4, #0]
 8003324:	f7fd fe72 	bl	800100c <HAL_GetTick>
 8003328:	4605      	mov	r5, r0
 800332a:	e004      	b.n	8003336 <RCCEx_PLL3_Config.part.0+0x22>
 800332c:	f7fd fe6e 	bl	800100c <HAL_GetTick>
 8003330:	1b40      	subs	r0, r0, r5
 8003332:	2802      	cmp	r0, #2
 8003334:	d856      	bhi.n	80033e4 <RCCEx_PLL3_Config.part.0+0xd0>
 8003336:	6823      	ldr	r3, [r4, #0]
 8003338:	009a      	lsls	r2, r3, #2
 800333a:	d4f7      	bmi.n	800332c <RCCEx_PLL3_Config.part.0+0x18>
 800333c:	6aa3      	ldr	r3, [r4, #40]	@ 0x28
 800333e:	6832      	ldr	r2, [r6, #0]
 8003340:	f023 737c 	bic.w	r3, r3, #66060288	@ 0x3f00000
 8003344:	ea43 5302 	orr.w	r3, r3, r2, lsl #20
 8003348:	62a3      	str	r3, [r4, #40]	@ 0x28
 800334a:	e9d6 3202 	ldrd	r3, r2, [r6, #8]
 800334e:	3b01      	subs	r3, #1
 8003350:	3a01      	subs	r2, #1
 8003352:	025b      	lsls	r3, r3, #9
 8003354:	0412      	lsls	r2, r2, #16
 8003356:	b29b      	uxth	r3, r3
 8003358:	f402 02fe 	and.w	r2, r2, #8323072	@ 0x7f0000
 800335c:	4313      	orrs	r3, r2
 800335e:	6872      	ldr	r2, [r6, #4]
 8003360:	3a01      	subs	r2, #1
 8003362:	f3c2 0208 	ubfx	r2, r2, #0, #9
 8003366:	4313      	orrs	r3, r2
 8003368:	6932      	ldr	r2, [r6, #16]
 800336a:	3a01      	subs	r2, #1
 800336c:	0612      	lsls	r2, r2, #24
 800336e:	f002 42fe 	and.w	r2, r2, #2130706432	@ 0x7f000000
 8003372:	4313      	orrs	r3, r2
 8003374:	6423      	str	r3, [r4, #64]	@ 0x40
 8003376:	6ae3      	ldr	r3, [r4, #44]	@ 0x2c
 8003378:	6972      	ldr	r2, [r6, #20]
 800337a:	f423 6340 	bic.w	r3, r3, #3072	@ 0xc00
 800337e:	4313      	orrs	r3, r2
 8003380:	62e3      	str	r3, [r4, #44]	@ 0x2c
 8003382:	6ae3      	ldr	r3, [r4, #44]	@ 0x2c
 8003384:	69b2      	ldr	r2, [r6, #24]
 8003386:	f423 7300 	bic.w	r3, r3, #512	@ 0x200
 800338a:	4313      	orrs	r3, r2
 800338c:	62e3      	str	r3, [r4, #44]	@ 0x2c
 800338e:	6ae3      	ldr	r3, [r4, #44]	@ 0x2c
 8003390:	f423 7380 	bic.w	r3, r3, #256	@ 0x100
 8003394:	62e3      	str	r3, [r4, #44]	@ 0x2c
 8003396:	6c63      	ldr	r3, [r4, #68]	@ 0x44
 8003398:	69f2      	ldr	r2, [r6, #28]
 800339a:	f36f 03cf 	bfc	r3, #3, #13
 800339e:	ea43 03c2 	orr.w	r3, r3, r2, lsl #3
 80033a2:	6463      	str	r3, [r4, #68]	@ 0x44
 80033a4:	6ae3      	ldr	r3, [r4, #44]	@ 0x2c
 80033a6:	f443 7380 	orr.w	r3, r3, #256	@ 0x100
 80033aa:	62e3      	str	r3, [r4, #44]	@ 0x2c
 80033ac:	6ae3      	ldr	r3, [r4, #44]	@ 0x2c
 80033ae:	b1df      	cbz	r7, 80033e8 <RCCEx_PLL3_Config.part.0+0xd4>
 80033b0:	2f01      	cmp	r7, #1
 80033b2:	bf0c      	ite	eq
 80033b4:	f443 0300 	orreq.w	r3, r3, #8388608	@ 0x800000
 80033b8:	f043 7380 	orrne.w	r3, r3, #16777216	@ 0x1000000
 80033bc:	62e3      	str	r3, [r4, #44]	@ 0x2c
 80033be:	4c0c      	ldr	r4, [pc, #48]	@ (80033f0 <RCCEx_PLL3_Config.part.0+0xdc>)
 80033c0:	6823      	ldr	r3, [r4, #0]
 80033c2:	f043 5380 	orr.w	r3, r3, #268435456	@ 0x10000000
 80033c6:	6023      	str	r3, [r4, #0]
 80033c8:	f7fd fe20 	bl	800100c <HAL_GetTick>
 80033cc:	4605      	mov	r5, r0
 80033ce:	e004      	b.n	80033da <RCCEx_PLL3_Config.part.0+0xc6>
 80033d0:	f7fd fe1c 	bl	800100c <HAL_GetTick>
 80033d4:	1b40      	subs	r0, r0, r5
 80033d6:	2802      	cmp	r0, #2
 80033d8:	d804      	bhi.n	80033e4 <RCCEx_PLL3_Config.part.0+0xd0>
 80033da:	6823      	ldr	r3, [r4, #0]
 80033dc:	009b      	lsls	r3, r3, #2
 80033de:	d5f7      	bpl.n	80033d0 <RCCEx_PLL3_Config.part.0+0xbc>
 80033e0:	2000      	movs	r0, #0
 80033e2:	bdf8      	pop	{r3, r4, r5, r6, r7, pc}
 80033e4:	2003      	movs	r0, #3
 80033e6:	bdf8      	pop	{r3, r4, r5, r6, r7, pc}
 80033e8:	f443 0380 	orr.w	r3, r3, #4194304	@ 0x400000
 80033ec:	62e3      	str	r3, [r4, #44]	@ 0x2c
 80033ee:	e7e6      	b.n	80033be <RCCEx_PLL3_Config.part.0+0xaa>
 80033f0:	58024400 	.word	0x58024400

080033f4 <HAL_RCCEx_PeriphCLKConfig>:
 80033f4:	e92d 43f8 	stmdb	sp!, {r3, r4, r5, r6, r7, r8, r9, lr}
 80033f8:	e9d0 3200 	ldrd	r3, r2, [r0]
 80033fc:	4604      	mov	r4, r0
 80033fe:	0118      	lsls	r0, r3, #4
 8003400:	f003 6600 	and.w	r6, r3, #134217728	@ 0x8000000
 8003404:	d526      	bpl.n	8003454 <HAL_RCCEx_PeriphCLKConfig+0x60>
 8003406:	6e61      	ldr	r1, [r4, #100]	@ 0x64
 8003408:	f5b1 1f00 	cmp.w	r1, #2097152	@ 0x200000
 800340c:	f000 8562 	beq.w	8003ed4 <HAL_RCCEx_PeriphCLKConfig+0xae0>
 8003410:	f200 8653 	bhi.w	80040ba <HAL_RCCEx_PeriphCLKConfig+0xcc6>
 8003414:	2900      	cmp	r1, #0
 8003416:	f000 8536 	beq.w	8003e86 <HAL_RCCEx_PeriphCLKConfig+0xa92>
 800341a:	f5b1 1f80 	cmp.w	r1, #1048576	@ 0x100000
 800341e:	f040 8650 	bne.w	80040c2 <HAL_RCCEx_PeriphCLKConfig+0xcce>
 8003422:	4996      	ldr	r1, [pc, #600]	@ (800367c <HAL_RCCEx_PeriphCLKConfig+0x288>)
 8003424:	6a89      	ldr	r1, [r1, #40]	@ 0x28
 8003426:	f001 0103 	and.w	r1, r1, #3
 800342a:	2903      	cmp	r1, #3
 800342c:	f000 8649 	beq.w	80040c2 <HAL_RCCEx_PeriphCLKConfig+0xcce>
 8003430:	2102      	movs	r1, #2
 8003432:	f104 0008 	add.w	r0, r4, #8
 8003436:	f7ff fefd 	bl	8003234 <RCCEx_PLL2_Config.part.0>
 800343a:	e9d4 3200 	ldrd	r3, r2, [r4]
 800343e:	2800      	cmp	r0, #0
 8003440:	f040 8686 	bne.w	8004150 <HAL_RCCEx_PeriphCLKConfig+0xd5c>
 8003444:	6e61      	ldr	r1, [r4, #100]	@ 0x64
 8003446:	4d8d      	ldr	r5, [pc, #564]	@ (800367c <HAL_RCCEx_PeriphCLKConfig+0x288>)
 8003448:	2600      	movs	r6, #0
 800344a:	6d28      	ldr	r0, [r5, #80]	@ 0x50
 800344c:	f420 1040 	bic.w	r0, r0, #3145728	@ 0x300000
 8003450:	4301      	orrs	r1, r0
 8003452:	6529      	str	r1, [r5, #80]	@ 0x50
 8003454:	05d9      	lsls	r1, r3, #23
 8003456:	d50a      	bpl.n	800346e <HAL_RCCEx_PeriphCLKConfig+0x7a>
 8003458:	6da1      	ldr	r1, [r4, #88]	@ 0x58
 800345a:	2904      	cmp	r1, #4
 800345c:	d806      	bhi.n	800346c <HAL_RCCEx_PeriphCLKConfig+0x78>
 800345e:	e8df f011 	tbh	[pc, r1, lsl #1]
 8003462:	03d0      	.short	0x03d0
 8003464:	05710524 	.word	0x05710524
 8003468:	03d503d5 	.word	0x03d503d5
 800346c:	2601      	movs	r6, #1
 800346e:	4635      	mov	r5, r6
 8003470:	055f      	lsls	r7, r3, #21
 8003472:	d528      	bpl.n	80034c6 <HAL_RCCEx_PeriphCLKConfig+0xd2>
 8003474:	f8d4 10a4 	ldr.w	r1, [r4, #164]	@ 0xa4
 8003478:	f5b1 0f80 	cmp.w	r1, #4194304	@ 0x400000
 800347c:	f000 854d 	beq.w	8003f1a <HAL_RCCEx_PeriphCLKConfig+0xb26>
 8003480:	f200 8630 	bhi.w	80040e4 <HAL_RCCEx_PeriphCLKConfig+0xcf0>
 8003484:	2900      	cmp	r1, #0
 8003486:	f000 8585 	beq.w	8003f94 <HAL_RCCEx_PeriphCLKConfig+0xba0>
 800348a:	f5b1 1f00 	cmp.w	r1, #2097152	@ 0x200000
 800348e:	f040 8633 	bne.w	80040f8 <HAL_RCCEx_PeriphCLKConfig+0xd04>
 8003492:	497a      	ldr	r1, [pc, #488]	@ (800367c <HAL_RCCEx_PeriphCLKConfig+0x288>)
 8003494:	6a89      	ldr	r1, [r1, #40]	@ 0x28
 8003496:	f001 0103 	and.w	r1, r1, #3
 800349a:	2903      	cmp	r1, #3
 800349c:	f000 862c 	beq.w	80040f8 <HAL_RCCEx_PeriphCLKConfig+0xd04>
 80034a0:	2100      	movs	r1, #0
 80034a2:	f104 0008 	add.w	r0, r4, #8
 80034a6:	f7ff fec5 	bl	8003234 <RCCEx_PLL2_Config.part.0>
 80034aa:	4605      	mov	r5, r0
 80034ac:	e9d4 3200 	ldrd	r3, r2, [r4]
 80034b0:	2d00      	cmp	r5, #0
 80034b2:	f040 8544 	bne.w	8003f3e <HAL_RCCEx_PeriphCLKConfig+0xb4a>
 80034b6:	4f71      	ldr	r7, [pc, #452]	@ (800367c <HAL_RCCEx_PeriphCLKConfig+0x288>)
 80034b8:	f8d4 00a4 	ldr.w	r0, [r4, #164]	@ 0xa4
 80034bc:	6db9      	ldr	r1, [r7, #88]	@ 0x58
 80034be:	f421 0160 	bic.w	r1, r1, #14680064	@ 0xe00000
 80034c2:	4301      	orrs	r1, r0
 80034c4:	65b9      	str	r1, [r7, #88]	@ 0x58
 80034c6:	0518      	lsls	r0, r3, #20
 80034c8:	d528      	bpl.n	800351c <HAL_RCCEx_PeriphCLKConfig+0x128>
 80034ca:	f8d4 10a8 	ldr.w	r1, [r4, #168]	@ 0xa8
 80034ce:	f1b1 7f00 	cmp.w	r1, #33554432	@ 0x2000000
 80034d2:	f000 850d 	beq.w	8003ef0 <HAL_RCCEx_PeriphCLKConfig+0xafc>
 80034d6:	f200 85f7 	bhi.w	80040c8 <HAL_RCCEx_PeriphCLKConfig+0xcd4>
 80034da:	2900      	cmp	r1, #0
 80034dc:	f000 8553 	beq.w	8003f86 <HAL_RCCEx_PeriphCLKConfig+0xb92>
 80034e0:	f1b1 7f80 	cmp.w	r1, #16777216	@ 0x1000000
 80034e4:	f040 85fa 	bne.w	80040dc <HAL_RCCEx_PeriphCLKConfig+0xce8>
 80034e8:	4964      	ldr	r1, [pc, #400]	@ (800367c <HAL_RCCEx_PeriphCLKConfig+0x288>)
 80034ea:	6a89      	ldr	r1, [r1, #40]	@ 0x28
 80034ec:	f001 0103 	and.w	r1, r1, #3
 80034f0:	2903      	cmp	r1, #3
 80034f2:	f000 85f3 	beq.w	80040dc <HAL_RCCEx_PeriphCLKConfig+0xce8>
 80034f6:	2100      	movs	r1, #0
 80034f8:	f104 0008 	add.w	r0, r4, #8
 80034fc:	f7ff fe9a 	bl	8003234 <RCCEx_PLL2_Config.part.0>
 8003500:	4605      	mov	r5, r0
 8003502:	e9d4 3200 	ldrd	r3, r2, [r4]
 8003506:	2d00      	cmp	r5, #0
 8003508:	f040 8504 	bne.w	8003f14 <HAL_RCCEx_PeriphCLKConfig+0xb20>
 800350c:	4f5b      	ldr	r7, [pc, #364]	@ (800367c <HAL_RCCEx_PeriphCLKConfig+0x288>)
 800350e:	f8d4 00a8 	ldr.w	r0, [r4, #168]	@ 0xa8
 8003512:	6db9      	ldr	r1, [r7, #88]	@ 0x58
 8003514:	f021 61e0 	bic.w	r1, r1, #117440512	@ 0x7000000
 8003518:	4301      	orrs	r1, r0
 800351a:	65b9      	str	r1, [r7, #88]	@ 0x58
 800351c:	0199      	lsls	r1, r3, #6
 800351e:	d518      	bpl.n	8003552 <HAL_RCCEx_PeriphCLKConfig+0x15e>
 8003520:	6ce1      	ldr	r1, [r4, #76]	@ 0x4c
 8003522:	2920      	cmp	r1, #32
 8003524:	f000 844f 	beq.w	8003dc6 <HAL_RCCEx_PeriphCLKConfig+0x9d2>
 8003528:	f200 85ea 	bhi.w	8004100 <HAL_RCCEx_PeriphCLKConfig+0xd0c>
 800352c:	b139      	cbz	r1, 800353e <HAL_RCCEx_PeriphCLKConfig+0x14a>
 800352e:	2910      	cmp	r1, #16
 8003530:	f040 85e9 	bne.w	8004106 <HAL_RCCEx_PeriphCLKConfig+0xd12>
 8003534:	4851      	ldr	r0, [pc, #324]	@ (800367c <HAL_RCCEx_PeriphCLKConfig+0x288>)
 8003536:	6ac1      	ldr	r1, [r0, #44]	@ 0x2c
 8003538:	f441 3100 	orr.w	r1, r1, #131072	@ 0x20000
 800353c:	62c1      	str	r1, [r0, #44]	@ 0x2c
 800353e:	2d00      	cmp	r5, #0
 8003540:	f040 83c9 	bne.w	8003cd6 <HAL_RCCEx_PeriphCLKConfig+0x8e2>
 8003544:	4f4d      	ldr	r7, [pc, #308]	@ (800367c <HAL_RCCEx_PeriphCLKConfig+0x288>)
 8003546:	6ce0      	ldr	r0, [r4, #76]	@ 0x4c
 8003548:	6cf9      	ldr	r1, [r7, #76]	@ 0x4c
 800354a:	f021 0130 	bic.w	r1, r1, #48	@ 0x30
 800354e:	4301      	orrs	r1, r0
 8003550:	64f9      	str	r1, [r7, #76]	@ 0x4c
 8003552:	04df      	lsls	r7, r3, #19
 8003554:	d526      	bpl.n	80035a4 <HAL_RCCEx_PeriphCLKConfig+0x1b0>
 8003556:	6de1      	ldr	r1, [r4, #92]	@ 0x5c
 8003558:	f5b1 5f00 	cmp.w	r1, #8192	@ 0x2000
 800355c:	f000 8502 	beq.w	8003f64 <HAL_RCCEx_PeriphCLKConfig+0xb70>
 8003560:	f200 859f 	bhi.w	80040a2 <HAL_RCCEx_PeriphCLKConfig+0xcae>
 8003564:	2900      	cmp	r1, #0
 8003566:	f000 8495 	beq.w	8003e94 <HAL_RCCEx_PeriphCLKConfig+0xaa0>
 800356a:	f5b1 5f80 	cmp.w	r1, #4096	@ 0x1000
 800356e:	f040 85a0 	bne.w	80040b2 <HAL_RCCEx_PeriphCLKConfig+0xcbe>
 8003572:	4942      	ldr	r1, [pc, #264]	@ (800367c <HAL_RCCEx_PeriphCLKConfig+0x288>)
 8003574:	6a89      	ldr	r1, [r1, #40]	@ 0x28
 8003576:	f001 0103 	and.w	r1, r1, #3
 800357a:	2903      	cmp	r1, #3
 800357c:	f000 8599 	beq.w	80040b2 <HAL_RCCEx_PeriphCLKConfig+0xcbe>
 8003580:	2100      	movs	r1, #0
 8003582:	f104 0008 	add.w	r0, r4, #8
 8003586:	f7ff fe55 	bl	8003234 <RCCEx_PLL2_Config.part.0>
 800358a:	4605      	mov	r5, r0
 800358c:	e9d4 3200 	ldrd	r3, r2, [r4]
 8003590:	2d00      	cmp	r5, #0
 8003592:	f040 8487 	bne.w	8003ea4 <HAL_RCCEx_PeriphCLKConfig+0xab0>
 8003596:	4f39      	ldr	r7, [pc, #228]	@ (800367c <HAL_RCCEx_PeriphCLKConfig+0x288>)
 8003598:	6de0      	ldr	r0, [r4, #92]	@ 0x5c
 800359a:	6d39      	ldr	r1, [r7, #80]	@ 0x50
 800359c:	f421 41e0 	bic.w	r1, r1, #28672	@ 0x7000
 80035a0:	4301      	orrs	r1, r0
 80035a2:	6539      	str	r1, [r7, #80]	@ 0x50
 80035a4:	0498      	lsls	r0, r3, #18
 80035a6:	d524      	bpl.n	80035f2 <HAL_RCCEx_PeriphCLKConfig+0x1fe>
 80035a8:	6e21      	ldr	r1, [r4, #96]	@ 0x60
 80035aa:	f5b1 3f00 	cmp.w	r1, #131072	@ 0x20000
 80035ae:	f000 83d4 	beq.w	8003d5a <HAL_RCCEx_PeriphCLKConfig+0x966>
 80035b2:	f200 8531 	bhi.w	8004018 <HAL_RCCEx_PeriphCLKConfig+0xc24>
 80035b6:	b191      	cbz	r1, 80035de <HAL_RCCEx_PeriphCLKConfig+0x1ea>
 80035b8:	f5b1 3f80 	cmp.w	r1, #65536	@ 0x10000
 80035bc:	f040 8536 	bne.w	800402c <HAL_RCCEx_PeriphCLKConfig+0xc38>
 80035c0:	492e      	ldr	r1, [pc, #184]	@ (800367c <HAL_RCCEx_PeriphCLKConfig+0x288>)
 80035c2:	6a89      	ldr	r1, [r1, #40]	@ 0x28
 80035c4:	f001 0103 	and.w	r1, r1, #3
 80035c8:	2903      	cmp	r1, #3
 80035ca:	f000 852f 	beq.w	800402c <HAL_RCCEx_PeriphCLKConfig+0xc38>
 80035ce:	2101      	movs	r1, #1
 80035d0:	f104 0008 	add.w	r0, r4, #8
 80035d4:	f7ff fe2e 	bl	8003234 <RCCEx_PLL2_Config.part.0>
 80035d8:	4605      	mov	r5, r0
 80035da:	e9d4 3200 	ldrd	r3, r2, [r4]
 80035de:	2d00      	cmp	r5, #0
 80035e0:	f040 8385 	bne.w	8003cee <HAL_RCCEx_PeriphCLKConfig+0x8fa>
 80035e4:	4f25      	ldr	r7, [pc, #148]	@ (800367c <HAL_RCCEx_PeriphCLKConfig+0x288>)
 80035e6:	6e20      	ldr	r0, [r4, #96]	@ 0x60
 80035e8:	6d39      	ldr	r1, [r7, #80]	@ 0x50
 80035ea:	f421 21e0 	bic.w	r1, r1, #458752	@ 0x70000
 80035ee:	4301      	orrs	r1, r0
 80035f0:	6539      	str	r1, [r7, #80]	@ 0x50
 80035f2:	0459      	lsls	r1, r3, #17
 80035f4:	d526      	bpl.n	8003644 <HAL_RCCEx_PeriphCLKConfig+0x250>
 80035f6:	f8d4 10ac 	ldr.w	r1, [r4, #172]	@ 0xac
 80035fa:	f1b1 5f00 	cmp.w	r1, #536870912	@ 0x20000000
 80035fe:	f000 83be 	beq.w	8003d7e <HAL_RCCEx_PeriphCLKConfig+0x98a>
 8003602:	f200 8540 	bhi.w	8004086 <HAL_RCCEx_PeriphCLKConfig+0xc92>
 8003606:	b191      	cbz	r1, 800362e <HAL_RCCEx_PeriphCLKConfig+0x23a>
 8003608:	f1b1 5f80 	cmp.w	r1, #268435456	@ 0x10000000
 800360c:	f040 8545 	bne.w	800409a <HAL_RCCEx_PeriphCLKConfig+0xca6>
 8003610:	491a      	ldr	r1, [pc, #104]	@ (800367c <HAL_RCCEx_PeriphCLKConfig+0x288>)
 8003612:	6a89      	ldr	r1, [r1, #40]	@ 0x28
 8003614:	f001 0103 	and.w	r1, r1, #3
 8003618:	2903      	cmp	r1, #3
 800361a:	f000 853e 	beq.w	800409a <HAL_RCCEx_PeriphCLKConfig+0xca6>
 800361e:	2101      	movs	r1, #1
 8003620:	f104 0008 	add.w	r0, r4, #8
 8003624:	f7ff fe06 	bl	8003234 <RCCEx_PLL2_Config.part.0>
 8003628:	4605      	mov	r5, r0
 800362a:	e9d4 3200 	ldrd	r3, r2, [r4]
 800362e:	2d00      	cmp	r5, #0
 8003630:	f040 835b 	bne.w	8003cea <HAL_RCCEx_PeriphCLKConfig+0x8f6>
 8003634:	4f11      	ldr	r7, [pc, #68]	@ (800367c <HAL_RCCEx_PeriphCLKConfig+0x288>)
 8003636:	f8d4 00ac 	ldr.w	r0, [r4, #172]	@ 0xac
 800363a:	6db9      	ldr	r1, [r7, #88]	@ 0x58
 800363c:	f021 41e0 	bic.w	r1, r1, #1879048192	@ 0x70000000
 8003640:	4301      	orrs	r1, r0
 8003642:	65b9      	str	r1, [r7, #88]	@ 0x58
 8003644:	041f      	lsls	r7, r3, #16
 8003646:	d50d      	bpl.n	8003664 <HAL_RCCEx_PeriphCLKConfig+0x270>
 8003648:	6ee1      	ldr	r1, [r4, #108]	@ 0x6c
 800364a:	f1b1 5f80 	cmp.w	r1, #268435456	@ 0x10000000
 800364e:	f000 8258 	beq.w	8003b02 <HAL_RCCEx_PeriphCLKConfig+0x70e>
 8003652:	f1b1 5f00 	cmp.w	r1, #536870912	@ 0x20000000
 8003656:	f000 8560 	beq.w	800411a <HAL_RCCEx_PeriphCLKConfig+0xd26>
 800365a:	2900      	cmp	r1, #0
 800365c:	f000 8256 	beq.w	8003b0c <HAL_RCCEx_PeriphCLKConfig+0x718>
 8003660:	2601      	movs	r6, #1
 8003662:	4635      	mov	r5, r6
 8003664:	01d8      	lsls	r0, r3, #7
 8003666:	d514      	bpl.n	8003692 <HAL_RCCEx_PeriphCLKConfig+0x29e>
 8003668:	6ca1      	ldr	r1, [r4, #72]	@ 0x48
 800366a:	2903      	cmp	r1, #3
 800366c:	f200 8579 	bhi.w	8004162 <HAL_RCCEx_PeriphCLKConfig+0xd6e>
 8003670:	e8df f011 	tbh	[pc, r1, lsl #1]
 8003674:	0006000b 	.word	0x0006000b
 8003678:	000b0360 	.word	0x000b0360
 800367c:	58024400 	.word	0x58024400
 8003680:	4836      	ldr	r0, [pc, #216]	@ (800375c <HAL_RCCEx_PeriphCLKConfig+0x368>)
 8003682:	6ac1      	ldr	r1, [r0, #44]	@ 0x2c
 8003684:	f441 3100 	orr.w	r1, r1, #131072	@ 0x20000
 8003688:	62c1      	str	r1, [r0, #44]	@ 0x2c
 800368a:	2d00      	cmp	r5, #0
 800368c:	f000 8319 	beq.w	8003cc2 <HAL_RCCEx_PeriphCLKConfig+0x8ce>
 8003690:	462e      	mov	r6, r5
 8003692:	0259      	lsls	r1, r3, #9
 8003694:	f100 8273 	bmi.w	8003b7e <HAL_RCCEx_PeriphCLKConfig+0x78a>
 8003698:	07d8      	lsls	r0, r3, #31
 800369a:	d52f      	bpl.n	80036fc <HAL_RCCEx_PeriphCLKConfig+0x308>
 800369c:	6fa1      	ldr	r1, [r4, #120]	@ 0x78
 800369e:	2928      	cmp	r1, #40	@ 0x28
 80036a0:	d82a      	bhi.n	80036f8 <HAL_RCCEx_PeriphCLKConfig+0x304>
 80036a2:	e8df f011 	tbh	[pc, r1, lsl #1]
 80036a6:	0250      	.short	0x0250
 80036a8:	00290029 	.word	0x00290029
 80036ac:	00290029 	.word	0x00290029
 80036b0:	00290029 	.word	0x00290029
 80036b4:	02410029 	.word	0x02410029
 80036b8:	00290029 	.word	0x00290029
 80036bc:	00290029 	.word	0x00290029
 80036c0:	00290029 	.word	0x00290029
 80036c4:	04a40029 	.word	0x04a40029
 80036c8:	00290029 	.word	0x00290029
 80036cc:	00290029 	.word	0x00290029
 80036d0:	00290029 	.word	0x00290029
 80036d4:	02500029 	.word	0x02500029
 80036d8:	00290029 	.word	0x00290029
 80036dc:	00290029 	.word	0x00290029
 80036e0:	00290029 	.word	0x00290029
 80036e4:	02500029 	.word	0x02500029
 80036e8:	00290029 	.word	0x00290029
 80036ec:	00290029 	.word	0x00290029
 80036f0:	00290029 	.word	0x00290029
 80036f4:	02500029 	.word	0x02500029
 80036f8:	2601      	movs	r6, #1
 80036fa:	4635      	mov	r5, r6
 80036fc:	0799      	lsls	r1, r3, #30
 80036fe:	d51e      	bpl.n	800373e <HAL_RCCEx_PeriphCLKConfig+0x34a>
 8003700:	6f61      	ldr	r1, [r4, #116]	@ 0x74
 8003702:	2905      	cmp	r1, #5
 8003704:	f200 851c 	bhi.w	8004140 <HAL_RCCEx_PeriphCLKConfig+0xd4c>
 8003708:	e8df f011 	tbh	[pc, r1, lsl #1]
 800370c:	00060015 	.word	0x00060015
 8003710:	0015044b 	.word	0x0015044b
 8003714:	00150015 	.word	0x00150015
 8003718:	4910      	ldr	r1, [pc, #64]	@ (800375c <HAL_RCCEx_PeriphCLKConfig+0x368>)
 800371a:	6a89      	ldr	r1, [r1, #40]	@ 0x28
 800371c:	f001 0103 	and.w	r1, r1, #3
 8003720:	2903      	cmp	r1, #3
 8003722:	f000 850d 	beq.w	8004140 <HAL_RCCEx_PeriphCLKConfig+0xd4c>
 8003726:	2101      	movs	r1, #1
 8003728:	f104 0008 	add.w	r0, r4, #8
 800372c:	f7ff fd82 	bl	8003234 <RCCEx_PLL2_Config.part.0>
 8003730:	4605      	mov	r5, r0
 8003732:	e9d4 3200 	ldrd	r3, r2, [r4]
 8003736:	2d00      	cmp	r5, #0
 8003738:	f000 82e4 	beq.w	8003d04 <HAL_RCCEx_PeriphCLKConfig+0x910>
 800373c:	462e      	mov	r6, r5
 800373e:	075f      	lsls	r7, r3, #29
 8003740:	d521      	bpl.n	8003786 <HAL_RCCEx_PeriphCLKConfig+0x392>
 8003742:	f8d4 1090 	ldr.w	r1, [r4, #144]	@ 0x90
 8003746:	2905      	cmp	r1, #5
 8003748:	f200 84fe 	bhi.w	8004148 <HAL_RCCEx_PeriphCLKConfig+0xd54>
 800374c:	e8df f011 	tbh	[pc, r1, lsl #1]
 8003750:	00080017 	.word	0x00080017
 8003754:	0017043c 	.word	0x0017043c
 8003758:	00170017 	.word	0x00170017
 800375c:	58024400 	.word	0x58024400
 8003760:	49b0      	ldr	r1, [pc, #704]	@ (8003a24 <HAL_RCCEx_PeriphCLKConfig+0x630>)
 8003762:	6a89      	ldr	r1, [r1, #40]	@ 0x28
 8003764:	f001 0103 	and.w	r1, r1, #3
 8003768:	2903      	cmp	r1, #3
 800376a:	f000 84ed 	beq.w	8004148 <HAL_RCCEx_PeriphCLKConfig+0xd54>
 800376e:	2101      	movs	r1, #1
 8003770:	f104 0008 	add.w	r0, r4, #8
 8003774:	f7ff fd5e 	bl	8003234 <RCCEx_PLL2_Config.part.0>
 8003778:	4605      	mov	r5, r0
 800377a:	e9d4 3200 	ldrd	r3, r2, [r4]
 800377e:	2d00      	cmp	r5, #0
 8003780:	f000 82c8 	beq.w	8003d14 <HAL_RCCEx_PeriphCLKConfig+0x920>
 8003784:	462e      	mov	r6, r5
 8003786:	0698      	lsls	r0, r3, #26
 8003788:	d526      	bpl.n	80037d8 <HAL_RCCEx_PeriphCLKConfig+0x3e4>
 800378a:	f8d4 108c 	ldr.w	r1, [r4, #140]	@ 0x8c
 800378e:	f1b1 5f00 	cmp.w	r1, #536870912	@ 0x20000000
 8003792:	f000 8365 	beq.w	8003e60 <HAL_RCCEx_PeriphCLKConfig+0xa6c>
 8003796:	f200 8468 	bhi.w	800406a <HAL_RCCEx_PeriphCLKConfig+0xc76>
 800379a:	b191      	cbz	r1, 80037c2 <HAL_RCCEx_PeriphCLKConfig+0x3ce>
 800379c:	f1b1 5f80 	cmp.w	r1, #268435456	@ 0x10000000
 80037a0:	f040 846d 	bne.w	800407e <HAL_RCCEx_PeriphCLKConfig+0xc8a>
 80037a4:	499f      	ldr	r1, [pc, #636]	@ (8003a24 <HAL_RCCEx_PeriphCLKConfig+0x630>)
 80037a6:	6a89      	ldr	r1, [r1, #40]	@ 0x28
 80037a8:	f001 0103 	and.w	r1, r1, #3
 80037ac:	2903      	cmp	r1, #3
 80037ae:	f000 8466 	beq.w	800407e <HAL_RCCEx_PeriphCLKConfig+0xc8a>
 80037b2:	2100      	movs	r1, #0
 80037b4:	f104 0008 	add.w	r0, r4, #8
 80037b8:	f7ff fd3c 	bl	8003234 <RCCEx_PLL2_Config.part.0>
 80037bc:	4605      	mov	r5, r0
 80037be:	e9d4 3200 	ldrd	r3, r2, [r4]
 80037c2:	2d00      	cmp	r5, #0
 80037c4:	f040 829c 	bne.w	8003d00 <HAL_RCCEx_PeriphCLKConfig+0x90c>
 80037c8:	4f96      	ldr	r7, [pc, #600]	@ (8003a24 <HAL_RCCEx_PeriphCLKConfig+0x630>)
 80037ca:	f8d4 008c 	ldr.w	r0, [r4, #140]	@ 0x8c
 80037ce:	6d79      	ldr	r1, [r7, #84]	@ 0x54
 80037d0:	f021 41e0 	bic.w	r1, r1, #1879048192	@ 0x70000000
 80037d4:	4301      	orrs	r1, r0
 80037d6:	6579      	str	r1, [r7, #84]	@ 0x54
 80037d8:	0659      	lsls	r1, r3, #25
 80037da:	d526      	bpl.n	800382a <HAL_RCCEx_PeriphCLKConfig+0x436>
 80037dc:	f8d4 1098 	ldr.w	r1, [r4, #152]	@ 0x98
 80037e0:	f5b1 6f00 	cmp.w	r1, #2048	@ 0x800
 80037e4:	f000 8329 	beq.w	8003e3a <HAL_RCCEx_PeriphCLKConfig+0xa46>
 80037e8:	f200 8431 	bhi.w	800404e <HAL_RCCEx_PeriphCLKConfig+0xc5a>
 80037ec:	b191      	cbz	r1, 8003814 <HAL_RCCEx_PeriphCLKConfig+0x420>
 80037ee:	f5b1 6f80 	cmp.w	r1, #1024	@ 0x400
 80037f2:	f040 8436 	bne.w	8004062 <HAL_RCCEx_PeriphCLKConfig+0xc6e>
 80037f6:	498b      	ldr	r1, [pc, #556]	@ (8003a24 <HAL_RCCEx_PeriphCLKConfig+0x630>)
 80037f8:	6a89      	ldr	r1, [r1, #40]	@ 0x28
 80037fa:	f001 0103 	and.w	r1, r1, #3
 80037fe:	2903      	cmp	r1, #3
 8003800:	f000 842f 	beq.w	8004062 <HAL_RCCEx_PeriphCLKConfig+0xc6e>
 8003804:	2100      	movs	r1, #0
 8003806:	f104 0008 	add.w	r0, r4, #8
 800380a:	f7ff fd13 	bl	8003234 <RCCEx_PLL2_Config.part.0>
 800380e:	4605      	mov	r5, r0
 8003810:	e9d4 3200 	ldrd	r3, r2, [r4]
 8003814:	2d00      	cmp	r5, #0
 8003816:	f040 8266 	bne.w	8003ce6 <HAL_RCCEx_PeriphCLKConfig+0x8f2>
 800381a:	4f82      	ldr	r7, [pc, #520]	@ (8003a24 <HAL_RCCEx_PeriphCLKConfig+0x630>)
 800381c:	f8d4 0098 	ldr.w	r0, [r4, #152]	@ 0x98
 8003820:	6db9      	ldr	r1, [r7, #88]	@ 0x58
 8003822:	f421 51e0 	bic.w	r1, r1, #7168	@ 0x1c00
 8003826:	4301      	orrs	r1, r0
 8003828:	65b9      	str	r1, [r7, #88]	@ 0x58
 800382a:	061f      	lsls	r7, r3, #24
 800382c:	d526      	bpl.n	800387c <HAL_RCCEx_PeriphCLKConfig+0x488>
 800382e:	f8d4 109c 	ldr.w	r1, [r4, #156]	@ 0x9c
 8003832:	f5b1 4f80 	cmp.w	r1, #16384	@ 0x4000
 8003836:	f000 82b4 	beq.w	8003da2 <HAL_RCCEx_PeriphCLKConfig+0x9ae>
 800383a:	f200 83fb 	bhi.w	8004034 <HAL_RCCEx_PeriphCLKConfig+0xc40>
 800383e:	b191      	cbz	r1, 8003866 <HAL_RCCEx_PeriphCLKConfig+0x472>
 8003840:	f5b1 5f00 	cmp.w	r1, #8192	@ 0x2000
 8003844:	f040 8400 	bne.w	8004048 <HAL_RCCEx_PeriphCLKConfig+0xc54>
 8003848:	4976      	ldr	r1, [pc, #472]	@ (8003a24 <HAL_RCCEx_PeriphCLKConfig+0x630>)
 800384a:	6a89      	ldr	r1, [r1, #40]	@ 0x28
 800384c:	f001 0103 	and.w	r1, r1, #3
 8003850:	2903      	cmp	r1, #3
 8003852:	f000 83f9 	beq.w	8004048 <HAL_RCCEx_PeriphCLKConfig+0xc54>
 8003856:	2100      	movs	r1, #0
 8003858:	f104 0008 	add.w	r0, r4, #8
 800385c:	f7ff fcea 	bl	8003234 <RCCEx_PLL2_Config.part.0>
 8003860:	4605      	mov	r5, r0
 8003862:	e9d4 3200 	ldrd	r3, r2, [r4]
 8003866:	2d00      	cmp	r5, #0
 8003868:	f040 8243 	bne.w	8003cf2 <HAL_RCCEx_PeriphCLKConfig+0x8fe>
 800386c:	4f6d      	ldr	r7, [pc, #436]	@ (8003a24 <HAL_RCCEx_PeriphCLKConfig+0x630>)
 800386e:	f8d4 009c 	ldr.w	r0, [r4, #156]	@ 0x9c
 8003872:	6db9      	ldr	r1, [r7, #88]	@ 0x58
 8003874:	f421 4160 	bic.w	r1, r1, #57344	@ 0xe000
 8003878:	4301      	orrs	r1, r0
 800387a:	65b9      	str	r1, [r7, #88]	@ 0x58
 800387c:	0718      	lsls	r0, r3, #28
 800387e:	d50b      	bpl.n	8003898 <HAL_RCCEx_PeriphCLKConfig+0x4a4>
 8003880:	f8d4 0080 	ldr.w	r0, [r4, #128]	@ 0x80
 8003884:	f5b0 5f80 	cmp.w	r0, #4096	@ 0x1000
 8003888:	f000 81db 	beq.w	8003c42 <HAL_RCCEx_PeriphCLKConfig+0x84e>
 800388c:	4f65      	ldr	r7, [pc, #404]	@ (8003a24 <HAL_RCCEx_PeriphCLKConfig+0x630>)
 800388e:	6d79      	ldr	r1, [r7, #84]	@ 0x54
 8003890:	f421 5140 	bic.w	r1, r1, #12288	@ 0x3000
 8003894:	4301      	orrs	r1, r0
 8003896:	6579      	str	r1, [r7, #84]	@ 0x54
 8003898:	06d9      	lsls	r1, r3, #27
 800389a:	d50b      	bpl.n	80038b4 <HAL_RCCEx_PeriphCLKConfig+0x4c0>
 800389c:	f8d4 0094 	ldr.w	r0, [r4, #148]	@ 0x94
 80038a0:	f5b0 7f80 	cmp.w	r0, #256	@ 0x100
 80038a4:	f000 81e1 	beq.w	8003c6a <HAL_RCCEx_PeriphCLKConfig+0x876>
 80038a8:	4f5e      	ldr	r7, [pc, #376]	@ (8003a24 <HAL_RCCEx_PeriphCLKConfig+0x630>)
 80038aa:	6db9      	ldr	r1, [r7, #88]	@ 0x58
 80038ac:	f421 7140 	bic.w	r1, r1, #768	@ 0x300
 80038b0:	4301      	orrs	r1, r0
 80038b2:	65b9      	str	r1, [r7, #88]	@ 0x58
 80038b4:	031f      	lsls	r7, r3, #12
 80038b6:	d524      	bpl.n	8003902 <HAL_RCCEx_PeriphCLKConfig+0x50e>
 80038b8:	f8d4 10a0 	ldr.w	r1, [r4, #160]	@ 0xa0
 80038bc:	f5b1 3f80 	cmp.w	r1, #65536	@ 0x10000
 80038c0:	f000 8295 	beq.w	8003dee <HAL_RCCEx_PeriphCLKConfig+0x9fa>
 80038c4:	f5b1 3f00 	cmp.w	r1, #131072	@ 0x20000
 80038c8:	d010      	beq.n	80038ec <HAL_RCCEx_PeriphCLKConfig+0x4f8>
 80038ca:	2900      	cmp	r1, #0
 80038cc:	f040 8129 	bne.w	8003b22 <HAL_RCCEx_PeriphCLKConfig+0x72e>
 80038d0:	4854      	ldr	r0, [pc, #336]	@ (8003a24 <HAL_RCCEx_PeriphCLKConfig+0x630>)
 80038d2:	6a80      	ldr	r0, [r0, #40]	@ 0x28
 80038d4:	f000 0003 	and.w	r0, r0, #3
 80038d8:	2803      	cmp	r0, #3
 80038da:	f000 8122 	beq.w	8003b22 <HAL_RCCEx_PeriphCLKConfig+0x72e>
 80038de:	f104 0008 	add.w	r0, r4, #8
 80038e2:	f7ff fca7 	bl	8003234 <RCCEx_PLL2_Config.part.0>
 80038e6:	4605      	mov	r5, r0
 80038e8:	e9d4 3200 	ldrd	r3, r2, [r4]
 80038ec:	2d00      	cmp	r5, #0
 80038ee:	f040 81f6 	bne.w	8003cde <HAL_RCCEx_PeriphCLKConfig+0x8ea>
 80038f2:	4f4c      	ldr	r7, [pc, #304]	@ (8003a24 <HAL_RCCEx_PeriphCLKConfig+0x630>)
 80038f4:	f8d4 00a0 	ldr.w	r0, [r4, #160]	@ 0xa0
 80038f8:	6db9      	ldr	r1, [r7, #88]	@ 0x58
 80038fa:	f421 3140 	bic.w	r1, r1, #196608	@ 0x30000
 80038fe:	4301      	orrs	r1, r0
 8003900:	65b9      	str	r1, [r7, #88]	@ 0x58
 8003902:	0358      	lsls	r0, r3, #13
 8003904:	d50f      	bpl.n	8003926 <HAL_RCCEx_PeriphCLKConfig+0x532>
 8003906:	f8d4 1084 	ldr.w	r1, [r4, #132]	@ 0x84
 800390a:	f5b1 1f00 	cmp.w	r1, #2097152	@ 0x200000
 800390e:	f000 8281 	beq.w	8003e14 <HAL_RCCEx_PeriphCLKConfig+0xa20>
 8003912:	f5b1 1f40 	cmp.w	r1, #3145728	@ 0x300000
 8003916:	f000 8126 	beq.w	8003b66 <HAL_RCCEx_PeriphCLKConfig+0x772>
 800391a:	f5b1 1f80 	cmp.w	r1, #1048576	@ 0x100000
 800391e:	f000 811d 	beq.w	8003b5c <HAL_RCCEx_PeriphCLKConfig+0x768>
 8003922:	2601      	movs	r6, #1
 8003924:	4635      	mov	r5, r6
 8003926:	03d9      	lsls	r1, r3, #15
 8003928:	d520      	bpl.n	800396c <HAL_RCCEx_PeriphCLKConfig+0x578>
 800392a:	6d21      	ldr	r1, [r4, #80]	@ 0x50
 800392c:	2900      	cmp	r1, #0
 800392e:	f000 81b0 	beq.w	8003c92 <HAL_RCCEx_PeriphCLKConfig+0x89e>
 8003932:	f5b1 3f80 	cmp.w	r1, #65536	@ 0x10000
 8003936:	f040 80e1 	bne.w	8003afc <HAL_RCCEx_PeriphCLKConfig+0x708>
 800393a:	493a      	ldr	r1, [pc, #232]	@ (8003a24 <HAL_RCCEx_PeriphCLKConfig+0x630>)
 800393c:	6a89      	ldr	r1, [r1, #40]	@ 0x28
 800393e:	f001 0103 	and.w	r1, r1, #3
 8003942:	2903      	cmp	r1, #3
 8003944:	f000 80da 	beq.w	8003afc <HAL_RCCEx_PeriphCLKConfig+0x708>
 8003948:	2102      	movs	r1, #2
 800394a:	f104 0008 	add.w	r0, r4, #8
 800394e:	f7ff fc71 	bl	8003234 <RCCEx_PLL2_Config.part.0>
 8003952:	4605      	mov	r5, r0
 8003954:	e9d4 3200 	ldrd	r3, r2, [r4]
 8003958:	2d00      	cmp	r5, #0
 800395a:	f040 81a2 	bne.w	8003ca2 <HAL_RCCEx_PeriphCLKConfig+0x8ae>
 800395e:	4f31      	ldr	r7, [pc, #196]	@ (8003a24 <HAL_RCCEx_PeriphCLKConfig+0x630>)
 8003960:	6d20      	ldr	r0, [r4, #80]	@ 0x50
 8003962:	6cf9      	ldr	r1, [r7, #76]	@ 0x4c
 8003964:	f421 3180 	bic.w	r1, r1, #65536	@ 0x10000
 8003968:	4301      	orrs	r1, r0
 800396a:	64f9      	str	r1, [r7, #76]	@ 0x4c
 800396c:	009f      	lsls	r7, r3, #2
 800396e:	d510      	bpl.n	8003992 <HAL_RCCEx_PeriphCLKConfig+0x59e>
 8003970:	492c      	ldr	r1, [pc, #176]	@ (8003a24 <HAL_RCCEx_PeriphCLKConfig+0x630>)
 8003972:	6a89      	ldr	r1, [r1, #40]	@ 0x28
 8003974:	f001 0103 	and.w	r1, r1, #3
 8003978:	2903      	cmp	r1, #3
 800397a:	f000 815b 	beq.w	8003c34 <HAL_RCCEx_PeriphCLKConfig+0x840>
 800397e:	2102      	movs	r1, #2
 8003980:	f104 0028 	add.w	r0, r4, #40	@ 0x28
 8003984:	f7ff fcc6 	bl	8003314 <RCCEx_PLL3_Config.part.0>
 8003988:	2800      	cmp	r0, #0
 800398a:	e9d4 3200 	ldrd	r3, r2, [r4]
 800398e:	bf18      	it	ne
 8003990:	2601      	movne	r6, #1
 8003992:	0398      	lsls	r0, r3, #14
 8003994:	d50d      	bpl.n	80039b2 <HAL_RCCEx_PeriphCLKConfig+0x5be>
 8003996:	6fe1      	ldr	r1, [r4, #124]	@ 0x7c
 8003998:	f5b1 7f80 	cmp.w	r1, #256	@ 0x100
 800399c:	f000 8183 	beq.w	8003ca6 <HAL_RCCEx_PeriphCLKConfig+0x8b2>
 80039a0:	f240 81c1 	bls.w	8003d26 <HAL_RCCEx_PeriphCLKConfig+0x932>
 80039a4:	f421 7080 	bic.w	r0, r1, #256	@ 0x100
 80039a8:	f5b0 7f00 	cmp.w	r0, #512	@ 0x200
 80039ac:	f000 8180 	beq.w	8003cb0 <HAL_RCCEx_PeriphCLKConfig+0x8bc>
 80039b0:	2601      	movs	r6, #1
 80039b2:	02d9      	lsls	r1, r3, #11
 80039b4:	d506      	bpl.n	80039c4 <HAL_RCCEx_PeriphCLKConfig+0x5d0>
 80039b6:	481b      	ldr	r0, [pc, #108]	@ (8003a24 <HAL_RCCEx_PeriphCLKConfig+0x630>)
 80039b8:	6f25      	ldr	r5, [r4, #112]	@ 0x70
 80039ba:	6d01      	ldr	r1, [r0, #80]	@ 0x50
 80039bc:	f021 4100 	bic.w	r1, r1, #2147483648	@ 0x80000000
 80039c0:	4329      	orrs	r1, r5
 80039c2:	6501      	str	r1, [r0, #80]	@ 0x50
 80039c4:	029f      	lsls	r7, r3, #10
 80039c6:	d506      	bpl.n	80039d6 <HAL_RCCEx_PeriphCLKConfig+0x5e2>
 80039c8:	4816      	ldr	r0, [pc, #88]	@ (8003a24 <HAL_RCCEx_PeriphCLKConfig+0x630>)
 80039ca:	6ea5      	ldr	r5, [r4, #104]	@ 0x68
 80039cc:	6d01      	ldr	r1, [r0, #80]	@ 0x50
 80039ce:	f021 7180 	bic.w	r1, r1, #16777216	@ 0x1000000
 80039d2:	4329      	orrs	r1, r5
 80039d4:	6501      	str	r1, [r0, #80]	@ 0x50
 80039d6:	005d      	lsls	r5, r3, #1
 80039d8:	d509      	bpl.n	80039ee <HAL_RCCEx_PeriphCLKConfig+0x5fa>
 80039da:	4912      	ldr	r1, [pc, #72]	@ (8003a24 <HAL_RCCEx_PeriphCLKConfig+0x630>)
 80039dc:	6908      	ldr	r0, [r1, #16]
 80039de:	f420 4000 	bic.w	r0, r0, #32768	@ 0x8000
 80039e2:	6108      	str	r0, [r1, #16]
 80039e4:	6908      	ldr	r0, [r1, #16]
 80039e6:	f8d4 50b4 	ldr.w	r5, [r4, #180]	@ 0xb4
 80039ea:	4328      	orrs	r0, r5
 80039ec:	6108      	str	r0, [r1, #16]
 80039ee:	2b00      	cmp	r3, #0
 80039f0:	da06      	bge.n	8003a00 <HAL_RCCEx_PeriphCLKConfig+0x60c>
 80039f2:	480c      	ldr	r0, [pc, #48]	@ (8003a24 <HAL_RCCEx_PeriphCLKConfig+0x630>)
 80039f4:	6d65      	ldr	r5, [r4, #84]	@ 0x54
 80039f6:	6cc1      	ldr	r1, [r0, #76]	@ 0x4c
 80039f8:	f021 5140 	bic.w	r1, r1, #805306368	@ 0x30000000
 80039fc:	4329      	orrs	r1, r5
 80039fe:	64c1      	str	r1, [r0, #76]	@ 0x4c
 8003a00:	0218      	lsls	r0, r3, #8
 8003a02:	d507      	bpl.n	8003a14 <HAL_RCCEx_PeriphCLKConfig+0x620>
 8003a04:	4907      	ldr	r1, [pc, #28]	@ (8003a24 <HAL_RCCEx_PeriphCLKConfig+0x630>)
 8003a06:	f8d4 0088 	ldr.w	r0, [r4, #136]	@ 0x88
 8003a0a:	6d4b      	ldr	r3, [r1, #84]	@ 0x54
 8003a0c:	f423 0340 	bic.w	r3, r3, #12582912	@ 0xc00000
 8003a10:	4303      	orrs	r3, r0
 8003a12:	654b      	str	r3, [r1, #84]	@ 0x54
 8003a14:	07d1      	lsls	r1, r2, #31
 8003a16:	d512      	bpl.n	8003a3e <HAL_RCCEx_PeriphCLKConfig+0x64a>
 8003a18:	4b02      	ldr	r3, [pc, #8]	@ (8003a24 <HAL_RCCEx_PeriphCLKConfig+0x630>)
 8003a1a:	6a9b      	ldr	r3, [r3, #40]	@ 0x28
 8003a1c:	f003 0303 	and.w	r3, r3, #3
 8003a20:	2b03      	cmp	r3, #3
 8003a22:	e001      	b.n	8003a28 <HAL_RCCEx_PeriphCLKConfig+0x634>
 8003a24:	58024400 	.word	0x58024400
 8003a28:	f000 80fe 	beq.w	8003c28 <HAL_RCCEx_PeriphCLKConfig+0x834>
 8003a2c:	2100      	movs	r1, #0
 8003a2e:	f104 0008 	add.w	r0, r4, #8
 8003a32:	f7ff fbff 	bl	8003234 <RCCEx_PLL2_Config.part.0>
 8003a36:	2800      	cmp	r0, #0
 8003a38:	6862      	ldr	r2, [r4, #4]
 8003a3a:	bf18      	it	ne
 8003a3c:	2603      	movne	r6, #3
 8003a3e:	0793      	lsls	r3, r2, #30
 8003a40:	d50f      	bpl.n	8003a62 <HAL_RCCEx_PeriphCLKConfig+0x66e>
 8003a42:	4bad      	ldr	r3, [pc, #692]	@ (8003cf8 <HAL_RCCEx_PeriphCLKConfig+0x904>)
 8003a44:	6a9b      	ldr	r3, [r3, #40]	@ 0x28
 8003a46:	f003 0303 	and.w	r3, r3, #3
 8003a4a:	2b03      	cmp	r3, #3
 8003a4c:	f000 80ee 	beq.w	8003c2c <HAL_RCCEx_PeriphCLKConfig+0x838>
 8003a50:	2101      	movs	r1, #1
 8003a52:	f104 0008 	add.w	r0, r4, #8
 8003a56:	f7ff fbed 	bl	8003234 <RCCEx_PLL2_Config.part.0>
 8003a5a:	2800      	cmp	r0, #0
 8003a5c:	6862      	ldr	r2, [r4, #4]
 8003a5e:	bf18      	it	ne
 8003a60:	2603      	movne	r6, #3
 8003a62:	0757      	lsls	r7, r2, #29
 8003a64:	d50f      	bpl.n	8003a86 <HAL_RCCEx_PeriphCLKConfig+0x692>
 8003a66:	4ba4      	ldr	r3, [pc, #656]	@ (8003cf8 <HAL_RCCEx_PeriphCLKConfig+0x904>)
 8003a68:	6a9b      	ldr	r3, [r3, #40]	@ 0x28
 8003a6a:	f003 0303 	and.w	r3, r3, #3
 8003a6e:	2b03      	cmp	r3, #3
 8003a70:	f000 80de 	beq.w	8003c30 <HAL_RCCEx_PeriphCLKConfig+0x83c>
 8003a74:	2102      	movs	r1, #2
 8003a76:	f104 0008 	add.w	r0, r4, #8
 8003a7a:	f7ff fbdb 	bl	8003234 <RCCEx_PLL2_Config.part.0>
 8003a7e:	2800      	cmp	r0, #0
 8003a80:	6862      	ldr	r2, [r4, #4]
 8003a82:	bf18      	it	ne
 8003a84:	2603      	movne	r6, #3
 8003a86:	0715      	lsls	r5, r2, #28
 8003a88:	d50f      	bpl.n	8003aaa <HAL_RCCEx_PeriphCLKConfig+0x6b6>
 8003a8a:	4b9b      	ldr	r3, [pc, #620]	@ (8003cf8 <HAL_RCCEx_PeriphCLKConfig+0x904>)
 8003a8c:	6a9b      	ldr	r3, [r3, #40]	@ 0x28
 8003a8e:	f003 0303 	and.w	r3, r3, #3
 8003a92:	2b03      	cmp	r3, #3
 8003a94:	f000 80c6 	beq.w	8003c24 <HAL_RCCEx_PeriphCLKConfig+0x830>
 8003a98:	2100      	movs	r1, #0
 8003a9a:	f104 0028 	add.w	r0, r4, #40	@ 0x28
 8003a9e:	f7ff fc39 	bl	8003314 <RCCEx_PLL3_Config.part.0>
 8003aa2:	2800      	cmp	r0, #0
 8003aa4:	6862      	ldr	r2, [r4, #4]
 8003aa6:	bf18      	it	ne
 8003aa8:	2603      	movne	r6, #3
 8003aaa:	06d0      	lsls	r0, r2, #27
 8003aac:	d51f      	bpl.n	8003aee <HAL_RCCEx_PeriphCLKConfig+0x6fa>
 8003aae:	4b92      	ldr	r3, [pc, #584]	@ (8003cf8 <HAL_RCCEx_PeriphCLKConfig+0x904>)
 8003ab0:	6a9b      	ldr	r3, [r3, #40]	@ 0x28
 8003ab2:	f003 0303 	and.w	r3, r3, #3
 8003ab6:	2b03      	cmp	r3, #3
 8003ab8:	f000 80be 	beq.w	8003c38 <HAL_RCCEx_PeriphCLKConfig+0x844>
 8003abc:	2101      	movs	r1, #1
 8003abe:	f104 0028 	add.w	r0, r4, #40	@ 0x28
 8003ac2:	f7ff fc27 	bl	8003314 <RCCEx_PLL3_Config.part.0>
 8003ac6:	6862      	ldr	r2, [r4, #4]
 8003ac8:	b188      	cbz	r0, 8003aee <HAL_RCCEx_PeriphCLKConfig+0x6fa>
 8003aca:	0692      	lsls	r2, r2, #26
 8003acc:	d50c      	bpl.n	8003ae8 <HAL_RCCEx_PeriphCLKConfig+0x6f4>
 8003ace:	2603      	movs	r6, #3
 8003ad0:	4b89      	ldr	r3, [pc, #548]	@ (8003cf8 <HAL_RCCEx_PeriphCLKConfig+0x904>)
 8003ad2:	6a9b      	ldr	r3, [r3, #40]	@ 0x28
 8003ad4:	f003 0303 	and.w	r3, r3, #3
 8003ad8:	2b03      	cmp	r3, #3
 8003ada:	d005      	beq.n	8003ae8 <HAL_RCCEx_PeriphCLKConfig+0x6f4>
 8003adc:	2102      	movs	r1, #2
 8003ade:	f104 0028 	add.w	r0, r4, #40	@ 0x28
 8003ae2:	f7ff fc17 	bl	8003314 <RCCEx_PLL3_Config.part.0>
 8003ae6:	b120      	cbz	r0, 8003af2 <HAL_RCCEx_PeriphCLKConfig+0x6fe>
 8003ae8:	2001      	movs	r0, #1
 8003aea:	e8bd 83f8 	ldmia.w	sp!, {r3, r4, r5, r6, r7, r8, r9, pc}
 8003aee:	0693      	lsls	r3, r2, #26
 8003af0:	d4ee      	bmi.n	8003ad0 <HAL_RCCEx_PeriphCLKConfig+0x6dc>
 8003af2:	1e30      	subs	r0, r6, #0
 8003af4:	bf18      	it	ne
 8003af6:	2001      	movne	r0, #1
 8003af8:	e8bd 83f8 	ldmia.w	sp!, {r3, r4, r5, r6, r7, r8, r9, pc}
 8003afc:	2601      	movs	r6, #1
 8003afe:	4635      	mov	r5, r6
 8003b00:	e734      	b.n	800396c <HAL_RCCEx_PeriphCLKConfig+0x578>
 8003b02:	487d      	ldr	r0, [pc, #500]	@ (8003cf8 <HAL_RCCEx_PeriphCLKConfig+0x904>)
 8003b04:	6ac1      	ldr	r1, [r0, #44]	@ 0x2c
 8003b06:	f441 3100 	orr.w	r1, r1, #131072	@ 0x20000
 8003b0a:	62c1      	str	r1, [r0, #44]	@ 0x2c
 8003b0c:	2d00      	cmp	r5, #0
 8003b0e:	f040 80e0 	bne.w	8003cd2 <HAL_RCCEx_PeriphCLKConfig+0x8de>
 8003b12:	4f79      	ldr	r7, [pc, #484]	@ (8003cf8 <HAL_RCCEx_PeriphCLKConfig+0x904>)
 8003b14:	6ee0      	ldr	r0, [r4, #108]	@ 0x6c
 8003b16:	6d39      	ldr	r1, [r7, #80]	@ 0x50
 8003b18:	f021 5140 	bic.w	r1, r1, #805306368	@ 0x30000000
 8003b1c:	4301      	orrs	r1, r0
 8003b1e:	6539      	str	r1, [r7, #80]	@ 0x50
 8003b20:	e5a0      	b.n	8003664 <HAL_RCCEx_PeriphCLKConfig+0x270>
 8003b22:	2601      	movs	r6, #1
 8003b24:	4635      	mov	r5, r6
 8003b26:	e6ec      	b.n	8003902 <HAL_RCCEx_PeriphCLKConfig+0x50e>
 8003b28:	4973      	ldr	r1, [pc, #460]	@ (8003cf8 <HAL_RCCEx_PeriphCLKConfig+0x904>)
 8003b2a:	6a89      	ldr	r1, [r1, #40]	@ 0x28
 8003b2c:	f001 0103 	and.w	r1, r1, #3
 8003b30:	2903      	cmp	r1, #3
 8003b32:	f43f ade1 	beq.w	80036f8 <HAL_RCCEx_PeriphCLKConfig+0x304>
 8003b36:	2101      	movs	r1, #1
 8003b38:	f104 0008 	add.w	r0, r4, #8
 8003b3c:	f7ff fb7a 	bl	8003234 <RCCEx_PLL2_Config.part.0>
 8003b40:	4605      	mov	r5, r0
 8003b42:	e9d4 3200 	ldrd	r3, r2, [r4]
 8003b46:	2d00      	cmp	r5, #0
 8003b48:	f040 80cb 	bne.w	8003ce2 <HAL_RCCEx_PeriphCLKConfig+0x8ee>
 8003b4c:	4f6a      	ldr	r7, [pc, #424]	@ (8003cf8 <HAL_RCCEx_PeriphCLKConfig+0x904>)
 8003b4e:	6fa0      	ldr	r0, [r4, #120]	@ 0x78
 8003b50:	6d79      	ldr	r1, [r7, #84]	@ 0x54
 8003b52:	f021 0138 	bic.w	r1, r1, #56	@ 0x38
 8003b56:	4301      	orrs	r1, r0
 8003b58:	6579      	str	r1, [r7, #84]	@ 0x54
 8003b5a:	e5cf      	b.n	80036fc <HAL_RCCEx_PeriphCLKConfig+0x308>
 8003b5c:	4866      	ldr	r0, [pc, #408]	@ (8003cf8 <HAL_RCCEx_PeriphCLKConfig+0x904>)
 8003b5e:	6ac1      	ldr	r1, [r0, #44]	@ 0x2c
 8003b60:	f441 3100 	orr.w	r1, r1, #131072	@ 0x20000
 8003b64:	62c1      	str	r1, [r0, #44]	@ 0x2c
 8003b66:	2d00      	cmp	r5, #0
 8003b68:	f040 80b7 	bne.w	8003cda <HAL_RCCEx_PeriphCLKConfig+0x8e6>
 8003b6c:	4f62      	ldr	r7, [pc, #392]	@ (8003cf8 <HAL_RCCEx_PeriphCLKConfig+0x904>)
 8003b6e:	f8d4 0084 	ldr.w	r0, [r4, #132]	@ 0x84
 8003b72:	6d79      	ldr	r1, [r7, #84]	@ 0x54
 8003b74:	f421 1140 	bic.w	r1, r1, #3145728	@ 0x300000
 8003b78:	4301      	orrs	r1, r0
 8003b7a:	6579      	str	r1, [r7, #84]	@ 0x54
 8003b7c:	e6d3      	b.n	8003926 <HAL_RCCEx_PeriphCLKConfig+0x532>
 8003b7e:	4f5f      	ldr	r7, [pc, #380]	@ (8003cfc <HAL_RCCEx_PeriphCLKConfig+0x908>)
 8003b80:	683b      	ldr	r3, [r7, #0]
 8003b82:	f443 7380 	orr.w	r3, r3, #256	@ 0x100
 8003b86:	603b      	str	r3, [r7, #0]
 8003b88:	f7fd fa40 	bl	800100c <HAL_GetTick>
 8003b8c:	4680      	mov	r8, r0
 8003b8e:	e006      	b.n	8003b9e <HAL_RCCEx_PeriphCLKConfig+0x7aa>
 8003b90:	f7fd fa3c 	bl	800100c <HAL_GetTick>
 8003b94:	eba0 0008 	sub.w	r0, r0, r8
 8003b98:	2864      	cmp	r0, #100	@ 0x64
 8003b9a:	f200 82b8 	bhi.w	800410e <HAL_RCCEx_PeriphCLKConfig+0xd1a>
 8003b9e:	683b      	ldr	r3, [r7, #0]
 8003ba0:	05da      	lsls	r2, r3, #23
 8003ba2:	d5f5      	bpl.n	8003b90 <HAL_RCCEx_PeriphCLKConfig+0x79c>
 8003ba4:	2d00      	cmp	r5, #0
 8003ba6:	f040 82b3 	bne.w	8004110 <HAL_RCCEx_PeriphCLKConfig+0xd1c>
 8003baa:	4a53      	ldr	r2, [pc, #332]	@ (8003cf8 <HAL_RCCEx_PeriphCLKConfig+0x904>)
 8003bac:	f8d4 30b0 	ldr.w	r3, [r4, #176]	@ 0xb0
 8003bb0:	6f11      	ldr	r1, [r2, #112]	@ 0x70
 8003bb2:	4059      	eors	r1, r3
 8003bb4:	f411 7f40 	tst.w	r1, #768	@ 0x300
 8003bb8:	d00b      	beq.n	8003bd2 <HAL_RCCEx_PeriphCLKConfig+0x7de>
 8003bba:	6f11      	ldr	r1, [r2, #112]	@ 0x70
 8003bbc:	6f10      	ldr	r0, [r2, #112]	@ 0x70
 8003bbe:	f421 7140 	bic.w	r1, r1, #768	@ 0x300
 8003bc2:	f440 3080 	orr.w	r0, r0, #65536	@ 0x10000
 8003bc6:	6710      	str	r0, [r2, #112]	@ 0x70
 8003bc8:	6f10      	ldr	r0, [r2, #112]	@ 0x70
 8003bca:	f420 3080 	bic.w	r0, r0, #65536	@ 0x10000
 8003bce:	6710      	str	r0, [r2, #112]	@ 0x70
 8003bd0:	6711      	str	r1, [r2, #112]	@ 0x70
 8003bd2:	f5b3 7f80 	cmp.w	r3, #256	@ 0x100
 8003bd6:	f000 82c8 	beq.w	800416a <HAL_RCCEx_PeriphCLKConfig+0xd76>
 8003bda:	f403 7240 	and.w	r2, r3, #768	@ 0x300
 8003bde:	f5b2 7f40 	cmp.w	r2, #768	@ 0x300
 8003be2:	f000 82d6 	beq.w	8004192 <HAL_RCCEx_PeriphCLKConfig+0xd9e>
 8003be6:	4944      	ldr	r1, [pc, #272]	@ (8003cf8 <HAL_RCCEx_PeriphCLKConfig+0x904>)
 8003be8:	690a      	ldr	r2, [r1, #16]
 8003bea:	f422 527c 	bic.w	r2, r2, #16128	@ 0x3f00
 8003bee:	610a      	str	r2, [r1, #16]
 8003bf0:	4841      	ldr	r0, [pc, #260]	@ (8003cf8 <HAL_RCCEx_PeriphCLKConfig+0x904>)
 8003bf2:	f3c3 010b 	ubfx	r1, r3, #0, #12
 8003bf6:	6f07      	ldr	r7, [r0, #112]	@ 0x70
 8003bf8:	4339      	orrs	r1, r7
 8003bfa:	e9d4 3200 	ldrd	r3, r2, [r4]
 8003bfe:	6701      	str	r1, [r0, #112]	@ 0x70
 8003c00:	e54a      	b.n	8003698 <HAL_RCCEx_PeriphCLKConfig+0x2a4>
 8003c02:	483d      	ldr	r0, [pc, #244]	@ (8003cf8 <HAL_RCCEx_PeriphCLKConfig+0x904>)
 8003c04:	6ac1      	ldr	r1, [r0, #44]	@ 0x2c
 8003c06:	f441 3100 	orr.w	r1, r1, #131072	@ 0x20000
 8003c0a:	62c1      	str	r1, [r0, #44]	@ 0x2c
 8003c0c:	4635      	mov	r5, r6
 8003c0e:	2d00      	cmp	r5, #0
 8003c10:	f040 815d 	bne.w	8003ece <HAL_RCCEx_PeriphCLKConfig+0xada>
 8003c14:	4f38      	ldr	r7, [pc, #224]	@ (8003cf8 <HAL_RCCEx_PeriphCLKConfig+0x904>)
 8003c16:	6da0      	ldr	r0, [r4, #88]	@ 0x58
 8003c18:	6d39      	ldr	r1, [r7, #80]	@ 0x50
 8003c1a:	f021 0107 	bic.w	r1, r1, #7
 8003c1e:	4301      	orrs	r1, r0
 8003c20:	6539      	str	r1, [r7, #80]	@ 0x50
 8003c22:	e425      	b.n	8003470 <HAL_RCCEx_PeriphCLKConfig+0x7c>
 8003c24:	2601      	movs	r6, #1
 8003c26:	e740      	b.n	8003aaa <HAL_RCCEx_PeriphCLKConfig+0x6b6>
 8003c28:	2601      	movs	r6, #1
 8003c2a:	e708      	b.n	8003a3e <HAL_RCCEx_PeriphCLKConfig+0x64a>
 8003c2c:	2601      	movs	r6, #1
 8003c2e:	e718      	b.n	8003a62 <HAL_RCCEx_PeriphCLKConfig+0x66e>
 8003c30:	2601      	movs	r6, #1
 8003c32:	e728      	b.n	8003a86 <HAL_RCCEx_PeriphCLKConfig+0x692>
 8003c34:	2601      	movs	r6, #1
 8003c36:	e6ac      	b.n	8003992 <HAL_RCCEx_PeriphCLKConfig+0x59e>
 8003c38:	0691      	lsls	r1, r2, #26
 8003c3a:	f57f af55 	bpl.w	8003ae8 <HAL_RCCEx_PeriphCLKConfig+0x6f4>
 8003c3e:	2601      	movs	r6, #1
 8003c40:	e746      	b.n	8003ad0 <HAL_RCCEx_PeriphCLKConfig+0x6dc>
 8003c42:	492d      	ldr	r1, [pc, #180]	@ (8003cf8 <HAL_RCCEx_PeriphCLKConfig+0x904>)
 8003c44:	6a89      	ldr	r1, [r1, #40]	@ 0x28
 8003c46:	f001 0103 	and.w	r1, r1, #3
 8003c4a:	2903      	cmp	r1, #3
 8003c4c:	f000 8283 	beq.w	8004156 <HAL_RCCEx_PeriphCLKConfig+0xd62>
 8003c50:	2102      	movs	r1, #2
 8003c52:	f104 0028 	add.w	r0, r4, #40	@ 0x28
 8003c56:	f7ff fb5d 	bl	8003314 <RCCEx_PLL3_Config.part.0>
 8003c5a:	2800      	cmp	r0, #0
 8003c5c:	6823      	ldr	r3, [r4, #0]
 8003c5e:	f8d4 0080 	ldr.w	r0, [r4, #128]	@ 0x80
 8003c62:	bf18      	it	ne
 8003c64:	2601      	movne	r6, #1
 8003c66:	6862      	ldr	r2, [r4, #4]
 8003c68:	e610      	b.n	800388c <HAL_RCCEx_PeriphCLKConfig+0x498>
 8003c6a:	4923      	ldr	r1, [pc, #140]	@ (8003cf8 <HAL_RCCEx_PeriphCLKConfig+0x904>)
 8003c6c:	6a89      	ldr	r1, [r1, #40]	@ 0x28
 8003c6e:	f001 0103 	and.w	r1, r1, #3
 8003c72:	2903      	cmp	r1, #3
 8003c74:	f000 8272 	beq.w	800415c <HAL_RCCEx_PeriphCLKConfig+0xd68>
 8003c78:	2102      	movs	r1, #2
 8003c7a:	f104 0028 	add.w	r0, r4, #40	@ 0x28
 8003c7e:	f7ff fb49 	bl	8003314 <RCCEx_PLL3_Config.part.0>
 8003c82:	2800      	cmp	r0, #0
 8003c84:	6823      	ldr	r3, [r4, #0]
 8003c86:	f8d4 0094 	ldr.w	r0, [r4, #148]	@ 0x94
 8003c8a:	bf18      	it	ne
 8003c8c:	2601      	movne	r6, #1
 8003c8e:	6862      	ldr	r2, [r4, #4]
 8003c90:	e60a      	b.n	80038a8 <HAL_RCCEx_PeriphCLKConfig+0x4b4>
 8003c92:	4819      	ldr	r0, [pc, #100]	@ (8003cf8 <HAL_RCCEx_PeriphCLKConfig+0x904>)
 8003c94:	6ac1      	ldr	r1, [r0, #44]	@ 0x2c
 8003c96:	f441 3100 	orr.w	r1, r1, #131072	@ 0x20000
 8003c9a:	62c1      	str	r1, [r0, #44]	@ 0x2c
 8003c9c:	2d00      	cmp	r5, #0
 8003c9e:	f43f ae5e 	beq.w	800395e <HAL_RCCEx_PeriphCLKConfig+0x56a>
 8003ca2:	462e      	mov	r6, r5
 8003ca4:	e662      	b.n	800396c <HAL_RCCEx_PeriphCLKConfig+0x578>
 8003ca6:	4f14      	ldr	r7, [pc, #80]	@ (8003cf8 <HAL_RCCEx_PeriphCLKConfig+0x904>)
 8003ca8:	6af8      	ldr	r0, [r7, #44]	@ 0x2c
 8003caa:	f440 3000 	orr.w	r0, r0, #131072	@ 0x20000
 8003cae:	62f8      	str	r0, [r7, #44]	@ 0x2c
 8003cb0:	2d00      	cmp	r5, #0
 8003cb2:	d13d      	bne.n	8003d30 <HAL_RCCEx_PeriphCLKConfig+0x93c>
 8003cb4:	4d10      	ldr	r5, [pc, #64]	@ (8003cf8 <HAL_RCCEx_PeriphCLKConfig+0x904>)
 8003cb6:	6d68      	ldr	r0, [r5, #84]	@ 0x54
 8003cb8:	f420 7040 	bic.w	r0, r0, #768	@ 0x300
 8003cbc:	4301      	orrs	r1, r0
 8003cbe:	6569      	str	r1, [r5, #84]	@ 0x54
 8003cc0:	e677      	b.n	80039b2 <HAL_RCCEx_PeriphCLKConfig+0x5be>
 8003cc2:	4f0d      	ldr	r7, [pc, #52]	@ (8003cf8 <HAL_RCCEx_PeriphCLKConfig+0x904>)
 8003cc4:	6ca0      	ldr	r0, [r4, #72]	@ 0x48
 8003cc6:	6cf9      	ldr	r1, [r7, #76]	@ 0x4c
 8003cc8:	f021 0103 	bic.w	r1, r1, #3
 8003ccc:	4301      	orrs	r1, r0
 8003cce:	64f9      	str	r1, [r7, #76]	@ 0x4c
 8003cd0:	e4df      	b.n	8003692 <HAL_RCCEx_PeriphCLKConfig+0x29e>
 8003cd2:	462e      	mov	r6, r5
 8003cd4:	e4c6      	b.n	8003664 <HAL_RCCEx_PeriphCLKConfig+0x270>
 8003cd6:	462e      	mov	r6, r5
 8003cd8:	e43b      	b.n	8003552 <HAL_RCCEx_PeriphCLKConfig+0x15e>
 8003cda:	462e      	mov	r6, r5
 8003cdc:	e623      	b.n	8003926 <HAL_RCCEx_PeriphCLKConfig+0x532>
 8003cde:	462e      	mov	r6, r5
 8003ce0:	e60f      	b.n	8003902 <HAL_RCCEx_PeriphCLKConfig+0x50e>
 8003ce2:	462e      	mov	r6, r5
 8003ce4:	e50a      	b.n	80036fc <HAL_RCCEx_PeriphCLKConfig+0x308>
 8003ce6:	462e      	mov	r6, r5
 8003ce8:	e59f      	b.n	800382a <HAL_RCCEx_PeriphCLKConfig+0x436>
 8003cea:	462e      	mov	r6, r5
 8003cec:	e4aa      	b.n	8003644 <HAL_RCCEx_PeriphCLKConfig+0x250>
 8003cee:	462e      	mov	r6, r5
 8003cf0:	e47f      	b.n	80035f2 <HAL_RCCEx_PeriphCLKConfig+0x1fe>
 8003cf2:	462e      	mov	r6, r5
 8003cf4:	e5c2      	b.n	800387c <HAL_RCCEx_PeriphCLKConfig+0x488>
 8003cf6:	bf00      	nop
 8003cf8:	58024400 	.word	0x58024400
 8003cfc:	58024800 	.word	0x58024800
 8003d00:	462e      	mov	r6, r5
 8003d02:	e569      	b.n	80037d8 <HAL_RCCEx_PeriphCLKConfig+0x3e4>
 8003d04:	4fc3      	ldr	r7, [pc, #780]	@ (8004014 <HAL_RCCEx_PeriphCLKConfig+0xc20>)
 8003d06:	6f60      	ldr	r0, [r4, #116]	@ 0x74
 8003d08:	6d79      	ldr	r1, [r7, #84]	@ 0x54
 8003d0a:	f021 0107 	bic.w	r1, r1, #7
 8003d0e:	4301      	orrs	r1, r0
 8003d10:	6579      	str	r1, [r7, #84]	@ 0x54
 8003d12:	e514      	b.n	800373e <HAL_RCCEx_PeriphCLKConfig+0x34a>
 8003d14:	4fbf      	ldr	r7, [pc, #764]	@ (8004014 <HAL_RCCEx_PeriphCLKConfig+0xc20>)
 8003d16:	f8d4 0090 	ldr.w	r0, [r4, #144]	@ 0x90
 8003d1a:	6db9      	ldr	r1, [r7, #88]	@ 0x58
 8003d1c:	f021 0107 	bic.w	r1, r1, #7
 8003d20:	4301      	orrs	r1, r0
 8003d22:	65b9      	str	r1, [r7, #88]	@ 0x58
 8003d24:	e52f      	b.n	8003786 <HAL_RCCEx_PeriphCLKConfig+0x392>
 8003d26:	2900      	cmp	r1, #0
 8003d28:	f47f ae42 	bne.w	80039b0 <HAL_RCCEx_PeriphCLKConfig+0x5bc>
 8003d2c:	2d00      	cmp	r5, #0
 8003d2e:	d0c1      	beq.n	8003cb4 <HAL_RCCEx_PeriphCLKConfig+0x8c0>
 8003d30:	462e      	mov	r6, r5
 8003d32:	e63e      	b.n	80039b2 <HAL_RCCEx_PeriphCLKConfig+0x5be>
 8003d34:	49b7      	ldr	r1, [pc, #732]	@ (8004014 <HAL_RCCEx_PeriphCLKConfig+0xc20>)
 8003d36:	6a89      	ldr	r1, [r1, #40]	@ 0x28
 8003d38:	f001 0103 	and.w	r1, r1, #3
 8003d3c:	2903      	cmp	r1, #3
 8003d3e:	f000 8210 	beq.w	8004162 <HAL_RCCEx_PeriphCLKConfig+0xd6e>
 8003d42:	2102      	movs	r1, #2
 8003d44:	f104 0008 	add.w	r0, r4, #8
 8003d48:	f7ff fa74 	bl	8003234 <RCCEx_PLL2_Config.part.0>
 8003d4c:	4605      	mov	r5, r0
 8003d4e:	e9d4 3200 	ldrd	r3, r2, [r4]
 8003d52:	2d00      	cmp	r5, #0
 8003d54:	f47f ac9c 	bne.w	8003690 <HAL_RCCEx_PeriphCLKConfig+0x29c>
 8003d58:	e7b3      	b.n	8003cc2 <HAL_RCCEx_PeriphCLKConfig+0x8ce>
 8003d5a:	49ae      	ldr	r1, [pc, #696]	@ (8004014 <HAL_RCCEx_PeriphCLKConfig+0xc20>)
 8003d5c:	6a89      	ldr	r1, [r1, #40]	@ 0x28
 8003d5e:	f001 0103 	and.w	r1, r1, #3
 8003d62:	2903      	cmp	r1, #3
 8003d64:	f000 8162 	beq.w	800402c <HAL_RCCEx_PeriphCLKConfig+0xc38>
 8003d68:	2101      	movs	r1, #1
 8003d6a:	f104 0028 	add.w	r0, r4, #40	@ 0x28
 8003d6e:	f7ff fad1 	bl	8003314 <RCCEx_PLL3_Config.part.0>
 8003d72:	4605      	mov	r5, r0
 8003d74:	e9d4 3200 	ldrd	r3, r2, [r4]
 8003d78:	2d00      	cmp	r5, #0
 8003d7a:	d1b8      	bne.n	8003cee <HAL_RCCEx_PeriphCLKConfig+0x8fa>
 8003d7c:	e432      	b.n	80035e4 <HAL_RCCEx_PeriphCLKConfig+0x1f0>
 8003d7e:	49a5      	ldr	r1, [pc, #660]	@ (8004014 <HAL_RCCEx_PeriphCLKConfig+0xc20>)
 8003d80:	6a89      	ldr	r1, [r1, #40]	@ 0x28
 8003d82:	f001 0103 	and.w	r1, r1, #3
 8003d86:	2903      	cmp	r1, #3
 8003d88:	f000 8187 	beq.w	800409a <HAL_RCCEx_PeriphCLKConfig+0xca6>
 8003d8c:	2101      	movs	r1, #1
 8003d8e:	f104 0028 	add.w	r0, r4, #40	@ 0x28
 8003d92:	f7ff fabf 	bl	8003314 <RCCEx_PLL3_Config.part.0>
 8003d96:	4605      	mov	r5, r0
 8003d98:	e9d4 3200 	ldrd	r3, r2, [r4]
 8003d9c:	2d00      	cmp	r5, #0
 8003d9e:	d1a4      	bne.n	8003cea <HAL_RCCEx_PeriphCLKConfig+0x8f6>
 8003da0:	e448      	b.n	8003634 <HAL_RCCEx_PeriphCLKConfig+0x240>
 8003da2:	499c      	ldr	r1, [pc, #624]	@ (8004014 <HAL_RCCEx_PeriphCLKConfig+0xc20>)
 8003da4:	6a89      	ldr	r1, [r1, #40]	@ 0x28
 8003da6:	f001 0103 	and.w	r1, r1, #3
 8003daa:	2903      	cmp	r1, #3
 8003dac:	f000 814c 	beq.w	8004048 <HAL_RCCEx_PeriphCLKConfig+0xc54>
 8003db0:	2102      	movs	r1, #2
 8003db2:	f104 0028 	add.w	r0, r4, #40	@ 0x28
 8003db6:	f7ff faad 	bl	8003314 <RCCEx_PLL3_Config.part.0>
 8003dba:	4605      	mov	r5, r0
 8003dbc:	e9d4 3200 	ldrd	r3, r2, [r4]
 8003dc0:	2d00      	cmp	r5, #0
 8003dc2:	d196      	bne.n	8003cf2 <HAL_RCCEx_PeriphCLKConfig+0x8fe>
 8003dc4:	e552      	b.n	800386c <HAL_RCCEx_PeriphCLKConfig+0x478>
 8003dc6:	4993      	ldr	r1, [pc, #588]	@ (8004014 <HAL_RCCEx_PeriphCLKConfig+0xc20>)
 8003dc8:	6a89      	ldr	r1, [r1, #40]	@ 0x28
 8003dca:	f001 0103 	and.w	r1, r1, #3
 8003dce:	2903      	cmp	r1, #3
 8003dd0:	f000 8199 	beq.w	8004106 <HAL_RCCEx_PeriphCLKConfig+0xd12>
 8003dd4:	2102      	movs	r1, #2
 8003dd6:	f104 0008 	add.w	r0, r4, #8
 8003dda:	f7ff fa2b 	bl	8003234 <RCCEx_PLL2_Config.part.0>
 8003dde:	4605      	mov	r5, r0
 8003de0:	e9d4 3200 	ldrd	r3, r2, [r4]
 8003de4:	2d00      	cmp	r5, #0
 8003de6:	f47f af76 	bne.w	8003cd6 <HAL_RCCEx_PeriphCLKConfig+0x8e2>
 8003dea:	f7ff bbab 	b.w	8003544 <HAL_RCCEx_PeriphCLKConfig+0x150>
 8003dee:	4989      	ldr	r1, [pc, #548]	@ (8004014 <HAL_RCCEx_PeriphCLKConfig+0xc20>)
 8003df0:	6a89      	ldr	r1, [r1, #40]	@ 0x28
 8003df2:	f001 0103 	and.w	r1, r1, #3
 8003df6:	2903      	cmp	r1, #3
 8003df8:	f43f ae93 	beq.w	8003b22 <HAL_RCCEx_PeriphCLKConfig+0x72e>
 8003dfc:	2102      	movs	r1, #2
 8003dfe:	f104 0028 	add.w	r0, r4, #40	@ 0x28
 8003e02:	f7ff fa87 	bl	8003314 <RCCEx_PLL3_Config.part.0>
 8003e06:	4605      	mov	r5, r0
 8003e08:	e9d4 3200 	ldrd	r3, r2, [r4]
 8003e0c:	2d00      	cmp	r5, #0
 8003e0e:	f47f af66 	bne.w	8003cde <HAL_RCCEx_PeriphCLKConfig+0x8ea>
 8003e12:	e56e      	b.n	80038f2 <HAL_RCCEx_PeriphCLKConfig+0x4fe>
 8003e14:	497f      	ldr	r1, [pc, #508]	@ (8004014 <HAL_RCCEx_PeriphCLKConfig+0xc20>)
 8003e16:	6a89      	ldr	r1, [r1, #40]	@ 0x28
 8003e18:	f001 0103 	and.w	r1, r1, #3
 8003e1c:	2903      	cmp	r1, #3
 8003e1e:	f43f ad80 	beq.w	8003922 <HAL_RCCEx_PeriphCLKConfig+0x52e>
 8003e22:	2101      	movs	r1, #1
 8003e24:	f104 0028 	add.w	r0, r4, #40	@ 0x28
 8003e28:	f7ff fa74 	bl	8003314 <RCCEx_PLL3_Config.part.0>
 8003e2c:	4605      	mov	r5, r0
 8003e2e:	e9d4 3200 	ldrd	r3, r2, [r4]
 8003e32:	2d00      	cmp	r5, #0
 8003e34:	f47f af51 	bne.w	8003cda <HAL_RCCEx_PeriphCLKConfig+0x8e6>
 8003e38:	e698      	b.n	8003b6c <HAL_RCCEx_PeriphCLKConfig+0x778>
 8003e3a:	4976      	ldr	r1, [pc, #472]	@ (8004014 <HAL_RCCEx_PeriphCLKConfig+0xc20>)
 8003e3c:	6a89      	ldr	r1, [r1, #40]	@ 0x28
 8003e3e:	f001 0103 	and.w	r1, r1, #3
 8003e42:	2903      	cmp	r1, #3
 8003e44:	f000 810d 	beq.w	8004062 <HAL_RCCEx_PeriphCLKConfig+0xc6e>
 8003e48:	2102      	movs	r1, #2
 8003e4a:	f104 0028 	add.w	r0, r4, #40	@ 0x28
 8003e4e:	f7ff fa61 	bl	8003314 <RCCEx_PLL3_Config.part.0>
 8003e52:	4605      	mov	r5, r0
 8003e54:	e9d4 3200 	ldrd	r3, r2, [r4]
 8003e58:	2d00      	cmp	r5, #0
 8003e5a:	f47f af44 	bne.w	8003ce6 <HAL_RCCEx_PeriphCLKConfig+0x8f2>
 8003e5e:	e4dc      	b.n	800381a <HAL_RCCEx_PeriphCLKConfig+0x426>
 8003e60:	496c      	ldr	r1, [pc, #432]	@ (8004014 <HAL_RCCEx_PeriphCLKConfig+0xc20>)
 8003e62:	6a89      	ldr	r1, [r1, #40]	@ 0x28
 8003e64:	f001 0103 	and.w	r1, r1, #3
 8003e68:	2903      	cmp	r1, #3
 8003e6a:	f000 8108 	beq.w	800407e <HAL_RCCEx_PeriphCLKConfig+0xc8a>
 8003e6e:	2102      	movs	r1, #2
 8003e70:	f104 0028 	add.w	r0, r4, #40	@ 0x28
 8003e74:	f7ff fa4e 	bl	8003314 <RCCEx_PLL3_Config.part.0>
 8003e78:	4605      	mov	r5, r0
 8003e7a:	e9d4 3200 	ldrd	r3, r2, [r4]
 8003e7e:	2d00      	cmp	r5, #0
 8003e80:	f47f af3e 	bne.w	8003d00 <HAL_RCCEx_PeriphCLKConfig+0x90c>
 8003e84:	e4a0      	b.n	80037c8 <HAL_RCCEx_PeriphCLKConfig+0x3d4>
 8003e86:	4d63      	ldr	r5, [pc, #396]	@ (8004014 <HAL_RCCEx_PeriphCLKConfig+0xc20>)
 8003e88:	6ae8      	ldr	r0, [r5, #44]	@ 0x2c
 8003e8a:	f440 3000 	orr.w	r0, r0, #131072	@ 0x20000
 8003e8e:	62e8      	str	r0, [r5, #44]	@ 0x2c
 8003e90:	f7ff bad9 	b.w	8003446 <HAL_RCCEx_PeriphCLKConfig+0x52>
 8003e94:	485f      	ldr	r0, [pc, #380]	@ (8004014 <HAL_RCCEx_PeriphCLKConfig+0xc20>)
 8003e96:	6ac1      	ldr	r1, [r0, #44]	@ 0x2c
 8003e98:	f441 3100 	orr.w	r1, r1, #131072	@ 0x20000
 8003e9c:	62c1      	str	r1, [r0, #44]	@ 0x2c
 8003e9e:	2d00      	cmp	r5, #0
 8003ea0:	f43f ab79 	beq.w	8003596 <HAL_RCCEx_PeriphCLKConfig+0x1a2>
 8003ea4:	462e      	mov	r6, r5
 8003ea6:	f7ff bb7d 	b.w	80035a4 <HAL_RCCEx_PeriphCLKConfig+0x1b0>
 8003eaa:	495a      	ldr	r1, [pc, #360]	@ (8004014 <HAL_RCCEx_PeriphCLKConfig+0xc20>)
 8003eac:	6a89      	ldr	r1, [r1, #40]	@ 0x28
 8003eae:	f001 0103 	and.w	r1, r1, #3
 8003eb2:	2903      	cmp	r1, #3
 8003eb4:	f43f aada 	beq.w	800346c <HAL_RCCEx_PeriphCLKConfig+0x78>
 8003eb8:	2100      	movs	r1, #0
 8003eba:	f104 0008 	add.w	r0, r4, #8
 8003ebe:	f7ff f9b9 	bl	8003234 <RCCEx_PLL2_Config.part.0>
 8003ec2:	4605      	mov	r5, r0
 8003ec4:	e9d4 3200 	ldrd	r3, r2, [r4]
 8003ec8:	2d00      	cmp	r5, #0
 8003eca:	f43f aea3 	beq.w	8003c14 <HAL_RCCEx_PeriphCLKConfig+0x820>
 8003ece:	462e      	mov	r6, r5
 8003ed0:	f7ff bace 	b.w	8003470 <HAL_RCCEx_PeriphCLKConfig+0x7c>
 8003ed4:	494f      	ldr	r1, [pc, #316]	@ (8004014 <HAL_RCCEx_PeriphCLKConfig+0xc20>)
 8003ed6:	6a89      	ldr	r1, [r1, #40]	@ 0x28
 8003ed8:	f001 0103 	and.w	r1, r1, #3
 8003edc:	2903      	cmp	r1, #3
 8003ede:	f000 80f0 	beq.w	80040c2 <HAL_RCCEx_PeriphCLKConfig+0xcce>
 8003ee2:	2102      	movs	r1, #2
 8003ee4:	f104 0028 	add.w	r0, r4, #40	@ 0x28
 8003ee8:	f7ff fa14 	bl	8003314 <RCCEx_PLL3_Config.part.0>
 8003eec:	f7ff baa5 	b.w	800343a <HAL_RCCEx_PeriphCLKConfig+0x46>
 8003ef0:	4948      	ldr	r1, [pc, #288]	@ (8004014 <HAL_RCCEx_PeriphCLKConfig+0xc20>)
 8003ef2:	6a89      	ldr	r1, [r1, #40]	@ 0x28
 8003ef4:	f001 0103 	and.w	r1, r1, #3
 8003ef8:	2903      	cmp	r1, #3
 8003efa:	f000 80ef 	beq.w	80040dc <HAL_RCCEx_PeriphCLKConfig+0xce8>
 8003efe:	2100      	movs	r1, #0
 8003f00:	f104 0028 	add.w	r0, r4, #40	@ 0x28
 8003f04:	f7ff fa06 	bl	8003314 <RCCEx_PLL3_Config.part.0>
 8003f08:	4605      	mov	r5, r0
 8003f0a:	e9d4 3200 	ldrd	r3, r2, [r4]
 8003f0e:	2d00      	cmp	r5, #0
 8003f10:	f43f aafc 	beq.w	800350c <HAL_RCCEx_PeriphCLKConfig+0x118>
 8003f14:	462e      	mov	r6, r5
 8003f16:	f7ff bb01 	b.w	800351c <HAL_RCCEx_PeriphCLKConfig+0x128>
 8003f1a:	493e      	ldr	r1, [pc, #248]	@ (8004014 <HAL_RCCEx_PeriphCLKConfig+0xc20>)
 8003f1c:	6a89      	ldr	r1, [r1, #40]	@ 0x28
 8003f1e:	f001 0103 	and.w	r1, r1, #3
 8003f22:	2903      	cmp	r1, #3
 8003f24:	f000 80e8 	beq.w	80040f8 <HAL_RCCEx_PeriphCLKConfig+0xd04>
 8003f28:	2100      	movs	r1, #0
 8003f2a:	f104 0028 	add.w	r0, r4, #40	@ 0x28
 8003f2e:	f7ff f9f1 	bl	8003314 <RCCEx_PLL3_Config.part.0>
 8003f32:	4605      	mov	r5, r0
 8003f34:	e9d4 3200 	ldrd	r3, r2, [r4]
 8003f38:	2d00      	cmp	r5, #0
 8003f3a:	f43f aabc 	beq.w	80034b6 <HAL_RCCEx_PeriphCLKConfig+0xc2>
 8003f3e:	462e      	mov	r6, r5
 8003f40:	f7ff bac1 	b.w	80034c6 <HAL_RCCEx_PeriphCLKConfig+0xd2>
 8003f44:	4933      	ldr	r1, [pc, #204]	@ (8004014 <HAL_RCCEx_PeriphCLKConfig+0xc20>)
 8003f46:	6a89      	ldr	r1, [r1, #40]	@ 0x28
 8003f48:	f001 0103 	and.w	r1, r1, #3
 8003f4c:	2903      	cmp	r1, #3
 8003f4e:	f43f aa8d 	beq.w	800346c <HAL_RCCEx_PeriphCLKConfig+0x78>
 8003f52:	2100      	movs	r1, #0
 8003f54:	f104 0028 	add.w	r0, r4, #40	@ 0x28
 8003f58:	f7ff f9dc 	bl	8003314 <RCCEx_PLL3_Config.part.0>
 8003f5c:	4605      	mov	r5, r0
 8003f5e:	e9d4 3200 	ldrd	r3, r2, [r4]
 8003f62:	e654      	b.n	8003c0e <HAL_RCCEx_PeriphCLKConfig+0x81a>
 8003f64:	492b      	ldr	r1, [pc, #172]	@ (8004014 <HAL_RCCEx_PeriphCLKConfig+0xc20>)
 8003f66:	6a89      	ldr	r1, [r1, #40]	@ 0x28
 8003f68:	f001 0103 	and.w	r1, r1, #3
 8003f6c:	2903      	cmp	r1, #3
 8003f6e:	f000 80a0 	beq.w	80040b2 <HAL_RCCEx_PeriphCLKConfig+0xcbe>
 8003f72:	2100      	movs	r1, #0
 8003f74:	f104 0028 	add.w	r0, r4, #40	@ 0x28
 8003f78:	f7ff f9cc 	bl	8003314 <RCCEx_PLL3_Config.part.0>
 8003f7c:	4605      	mov	r5, r0
 8003f7e:	e9d4 3200 	ldrd	r3, r2, [r4]
 8003f82:	f7ff bb05 	b.w	8003590 <HAL_RCCEx_PeriphCLKConfig+0x19c>
 8003f86:	4823      	ldr	r0, [pc, #140]	@ (8004014 <HAL_RCCEx_PeriphCLKConfig+0xc20>)
 8003f88:	6ac1      	ldr	r1, [r0, #44]	@ 0x2c
 8003f8a:	f441 3100 	orr.w	r1, r1, #131072	@ 0x20000
 8003f8e:	62c1      	str	r1, [r0, #44]	@ 0x2c
 8003f90:	f7ff bab9 	b.w	8003506 <HAL_RCCEx_PeriphCLKConfig+0x112>
 8003f94:	481f      	ldr	r0, [pc, #124]	@ (8004014 <HAL_RCCEx_PeriphCLKConfig+0xc20>)
 8003f96:	6ac1      	ldr	r1, [r0, #44]	@ 0x2c
 8003f98:	f441 3100 	orr.w	r1, r1, #131072	@ 0x20000
 8003f9c:	62c1      	str	r1, [r0, #44]	@ 0x2c
 8003f9e:	f7ff ba87 	b.w	80034b0 <HAL_RCCEx_PeriphCLKConfig+0xbc>
 8003fa2:	491c      	ldr	r1, [pc, #112]	@ (8004014 <HAL_RCCEx_PeriphCLKConfig+0xc20>)
 8003fa4:	6a89      	ldr	r1, [r1, #40]	@ 0x28
 8003fa6:	f001 0103 	and.w	r1, r1, #3
 8003faa:	2903      	cmp	r1, #3
 8003fac:	f000 80c8 	beq.w	8004140 <HAL_RCCEx_PeriphCLKConfig+0xd4c>
 8003fb0:	2101      	movs	r1, #1
 8003fb2:	f104 0028 	add.w	r0, r4, #40	@ 0x28
 8003fb6:	f7ff f9ad 	bl	8003314 <RCCEx_PLL3_Config.part.0>
 8003fba:	4605      	mov	r5, r0
 8003fbc:	e9d4 3200 	ldrd	r3, r2, [r4]
 8003fc0:	2d00      	cmp	r5, #0
 8003fc2:	f47f abbb 	bne.w	800373c <HAL_RCCEx_PeriphCLKConfig+0x348>
 8003fc6:	e69d      	b.n	8003d04 <HAL_RCCEx_PeriphCLKConfig+0x910>
 8003fc8:	4912      	ldr	r1, [pc, #72]	@ (8004014 <HAL_RCCEx_PeriphCLKConfig+0xc20>)
 8003fca:	6a89      	ldr	r1, [r1, #40]	@ 0x28
 8003fcc:	f001 0103 	and.w	r1, r1, #3
 8003fd0:	2903      	cmp	r1, #3
 8003fd2:	f000 80b9 	beq.w	8004148 <HAL_RCCEx_PeriphCLKConfig+0xd54>
 8003fd6:	2101      	movs	r1, #1
 8003fd8:	f104 0028 	add.w	r0, r4, #40	@ 0x28
 8003fdc:	f7ff f99a 	bl	8003314 <RCCEx_PLL3_Config.part.0>
 8003fe0:	4605      	mov	r5, r0
 8003fe2:	e9d4 3200 	ldrd	r3, r2, [r4]
 8003fe6:	2d00      	cmp	r5, #0
 8003fe8:	f47f abcc 	bne.w	8003784 <HAL_RCCEx_PeriphCLKConfig+0x390>
 8003fec:	e692      	b.n	8003d14 <HAL_RCCEx_PeriphCLKConfig+0x920>
 8003fee:	4909      	ldr	r1, [pc, #36]	@ (8004014 <HAL_RCCEx_PeriphCLKConfig+0xc20>)
 8003ff0:	6a89      	ldr	r1, [r1, #40]	@ 0x28
 8003ff2:	f001 0103 	and.w	r1, r1, #3
 8003ff6:	2903      	cmp	r1, #3
 8003ff8:	f43f ab7e 	beq.w	80036f8 <HAL_RCCEx_PeriphCLKConfig+0x304>
 8003ffc:	2101      	movs	r1, #1
 8003ffe:	f104 0028 	add.w	r0, r4, #40	@ 0x28
 8004002:	f7ff f987 	bl	8003314 <RCCEx_PLL3_Config.part.0>
 8004006:	4605      	mov	r5, r0
 8004008:	e9d4 3200 	ldrd	r3, r2, [r4]
 800400c:	2d00      	cmp	r5, #0
 800400e:	f47f ae68 	bne.w	8003ce2 <HAL_RCCEx_PeriphCLKConfig+0x8ee>
 8004012:	e59b      	b.n	8003b4c <HAL_RCCEx_PeriphCLKConfig+0x758>
 8004014:	58024400 	.word	0x58024400
 8004018:	f421 3080 	bic.w	r0, r1, #65536	@ 0x10000
 800401c:	f5b0 2f80 	cmp.w	r0, #262144	@ 0x40000
 8004020:	f43f aadd 	beq.w	80035de <HAL_RCCEx_PeriphCLKConfig+0x1ea>
 8004024:	f5b1 3f40 	cmp.w	r1, #196608	@ 0x30000
 8004028:	f43f aad9 	beq.w	80035de <HAL_RCCEx_PeriphCLKConfig+0x1ea>
 800402c:	2601      	movs	r6, #1
 800402e:	4635      	mov	r5, r6
 8004030:	f7ff badf 	b.w	80035f2 <HAL_RCCEx_PeriphCLKConfig+0x1fe>
 8004034:	f421 5000 	bic.w	r0, r1, #8192	@ 0x2000
 8004038:	f5b0 4f00 	cmp.w	r0, #32768	@ 0x8000
 800403c:	f43f ac13 	beq.w	8003866 <HAL_RCCEx_PeriphCLKConfig+0x472>
 8004040:	f5b1 4fc0 	cmp.w	r1, #24576	@ 0x6000
 8004044:	f43f ac0f 	beq.w	8003866 <HAL_RCCEx_PeriphCLKConfig+0x472>
 8004048:	2601      	movs	r6, #1
 800404a:	4635      	mov	r5, r6
 800404c:	e416      	b.n	800387c <HAL_RCCEx_PeriphCLKConfig+0x488>
 800404e:	f421 6080 	bic.w	r0, r1, #1024	@ 0x400
 8004052:	f5b0 5f80 	cmp.w	r0, #4096	@ 0x1000
 8004056:	f43f abdd 	beq.w	8003814 <HAL_RCCEx_PeriphCLKConfig+0x420>
 800405a:	f5b1 6f40 	cmp.w	r1, #3072	@ 0xc00
 800405e:	f43f abd9 	beq.w	8003814 <HAL_RCCEx_PeriphCLKConfig+0x420>
 8004062:	2601      	movs	r6, #1
 8004064:	4635      	mov	r5, r6
 8004066:	f7ff bbe0 	b.w	800382a <HAL_RCCEx_PeriphCLKConfig+0x436>
 800406a:	f021 5080 	bic.w	r0, r1, #268435456	@ 0x10000000
 800406e:	f1b0 4f80 	cmp.w	r0, #1073741824	@ 0x40000000
 8004072:	f43f aba6 	beq.w	80037c2 <HAL_RCCEx_PeriphCLKConfig+0x3ce>
 8004076:	f1b1 5f40 	cmp.w	r1, #805306368	@ 0x30000000
 800407a:	f43f aba2 	beq.w	80037c2 <HAL_RCCEx_PeriphCLKConfig+0x3ce>
 800407e:	2601      	movs	r6, #1
 8004080:	4635      	mov	r5, r6
 8004082:	f7ff bba9 	b.w	80037d8 <HAL_RCCEx_PeriphCLKConfig+0x3e4>
 8004086:	f021 5080 	bic.w	r0, r1, #268435456	@ 0x10000000
 800408a:	f1b0 4f80 	cmp.w	r0, #1073741824	@ 0x40000000
 800408e:	f43f aace 	beq.w	800362e <HAL_RCCEx_PeriphCLKConfig+0x23a>
 8004092:	f1b1 5f40 	cmp.w	r1, #805306368	@ 0x30000000
 8004096:	f43f aaca 	beq.w	800362e <HAL_RCCEx_PeriphCLKConfig+0x23a>
 800409a:	2601      	movs	r6, #1
 800409c:	4635      	mov	r5, r6
 800409e:	f7ff bad1 	b.w	8003644 <HAL_RCCEx_PeriphCLKConfig+0x250>
 80040a2:	f5b1 5f40 	cmp.w	r1, #12288	@ 0x3000
 80040a6:	f43f aa73 	beq.w	8003590 <HAL_RCCEx_PeriphCLKConfig+0x19c>
 80040aa:	f5b1 4f80 	cmp.w	r1, #16384	@ 0x4000
 80040ae:	f43f aa6f 	beq.w	8003590 <HAL_RCCEx_PeriphCLKConfig+0x19c>
 80040b2:	2601      	movs	r6, #1
 80040b4:	4635      	mov	r5, r6
 80040b6:	f7ff ba75 	b.w	80035a4 <HAL_RCCEx_PeriphCLKConfig+0x1b0>
 80040ba:	f5b1 1f40 	cmp.w	r1, #3145728	@ 0x300000
 80040be:	f43f a9c2 	beq.w	8003446 <HAL_RCCEx_PeriphCLKConfig+0x52>
 80040c2:	2601      	movs	r6, #1
 80040c4:	f7ff b9c6 	b.w	8003454 <HAL_RCCEx_PeriphCLKConfig+0x60>
 80040c8:	f021 7080 	bic.w	r0, r1, #16777216	@ 0x1000000
 80040cc:	f1b0 6f80 	cmp.w	r0, #67108864	@ 0x4000000
 80040d0:	f43f aa19 	beq.w	8003506 <HAL_RCCEx_PeriphCLKConfig+0x112>
 80040d4:	f1b1 7f40 	cmp.w	r1, #50331648	@ 0x3000000
 80040d8:	f43f aa15 	beq.w	8003506 <HAL_RCCEx_PeriphCLKConfig+0x112>
 80040dc:	2601      	movs	r6, #1
 80040de:	4635      	mov	r5, r6
 80040e0:	f7ff ba1c 	b.w	800351c <HAL_RCCEx_PeriphCLKConfig+0x128>
 80040e4:	f421 1000 	bic.w	r0, r1, #2097152	@ 0x200000
 80040e8:	f5b0 0f00 	cmp.w	r0, #8388608	@ 0x800000
 80040ec:	f43f a9e0 	beq.w	80034b0 <HAL_RCCEx_PeriphCLKConfig+0xbc>
 80040f0:	f5b1 0fc0 	cmp.w	r1, #6291456	@ 0x600000
 80040f4:	f43f a9dc 	beq.w	80034b0 <HAL_RCCEx_PeriphCLKConfig+0xbc>
 80040f8:	2601      	movs	r6, #1
 80040fa:	4635      	mov	r5, r6
 80040fc:	f7ff b9e3 	b.w	80034c6 <HAL_RCCEx_PeriphCLKConfig+0xd2>
 8004100:	2930      	cmp	r1, #48	@ 0x30
 8004102:	f43f aa1c 	beq.w	800353e <HAL_RCCEx_PeriphCLKConfig+0x14a>
 8004106:	2601      	movs	r6, #1
 8004108:	4635      	mov	r5, r6
 800410a:	f7ff ba22 	b.w	8003552 <HAL_RCCEx_PeriphCLKConfig+0x15e>
 800410e:	2503      	movs	r5, #3
 8004110:	462e      	mov	r6, r5
 8004112:	e9d4 3200 	ldrd	r3, r2, [r4]
 8004116:	f7ff babf 	b.w	8003698 <HAL_RCCEx_PeriphCLKConfig+0x2a4>
 800411a:	4926      	ldr	r1, [pc, #152]	@ (80041b4 <HAL_RCCEx_PeriphCLKConfig+0xdc0>)
 800411c:	6a89      	ldr	r1, [r1, #40]	@ 0x28
 800411e:	f001 0103 	and.w	r1, r1, #3
 8004122:	2903      	cmp	r1, #3
 8004124:	f43f aa9c 	beq.w	8003660 <HAL_RCCEx_PeriphCLKConfig+0x26c>
 8004128:	2101      	movs	r1, #1
 800412a:	f104 0008 	add.w	r0, r4, #8
 800412e:	f7ff f881 	bl	8003234 <RCCEx_PLL2_Config.part.0>
 8004132:	4605      	mov	r5, r0
 8004134:	e9d4 3200 	ldrd	r3, r2, [r4]
 8004138:	2d00      	cmp	r5, #0
 800413a:	f47f adca 	bne.w	8003cd2 <HAL_RCCEx_PeriphCLKConfig+0x8de>
 800413e:	e4e8      	b.n	8003b12 <HAL_RCCEx_PeriphCLKConfig+0x71e>
 8004140:	2601      	movs	r6, #1
 8004142:	4635      	mov	r5, r6
 8004144:	f7ff bafb 	b.w	800373e <HAL_RCCEx_PeriphCLKConfig+0x34a>
 8004148:	2601      	movs	r6, #1
 800414a:	4635      	mov	r5, r6
 800414c:	f7ff bb1b 	b.w	8003786 <HAL_RCCEx_PeriphCLKConfig+0x392>
 8004150:	2603      	movs	r6, #3
 8004152:	f7ff b97f 	b.w	8003454 <HAL_RCCEx_PeriphCLKConfig+0x60>
 8004156:	2601      	movs	r6, #1
 8004158:	f7ff bb98 	b.w	800388c <HAL_RCCEx_PeriphCLKConfig+0x498>
 800415c:	2601      	movs	r6, #1
 800415e:	f7ff bba3 	b.w	80038a8 <HAL_RCCEx_PeriphCLKConfig+0x4b4>
 8004162:	2601      	movs	r6, #1
 8004164:	4635      	mov	r5, r6
 8004166:	f7ff ba94 	b.w	8003692 <HAL_RCCEx_PeriphCLKConfig+0x29e>
 800416a:	f7fc ff4f 	bl	800100c <HAL_GetTick>
 800416e:	f8df 8044 	ldr.w	r8, [pc, #68]	@ 80041b4 <HAL_RCCEx_PeriphCLKConfig+0xdc0>
 8004172:	4607      	mov	r7, r0
 8004174:	f241 3988 	movw	r9, #5000	@ 0x1388
 8004178:	e004      	b.n	8004184 <HAL_RCCEx_PeriphCLKConfig+0xd90>
 800417a:	f7fc ff47 	bl	800100c <HAL_GetTick>
 800417e:	1bc0      	subs	r0, r0, r7
 8004180:	4548      	cmp	r0, r9
 8004182:	d810      	bhi.n	80041a6 <HAL_RCCEx_PeriphCLKConfig+0xdb2>
 8004184:	f8d8 3070 	ldr.w	r3, [r8, #112]	@ 0x70
 8004188:	079b      	lsls	r3, r3, #30
 800418a:	d5f6      	bpl.n	800417a <HAL_RCCEx_PeriphCLKConfig+0xd86>
 800418c:	f8d4 30b0 	ldr.w	r3, [r4, #176]	@ 0xb0
 8004190:	e523      	b.n	8003bda <HAL_RCCEx_PeriphCLKConfig+0x7e6>
 8004192:	4808      	ldr	r0, [pc, #32]	@ (80041b4 <HAL_RCCEx_PeriphCLKConfig+0xdc0>)
 8004194:	4a08      	ldr	r2, [pc, #32]	@ (80041b8 <HAL_RCCEx_PeriphCLKConfig+0xdc4>)
 8004196:	6901      	ldr	r1, [r0, #16]
 8004198:	ea02 1213 	and.w	r2, r2, r3, lsr #4
 800419c:	f421 517c 	bic.w	r1, r1, #16128	@ 0x3f00
 80041a0:	430a      	orrs	r2, r1
 80041a2:	6102      	str	r2, [r0, #16]
 80041a4:	e524      	b.n	8003bf0 <HAL_RCCEx_PeriphCLKConfig+0x7fc>
 80041a6:	2603      	movs	r6, #3
 80041a8:	e9d4 3200 	ldrd	r3, r2, [r4]
 80041ac:	4635      	mov	r5, r6
 80041ae:	f7ff ba73 	b.w	8003698 <HAL_RCCEx_PeriphCLKConfig+0x2a4>
 80041b2:	bf00      	nop
 80041b4:	58024400 	.word	0x58024400
 80041b8:	00ffffcf 	.word	0x00ffffcf

080041bc <HAL_RCCEx_GetPLL2ClockFreq>:
 80041bc:	4a47      	ldr	r2, [pc, #284]	@ (80042dc <HAL_RCCEx_GetPLL2ClockFreq+0x120>)
 80041be:	b470      	push	{r4, r5, r6}
 80041c0:	6a94      	ldr	r4, [r2, #40]	@ 0x28
 80041c2:	6a95      	ldr	r5, [r2, #40]	@ 0x28
 80041c4:	6ad6      	ldr	r6, [r2, #44]	@ 0x2c
 80041c6:	f415 3f7c 	tst.w	r5, #258048	@ 0x3f000
 80041ca:	f3c5 3305 	ubfx	r3, r5, #12, #6
 80041ce:	6bd1      	ldr	r1, [r2, #60]	@ 0x3c
 80041d0:	d05b      	beq.n	800428a <HAL_RCCEx_GetPLL2ClockFreq+0xce>
 80041d2:	f3c1 01cc 	ubfx	r1, r1, #3, #13
 80041d6:	f3c6 1600 	ubfx	r6, r6, #4, #1
 80041da:	f004 0403 	and.w	r4, r4, #3
 80041de:	ee07 3a90 	vmov	s15, r3
 80041e2:	fb06 f101 	mul.w	r1, r6, r1
 80041e6:	2c01      	cmp	r4, #1
 80041e8:	eeb8 7ae7 	vcvt.f32.s32	s14, s15
 80041ec:	ee06 1a90 	vmov	s13, r1
 80041f0:	eefa 6ae9 	vcvt.f32.s32	s13, s13, #13
 80041f4:	d003      	beq.n	80041fe <HAL_RCCEx_GetPLL2ClockFreq+0x42>
 80041f6:	2c02      	cmp	r4, #2
 80041f8:	d06a      	beq.n	80042d0 <HAL_RCCEx_GetPLL2ClockFreq+0x114>
 80041fa:	2c00      	cmp	r4, #0
 80041fc:	d04a      	beq.n	8004294 <HAL_RCCEx_GetPLL2ClockFreq+0xd8>
 80041fe:	eddf 7a38 	vldr	s15, [pc, #224]	@ 80042e0 <HAL_RCCEx_GetPLL2ClockFreq+0x124>
 8004202:	ee87 6a87 	vdiv.f32	s12, s15, s14
 8004206:	6b93      	ldr	r3, [r2, #56]	@ 0x38
 8004208:	f3c3 0308 	ubfx	r3, r3, #0, #9
 800420c:	ee07 3a90 	vmov	s15, r3
 8004210:	eef7 5a00 	vmov.f32	s11, #112	@ 0x3f800000  1.0
 8004214:	eef8 7ae7 	vcvt.f32.s32	s15, s15
 8004218:	ee77 7aa6 	vadd.f32	s15, s15, s13
 800421c:	ee77 7aa5 	vadd.f32	s15, s15, s11
 8004220:	ee67 7a86 	vmul.f32	s15, s15, s12
 8004224:	4a2d      	ldr	r2, [pc, #180]	@ (80042dc <HAL_RCCEx_GetPLL2ClockFreq+0x120>)
 8004226:	eeb7 6a00 	vmov.f32	s12, #112	@ 0x3f800000  1.0
 800422a:	6b93      	ldr	r3, [r2, #56]	@ 0x38
 800422c:	f3c3 2346 	ubfx	r3, r3, #9, #7
 8004230:	ee07 3a10 	vmov	s14, r3
 8004234:	eeb8 7ac7 	vcvt.f32.s32	s14, s14
 8004238:	bc70      	pop	{r4, r5, r6}
 800423a:	ee37 7a06 	vadd.f32	s14, s14, s12
 800423e:	eec7 6a87 	vdiv.f32	s13, s15, s14
 8004242:	eefc 6ae6 	vcvt.u32.f32	s13, s13
 8004246:	edc0 6a00 	vstr	s13, [r0]
 800424a:	6b93      	ldr	r3, [r2, #56]	@ 0x38
 800424c:	f3c3 4306 	ubfx	r3, r3, #16, #7
 8004250:	ee07 3a10 	vmov	s14, r3
 8004254:	eeb8 7ac7 	vcvt.f32.s32	s14, s14
 8004258:	ee37 7a06 	vadd.f32	s14, s14, s12
 800425c:	eec7 6a87 	vdiv.f32	s13, s15, s14
 8004260:	eefc 6ae6 	vcvt.u32.f32	s13, s13
 8004264:	edc0 6a01 	vstr	s13, [r0, #4]
 8004268:	6b93      	ldr	r3, [r2, #56]	@ 0x38
 800426a:	f3c3 6306 	ubfx	r3, r3, #24, #7
 800426e:	ee06 3a90 	vmov	s13, r3
 8004272:	eef8 6ae6 	vcvt.f32.s32	s13, s13
 8004276:	ee76 6a86 	vadd.f32	s13, s13, s12
 800427a:	ee87 7aa6 	vdiv.f32	s14, s15, s13
 800427e:	eefc 7ac7 	vcvt.u32.f32	s15, s14
 8004282:	ee17 3a90 	vmov	r3, s15
 8004286:	6083      	str	r3, [r0, #8]
 8004288:	4770      	bx	lr
 800428a:	bc70      	pop	{r4, r5, r6}
 800428c:	e9c0 3300 	strd	r3, r3, [r0]
 8004290:	6083      	str	r3, [r0, #8]
 8004292:	4770      	bx	lr
 8004294:	6813      	ldr	r3, [r2, #0]
 8004296:	069b      	lsls	r3, r3, #26
 8004298:	d51d      	bpl.n	80042d6 <HAL_RCCEx_GetPLL2ClockFreq+0x11a>
 800429a:	6814      	ldr	r4, [r2, #0]
 800429c:	eef7 5a00 	vmov.f32	s11, #112	@ 0x3f800000  1.0
 80042a0:	6b93      	ldr	r3, [r2, #56]	@ 0x38
 80042a2:	4910      	ldr	r1, [pc, #64]	@ (80042e4 <HAL_RCCEx_GetPLL2ClockFreq+0x128>)
 80042a4:	f3c4 02c1 	ubfx	r2, r4, #3, #2
 80042a8:	f3c3 0308 	ubfx	r3, r3, #0, #9
 80042ac:	40d1      	lsrs	r1, r2
 80042ae:	ee07 3a90 	vmov	s15, r3
 80042b2:	ee06 1a10 	vmov	s12, r1
 80042b6:	eef8 7ae7 	vcvt.f32.s32	s15, s15
 80042ba:	eeb8 6ac6 	vcvt.f32.s32	s12, s12
 80042be:	ee77 6aa6 	vadd.f32	s13, s15, s13
 80042c2:	eec6 7a07 	vdiv.f32	s15, s12, s14
 80042c6:	ee36 7aa5 	vadd.f32	s14, s13, s11
 80042ca:	ee67 7a87 	vmul.f32	s15, s15, s14
 80042ce:	e7a9      	b.n	8004224 <HAL_RCCEx_GetPLL2ClockFreq+0x68>
 80042d0:	eddf 7a05 	vldr	s15, [pc, #20]	@ 80042e8 <HAL_RCCEx_GetPLL2ClockFreq+0x12c>
 80042d4:	e795      	b.n	8004202 <HAL_RCCEx_GetPLL2ClockFreq+0x46>
 80042d6:	eddf 7a05 	vldr	s15, [pc, #20]	@ 80042ec <HAL_RCCEx_GetPLL2ClockFreq+0x130>
 80042da:	e792      	b.n	8004202 <HAL_RCCEx_GetPLL2ClockFreq+0x46>
 80042dc:	58024400 	.word	0x58024400
 80042e0:	4a742400 	.word	0x4a742400
 80042e4:	03d09000 	.word	0x03d09000
 80042e8:	4af42400 	.word	0x4af42400
 80042ec:	4c742400 	.word	0x4c742400

080042f0 <HAL_RCCEx_GetPLL3ClockFreq>:
 80042f0:	4a47      	ldr	r2, [pc, #284]	@ (8004410 <HAL_RCCEx_GetPLL3ClockFreq+0x120>)
 80042f2:	b470      	push	{r4, r5, r6}
 80042f4:	6a94      	ldr	r4, [r2, #40]	@ 0x28
 80042f6:	6a95      	ldr	r5, [r2, #40]	@ 0x28
 80042f8:	6ad6      	ldr	r6, [r2, #44]	@ 0x2c
 80042fa:	f015 7f7c 	tst.w	r5, #66060288	@ 0x3f00000
 80042fe:	f3c5 5305 	ubfx	r3, r5, #20, #6
 8004302:	6c51      	ldr	r1, [r2, #68]	@ 0x44
 8004304:	d05b      	beq.n	80043be <HAL_RCCEx_GetPLL3ClockFreq+0xce>
 8004306:	f3c1 01cc 	ubfx	r1, r1, #3, #13
 800430a:	f3c6 2600 	ubfx	r6, r6, #8, #1
 800430e:	f004 0403 	and.w	r4, r4, #3
 8004312:	ee07 3a90 	vmov	s15, r3
 8004316:	fb06 f101 	mul.w	r1, r6, r1
 800431a:	2c01      	cmp	r4, #1
 800431c:	eeb8 7ae7 	vcvt.f32.s32	s14, s15
 8004320:	ee06 1a90 	vmov	s13, r1
 8004324:	eefa 6ae9 	vcvt.f32.s32	s13, s13, #13
 8004328:	d003      	beq.n	8004332 <HAL_RCCEx_GetPLL3ClockFreq+0x42>
 800432a:	2c02      	cmp	r4, #2
 800432c:	d06a      	beq.n	8004404 <HAL_RCCEx_GetPLL3ClockFreq+0x114>
 800432e:	2c00      	cmp	r4, #0
 8004330:	d04a      	beq.n	80043c8 <HAL_RCCEx_GetPLL3ClockFreq+0xd8>
 8004332:	eddf 7a38 	vldr	s15, [pc, #224]	@ 8004414 <HAL_RCCEx_GetPLL3ClockFreq+0x124>
 8004336:	ee87 6a87 	vdiv.f32	s12, s15, s14
 800433a:	6c13      	ldr	r3, [r2, #64]	@ 0x40
 800433c:	f3c3 0308 	ubfx	r3, r3, #0, #9
 8004340:	ee07 3a90 	vmov	s15, r3
 8004344:	eef7 5a00 	vmov.f32	s11, #112	@ 0x3f800000  1.0
 8004348:	eef8 7ae7 	vcvt.f32.s32	s15, s15
 800434c:	ee77 7aa6 	vadd.f32	s15, s15, s13
 8004350:	ee77 7aa5 	vadd.f32	s15, s15, s11
 8004354:	ee67 7a86 	vmul.f32	s15, s15, s12
 8004358:	4a2d      	ldr	r2, [pc, #180]	@ (8004410 <HAL_RCCEx_GetPLL3ClockFreq+0x120>)
 800435a:	eeb7 6a00 	vmov.f32	s12, #112	@ 0x3f800000  1.0
 800435e:	6c13      	ldr	r3, [r2, #64]	@ 0x40
 8004360:	f3c3 2346 	ubfx	r3, r3, #9, #7
 8004364:	ee07 3a10 	vmov	s14, r3
 8004368:	eeb8 7ac7 	vcvt.f32.s32	s14, s14
 800436c:	bc70      	pop	{r4, r5, r6}
 800436e:	ee37 7a06 	vadd.f32	s14, s14, s12
 8004372:	eec7 6a87 	vdiv.f32	s13, s15, s14
 8004376:	eefc 6ae6 	vcvt.u32.f32	s13, s13
 800437a:	edc0 6a00 	vstr	s13, [r0]
 800437e:	6c13      	ldr	r3, [r2, #64]	@ 0x40
 8004380:	f3c3 4306 	ubfx	r3, r3, #16, #7
 8004384:	ee07 3a10 	vmov	s14, r3
 8004388:	eeb8 7ac7 	vcvt.f32.s32	s14, s14
 800438c:	ee37 7a06 	vadd.f32	s14, s14, s12
 8004390:	eec7 6a87 	vdiv.f32	s13, s15, s14
 8004394:	eefc 6ae6 	vcvt.u32.f32	s13, s13
 8004398:	edc0 6a01 	vstr	s13, [r0, #4]
 800439c:	6c13      	ldr	r3, [r2, #64]	@ 0x40
 800439e:	f3c3 6306 	ubfx	r3, r3, #24, #7
 80043a2:	ee06 3a90 	vmov	s13, r3
 80043a6:	eef8 6ae6 	vcvt.f32.s32	s13, s13
 80043aa:	ee76 6a86 	vadd.f32	s13, s13, s12
 80043ae:	ee87 7aa6 	vdiv.f32	s14, s15, s13
 80043b2:	eefc 7ac7 	vcvt.u32.f32	s15, s14
 80043b6:	ee17 3a90 	vmov	r3, s15
 80043ba:	6083      	str	r3, [r0, #8]
 80043bc:	4770      	bx	lr
 80043be:	bc70      	pop	{r4, r5, r6}
 80043c0:	e9c0 3300 	strd	r3, r3, [r0]
 80043c4:	6083      	str	r3, [r0, #8]
 80043c6:	4770      	bx	lr
 80043c8:	6813      	ldr	r3, [r2, #0]
 80043ca:	069b      	lsls	r3, r3, #26
 80043cc:	d51d      	bpl.n	800440a <HAL_RCCEx_GetPLL3ClockFreq+0x11a>
 80043ce:	6814      	ldr	r4, [r2, #0]
 80043d0:	eef7 5a00 	vmov.f32	s11, #112	@ 0x3f800000  1.0
 80043d4:	6c13      	ldr	r3, [r2, #64]	@ 0x40
 80043d6:	4910      	ldr	r1, [pc, #64]	@ (8004418 <HAL_RCCEx_GetPLL3ClockFreq+0x128>)
 80043d8:	f3c4 02c1 	ubfx	r2, r4, #3, #2
 80043dc:	f3c3 0308 	ubfx	r3, r3, #0, #9
 80043e0:	40d1      	lsrs	r1, r2
 80043e2:	ee07 3a90 	vmov	s15, r3
 80043e6:	ee06 1a10 	vmov	s12, r1
 80043ea:	eef8 7ae7 	vcvt.f32.s32	s15, s15
 80043ee:	eeb8 6ac6 	vcvt.f32.s32	s12, s12
 80043f2:	ee77 6aa6 	vadd.f32	s13, s15, s13
 80043f6:	eec6 7a07 	vdiv.f32	s15, s12, s14
 80043fa:	ee36 7aa5 	vadd.f32	s14, s13, s11
 80043fe:	ee67 7a87 	vmul.f32	s15, s15, s14
 8004402:	e7a9      	b.n	8004358 <HAL_RCCEx_GetPLL3ClockFreq+0x68>
 8004404:	eddf 7a05 	vldr	s15, [pc, #20]	@ 800441c <HAL_RCCEx_GetPLL3ClockFreq+0x12c>
 8004408:	e795      	b.n	8004336 <HAL_RCCEx_GetPLL3ClockFreq+0x46>
 800440a:	eddf 7a05 	vldr	s15, [pc, #20]	@ 8004420 <HAL_RCCEx_GetPLL3ClockFreq+0x130>
 800440e:	e792      	b.n	8004336 <HAL_RCCEx_GetPLL3ClockFreq+0x46>
 8004410:	58024400 	.word	0x58024400
 8004414:	4a742400 	.word	0x4a742400
 8004418:	03d09000 	.word	0x03d09000
 800441c:	4af42400 	.word	0x4af42400
 8004420:	4c742400 	.word	0x4c742400

08004424 <HAL_RCCEx_GetPLL1ClockFreq>:
 8004424:	4a47      	ldr	r2, [pc, #284]	@ (8004544 <HAL_RCCEx_GetPLL1ClockFreq+0x120>)
 8004426:	b470      	push	{r4, r5, r6}
 8004428:	6a94      	ldr	r4, [r2, #40]	@ 0x28
 800442a:	6a95      	ldr	r5, [r2, #40]	@ 0x28
 800442c:	6ad6      	ldr	r6, [r2, #44]	@ 0x2c
 800442e:	f415 7f7c 	tst.w	r5, #1008	@ 0x3f0
 8004432:	f3c5 1305 	ubfx	r3, r5, #4, #6
 8004436:	6b51      	ldr	r1, [r2, #52]	@ 0x34
 8004438:	d05b      	beq.n	80044f2 <HAL_RCCEx_GetPLL1ClockFreq+0xce>
 800443a:	f3c1 01cc 	ubfx	r1, r1, #3, #13
 800443e:	f006 0601 	and.w	r6, r6, #1
 8004442:	f004 0403 	and.w	r4, r4, #3
 8004446:	ee07 3a90 	vmov	s15, r3
 800444a:	fb06 f101 	mul.w	r1, r6, r1
 800444e:	2c01      	cmp	r4, #1
 8004450:	eeb8 7ae7 	vcvt.f32.s32	s14, s15
 8004454:	ee06 1a90 	vmov	s13, r1
 8004458:	eefa 6ae9 	vcvt.f32.s32	s13, s13, #13
 800445c:	d04e      	beq.n	80044fc <HAL_RCCEx_GetPLL1ClockFreq+0xd8>
 800445e:	2c02      	cmp	r4, #2
 8004460:	d06d      	beq.n	800453e <HAL_RCCEx_GetPLL1ClockFreq+0x11a>
 8004462:	2c00      	cmp	r4, #0
 8004464:	d04d      	beq.n	8004502 <HAL_RCCEx_GetPLL1ClockFreq+0xde>
 8004466:	eddf 7a38 	vldr	s15, [pc, #224]	@ 8004548 <HAL_RCCEx_GetPLL1ClockFreq+0x124>
 800446a:	ee87 6a87 	vdiv.f32	s12, s15, s14
 800446e:	6b13      	ldr	r3, [r2, #48]	@ 0x30
 8004470:	f3c3 0308 	ubfx	r3, r3, #0, #9
 8004474:	ee07 3a90 	vmov	s15, r3
 8004478:	eef7 5a00 	vmov.f32	s11, #112	@ 0x3f800000  1.0
 800447c:	eef8 7ae7 	vcvt.f32.s32	s15, s15
 8004480:	ee77 7aa6 	vadd.f32	s15, s15, s13
 8004484:	ee77 7aa5 	vadd.f32	s15, s15, s11
 8004488:	ee67 7a86 	vmul.f32	s15, s15, s12
 800448c:	4a2d      	ldr	r2, [pc, #180]	@ (8004544 <HAL_RCCEx_GetPLL1ClockFreq+0x120>)
 800448e:	eeb7 6a00 	vmov.f32	s12, #112	@ 0x3f800000  1.0
 8004492:	6b13      	ldr	r3, [r2, #48]	@ 0x30
 8004494:	f3c3 2346 	ubfx	r3, r3, #9, #7
 8004498:	ee07 3a10 	vmov	s14, r3
 800449c:	eeb8 7ac7 	vcvt.f32.s32	s14, s14
 80044a0:	bc70      	pop	{r4, r5, r6}
 80044a2:	ee37 7a06 	vadd.f32	s14, s14, s12
 80044a6:	eec7 6a87 	vdiv.f32	s13, s15, s14
 80044aa:	eefc 6ae6 	vcvt.u32.f32	s13, s13
 80044ae:	edc0 6a00 	vstr	s13, [r0]
 80044b2:	6b13      	ldr	r3, [r2, #48]	@ 0x30
 80044b4:	f3c3 4306 	ubfx	r3, r3, #16, #7
 80044b8:	ee07 3a10 	vmov	s14, r3
 80044bc:	eeb8 7ac7 	vcvt.f32.s32	s14, s14
 80044c0:	ee37 7a06 	vadd.f32	s14, s14, s12
 80044c4:	eec7 6a87 	vdiv.f32	s13, s15, s14
 80044c8:	eefc 6ae6 	vcvt.u32.f32	s13, s13
 80044cc:	edc0 6a01 	vstr	s13, [r0, #4]
 80044d0:	6b13      	ldr	r3, [r2, #48]	@ 0x30
 80044d2:	f3c3 6306 	ubfx	r3, r3, #24, #7
 80044d6:	ee06 3a90 	vmov	s13, r3
 80044da:	eef8 6ae6 	vcvt.f32.s32	s13, s13
 80044de:	ee76 6a86 	vadd.f32	s13, s13, s12
 80044e2:	ee87 7aa6 	vdiv.f32	s14, s15, s13
 80044e6:	eefc 7ac7 	vcvt.u32.f32	s15, s14
 80044ea:	ee17 3a90 	vmov	r3, s15
 80044ee:	6083      	str	r3, [r0, #8]
 80044f0:	4770      	bx	lr
 80044f2:	bc70      	pop	{r4, r5, r6}
 80044f4:	e9c0 3300 	strd	r3, r3, [r0]
 80044f8:	6083      	str	r3, [r0, #8]
 80044fa:	4770      	bx	lr
 80044fc:	eddf 7a13 	vldr	s15, [pc, #76]	@ 800454c <HAL_RCCEx_GetPLL1ClockFreq+0x128>
 8004500:	e7b3      	b.n	800446a <HAL_RCCEx_GetPLL1ClockFreq+0x46>
 8004502:	6813      	ldr	r3, [r2, #0]
 8004504:	069b      	lsls	r3, r3, #26
 8004506:	d5ae      	bpl.n	8004466 <HAL_RCCEx_GetPLL1ClockFreq+0x42>
 8004508:	6814      	ldr	r4, [r2, #0]
 800450a:	eef7 5a00 	vmov.f32	s11, #112	@ 0x3f800000  1.0
 800450e:	6b13      	ldr	r3, [r2, #48]	@ 0x30
 8004510:	490f      	ldr	r1, [pc, #60]	@ (8004550 <HAL_RCCEx_GetPLL1ClockFreq+0x12c>)
 8004512:	f3c4 02c1 	ubfx	r2, r4, #3, #2
 8004516:	f3c3 0308 	ubfx	r3, r3, #0, #9
 800451a:	40d1      	lsrs	r1, r2
 800451c:	ee07 3a90 	vmov	s15, r3
 8004520:	ee06 1a10 	vmov	s12, r1
 8004524:	eef8 7ae7 	vcvt.f32.s32	s15, s15
 8004528:	eeb8 6ac6 	vcvt.f32.s32	s12, s12
 800452c:	ee77 6aa6 	vadd.f32	s13, s15, s13
 8004530:	eec6 7a07 	vdiv.f32	s15, s12, s14
 8004534:	ee36 7aa5 	vadd.f32	s14, s13, s11
 8004538:	ee67 7a87 	vmul.f32	s15, s15, s14
 800453c:	e7a6      	b.n	800448c <HAL_RCCEx_GetPLL1ClockFreq+0x68>
 800453e:	eddf 7a05 	vldr	s15, [pc, #20]	@ 8004554 <HAL_RCCEx_GetPLL1ClockFreq+0x130>
 8004542:	e792      	b.n	800446a <HAL_RCCEx_GetPLL1ClockFreq+0x46>
 8004544:	58024400 	.word	0x58024400
 8004548:	4c742400 	.word	0x4c742400
 800454c:	4a742400 	.word	0x4a742400
 8004550:	03d09000 	.word	0x03d09000
 8004554:	4af42400 	.word	0x4af42400

08004558 <HAL_RCCEx_GetPeriphCLKFreq>:
 8004558:	f5a0 7380 	sub.w	r3, r0, #256	@ 0x100
 800455c:	430b      	orrs	r3, r1
 800455e:	b500      	push	{lr}
 8004560:	b085      	sub	sp, #20
 8004562:	d048      	beq.n	80045f6 <HAL_RCCEx_GetPeriphCLKFreq+0x9e>
 8004564:	f5a0 6380 	sub.w	r3, r0, #1024	@ 0x400
 8004568:	430b      	orrs	r3, r1
 800456a:	d032      	beq.n	80045d2 <HAL_RCCEx_GetPeriphCLKFreq+0x7a>
 800456c:	f5a0 6300 	sub.w	r3, r0, #2048	@ 0x800
 8004570:	430b      	orrs	r3, r1
 8004572:	d068      	beq.n	8004646 <HAL_RCCEx_GetPeriphCLKFreq+0xee>
 8004574:	f5a0 5380 	sub.w	r3, r0, #4096	@ 0x1000
 8004578:	430b      	orrs	r3, r1
 800457a:	d047      	beq.n	800460c <HAL_RCCEx_GetPeriphCLKFreq+0xb4>
 800457c:	f5a0 5300 	sub.w	r3, r0, #8192	@ 0x2000
 8004580:	430b      	orrs	r3, r1
 8004582:	f000 80ba 	beq.w	80046fa <HAL_RCCEx_GetPeriphCLKFreq+0x1a2>
 8004586:	f5a0 2300 	sub.w	r3, r0, #524288	@ 0x80000
 800458a:	430b      	orrs	r3, r1
 800458c:	f000 810d 	beq.w	80047aa <HAL_RCCEx_GetPeriphCLKFreq+0x252>
 8004590:	f5a0 3380 	sub.w	r3, r0, #65536	@ 0x10000
 8004594:	430b      	orrs	r3, r1
 8004596:	f000 8121 	beq.w	80047dc <HAL_RCCEx_GetPeriphCLKFreq+0x284>
 800459a:	f5a0 4380 	sub.w	r3, r0, #16384	@ 0x4000
 800459e:	430b      	orrs	r3, r1
 80045a0:	f000 80dd 	beq.w	800475e <HAL_RCCEx_GetPeriphCLKFreq+0x206>
 80045a4:	f5a0 4000 	sub.w	r0, r0, #32768	@ 0x8000
 80045a8:	4308      	orrs	r0, r1
 80045aa:	d121      	bne.n	80045f0 <HAL_RCCEx_GetPeriphCLKFreq+0x98>
 80045ac:	4b98      	ldr	r3, [pc, #608]	@ (8004810 <HAL_RCCEx_GetPeriphCLKFreq+0x2b8>)
 80045ae:	6d1b      	ldr	r3, [r3, #80]	@ 0x50
 80045b0:	f003 5340 	and.w	r3, r3, #805306368	@ 0x30000000
 80045b4:	f1b3 5f80 	cmp.w	r3, #268435456	@ 0x10000000
 80045b8:	d053      	beq.n	8004662 <HAL_RCCEx_GetPeriphCLKFreq+0x10a>
 80045ba:	f1b3 5f00 	cmp.w	r3, #536870912	@ 0x20000000
 80045be:	f000 8153 	beq.w	8004868 <HAL_RCCEx_GetPeriphCLKFreq+0x310>
 80045c2:	b9ab      	cbnz	r3, 80045f0 <HAL_RCCEx_GetPeriphCLKFreq+0x98>
 80045c4:	4b92      	ldr	r3, [pc, #584]	@ (8004810 <HAL_RCCEx_GetPeriphCLKFreq+0x2b8>)
 80045c6:	6818      	ldr	r0, [r3, #0]
 80045c8:	f410 3000 	ands.w	r0, r0, #131072	@ 0x20000
 80045cc:	d047      	beq.n	800465e <HAL_RCCEx_GetPeriphCLKFreq+0x106>
 80045ce:	4891      	ldr	r0, [pc, #580]	@ (8004814 <HAL_RCCEx_GetPeriphCLKFreq+0x2bc>)
 80045d0:	e045      	b.n	800465e <HAL_RCCEx_GetPeriphCLKFreq+0x106>
 80045d2:	4a8f      	ldr	r2, [pc, #572]	@ (8004810 <HAL_RCCEx_GetPeriphCLKFreq+0x2b8>)
 80045d4:	6d93      	ldr	r3, [r2, #88]	@ 0x58
 80045d6:	f403 0360 	and.w	r3, r3, #14680064	@ 0xe00000
 80045da:	f5b3 0f80 	cmp.w	r3, #4194304	@ 0x400000
 80045de:	f000 8082 	beq.w	80046e6 <HAL_RCCEx_GetPeriphCLKFreq+0x18e>
 80045e2:	d97a      	bls.n	80046da <HAL_RCCEx_GetPeriphCLKFreq+0x182>
 80045e4:	f5b3 0fc0 	cmp.w	r3, #6291456	@ 0x600000
 80045e8:	d038      	beq.n	800465c <HAL_RCCEx_GetPeriphCLKFreq+0x104>
 80045ea:	f5b3 0f00 	cmp.w	r3, #8388608	@ 0x800000
 80045ee:	d05d      	beq.n	80046ac <HAL_RCCEx_GetPeriphCLKFreq+0x154>
 80045f0:	2000      	movs	r0, #0
 80045f2:	b005      	add	sp, #20
 80045f4:	bd00      	pop	{pc}
 80045f6:	4b86      	ldr	r3, [pc, #536]	@ (8004810 <HAL_RCCEx_GetPeriphCLKFreq+0x2b8>)
 80045f8:	6d1b      	ldr	r3, [r3, #80]	@ 0x50
 80045fa:	f003 0307 	and.w	r3, r3, #7
 80045fe:	2b04      	cmp	r3, #4
 8004600:	d8f6      	bhi.n	80045f0 <HAL_RCCEx_GetPeriphCLKFreq+0x98>
 8004602:	e8df f003 	tbb	[pc, r3]
 8004606:	462e      	.short	0x462e
 8004608:	2b3a      	.short	0x2b3a
 800460a:	52          	.byte	0x52
 800460b:	00          	.byte	0x00
 800460c:	4a80      	ldr	r2, [pc, #512]	@ (8004810 <HAL_RCCEx_GetPeriphCLKFreq+0x2b8>)
 800460e:	6d13      	ldr	r3, [r2, #80]	@ 0x50
 8004610:	f403 43e0 	and.w	r3, r3, #28672	@ 0x7000
 8004614:	f5b3 5f00 	cmp.w	r3, #8192	@ 0x2000
 8004618:	d065      	beq.n	80046e6 <HAL_RCCEx_GetPeriphCLKFreq+0x18e>
 800461a:	d95e      	bls.n	80046da <HAL_RCCEx_GetPeriphCLKFreq+0x182>
 800461c:	f5b3 5f40 	cmp.w	r3, #12288	@ 0x3000
 8004620:	d01c      	beq.n	800465c <HAL_RCCEx_GetPeriphCLKFreq+0x104>
 8004622:	f5b3 4f80 	cmp.w	r3, #16384	@ 0x4000
 8004626:	d1e3      	bne.n	80045f0 <HAL_RCCEx_GetPeriphCLKFreq+0x98>
 8004628:	6cd3      	ldr	r3, [r2, #76]	@ 0x4c
 800462a:	6812      	ldr	r2, [r2, #0]
 800462c:	f003 5340 	and.w	r3, r3, #805306368	@ 0x30000000
 8004630:	0750      	lsls	r0, r2, #29
 8004632:	d543      	bpl.n	80046bc <HAL_RCCEx_GetPeriphCLKFreq+0x164>
 8004634:	2b00      	cmp	r3, #0
 8004636:	d141      	bne.n	80046bc <HAL_RCCEx_GetPeriphCLKFreq+0x164>
 8004638:	4b75      	ldr	r3, [pc, #468]	@ (8004810 <HAL_RCCEx_GetPeriphCLKFreq+0x2b8>)
 800463a:	4877      	ldr	r0, [pc, #476]	@ (8004818 <HAL_RCCEx_GetPeriphCLKFreq+0x2c0>)
 800463c:	681b      	ldr	r3, [r3, #0]
 800463e:	f3c3 03c1 	ubfx	r3, r3, #3, #2
 8004642:	40d8      	lsrs	r0, r3
 8004644:	e00b      	b.n	800465e <HAL_RCCEx_GetPeriphCLKFreq+0x106>
 8004646:	4a72      	ldr	r2, [pc, #456]	@ (8004810 <HAL_RCCEx_GetPeriphCLKFreq+0x2b8>)
 8004648:	6d93      	ldr	r3, [r2, #88]	@ 0x58
 800464a:	f003 63e0 	and.w	r3, r3, #117440512	@ 0x7000000
 800464e:	f1b3 7f00 	cmp.w	r3, #33554432	@ 0x2000000
 8004652:	d048      	beq.n	80046e6 <HAL_RCCEx_GetPeriphCLKFreq+0x18e>
 8004654:	d941      	bls.n	80046da <HAL_RCCEx_GetPeriphCLKFreq+0x182>
 8004656:	f1b3 7f40 	cmp.w	r3, #50331648	@ 0x3000000
 800465a:	d166      	bne.n	800472a <HAL_RCCEx_GetPeriphCLKFreq+0x1d2>
 800465c:	486f      	ldr	r0, [pc, #444]	@ (800481c <HAL_RCCEx_GetPeriphCLKFreq+0x2c4>)
 800465e:	b005      	add	sp, #20
 8004660:	bd00      	pop	{pc}
 8004662:	4b6b      	ldr	r3, [pc, #428]	@ (8004810 <HAL_RCCEx_GetPeriphCLKFreq+0x2b8>)
 8004664:	6818      	ldr	r0, [r3, #0]
 8004666:	f010 7000 	ands.w	r0, r0, #33554432	@ 0x2000000
 800466a:	d0f8      	beq.n	800465e <HAL_RCCEx_GetPeriphCLKFreq+0x106>
 800466c:	2300      	movs	r3, #0
 800466e:	a801      	add	r0, sp, #4
 8004670:	9302      	str	r3, [sp, #8]
 8004672:	f7ff fed7 	bl	8004424 <HAL_RCCEx_GetPLL1ClockFreq>
 8004676:	9802      	ldr	r0, [sp, #8]
 8004678:	e7f1      	b.n	800465e <HAL_RCCEx_GetPeriphCLKFreq+0x106>
 800467a:	4b65      	ldr	r3, [pc, #404]	@ (8004810 <HAL_RCCEx_GetPeriphCLKFreq+0x2b8>)
 800467c:	6818      	ldr	r0, [r3, #0]
 800467e:	f010 5000 	ands.w	r0, r0, #536870912	@ 0x20000000
 8004682:	d0ec      	beq.n	800465e <HAL_RCCEx_GetPeriphCLKFreq+0x106>
 8004684:	2300      	movs	r3, #0
 8004686:	a801      	add	r0, sp, #4
 8004688:	9301      	str	r3, [sp, #4]
 800468a:	f7ff fe31 	bl	80042f0 <HAL_RCCEx_GetPLL3ClockFreq>
 800468e:	9801      	ldr	r0, [sp, #4]
 8004690:	e7e5      	b.n	800465e <HAL_RCCEx_GetPeriphCLKFreq+0x106>
 8004692:	4b5f      	ldr	r3, [pc, #380]	@ (8004810 <HAL_RCCEx_GetPeriphCLKFreq+0x2b8>)
 8004694:	6818      	ldr	r0, [r3, #0]
 8004696:	f010 6000 	ands.w	r0, r0, #134217728	@ 0x8000000
 800469a:	d0e0      	beq.n	800465e <HAL_RCCEx_GetPeriphCLKFreq+0x106>
 800469c:	2300      	movs	r3, #0
 800469e:	a801      	add	r0, sp, #4
 80046a0:	9301      	str	r3, [sp, #4]
 80046a2:	f7ff fd8b 	bl	80041bc <HAL_RCCEx_GetPLL2ClockFreq>
 80046a6:	9801      	ldr	r0, [sp, #4]
 80046a8:	e7d9      	b.n	800465e <HAL_RCCEx_GetPeriphCLKFreq+0x106>
 80046aa:	4a59      	ldr	r2, [pc, #356]	@ (8004810 <HAL_RCCEx_GetPeriphCLKFreq+0x2b8>)
 80046ac:	6cd3      	ldr	r3, [r2, #76]	@ 0x4c
 80046ae:	6811      	ldr	r1, [r2, #0]
 80046b0:	f003 5340 	and.w	r3, r3, #805306368	@ 0x30000000
 80046b4:	0749      	lsls	r1, r1, #29
 80046b6:	d501      	bpl.n	80046bc <HAL_RCCEx_GetPeriphCLKFreq+0x164>
 80046b8:	2b00      	cmp	r3, #0
 80046ba:	d03e      	beq.n	800473a <HAL_RCCEx_GetPeriphCLKFreq+0x1e2>
 80046bc:	4a54      	ldr	r2, [pc, #336]	@ (8004810 <HAL_RCCEx_GetPeriphCLKFreq+0x2b8>)
 80046be:	6812      	ldr	r2, [r2, #0]
 80046c0:	05d1      	lsls	r1, r2, #23
 80046c2:	d502      	bpl.n	80046ca <HAL_RCCEx_GetPeriphCLKFreq+0x172>
 80046c4:	f1b3 5f80 	cmp.w	r3, #268435456	@ 0x10000000
 80046c8:	d06d      	beq.n	80047a6 <HAL_RCCEx_GetPeriphCLKFreq+0x24e>
 80046ca:	4a51      	ldr	r2, [pc, #324]	@ (8004810 <HAL_RCCEx_GetPeriphCLKFreq+0x2b8>)
 80046cc:	6812      	ldr	r2, [r2, #0]
 80046ce:	0392      	lsls	r2, r2, #14
 80046d0:	d58e      	bpl.n	80045f0 <HAL_RCCEx_GetPeriphCLKFreq+0x98>
 80046d2:	f1b3 5f00 	cmp.w	r3, #536870912	@ 0x20000000
 80046d6:	d18b      	bne.n	80045f0 <HAL_RCCEx_GetPeriphCLKFreq+0x98>
 80046d8:	e779      	b.n	80045ce <HAL_RCCEx_GetPeriphCLKFreq+0x76>
 80046da:	b14b      	cbz	r3, 80046f0 <HAL_RCCEx_GetPeriphCLKFreq+0x198>
 80046dc:	6810      	ldr	r0, [r2, #0]
 80046de:	f010 6000 	ands.w	r0, r0, #134217728	@ 0x8000000
 80046e2:	d0bc      	beq.n	800465e <HAL_RCCEx_GetPeriphCLKFreq+0x106>
 80046e4:	e7da      	b.n	800469c <HAL_RCCEx_GetPeriphCLKFreq+0x144>
 80046e6:	6810      	ldr	r0, [r2, #0]
 80046e8:	f010 5000 	ands.w	r0, r0, #536870912	@ 0x20000000
 80046ec:	d0b7      	beq.n	800465e <HAL_RCCEx_GetPeriphCLKFreq+0x106>
 80046ee:	e7c9      	b.n	8004684 <HAL_RCCEx_GetPeriphCLKFreq+0x12c>
 80046f0:	6810      	ldr	r0, [r2, #0]
 80046f2:	f010 7000 	ands.w	r0, r0, #33554432	@ 0x2000000
 80046f6:	d0b2      	beq.n	800465e <HAL_RCCEx_GetPeriphCLKFreq+0x106>
 80046f8:	e7b8      	b.n	800466c <HAL_RCCEx_GetPeriphCLKFreq+0x114>
 80046fa:	4a45      	ldr	r2, [pc, #276]	@ (8004810 <HAL_RCCEx_GetPeriphCLKFreq+0x2b8>)
 80046fc:	6d13      	ldr	r3, [r2, #80]	@ 0x50
 80046fe:	f403 23e0 	and.w	r3, r3, #458752	@ 0x70000
 8004702:	f5b3 3f40 	cmp.w	r3, #196608	@ 0x30000
 8004706:	d014      	beq.n	8004732 <HAL_RCCEx_GetPeriphCLKFreq+0x1da>
 8004708:	d81d      	bhi.n	8004746 <HAL_RCCEx_GetPeriphCLKFreq+0x1ee>
 800470a:	f5b3 3f80 	cmp.w	r3, #65536	@ 0x10000
 800470e:	f000 8097 	beq.w	8004840 <HAL_RCCEx_GetPeriphCLKFreq+0x2e8>
 8004712:	f5b3 3f00 	cmp.w	r3, #131072	@ 0x20000
 8004716:	f000 8087 	beq.w	8004828 <HAL_RCCEx_GetPeriphCLKFreq+0x2d0>
 800471a:	2b00      	cmp	r3, #0
 800471c:	f47f af68 	bne.w	80045f0 <HAL_RCCEx_GetPeriphCLKFreq+0x98>
 8004720:	b005      	add	sp, #20
 8004722:	f85d eb04 	ldr.w	lr, [sp], #4
 8004726:	f7fe bd3d 	b.w	80031a4 <HAL_RCC_GetPCLK1Freq>
 800472a:	f1b3 6f80 	cmp.w	r3, #67108864	@ 0x4000000
 800472e:	d0bd      	beq.n	80046ac <HAL_RCCEx_GetPeriphCLKFreq+0x154>
 8004730:	e75e      	b.n	80045f0 <HAL_RCCEx_GetPeriphCLKFreq+0x98>
 8004732:	6810      	ldr	r0, [r2, #0]
 8004734:	f010 0004 	ands.w	r0, r0, #4
 8004738:	d091      	beq.n	800465e <HAL_RCCEx_GetPeriphCLKFreq+0x106>
 800473a:	6813      	ldr	r3, [r2, #0]
 800473c:	4836      	ldr	r0, [pc, #216]	@ (8004818 <HAL_RCCEx_GetPeriphCLKFreq+0x2c0>)
 800473e:	f3c3 03c1 	ubfx	r3, r3, #3, #2
 8004742:	40d8      	lsrs	r0, r3
 8004744:	e78b      	b.n	800465e <HAL_RCCEx_GetPeriphCLKFreq+0x106>
 8004746:	f5b3 2f80 	cmp.w	r3, #262144	@ 0x40000
 800474a:	d027      	beq.n	800479c <HAL_RCCEx_GetPeriphCLKFreq+0x244>
 800474c:	f5b3 2fa0 	cmp.w	r3, #327680	@ 0x50000
 8004750:	f47f af4e 	bne.w	80045f0 <HAL_RCCEx_GetPeriphCLKFreq+0x98>
 8004754:	6810      	ldr	r0, [r2, #0]
 8004756:	f410 3000 	ands.w	r0, r0, #131072	@ 0x20000
 800475a:	d080      	beq.n	800465e <HAL_RCCEx_GetPeriphCLKFreq+0x106>
 800475c:	e737      	b.n	80045ce <HAL_RCCEx_GetPeriphCLKFreq+0x76>
 800475e:	4a2c      	ldr	r2, [pc, #176]	@ (8004810 <HAL_RCCEx_GetPeriphCLKFreq+0x2b8>)
 8004760:	6d93      	ldr	r3, [r2, #88]	@ 0x58
 8004762:	f003 43e0 	and.w	r3, r3, #1879048192	@ 0x70000000
 8004766:	f1b3 5f40 	cmp.w	r3, #805306368	@ 0x30000000
 800476a:	f000 8084 	beq.w	8004876 <HAL_RCCEx_GetPeriphCLKFreq+0x31e>
 800476e:	d873      	bhi.n	8004858 <HAL_RCCEx_GetPeriphCLKFreq+0x300>
 8004770:	f1b3 5f80 	cmp.w	r3, #268435456	@ 0x10000000
 8004774:	d078      	beq.n	8004868 <HAL_RCCEx_GetPeriphCLKFreq+0x310>
 8004776:	f1b3 5f00 	cmp.w	r3, #536870912	@ 0x20000000
 800477a:	f000 8082 	beq.w	8004882 <HAL_RCCEx_GetPeriphCLKFreq+0x32a>
 800477e:	2b00      	cmp	r3, #0
 8004780:	f47f af36 	bne.w	80045f0 <HAL_RCCEx_GetPeriphCLKFreq+0x98>
 8004784:	f7fe fcce 	bl	8003124 <HAL_RCC_GetHCLKFreq>
 8004788:	4b21      	ldr	r3, [pc, #132]	@ (8004810 <HAL_RCCEx_GetPeriphCLKFreq+0x2b8>)
 800478a:	4a25      	ldr	r2, [pc, #148]	@ (8004820 <HAL_RCCEx_GetPeriphCLKFreq+0x2c8>)
 800478c:	6a1b      	ldr	r3, [r3, #32]
 800478e:	f3c3 1302 	ubfx	r3, r3, #4, #3
 8004792:	5cd3      	ldrb	r3, [r2, r3]
 8004794:	f003 031f 	and.w	r3, r3, #31
 8004798:	40d8      	lsrs	r0, r3
 800479a:	e760      	b.n	800465e <HAL_RCCEx_GetPeriphCLKFreq+0x106>
 800479c:	6810      	ldr	r0, [r2, #0]
 800479e:	f410 7080 	ands.w	r0, r0, #256	@ 0x100
 80047a2:	f43f af5c 	beq.w	800465e <HAL_RCCEx_GetPeriphCLKFreq+0x106>
 80047a6:	481f      	ldr	r0, [pc, #124]	@ (8004824 <HAL_RCCEx_GetPeriphCLKFreq+0x2cc>)
 80047a8:	e759      	b.n	800465e <HAL_RCCEx_GetPeriphCLKFreq+0x106>
 80047aa:	4a19      	ldr	r2, [pc, #100]	@ (8004810 <HAL_RCCEx_GetPeriphCLKFreq+0x2b8>)
 80047ac:	6d93      	ldr	r3, [r2, #88]	@ 0x58
 80047ae:	f403 3340 	and.w	r3, r3, #196608	@ 0x30000
 80047b2:	f5b3 3f80 	cmp.w	r3, #65536	@ 0x10000
 80047b6:	d020      	beq.n	80047fa <HAL_RCCEx_GetPeriphCLKFreq+0x2a2>
 80047b8:	f5b3 3f00 	cmp.w	r3, #131072	@ 0x20000
 80047bc:	f43f af34 	beq.w	8004628 <HAL_RCCEx_GetPeriphCLKFreq+0xd0>
 80047c0:	2b00      	cmp	r3, #0
 80047c2:	f47f af15 	bne.w	80045f0 <HAL_RCCEx_GetPeriphCLKFreq+0x98>
 80047c6:	6810      	ldr	r0, [r2, #0]
 80047c8:	f010 6000 	ands.w	r0, r0, #134217728	@ 0x8000000
 80047cc:	f43f af47 	beq.w	800465e <HAL_RCCEx_GetPeriphCLKFreq+0x106>
 80047d0:	a801      	add	r0, sp, #4
 80047d2:	9301      	str	r3, [sp, #4]
 80047d4:	f7ff fcf2 	bl	80041bc <HAL_RCCEx_GetPLL2ClockFreq>
 80047d8:	9801      	ldr	r0, [sp, #4]
 80047da:	e740      	b.n	800465e <HAL_RCCEx_GetPeriphCLKFreq+0x106>
 80047dc:	4b0c      	ldr	r3, [pc, #48]	@ (8004810 <HAL_RCCEx_GetPeriphCLKFreq+0x2b8>)
 80047de:	6cda      	ldr	r2, [r3, #76]	@ 0x4c
 80047e0:	6818      	ldr	r0, [r3, #0]
 80047e2:	03d3      	lsls	r3, r2, #15
 80047e4:	f57f af3f 	bpl.w	8004666 <HAL_RCCEx_GetPeriphCLKFreq+0x10e>
 80047e8:	f010 6000 	ands.w	r0, r0, #134217728	@ 0x8000000
 80047ec:	f43f af37 	beq.w	800465e <HAL_RCCEx_GetPeriphCLKFreq+0x106>
 80047f0:	a801      	add	r0, sp, #4
 80047f2:	f7ff fce3 	bl	80041bc <HAL_RCCEx_GetPLL2ClockFreq>
 80047f6:	9803      	ldr	r0, [sp, #12]
 80047f8:	e731      	b.n	800465e <HAL_RCCEx_GetPeriphCLKFreq+0x106>
 80047fa:	6810      	ldr	r0, [r2, #0]
 80047fc:	f010 5000 	ands.w	r0, r0, #536870912	@ 0x20000000
 8004800:	f43f af2d 	beq.w	800465e <HAL_RCCEx_GetPeriphCLKFreq+0x106>
 8004804:	a801      	add	r0, sp, #4
 8004806:	f7ff fd73 	bl	80042f0 <HAL_RCCEx_GetPLL3ClockFreq>
 800480a:	9803      	ldr	r0, [sp, #12]
 800480c:	e727      	b.n	800465e <HAL_RCCEx_GetPeriphCLKFreq+0x106>
 800480e:	bf00      	nop
 8004810:	58024400 	.word	0x58024400
 8004814:	007a1200 	.word	0x007a1200
 8004818:	03d09000 	.word	0x03d09000
 800481c:	00bb8000 	.word	0x00bb8000
 8004820:	0800a6d0 	.word	0x0800a6d0
 8004824:	003d0900 	.word	0x003d0900
 8004828:	6810      	ldr	r0, [r2, #0]
 800482a:	f010 5000 	ands.w	r0, r0, #536870912	@ 0x20000000
 800482e:	f43f af16 	beq.w	800465e <HAL_RCCEx_GetPeriphCLKFreq+0x106>
 8004832:	2300      	movs	r3, #0
 8004834:	a801      	add	r0, sp, #4
 8004836:	9302      	str	r3, [sp, #8]
 8004838:	f7ff fd5a 	bl	80042f0 <HAL_RCCEx_GetPLL3ClockFreq>
 800483c:	9802      	ldr	r0, [sp, #8]
 800483e:	e70e      	b.n	800465e <HAL_RCCEx_GetPeriphCLKFreq+0x106>
 8004840:	6810      	ldr	r0, [r2, #0]
 8004842:	f010 6000 	ands.w	r0, r0, #134217728	@ 0x8000000
 8004846:	f43f af0a 	beq.w	800465e <HAL_RCCEx_GetPeriphCLKFreq+0x106>
 800484a:	2300      	movs	r3, #0
 800484c:	a801      	add	r0, sp, #4
 800484e:	9302      	str	r3, [sp, #8]
 8004850:	f7ff fcb4 	bl	80041bc <HAL_RCCEx_GetPLL2ClockFreq>
 8004854:	9802      	ldr	r0, [sp, #8]
 8004856:	e702      	b.n	800465e <HAL_RCCEx_GetPeriphCLKFreq+0x106>
 8004858:	f1b3 4f80 	cmp.w	r3, #1073741824	@ 0x40000000
 800485c:	d018      	beq.n	8004890 <HAL_RCCEx_GetPeriphCLKFreq+0x338>
 800485e:	f1b3 4fa0 	cmp.w	r3, #1342177280	@ 0x50000000
 8004862:	f43f aeaf 	beq.w	80045c4 <HAL_RCCEx_GetPeriphCLKFreq+0x6c>
 8004866:	e6c3      	b.n	80045f0 <HAL_RCCEx_GetPeriphCLKFreq+0x98>
 8004868:	4b0d      	ldr	r3, [pc, #52]	@ (80048a0 <HAL_RCCEx_GetPeriphCLKFreq+0x348>)
 800486a:	6818      	ldr	r0, [r3, #0]
 800486c:	f010 6000 	ands.w	r0, r0, #134217728	@ 0x8000000
 8004870:	f43f aef5 	beq.w	800465e <HAL_RCCEx_GetPeriphCLKFreq+0x106>
 8004874:	e7e9      	b.n	800484a <HAL_RCCEx_GetPeriphCLKFreq+0x2f2>
 8004876:	6810      	ldr	r0, [r2, #0]
 8004878:	f010 0004 	ands.w	r0, r0, #4
 800487c:	f43f aeef 	beq.w	800465e <HAL_RCCEx_GetPeriphCLKFreq+0x106>
 8004880:	e6da      	b.n	8004638 <HAL_RCCEx_GetPeriphCLKFreq+0xe0>
 8004882:	4b07      	ldr	r3, [pc, #28]	@ (80048a0 <HAL_RCCEx_GetPeriphCLKFreq+0x348>)
 8004884:	6818      	ldr	r0, [r3, #0]
 8004886:	f010 5000 	ands.w	r0, r0, #536870912	@ 0x20000000
 800488a:	f43f aee8 	beq.w	800465e <HAL_RCCEx_GetPeriphCLKFreq+0x106>
 800488e:	e7d0      	b.n	8004832 <HAL_RCCEx_GetPeriphCLKFreq+0x2da>
 8004890:	4b03      	ldr	r3, [pc, #12]	@ (80048a0 <HAL_RCCEx_GetPeriphCLKFreq+0x348>)
 8004892:	6818      	ldr	r0, [r3, #0]
 8004894:	f410 7080 	ands.w	r0, r0, #256	@ 0x100
 8004898:	f43f aee1 	beq.w	800465e <HAL_RCCEx_GetPeriphCLKFreq+0x106>
 800489c:	e783      	b.n	80047a6 <HAL_RCCEx_GetPeriphCLKFreq+0x24e>
 800489e:	bf00      	nop
 80048a0:	58024400 	.word	0x58024400

080048a4 <TIM_OC1_SetConfig>:
 80048a4:	6a03      	ldr	r3, [r0, #32]
 80048a6:	6a02      	ldr	r2, [r0, #32]
 80048a8:	f023 0302 	bic.w	r3, r3, #2
 80048ac:	f022 0201 	bic.w	r2, r2, #1
 80048b0:	b470      	push	{r4, r5, r6}
 80048b2:	6202      	str	r2, [r0, #32]
 80048b4:	4c18      	ldr	r4, [pc, #96]	@ (8004918 <TIM_OC1_SetConfig+0x74>)
 80048b6:	6842      	ldr	r2, [r0, #4]
 80048b8:	6985      	ldr	r5, [r0, #24]
 80048ba:	402c      	ands	r4, r5
 80048bc:	680d      	ldr	r5, [r1, #0]
 80048be:	432c      	orrs	r4, r5
 80048c0:	688d      	ldr	r5, [r1, #8]
 80048c2:	432b      	orrs	r3, r5
 80048c4:	4d15      	ldr	r5, [pc, #84]	@ (800491c <TIM_OC1_SetConfig+0x78>)
 80048c6:	42a8      	cmp	r0, r5
 80048c8:	d00f      	beq.n	80048ea <TIM_OC1_SetConfig+0x46>
 80048ca:	f505 6580 	add.w	r5, r5, #1024	@ 0x400
 80048ce:	42a8      	cmp	r0, r5
 80048d0:	d00b      	beq.n	80048ea <TIM_OC1_SetConfig+0x46>
 80048d2:	f505 5570 	add.w	r5, r5, #15360	@ 0x3c00
 80048d6:	42a8      	cmp	r0, r5
 80048d8:	d007      	beq.n	80048ea <TIM_OC1_SetConfig+0x46>
 80048da:	f505 6580 	add.w	r5, r5, #1024	@ 0x400
 80048de:	42a8      	cmp	r0, r5
 80048e0:	d003      	beq.n	80048ea <TIM_OC1_SetConfig+0x46>
 80048e2:	f505 6580 	add.w	r5, r5, #1024	@ 0x400
 80048e6:	42a8      	cmp	r0, r5
 80048e8:	d10f      	bne.n	800490a <TIM_OC1_SetConfig+0x66>
 80048ea:	6a05      	ldr	r5, [r0, #32]
 80048ec:	f023 0308 	bic.w	r3, r3, #8
 80048f0:	f422 7240 	bic.w	r2, r2, #768	@ 0x300
 80048f4:	f025 0504 	bic.w	r5, r5, #4
 80048f8:	6205      	str	r5, [r0, #32]
 80048fa:	68cd      	ldr	r5, [r1, #12]
 80048fc:	432b      	orrs	r3, r5
 80048fe:	e9d1 6505 	ldrd	r6, r5, [r1, #20]
 8004902:	ea46 0c05 	orr.w	ip, r6, r5
 8004906:	ea4c 0202 	orr.w	r2, ip, r2
 800490a:	6849      	ldr	r1, [r1, #4]
 800490c:	6042      	str	r2, [r0, #4]
 800490e:	6184      	str	r4, [r0, #24]
 8004910:	6341      	str	r1, [r0, #52]	@ 0x34
 8004912:	6203      	str	r3, [r0, #32]
 8004914:	bc70      	pop	{r4, r5, r6}
 8004916:	4770      	bx	lr
 8004918:	fffeff8c 	.word	0xfffeff8c
 800491c:	40010000 	.word	0x40010000

08004920 <TIM_OC3_SetConfig>:
 8004920:	6a03      	ldr	r3, [r0, #32]
 8004922:	6a02      	ldr	r2, [r0, #32]
 8004924:	f423 7300 	bic.w	r3, r3, #512	@ 0x200
 8004928:	f422 7280 	bic.w	r2, r2, #256	@ 0x100
 800492c:	b470      	push	{r4, r5, r6}
 800492e:	6202      	str	r2, [r0, #32]
 8004930:	4c19      	ldr	r4, [pc, #100]	@ (8004998 <TIM_OC3_SetConfig+0x78>)
 8004932:	6842      	ldr	r2, [r0, #4]
 8004934:	69c5      	ldr	r5, [r0, #28]
 8004936:	402c      	ands	r4, r5
 8004938:	680d      	ldr	r5, [r1, #0]
 800493a:	432c      	orrs	r4, r5
 800493c:	688d      	ldr	r5, [r1, #8]
 800493e:	ea43 2305 	orr.w	r3, r3, r5, lsl #8
 8004942:	4d16      	ldr	r5, [pc, #88]	@ (800499c <TIM_OC3_SetConfig+0x7c>)
 8004944:	42a8      	cmp	r0, r5
 8004946:	d00f      	beq.n	8004968 <TIM_OC3_SetConfig+0x48>
 8004948:	f505 6580 	add.w	r5, r5, #1024	@ 0x400
 800494c:	42a8      	cmp	r0, r5
 800494e:	d00b      	beq.n	8004968 <TIM_OC3_SetConfig+0x48>
 8004950:	4e13      	ldr	r6, [pc, #76]	@ (80049a0 <TIM_OC3_SetConfig+0x80>)
 8004952:	f505 4580 	add.w	r5, r5, #16384	@ 0x4000
 8004956:	42a8      	cmp	r0, r5
 8004958:	bf18      	it	ne
 800495a:	42b0      	cmpne	r0, r6
 800495c:	d00d      	beq.n	800497a <TIM_OC3_SetConfig+0x5a>
 800495e:	f505 6580 	add.w	r5, r5, #1024	@ 0x400
 8004962:	42a8      	cmp	r0, r5
 8004964:	d111      	bne.n	800498a <TIM_OC3_SetConfig+0x6a>
 8004966:	e008      	b.n	800497a <TIM_OC3_SetConfig+0x5a>
 8004968:	6a05      	ldr	r5, [r0, #32]
 800496a:	f423 6300 	bic.w	r3, r3, #2048	@ 0x800
 800496e:	f425 6580 	bic.w	r5, r5, #1024	@ 0x400
 8004972:	6205      	str	r5, [r0, #32]
 8004974:	68cd      	ldr	r5, [r1, #12]
 8004976:	ea43 2305 	orr.w	r3, r3, r5, lsl #8
 800497a:	f422 5240 	bic.w	r2, r2, #12288	@ 0x3000
 800497e:	e9d1 6505 	ldrd	r6, r5, [r1, #20]
 8004982:	ea46 0c05 	orr.w	ip, r6, r5
 8004986:	ea42 120c 	orr.w	r2, r2, ip, lsl #4
 800498a:	6849      	ldr	r1, [r1, #4]
 800498c:	6042      	str	r2, [r0, #4]
 800498e:	61c4      	str	r4, [r0, #28]
 8004990:	63c1      	str	r1, [r0, #60]	@ 0x3c
 8004992:	6203      	str	r3, [r0, #32]
 8004994:	bc70      	pop	{r4, r5, r6}
 8004996:	4770      	bx	lr
 8004998:	fffeff8c 	.word	0xfffeff8c
 800499c:	40010000 	.word	0x40010000
 80049a0:	40014000 	.word	0x40014000

080049a4 <HAL_TIM_Base_Init>:
 80049a4:	2800      	cmp	r0, #0
 80049a6:	f000 809c 	beq.w	8004ae2 <HAL_TIM_Base_Init+0x13e>
 80049aa:	b5f8      	push	{r3, r4, r5, r6, r7, lr}
 80049ac:	f890 303d 	ldrb.w	r3, [r0, #61]	@ 0x3d
 80049b0:	4604      	mov	r4, r0
 80049b2:	f003 02ff 	and.w	r2, r3, #255	@ 0xff
 80049b6:	2b00      	cmp	r3, #0
 80049b8:	f000 808e 	beq.w	8004ad8 <HAL_TIM_Base_Init+0x134>
 80049bc:	6823      	ldr	r3, [r4, #0]
 80049be:	2202      	movs	r2, #2
 80049c0:	4949      	ldr	r1, [pc, #292]	@ (8004ae8 <HAL_TIM_Base_Init+0x144>)
 80049c2:	4d4a      	ldr	r5, [pc, #296]	@ (8004aec <HAL_TIM_Base_Init+0x148>)
 80049c4:	f1b3 4f80 	cmp.w	r3, #1073741824	@ 0x40000000
 80049c8:	eba3 0101 	sub.w	r1, r3, r1
 80049cc:	f884 203d 	strb.w	r2, [r4, #61]	@ 0x3d
 80049d0:	eba3 0e05 	sub.w	lr, r3, r5
 80049d4:	681a      	ldr	r2, [r3, #0]
 80049d6:	fab1 f181 	clz	r1, r1
 80049da:	69a0      	ldr	r0, [r4, #24]
 80049dc:	fabe fe8e 	clz	lr, lr
 80049e0:	68e7      	ldr	r7, [r4, #12]
 80049e2:	ea4f 1151 	mov.w	r1, r1, lsr #5
 80049e6:	6866      	ldr	r6, [r4, #4]
 80049e8:	ea4f 1e5e 	mov.w	lr, lr, lsr #5
 80049ec:	d026      	beq.n	8004a3c <HAL_TIM_Base_Init+0x98>
 80049ee:	bb29      	cbnz	r1, 8004a3c <HAL_TIM_Base_Init+0x98>
 80049f0:	f8df c10c 	ldr.w	ip, [pc, #268]	@ 8004b00 <HAL_TIM_Base_Init+0x15c>
 80049f4:	4563      	cmp	r3, ip
 80049f6:	d057      	beq.n	8004aa8 <HAL_TIM_Base_Init+0x104>
 80049f8:	f50c 6c80 	add.w	ip, ip, #1024	@ 0x400
 80049fc:	4563      	cmp	r3, ip
 80049fe:	d053      	beq.n	8004aa8 <HAL_TIM_Base_Init+0x104>
 8004a00:	f50c 6c80 	add.w	ip, ip, #1024	@ 0x400
 8004a04:	4563      	cmp	r3, ip
 8004a06:	d019      	beq.n	8004a3c <HAL_TIM_Base_Init+0x98>
 8004a08:	f1be 0f00 	cmp.w	lr, #0
 8004a0c:	d116      	bne.n	8004a3c <HAL_TIM_Base_Init+0x98>
 8004a0e:	4938      	ldr	r1, [pc, #224]	@ (8004af0 <HAL_TIM_Base_Init+0x14c>)
 8004a10:	428b      	cmp	r3, r1
 8004a12:	d04d      	beq.n	8004ab0 <HAL_TIM_Base_Init+0x10c>
 8004a14:	f501 6180 	add.w	r1, r1, #1024	@ 0x400
 8004a18:	428b      	cmp	r3, r1
 8004a1a:	d049      	beq.n	8004ab0 <HAL_TIM_Base_Init+0x10c>
 8004a1c:	4d35      	ldr	r5, [pc, #212]	@ (8004af4 <HAL_TIM_Base_Init+0x150>)
 8004a1e:	4936      	ldr	r1, [pc, #216]	@ (8004af8 <HAL_TIM_Base_Init+0x154>)
 8004a20:	428b      	cmp	r3, r1
 8004a22:	bf18      	it	ne
 8004a24:	42ab      	cmpne	r3, r5
 8004a26:	d043      	beq.n	8004ab0 <HAL_TIM_Base_Init+0x10c>
 8004a28:	f501 6180 	add.w	r1, r1, #1024	@ 0x400
 8004a2c:	428b      	cmp	r3, r1
 8004a2e:	d03f      	beq.n	8004ab0 <HAL_TIM_Base_Init+0x10c>
 8004a30:	f022 0280 	bic.w	r2, r2, #128	@ 0x80
 8004a34:	62df      	str	r7, [r3, #44]	@ 0x2c
 8004a36:	629e      	str	r6, [r3, #40]	@ 0x28
 8004a38:	4310      	orrs	r0, r2
 8004a3a:	e014      	b.n	8004a66 <HAL_TIM_Base_Init+0xc2>
 8004a3c:	68a5      	ldr	r5, [r4, #8]
 8004a3e:	f022 0270 	bic.w	r2, r2, #112	@ 0x70
 8004a42:	f8d4 c010 	ldr.w	ip, [r4, #16]
 8004a46:	432a      	orrs	r2, r5
 8004a48:	62df      	str	r7, [r3, #44]	@ 0x2c
 8004a4a:	629e      	str	r6, [r3, #40]	@ 0x28
 8004a4c:	f422 7240 	bic.w	r2, r2, #768	@ 0x300
 8004a50:	ea42 020c 	orr.w	r2, r2, ip
 8004a54:	f022 0280 	bic.w	r2, r2, #128	@ 0x80
 8004a58:	4310      	orrs	r0, r2
 8004a5a:	b911      	cbnz	r1, 8004a62 <HAL_TIM_Base_Init+0xbe>
 8004a5c:	f1be 0f00 	cmp.w	lr, #0
 8004a60:	d02f      	beq.n	8004ac2 <HAL_TIM_Base_Init+0x11e>
 8004a62:	6962      	ldr	r2, [r4, #20]
 8004a64:	631a      	str	r2, [r3, #48]	@ 0x30
 8004a66:	6819      	ldr	r1, [r3, #0]
 8004a68:	2201      	movs	r2, #1
 8004a6a:	f041 0104 	orr.w	r1, r1, #4
 8004a6e:	6019      	str	r1, [r3, #0]
 8004a70:	615a      	str	r2, [r3, #20]
 8004a72:	6018      	str	r0, [r3, #0]
 8004a74:	2000      	movs	r0, #0
 8004a76:	f884 2048 	strb.w	r2, [r4, #72]	@ 0x48
 8004a7a:	f884 203e 	strb.w	r2, [r4, #62]	@ 0x3e
 8004a7e:	f884 203f 	strb.w	r2, [r4, #63]	@ 0x3f
 8004a82:	f884 2040 	strb.w	r2, [r4, #64]	@ 0x40
 8004a86:	f884 2041 	strb.w	r2, [r4, #65]	@ 0x41
 8004a8a:	f884 2042 	strb.w	r2, [r4, #66]	@ 0x42
 8004a8e:	f884 2043 	strb.w	r2, [r4, #67]	@ 0x43
 8004a92:	f884 2044 	strb.w	r2, [r4, #68]	@ 0x44
 8004a96:	f884 2045 	strb.w	r2, [r4, #69]	@ 0x45
 8004a9a:	f884 2046 	strb.w	r2, [r4, #70]	@ 0x46
 8004a9e:	f884 2047 	strb.w	r2, [r4, #71]	@ 0x47
 8004aa2:	f884 203d 	strb.w	r2, [r4, #61]	@ 0x3d
 8004aa6:	bdf8      	pop	{r3, r4, r5, r6, r7, pc}
 8004aa8:	f022 0270 	bic.w	r2, r2, #112	@ 0x70
 8004aac:	68a1      	ldr	r1, [r4, #8]
 8004aae:	430a      	orrs	r2, r1
 8004ab0:	6921      	ldr	r1, [r4, #16]
 8004ab2:	f422 7240 	bic.w	r2, r2, #768	@ 0x300
 8004ab6:	62df      	str	r7, [r3, #44]	@ 0x2c
 8004ab8:	430a      	orrs	r2, r1
 8004aba:	629e      	str	r6, [r3, #40]	@ 0x28
 8004abc:	f022 0280 	bic.w	r2, r2, #128	@ 0x80
 8004ac0:	4310      	orrs	r0, r2
 8004ac2:	490b      	ldr	r1, [pc, #44]	@ (8004af0 <HAL_TIM_Base_Init+0x14c>)
 8004ac4:	4a0d      	ldr	r2, [pc, #52]	@ (8004afc <HAL_TIM_Base_Init+0x158>)
 8004ac6:	4293      	cmp	r3, r2
 8004ac8:	bf18      	it	ne
 8004aca:	428b      	cmpne	r3, r1
 8004acc:	d0c9      	beq.n	8004a62 <HAL_TIM_Base_Init+0xbe>
 8004ace:	f502 6280 	add.w	r2, r2, #1024	@ 0x400
 8004ad2:	4293      	cmp	r3, r2
 8004ad4:	d0c5      	beq.n	8004a62 <HAL_TIM_Base_Init+0xbe>
 8004ad6:	e7c6      	b.n	8004a66 <HAL_TIM_Base_Init+0xc2>
 8004ad8:	f880 203c 	strb.w	r2, [r0, #60]	@ 0x3c
 8004adc:	f7fc f9e6 	bl	8000eac <HAL_TIM_Base_MspInit>
 8004ae0:	e76c      	b.n	80049bc <HAL_TIM_Base_Init+0x18>
 8004ae2:	2001      	movs	r0, #1
 8004ae4:	4770      	bx	lr
 8004ae6:	bf00      	nop
 8004ae8:	40010000 	.word	0x40010000
 8004aec:	40010400 	.word	0x40010400
 8004af0:	40014000 	.word	0x40014000
 8004af4:	40014800 	.word	0x40014800
 8004af8:	4000e000 	.word	0x4000e000
 8004afc:	40014400 	.word	0x40014400
 8004b00:	40000400 	.word	0x40000400

08004b04 <HAL_TIM_Base_Start_IT>:
 8004b04:	f890 303d 	ldrb.w	r3, [r0, #61]	@ 0x3d
 8004b08:	2b01      	cmp	r3, #1
 8004b0a:	d149      	bne.n	8004ba0 <HAL_TIM_Base_Start_IT+0x9c>
 8004b0c:	6802      	ldr	r2, [r0, #0]
 8004b0e:	2102      	movs	r1, #2
 8004b10:	4b24      	ldr	r3, [pc, #144]	@ (8004ba4 <HAL_TIM_Base_Start_IT+0xa0>)
 8004b12:	f1b2 4f80 	cmp.w	r2, #1073741824	@ 0x40000000
 8004b16:	bf18      	it	ne
 8004b18:	429a      	cmpne	r2, r3
 8004b1a:	b430      	push	{r4, r5}
 8004b1c:	bf0c      	ite	eq
 8004b1e:	2301      	moveq	r3, #1
 8004b20:	2300      	movne	r3, #0
 8004b22:	4d21      	ldr	r5, [pc, #132]	@ (8004ba8 <HAL_TIM_Base_Start_IT+0xa4>)
 8004b24:	4c21      	ldr	r4, [pc, #132]	@ (8004bac <HAL_TIM_Base_Start_IT+0xa8>)
 8004b26:	42aa      	cmp	r2, r5
 8004b28:	bf08      	it	eq
 8004b2a:	f043 0301 	orreq.w	r3, r3, #1
 8004b2e:	f880 103d 	strb.w	r1, [r0, #61]	@ 0x3d
 8004b32:	481f      	ldr	r0, [pc, #124]	@ (8004bb0 <HAL_TIM_Base_Start_IT+0xac>)
 8004b34:	42a2      	cmp	r2, r4
 8004b36:	bf08      	it	eq
 8004b38:	f043 0301 	orreq.w	r3, r3, #1
 8004b3c:	f504 6480 	add.w	r4, r4, #1024	@ 0x400
 8004b40:	68d1      	ldr	r1, [r2, #12]
 8004b42:	42a2      	cmp	r2, r4
 8004b44:	bf08      	it	eq
 8004b46:	f043 0301 	orreq.w	r3, r3, #1
 8004b4a:	f504 6440 	add.w	r4, r4, #3072	@ 0xc00
 8004b4e:	f041 0101 	orr.w	r1, r1, #1
 8004b52:	4282      	cmp	r2, r0
 8004b54:	bf08      	it	eq
 8004b56:	f043 0301 	orreq.w	r3, r3, #1
 8004b5a:	f500 5070 	add.w	r0, r0, #15360	@ 0x3c00
 8004b5e:	60d1      	str	r1, [r2, #12]
 8004b60:	42a2      	cmp	r2, r4
 8004b62:	bf08      	it	eq
 8004b64:	f043 0301 	orreq.w	r3, r3, #1
 8004b68:	4912      	ldr	r1, [pc, #72]	@ (8004bb4 <HAL_TIM_Base_Start_IT+0xb0>)
 8004b6a:	4282      	cmp	r2, r0
 8004b6c:	bf08      	it	eq
 8004b6e:	f043 0301 	orreq.w	r3, r3, #1
 8004b72:	428a      	cmp	r2, r1
 8004b74:	bf08      	it	eq
 8004b76:	f043 0301 	orreq.w	r3, r3, #1
 8004b7a:	b913      	cbnz	r3, 8004b82 <HAL_TIM_Base_Start_IT+0x7e>
 8004b7c:	4b0e      	ldr	r3, [pc, #56]	@ (8004bb8 <HAL_TIM_Base_Start_IT+0xb4>)
 8004b7e:	429a      	cmp	r2, r3
 8004b80:	d107      	bne.n	8004b92 <HAL_TIM_Base_Start_IT+0x8e>
 8004b82:	6891      	ldr	r1, [r2, #8]
 8004b84:	4b0d      	ldr	r3, [pc, #52]	@ (8004bbc <HAL_TIM_Base_Start_IT+0xb8>)
 8004b86:	400b      	ands	r3, r1
 8004b88:	2b06      	cmp	r3, #6
 8004b8a:	d006      	beq.n	8004b9a <HAL_TIM_Base_Start_IT+0x96>
 8004b8c:	f5b3 3f80 	cmp.w	r3, #65536	@ 0x10000
 8004b90:	d003      	beq.n	8004b9a <HAL_TIM_Base_Start_IT+0x96>
 8004b92:	6813      	ldr	r3, [r2, #0]
 8004b94:	f043 0301 	orr.w	r3, r3, #1
 8004b98:	6013      	str	r3, [r2, #0]
 8004b9a:	2000      	movs	r0, #0
 8004b9c:	bc30      	pop	{r4, r5}
 8004b9e:	4770      	bx	lr
 8004ba0:	2001      	movs	r0, #1
 8004ba2:	4770      	bx	lr
 8004ba4:	40010000 	.word	0x40010000
 8004ba8:	40000400 	.word	0x40000400
 8004bac:	40000800 	.word	0x40000800
 8004bb0:	40010400 	.word	0x40010400
 8004bb4:	4000e000 	.word	0x4000e000
 8004bb8:	4000e400 	.word	0x4000e400
 8004bbc:	00010007 	.word	0x00010007

08004bc0 <HAL_TIM_OC_MspInit>:
 8004bc0:	4770      	bx	lr
 8004bc2:	bf00      	nop

08004bc4 <HAL_TIM_OC_Init>:
 8004bc4:	2800      	cmp	r0, #0
 8004bc6:	f000 809c 	beq.w	8004d02 <HAL_TIM_OC_Init+0x13e>
 8004bca:	b5f8      	push	{r3, r4, r5, r6, r7, lr}
 8004bcc:	f890 303d 	ldrb.w	r3, [r0, #61]	@ 0x3d
 8004bd0:	4604      	mov	r4, r0
 8004bd2:	f003 02ff 	and.w	r2, r3, #255	@ 0xff
 8004bd6:	2b00      	cmp	r3, #0
 8004bd8:	f000 808e 	beq.w	8004cf8 <HAL_TIM_OC_Init+0x134>
 8004bdc:	6823      	ldr	r3, [r4, #0]
 8004bde:	2202      	movs	r2, #2
 8004be0:	4949      	ldr	r1, [pc, #292]	@ (8004d08 <HAL_TIM_OC_Init+0x144>)
 8004be2:	4d4a      	ldr	r5, [pc, #296]	@ (8004d0c <HAL_TIM_OC_Init+0x148>)
 8004be4:	f1b3 4f80 	cmp.w	r3, #1073741824	@ 0x40000000
 8004be8:	eba3 0101 	sub.w	r1, r3, r1
 8004bec:	f884 203d 	strb.w	r2, [r4, #61]	@ 0x3d
 8004bf0:	eba3 0e05 	sub.w	lr, r3, r5
 8004bf4:	681a      	ldr	r2, [r3, #0]
 8004bf6:	fab1 f181 	clz	r1, r1
 8004bfa:	69a0      	ldr	r0, [r4, #24]
 8004bfc:	fabe fe8e 	clz	lr, lr
 8004c00:	68e7      	ldr	r7, [r4, #12]
 8004c02:	ea4f 1151 	mov.w	r1, r1, lsr #5
 8004c06:	6866      	ldr	r6, [r4, #4]
 8004c08:	ea4f 1e5e 	mov.w	lr, lr, lsr #5
 8004c0c:	d026      	beq.n	8004c5c <HAL_TIM_OC_Init+0x98>
 8004c0e:	bb29      	cbnz	r1, 8004c5c <HAL_TIM_OC_Init+0x98>
 8004c10:	f8df c10c 	ldr.w	ip, [pc, #268]	@ 8004d20 <HAL_TIM_OC_Init+0x15c>
 8004c14:	4563      	cmp	r3, ip
 8004c16:	d057      	beq.n	8004cc8 <HAL_TIM_OC_Init+0x104>
 8004c18:	f50c 6c80 	add.w	ip, ip, #1024	@ 0x400
 8004c1c:	4563      	cmp	r3, ip
 8004c1e:	d053      	beq.n	8004cc8 <HAL_TIM_OC_Init+0x104>
 8004c20:	f50c 6c80 	add.w	ip, ip, #1024	@ 0x400
 8004c24:	4563      	cmp	r3, ip
 8004c26:	d019      	beq.n	8004c5c <HAL_TIM_OC_Init+0x98>
 8004c28:	f1be 0f00 	cmp.w	lr, #0
 8004c2c:	d116      	bne.n	8004c5c <HAL_TIM_OC_Init+0x98>
 8004c2e:	4938      	ldr	r1, [pc, #224]	@ (8004d10 <HAL_TIM_OC_Init+0x14c>)
 8004c30:	428b      	cmp	r3, r1
 8004c32:	d04d      	beq.n	8004cd0 <HAL_TIM_OC_Init+0x10c>
 8004c34:	f501 6180 	add.w	r1, r1, #1024	@ 0x400
 8004c38:	428b      	cmp	r3, r1
 8004c3a:	d049      	beq.n	8004cd0 <HAL_TIM_OC_Init+0x10c>
 8004c3c:	4d35      	ldr	r5, [pc, #212]	@ (8004d14 <HAL_TIM_OC_Init+0x150>)
 8004c3e:	4936      	ldr	r1, [pc, #216]	@ (8004d18 <HAL_TIM_OC_Init+0x154>)
 8004c40:	428b      	cmp	r3, r1
 8004c42:	bf18      	it	ne
 8004c44:	42ab      	cmpne	r3, r5
 8004c46:	d043      	beq.n	8004cd0 <HAL_TIM_OC_Init+0x10c>
 8004c48:	f501 6180 	add.w	r1, r1, #1024	@ 0x400
 8004c4c:	428b      	cmp	r3, r1
 8004c4e:	d03f      	beq.n	8004cd0 <HAL_TIM_OC_Init+0x10c>
 8004c50:	f022 0280 	bic.w	r2, r2, #128	@ 0x80
 8004c54:	62df      	str	r7, [r3, #44]	@ 0x2c
 8004c56:	629e      	str	r6, [r3, #40]	@ 0x28
 8004c58:	4310      	orrs	r0, r2
 8004c5a:	e014      	b.n	8004c86 <HAL_TIM_OC_Init+0xc2>
 8004c5c:	68a5      	ldr	r5, [r4, #8]
 8004c5e:	f022 0270 	bic.w	r2, r2, #112	@ 0x70
 8004c62:	f8d4 c010 	ldr.w	ip, [r4, #16]
 8004c66:	432a      	orrs	r2, r5
 8004c68:	62df      	str	r7, [r3, #44]	@ 0x2c
 8004c6a:	629e      	str	r6, [r3, #40]	@ 0x28
 8004c6c:	f422 7240 	bic.w	r2, r2, #768	@ 0x300
 8004c70:	ea42 020c 	orr.w	r2, r2, ip
 8004c74:	f022 0280 	bic.w	r2, r2, #128	@ 0x80
 8004c78:	4310      	orrs	r0, r2
 8004c7a:	b911      	cbnz	r1, 8004c82 <HAL_TIM_OC_Init+0xbe>
 8004c7c:	f1be 0f00 	cmp.w	lr, #0
 8004c80:	d02f      	beq.n	8004ce2 <HAL_TIM_OC_Init+0x11e>
 8004c82:	6962      	ldr	r2, [r4, #20]
 8004c84:	631a      	str	r2, [r3, #48]	@ 0x30
 8004c86:	6819      	ldr	r1, [r3, #0]
 8004c88:	2201      	movs	r2, #1
 8004c8a:	f041 0104 	orr.w	r1, r1, #4
 8004c8e:	6019      	str	r1, [r3, #0]
 8004c90:	615a      	str	r2, [r3, #20]
 8004c92:	6018      	str	r0, [r3, #0]
 8004c94:	2000      	movs	r0, #0
 8004c96:	f884 2048 	strb.w	r2, [r4, #72]	@ 0x48
 8004c9a:	f884 203e 	strb.w	r2, [r4, #62]	@ 0x3e
 8004c9e:	f884 203f 	strb.w	r2, [r4, #63]	@ 0x3f
 8004ca2:	f884 2040 	strb.w	r2, [r4, #64]	@ 0x40
 8004ca6:	f884 2041 	strb.w	r2, [r4, #65]	@ 0x41
 8004caa:	f884 2042 	strb.w	r2, [r4, #66]	@ 0x42
 8004cae:	f884 2043 	strb.w	r2, [r4, #67]	@ 0x43
 8004cb2:	f884 2044 	strb.w	r2, [r4, #68]	@ 0x44
 8004cb6:	f884 2045 	strb.w	r2, [r4, #69]	@ 0x45
 8004cba:	f884 2046 	strb.w	r2, [r4, #70]	@ 0x46
 8004cbe:	f884 2047 	strb.w	r2, [r4, #71]	@ 0x47
 8004cc2:	f884 203d 	strb.w	r2, [r4, #61]	@ 0x3d
 8004cc6:	bdf8      	pop	{r3, r4, r5, r6, r7, pc}
 8004cc8:	f022 0270 	bic.w	r2, r2, #112	@ 0x70
 8004ccc:	68a1      	ldr	r1, [r4, #8]
 8004cce:	430a      	orrs	r2, r1
 8004cd0:	6921      	ldr	r1, [r4, #16]
 8004cd2:	f422 7240 	bic.w	r2, r2, #768	@ 0x300
 8004cd6:	62df      	str	r7, [r3, #44]	@ 0x2c
 8004cd8:	430a      	orrs	r2, r1
 8004cda:	629e      	str	r6, [r3, #40]	@ 0x28
 8004cdc:	f022 0280 	bic.w	r2, r2, #128	@ 0x80
 8004ce0:	4310      	orrs	r0, r2
 8004ce2:	490b      	ldr	r1, [pc, #44]	@ (8004d10 <HAL_TIM_OC_Init+0x14c>)
 8004ce4:	4a0d      	ldr	r2, [pc, #52]	@ (8004d1c <HAL_TIM_OC_Init+0x158>)
 8004ce6:	4293      	cmp	r3, r2
 8004ce8:	bf18      	it	ne
 8004cea:	428b      	cmpne	r3, r1
 8004cec:	d0c9      	beq.n	8004c82 <HAL_TIM_OC_Init+0xbe>
 8004cee:	f502 6280 	add.w	r2, r2, #1024	@ 0x400
 8004cf2:	4293      	cmp	r3, r2
 8004cf4:	d0c5      	beq.n	8004c82 <HAL_TIM_OC_Init+0xbe>
 8004cf6:	e7c6      	b.n	8004c86 <HAL_TIM_OC_Init+0xc2>
 8004cf8:	f880 203c 	strb.w	r2, [r0, #60]	@ 0x3c
 8004cfc:	f7ff ff60 	bl	8004bc0 <HAL_TIM_OC_MspInit>
 8004d00:	e76c      	b.n	8004bdc <HAL_TIM_OC_Init+0x18>
 8004d02:	2001      	movs	r0, #1
 8004d04:	4770      	bx	lr
 8004d06:	bf00      	nop
 8004d08:	40010000 	.word	0x40010000
 8004d0c:	40010400 	.word	0x40010400
 8004d10:	40014000 	.word	0x40014000
 8004d14:	40014800 	.word	0x40014800
 8004d18:	4000e000 	.word	0x4000e000
 8004d1c:	40014400 	.word	0x40014400
 8004d20:	40000400 	.word	0x40000400

08004d24 <HAL_TIM_ConfigClockSource>:
 8004d24:	f890 203c 	ldrb.w	r2, [r0, #60]	@ 0x3c
 8004d28:	2a01      	cmp	r2, #1
 8004d2a:	f000 808d 	beq.w	8004e48 <HAL_TIM_ConfigClockSource+0x124>
 8004d2e:	6802      	ldr	r2, [r0, #0]
 8004d30:	4603      	mov	r3, r0
 8004d32:	2001      	movs	r0, #1
 8004d34:	b470      	push	{r4, r5, r6}
 8004d36:	2402      	movs	r4, #2
 8004d38:	f883 003c 	strb.w	r0, [r3, #60]	@ 0x3c
 8004d3c:	f883 403d 	strb.w	r4, [r3, #61]	@ 0x3d
 8004d40:	4c76      	ldr	r4, [pc, #472]	@ (8004f1c <HAL_TIM_ConfigClockSource+0x1f8>)
 8004d42:	6895      	ldr	r5, [r2, #8]
 8004d44:	402c      	ands	r4, r5
 8004d46:	6094      	str	r4, [r2, #8]
 8004d48:	680c      	ldr	r4, [r1, #0]
 8004d4a:	2c70      	cmp	r4, #112	@ 0x70
 8004d4c:	f000 808e 	beq.w	8004e6c <HAL_TIM_ConfigClockSource+0x148>
 8004d50:	d834      	bhi.n	8004dbc <HAL_TIM_ConfigClockSource+0x98>
 8004d52:	2c50      	cmp	r4, #80	@ 0x50
 8004d54:	f000 809a 	beq.w	8004e8c <HAL_TIM_ConfigClockSource+0x168>
 8004d58:	d840      	bhi.n	8004ddc <HAL_TIM_ConfigClockSource+0xb8>
 8004d5a:	2c40      	cmp	r4, #64	@ 0x40
 8004d5c:	f040 80c4 	bne.w	8004ee8 <HAL_TIM_ConfigClockSource+0x1c4>
 8004d60:	684c      	ldr	r4, [r1, #4]
 8004d62:	68cd      	ldr	r5, [r1, #12]
 8004d64:	6a11      	ldr	r1, [r2, #32]
 8004d66:	6a10      	ldr	r0, [r2, #32]
 8004d68:	f020 0001 	bic.w	r0, r0, #1
 8004d6c:	6210      	str	r0, [r2, #32]
 8004d6e:	486c      	ldr	r0, [pc, #432]	@ (8004f20 <HAL_TIM_ConfigClockSource+0x1fc>)
 8004d70:	4282      	cmp	r2, r0
 8004d72:	d00e      	beq.n	8004d92 <HAL_TIM_ConfigClockSource+0x6e>
 8004d74:	f500 6080 	add.w	r0, r0, #1024	@ 0x400
 8004d78:	4282      	cmp	r2, r0
 8004d7a:	d00a      	beq.n	8004d92 <HAL_TIM_ConfigClockSource+0x6e>
 8004d7c:	4e69      	ldr	r6, [pc, #420]	@ (8004f24 <HAL_TIM_ConfigClockSource+0x200>)
 8004d7e:	f500 4080 	add.w	r0, r0, #16384	@ 0x4000
 8004d82:	4282      	cmp	r2, r0
 8004d84:	bf18      	it	ne
 8004d86:	42b2      	cmpne	r2, r6
 8004d88:	d003      	beq.n	8004d92 <HAL_TIM_ConfigClockSource+0x6e>
 8004d8a:	f500 6080 	add.w	r0, r0, #1024	@ 0x400
 8004d8e:	4282      	cmp	r2, r0
 8004d90:	d103      	bne.n	8004d9a <HAL_TIM_ConfigClockSource+0x76>
 8004d92:	6a10      	ldr	r0, [r2, #32]
 8004d94:	f020 0004 	bic.w	r0, r0, #4
 8004d98:	6210      	str	r0, [r2, #32]
 8004d9a:	6990      	ldr	r0, [r2, #24]
 8004d9c:	f021 010a 	bic.w	r1, r1, #10
 8004da0:	f020 00f0 	bic.w	r0, r0, #240	@ 0xf0
 8004da4:	430c      	orrs	r4, r1
 8004da6:	4960      	ldr	r1, [pc, #384]	@ (8004f28 <HAL_TIM_ConfigClockSource+0x204>)
 8004da8:	ea40 1005 	orr.w	r0, r0, r5, lsl #4
 8004dac:	6190      	str	r0, [r2, #24]
 8004dae:	6214      	str	r4, [r2, #32]
 8004db0:	6890      	ldr	r0, [r2, #8]
 8004db2:	4001      	ands	r1, r0
 8004db4:	f041 0147 	orr.w	r1, r1, #71	@ 0x47
 8004db8:	6091      	str	r1, [r2, #8]
 8004dba:	e031      	b.n	8004e20 <HAL_TIM_ConfigClockSource+0xfc>
 8004dbc:	f5b4 5f00 	cmp.w	r4, #8192	@ 0x2000
 8004dc0:	d044      	beq.n	8004e4c <HAL_TIM_ConfigClockSource+0x128>
 8004dc2:	d82f      	bhi.n	8004e24 <HAL_TIM_ConfigClockSource+0x100>
 8004dc4:	f5b4 5080 	subs.w	r0, r4, #4096	@ 0x1000
 8004dc8:	bf18      	it	ne
 8004dca:	2001      	movne	r0, #1
 8004dcc:	2101      	movs	r1, #1
 8004dce:	2200      	movs	r2, #0
 8004dd0:	f883 103d 	strb.w	r1, [r3, #61]	@ 0x3d
 8004dd4:	f883 203c 	strb.w	r2, [r3, #60]	@ 0x3c
 8004dd8:	bc70      	pop	{r4, r5, r6}
 8004dda:	4770      	bx	lr
 8004ddc:	2c60      	cmp	r4, #96	@ 0x60
 8004dde:	d1f5      	bne.n	8004dcc <HAL_TIM_ConfigClockSource+0xa8>
 8004de0:	684c      	ldr	r4, [r1, #4]
 8004de2:	68cd      	ldr	r5, [r1, #12]
 8004de4:	6a10      	ldr	r0, [r2, #32]
 8004de6:	6a11      	ldr	r1, [r2, #32]
 8004de8:	f021 0110 	bic.w	r1, r1, #16
 8004dec:	6211      	str	r1, [r2, #32]
 8004dee:	494c      	ldr	r1, [pc, #304]	@ (8004f20 <HAL_TIM_ConfigClockSource+0x1fc>)
 8004df0:	428a      	cmp	r2, r1
 8004df2:	f000 8083 	beq.w	8004efc <HAL_TIM_ConfigClockSource+0x1d8>
 8004df6:	f501 6180 	add.w	r1, r1, #1024	@ 0x400
 8004dfa:	428a      	cmp	r2, r1
 8004dfc:	d07e      	beq.n	8004efc <HAL_TIM_ConfigClockSource+0x1d8>
 8004dfe:	f020 00a0 	bic.w	r0, r0, #160	@ 0xa0
 8004e02:	4949      	ldr	r1, [pc, #292]	@ (8004f28 <HAL_TIM_ConfigClockSource+0x204>)
 8004e04:	ea40 1004 	orr.w	r0, r0, r4, lsl #4
 8004e08:	6994      	ldr	r4, [r2, #24]
 8004e0a:	f424 4470 	bic.w	r4, r4, #61440	@ 0xf000
 8004e0e:	ea44 3405 	orr.w	r4, r4, r5, lsl #12
 8004e12:	6194      	str	r4, [r2, #24]
 8004e14:	6210      	str	r0, [r2, #32]
 8004e16:	6890      	ldr	r0, [r2, #8]
 8004e18:	4001      	ands	r1, r0
 8004e1a:	f041 0167 	orr.w	r1, r1, #103	@ 0x67
 8004e1e:	6091      	str	r1, [r2, #8]
 8004e20:	2000      	movs	r0, #0
 8004e22:	e7d3      	b.n	8004dcc <HAL_TIM_ConfigClockSource+0xa8>
 8004e24:	4941      	ldr	r1, [pc, #260]	@ (8004f2c <HAL_TIM_ConfigClockSource+0x208>)
 8004e26:	428c      	cmp	r4, r1
 8004e28:	d006      	beq.n	8004e38 <HAL_TIM_ConfigClockSource+0x114>
 8004e2a:	d96c      	bls.n	8004f06 <HAL_TIM_ConfigClockSource+0x1e2>
 8004e2c:	4940      	ldr	r1, [pc, #256]	@ (8004f30 <HAL_TIM_ConfigClockSource+0x20c>)
 8004e2e:	428c      	cmp	r4, r1
 8004e30:	d002      	beq.n	8004e38 <HAL_TIM_ConfigClockSource+0x114>
 8004e32:	3110      	adds	r1, #16
 8004e34:	428c      	cmp	r4, r1
 8004e36:	d1c9      	bne.n	8004dcc <HAL_TIM_ConfigClockSource+0xa8>
 8004e38:	6890      	ldr	r0, [r2, #8]
 8004e3a:	493b      	ldr	r1, [pc, #236]	@ (8004f28 <HAL_TIM_ConfigClockSource+0x204>)
 8004e3c:	4001      	ands	r1, r0
 8004e3e:	4321      	orrs	r1, r4
 8004e40:	f041 0107 	orr.w	r1, r1, #7
 8004e44:	6091      	str	r1, [r2, #8]
 8004e46:	e7eb      	b.n	8004e20 <HAL_TIM_ConfigClockSource+0xfc>
 8004e48:	2002      	movs	r0, #2
 8004e4a:	4770      	bx	lr
 8004e4c:	e9d1 5001 	ldrd	r5, r0, [r1, #4]
 8004e50:	6894      	ldr	r4, [r2, #8]
 8004e52:	4328      	orrs	r0, r5
 8004e54:	68cd      	ldr	r5, [r1, #12]
 8004e56:	f424 417f 	bic.w	r1, r4, #65280	@ 0xff00
 8004e5a:	ea40 2005 	orr.w	r0, r0, r5, lsl #8
 8004e5e:	4308      	orrs	r0, r1
 8004e60:	6090      	str	r0, [r2, #8]
 8004e62:	6891      	ldr	r1, [r2, #8]
 8004e64:	f441 4180 	orr.w	r1, r1, #16384	@ 0x4000
 8004e68:	6091      	str	r1, [r2, #8]
 8004e6a:	e7d9      	b.n	8004e20 <HAL_TIM_ConfigClockSource+0xfc>
 8004e6c:	e9d1 5001 	ldrd	r5, r0, [r1, #4]
 8004e70:	6894      	ldr	r4, [r2, #8]
 8004e72:	4328      	orrs	r0, r5
 8004e74:	68cd      	ldr	r5, [r1, #12]
 8004e76:	f424 417f 	bic.w	r1, r4, #65280	@ 0xff00
 8004e7a:	ea40 2005 	orr.w	r0, r0, r5, lsl #8
 8004e7e:	4308      	orrs	r0, r1
 8004e80:	6090      	str	r0, [r2, #8]
 8004e82:	6891      	ldr	r1, [r2, #8]
 8004e84:	f041 0177 	orr.w	r1, r1, #119	@ 0x77
 8004e88:	6091      	str	r1, [r2, #8]
 8004e8a:	e7c9      	b.n	8004e20 <HAL_TIM_ConfigClockSource+0xfc>
 8004e8c:	684c      	ldr	r4, [r1, #4]
 8004e8e:	68cd      	ldr	r5, [r1, #12]
 8004e90:	6a11      	ldr	r1, [r2, #32]
 8004e92:	6a10      	ldr	r0, [r2, #32]
 8004e94:	f020 0001 	bic.w	r0, r0, #1
 8004e98:	6210      	str	r0, [r2, #32]
 8004e9a:	4821      	ldr	r0, [pc, #132]	@ (8004f20 <HAL_TIM_ConfigClockSource+0x1fc>)
 8004e9c:	4282      	cmp	r2, r0
 8004e9e:	d00e      	beq.n	8004ebe <HAL_TIM_ConfigClockSource+0x19a>
 8004ea0:	f500 6080 	add.w	r0, r0, #1024	@ 0x400
 8004ea4:	4282      	cmp	r2, r0
 8004ea6:	d00a      	beq.n	8004ebe <HAL_TIM_ConfigClockSource+0x19a>
 8004ea8:	4e1e      	ldr	r6, [pc, #120]	@ (8004f24 <HAL_TIM_ConfigClockSource+0x200>)
 8004eaa:	f500 4080 	add.w	r0, r0, #16384	@ 0x4000
 8004eae:	4282      	cmp	r2, r0
 8004eb0:	bf18      	it	ne
 8004eb2:	42b2      	cmpne	r2, r6
 8004eb4:	d003      	beq.n	8004ebe <HAL_TIM_ConfigClockSource+0x19a>
 8004eb6:	f500 6080 	add.w	r0, r0, #1024	@ 0x400
 8004eba:	4282      	cmp	r2, r0
 8004ebc:	d103      	bne.n	8004ec6 <HAL_TIM_ConfigClockSource+0x1a2>
 8004ebe:	6a10      	ldr	r0, [r2, #32]
 8004ec0:	f020 0004 	bic.w	r0, r0, #4
 8004ec4:	6210      	str	r0, [r2, #32]
 8004ec6:	6990      	ldr	r0, [r2, #24]
 8004ec8:	f021 010a 	bic.w	r1, r1, #10
 8004ecc:	f020 00f0 	bic.w	r0, r0, #240	@ 0xf0
 8004ed0:	430c      	orrs	r4, r1
 8004ed2:	4915      	ldr	r1, [pc, #84]	@ (8004f28 <HAL_TIM_ConfigClockSource+0x204>)
 8004ed4:	ea40 1005 	orr.w	r0, r0, r5, lsl #4
 8004ed8:	6190      	str	r0, [r2, #24]
 8004eda:	6214      	str	r4, [r2, #32]
 8004edc:	6890      	ldr	r0, [r2, #8]
 8004ede:	4001      	ands	r1, r0
 8004ee0:	f041 0157 	orr.w	r1, r1, #87	@ 0x57
 8004ee4:	6091      	str	r1, [r2, #8]
 8004ee6:	e79b      	b.n	8004e20 <HAL_TIM_ConfigClockSource+0xfc>
 8004ee8:	f63f af70 	bhi.w	8004dcc <HAL_TIM_ConfigClockSource+0xa8>
 8004eec:	2c20      	cmp	r4, #32
 8004eee:	d0a3      	beq.n	8004e38 <HAL_TIM_ConfigClockSource+0x114>
 8004ef0:	d810      	bhi.n	8004f14 <HAL_TIM_ConfigClockSource+0x1f0>
 8004ef2:	f034 0110 	bics.w	r1, r4, #16
 8004ef6:	f47f af69 	bne.w	8004dcc <HAL_TIM_ConfigClockSource+0xa8>
 8004efa:	e79d      	b.n	8004e38 <HAL_TIM_ConfigClockSource+0x114>
 8004efc:	6a11      	ldr	r1, [r2, #32]
 8004efe:	f021 0140 	bic.w	r1, r1, #64	@ 0x40
 8004f02:	6211      	str	r1, [r2, #32]
 8004f04:	e77b      	b.n	8004dfe <HAL_TIM_ConfigClockSource+0xda>
 8004f06:	f024 0110 	bic.w	r1, r4, #16
 8004f0a:	f5b1 1f80 	cmp.w	r1, #1048576	@ 0x100000
 8004f0e:	f47f af5d 	bne.w	8004dcc <HAL_TIM_ConfigClockSource+0xa8>
 8004f12:	e791      	b.n	8004e38 <HAL_TIM_ConfigClockSource+0x114>
 8004f14:	2c30      	cmp	r4, #48	@ 0x30
 8004f16:	d08f      	beq.n	8004e38 <HAL_TIM_ConfigClockSource+0x114>
 8004f18:	2001      	movs	r0, #1
 8004f1a:	e757      	b.n	8004dcc <HAL_TIM_ConfigClockSource+0xa8>
 8004f1c:	ffce0088 	.word	0xffce0088
 8004f20:	40010000 	.word	0x40010000
 8004f24:	40014000 	.word	0x40014000
 8004f28:	ffcfff8f 	.word	0xffcfff8f
 8004f2c:	00100020 	.word	0x00100020
 8004f30:	00100030 	.word	0x00100030

08004f34 <HAL_TIM_OC_DelayElapsedCallback>:
 8004f34:	4770      	bx	lr
 8004f36:	bf00      	nop

08004f38 <HAL_TIM_IC_CaptureCallback>:
 8004f38:	4770      	bx	lr
 8004f3a:	bf00      	nop

08004f3c <HAL_TIM_PWM_PulseFinishedCallback>:
 8004f3c:	4770      	bx	lr
 8004f3e:	bf00      	nop

08004f40 <HAL_TIM_TriggerCallback>:
 8004f40:	4770      	bx	lr
 8004f42:	bf00      	nop

08004f44 <HAL_TIM_IRQHandler>:
 8004f44:	6803      	ldr	r3, [r0, #0]
 8004f46:	b570      	push	{r4, r5, r6, lr}
 8004f48:	68de      	ldr	r6, [r3, #12]
 8004f4a:	4605      	mov	r5, r0
 8004f4c:	691c      	ldr	r4, [r3, #16]
 8004f4e:	07a2      	lsls	r2, r4, #30
 8004f50:	d501      	bpl.n	8004f56 <HAL_TIM_IRQHandler+0x12>
 8004f52:	07b1      	lsls	r1, r6, #30
 8004f54:	d45a      	bmi.n	800500c <HAL_TIM_IRQHandler+0xc8>
 8004f56:	0763      	lsls	r3, r4, #29
 8004f58:	d501      	bpl.n	8004f5e <HAL_TIM_IRQHandler+0x1a>
 8004f5a:	0770      	lsls	r0, r6, #29
 8004f5c:	d443      	bmi.n	8004fe6 <HAL_TIM_IRQHandler+0xa2>
 8004f5e:	0721      	lsls	r1, r4, #28
 8004f60:	d501      	bpl.n	8004f66 <HAL_TIM_IRQHandler+0x22>
 8004f62:	0732      	lsls	r2, r6, #28
 8004f64:	d42d      	bmi.n	8004fc2 <HAL_TIM_IRQHandler+0x7e>
 8004f66:	06e0      	lsls	r0, r4, #27
 8004f68:	d501      	bpl.n	8004f6e <HAL_TIM_IRQHandler+0x2a>
 8004f6a:	06f1      	lsls	r1, r6, #27
 8004f6c:	d416      	bmi.n	8004f9c <HAL_TIM_IRQHandler+0x58>
 8004f6e:	07e2      	lsls	r2, r4, #31
 8004f70:	d501      	bpl.n	8004f76 <HAL_TIM_IRQHandler+0x32>
 8004f72:	07f3      	lsls	r3, r6, #31
 8004f74:	d463      	bmi.n	800503e <HAL_TIM_IRQHandler+0xfa>
 8004f76:	f414 5f02 	tst.w	r4, #8320	@ 0x2080
 8004f7a:	d00a      	beq.n	8004f92 <HAL_TIM_IRQHandler+0x4e>
 8004f7c:	0630      	lsls	r0, r6, #24
 8004f7e:	d466      	bmi.n	800504e <HAL_TIM_IRQHandler+0x10a>
 8004f80:	0660      	lsls	r0, r4, #25
 8004f82:	d501      	bpl.n	8004f88 <HAL_TIM_IRQHandler+0x44>
 8004f84:	0671      	lsls	r1, r6, #25
 8004f86:	d473      	bmi.n	8005070 <HAL_TIM_IRQHandler+0x12c>
 8004f88:	06a2      	lsls	r2, r4, #26
 8004f8a:	d501      	bpl.n	8004f90 <HAL_TIM_IRQHandler+0x4c>
 8004f8c:	06b3      	lsls	r3, r6, #26
 8004f8e:	d44d      	bmi.n	800502c <HAL_TIM_IRQHandler+0xe8>
 8004f90:	bd70      	pop	{r4, r5, r6, pc}
 8004f92:	05e2      	lsls	r2, r4, #23
 8004f94:	d5f4      	bpl.n	8004f80 <HAL_TIM_IRQHandler+0x3c>
 8004f96:	0633      	lsls	r3, r6, #24
 8004f98:	d462      	bmi.n	8005060 <HAL_TIM_IRQHandler+0x11c>
 8004f9a:	e7f1      	b.n	8004f80 <HAL_TIM_IRQHandler+0x3c>
 8004f9c:	682b      	ldr	r3, [r5, #0]
 8004f9e:	f06f 0210 	mvn.w	r2, #16
 8004fa2:	4628      	mov	r0, r5
 8004fa4:	611a      	str	r2, [r3, #16]
 8004fa6:	2208      	movs	r2, #8
 8004fa8:	772a      	strb	r2, [r5, #28]
 8004faa:	69db      	ldr	r3, [r3, #28]
 8004fac:	f413 7f40 	tst.w	r3, #768	@ 0x300
 8004fb0:	d16f      	bne.n	8005092 <HAL_TIM_IRQHandler+0x14e>
 8004fb2:	f7ff ffbf 	bl	8004f34 <HAL_TIM_OC_DelayElapsedCallback>
 8004fb6:	4628      	mov	r0, r5
 8004fb8:	f7ff ffc0 	bl	8004f3c <HAL_TIM_PWM_PulseFinishedCallback>
 8004fbc:	2300      	movs	r3, #0
 8004fbe:	772b      	strb	r3, [r5, #28]
 8004fc0:	e7d5      	b.n	8004f6e <HAL_TIM_IRQHandler+0x2a>
 8004fc2:	682b      	ldr	r3, [r5, #0]
 8004fc4:	f06f 0208 	mvn.w	r2, #8
 8004fc8:	4628      	mov	r0, r5
 8004fca:	611a      	str	r2, [r3, #16]
 8004fcc:	2204      	movs	r2, #4
 8004fce:	772a      	strb	r2, [r5, #28]
 8004fd0:	69db      	ldr	r3, [r3, #28]
 8004fd2:	079b      	lsls	r3, r3, #30
 8004fd4:	d15a      	bne.n	800508c <HAL_TIM_IRQHandler+0x148>
 8004fd6:	f7ff ffad 	bl	8004f34 <HAL_TIM_OC_DelayElapsedCallback>
 8004fda:	4628      	mov	r0, r5
 8004fdc:	f7ff ffae 	bl	8004f3c <HAL_TIM_PWM_PulseFinishedCallback>
 8004fe0:	2300      	movs	r3, #0
 8004fe2:	772b      	strb	r3, [r5, #28]
 8004fe4:	e7bf      	b.n	8004f66 <HAL_TIM_IRQHandler+0x22>
 8004fe6:	682b      	ldr	r3, [r5, #0]
 8004fe8:	f06f 0204 	mvn.w	r2, #4
 8004fec:	4628      	mov	r0, r5
 8004fee:	611a      	str	r2, [r3, #16]
 8004ff0:	2202      	movs	r2, #2
 8004ff2:	772a      	strb	r2, [r5, #28]
 8004ff4:	699b      	ldr	r3, [r3, #24]
 8004ff6:	f413 7f40 	tst.w	r3, #768	@ 0x300
 8004ffa:	d144      	bne.n	8005086 <HAL_TIM_IRQHandler+0x142>
 8004ffc:	f7ff ff9a 	bl	8004f34 <HAL_TIM_OC_DelayElapsedCallback>
 8005000:	4628      	mov	r0, r5
 8005002:	f7ff ff9b 	bl	8004f3c <HAL_TIM_PWM_PulseFinishedCallback>
 8005006:	2300      	movs	r3, #0
 8005008:	772b      	strb	r3, [r5, #28]
 800500a:	e7a8      	b.n	8004f5e <HAL_TIM_IRQHandler+0x1a>
 800500c:	f06f 0202 	mvn.w	r2, #2
 8005010:	611a      	str	r2, [r3, #16]
 8005012:	2201      	movs	r2, #1
 8005014:	7702      	strb	r2, [r0, #28]
 8005016:	699b      	ldr	r3, [r3, #24]
 8005018:	079a      	lsls	r2, r3, #30
 800501a:	d131      	bne.n	8005080 <HAL_TIM_IRQHandler+0x13c>
 800501c:	f7ff ff8a 	bl	8004f34 <HAL_TIM_OC_DelayElapsedCallback>
 8005020:	4628      	mov	r0, r5
 8005022:	f7ff ff8b 	bl	8004f3c <HAL_TIM_PWM_PulseFinishedCallback>
 8005026:	2300      	movs	r3, #0
 8005028:	772b      	strb	r3, [r5, #28]
 800502a:	e794      	b.n	8004f56 <HAL_TIM_IRQHandler+0x12>
 800502c:	682b      	ldr	r3, [r5, #0]
 800502e:	f06f 0220 	mvn.w	r2, #32
 8005032:	4628      	mov	r0, r5
 8005034:	611a      	str	r2, [r3, #16]
 8005036:	e8bd 4070 	ldmia.w	sp!, {r4, r5, r6, lr}
 800503a:	f000 b995 	b.w	8005368 <HAL_TIMEx_CommutCallback>
 800503e:	682b      	ldr	r3, [r5, #0]
 8005040:	f06f 0201 	mvn.w	r2, #1
 8005044:	4628      	mov	r0, r5
 8005046:	611a      	str	r2, [r3, #16]
 8005048:	f7fb fe22 	bl	8000c90 <HAL_TIM_PeriodElapsedCallback>
 800504c:	e793      	b.n	8004f76 <HAL_TIM_IRQHandler+0x32>
 800504e:	682b      	ldr	r3, [r5, #0]
 8005050:	f46f 5202 	mvn.w	r2, #8320	@ 0x2080
 8005054:	4628      	mov	r0, r5
 8005056:	611a      	str	r2, [r3, #16]
 8005058:	f000 f988 	bl	800536c <HAL_TIMEx_BreakCallback>
 800505c:	05e1      	lsls	r1, r4, #23
 800505e:	d58f      	bpl.n	8004f80 <HAL_TIM_IRQHandler+0x3c>
 8005060:	682b      	ldr	r3, [r5, #0]
 8005062:	f46f 7280 	mvn.w	r2, #256	@ 0x100
 8005066:	4628      	mov	r0, r5
 8005068:	611a      	str	r2, [r3, #16]
 800506a:	f000 f981 	bl	8005370 <HAL_TIMEx_Break2Callback>
 800506e:	e787      	b.n	8004f80 <HAL_TIM_IRQHandler+0x3c>
 8005070:	682b      	ldr	r3, [r5, #0]
 8005072:	f06f 0240 	mvn.w	r2, #64	@ 0x40
 8005076:	4628      	mov	r0, r5
 8005078:	611a      	str	r2, [r3, #16]
 800507a:	f7ff ff61 	bl	8004f40 <HAL_TIM_TriggerCallback>
 800507e:	e783      	b.n	8004f88 <HAL_TIM_IRQHandler+0x44>
 8005080:	f7ff ff5a 	bl	8004f38 <HAL_TIM_IC_CaptureCallback>
 8005084:	e7cf      	b.n	8005026 <HAL_TIM_IRQHandler+0xe2>
 8005086:	f7ff ff57 	bl	8004f38 <HAL_TIM_IC_CaptureCallback>
 800508a:	e7bc      	b.n	8005006 <HAL_TIM_IRQHandler+0xc2>
 800508c:	f7ff ff54 	bl	8004f38 <HAL_TIM_IC_CaptureCallback>
 8005090:	e7a6      	b.n	8004fe0 <HAL_TIM_IRQHandler+0x9c>
 8005092:	f7ff ff51 	bl	8004f38 <HAL_TIM_IC_CaptureCallback>
 8005096:	e791      	b.n	8004fbc <HAL_TIM_IRQHandler+0x78>

08005098 <TIM_OC2_SetConfig>:
 8005098:	6a03      	ldr	r3, [r0, #32]
 800509a:	6a02      	ldr	r2, [r0, #32]
 800509c:	f023 0320 	bic.w	r3, r3, #32
 80050a0:	f022 0210 	bic.w	r2, r2, #16
 80050a4:	b470      	push	{r4, r5, r6}
 80050a6:	6202      	str	r2, [r0, #32]
 80050a8:	4c1a      	ldr	r4, [pc, #104]	@ (8005114 <TIM_OC2_SetConfig+0x7c>)
 80050aa:	6842      	ldr	r2, [r0, #4]
 80050ac:	6985      	ldr	r5, [r0, #24]
 80050ae:	402c      	ands	r4, r5
 80050b0:	680d      	ldr	r5, [r1, #0]
 80050b2:	ea44 2405 	orr.w	r4, r4, r5, lsl #8
 80050b6:	688d      	ldr	r5, [r1, #8]
 80050b8:	ea43 1305 	orr.w	r3, r3, r5, lsl #4
 80050bc:	4d16      	ldr	r5, [pc, #88]	@ (8005118 <TIM_OC2_SetConfig+0x80>)
 80050be:	42a8      	cmp	r0, r5
 80050c0:	d00f      	beq.n	80050e2 <TIM_OC2_SetConfig+0x4a>
 80050c2:	f505 6580 	add.w	r5, r5, #1024	@ 0x400
 80050c6:	42a8      	cmp	r0, r5
 80050c8:	d00b      	beq.n	80050e2 <TIM_OC2_SetConfig+0x4a>
 80050ca:	4e14      	ldr	r6, [pc, #80]	@ (800511c <TIM_OC2_SetConfig+0x84>)
 80050cc:	f505 4580 	add.w	r5, r5, #16384	@ 0x4000
 80050d0:	42a8      	cmp	r0, r5
 80050d2:	bf18      	it	ne
 80050d4:	42b0      	cmpne	r0, r6
 80050d6:	d00d      	beq.n	80050f4 <TIM_OC2_SetConfig+0x5c>
 80050d8:	f505 6580 	add.w	r5, r5, #1024	@ 0x400
 80050dc:	42a8      	cmp	r0, r5
 80050de:	d111      	bne.n	8005104 <TIM_OC2_SetConfig+0x6c>
 80050e0:	e008      	b.n	80050f4 <TIM_OC2_SetConfig+0x5c>
 80050e2:	6a05      	ldr	r5, [r0, #32]
 80050e4:	f023 0380 	bic.w	r3, r3, #128	@ 0x80
 80050e8:	f025 0540 	bic.w	r5, r5, #64	@ 0x40
 80050ec:	6205      	str	r5, [r0, #32]
 80050ee:	68cd      	ldr	r5, [r1, #12]
 80050f0:	ea43 1305 	orr.w	r3, r3, r5, lsl #4
 80050f4:	f422 6240 	bic.w	r2, r2, #3072	@ 0xc00
 80050f8:	e9d1 6505 	ldrd	r6, r5, [r1, #20]
 80050fc:	ea46 0c05 	orr.w	ip, r6, r5
 8005100:	ea42 028c 	orr.w	r2, r2, ip, lsl #2
 8005104:	6849      	ldr	r1, [r1, #4]
 8005106:	6042      	str	r2, [r0, #4]
 8005108:	6184      	str	r4, [r0, #24]
 800510a:	6381      	str	r1, [r0, #56]	@ 0x38
 800510c:	6203      	str	r3, [r0, #32]
 800510e:	bc70      	pop	{r4, r5, r6}
 8005110:	4770      	bx	lr
 8005112:	bf00      	nop
 8005114:	feff8cff 	.word	0xfeff8cff
 8005118:	40010000 	.word	0x40010000
 800511c:	40014000 	.word	0x40014000

08005120 <HAL_TIM_OC_ConfigChannel>:
 8005120:	b5f8      	push	{r3, r4, r5, r6, r7, lr}
 8005122:	f890 303c 	ldrb.w	r3, [r0, #60]	@ 0x3c
 8005126:	2b01      	cmp	r3, #1
 8005128:	f000 80ae 	beq.w	8005288 <HAL_TIM_OC_ConfigChannel+0x168>
 800512c:	4604      	mov	r4, r0
 800512e:	2a14      	cmp	r2, #20
 8005130:	d80c      	bhi.n	800514c <HAL_TIM_OC_ConfigChannel+0x2c>
 8005132:	e8df f002 	tbb	[pc, r2]
 8005136:	0b3f      	.short	0x0b3f
 8005138:	0b440b0b 	.word	0x0b440b0b
 800513c:	0b480b0b 	.word	0x0b480b0b
 8005140:	0b4c0b0b 	.word	0x0b4c0b0b
 8005144:	0b7b0b0b 	.word	0x0b7b0b0b
 8005148:	0b0b      	.short	0x0b0b
 800514a:	10          	.byte	0x10
 800514b:	00          	.byte	0x00
 800514c:	2001      	movs	r0, #1
 800514e:	2300      	movs	r3, #0
 8005150:	f884 303c 	strb.w	r3, [r4, #60]	@ 0x3c
 8005154:	bdf8      	pop	{r3, r4, r5, r6, r7, pc}
 8005156:	6803      	ldr	r3, [r0, #0]
 8005158:	6a1a      	ldr	r2, [r3, #32]
 800515a:	6a18      	ldr	r0, [r3, #32]
 800515c:	f422 1200 	bic.w	r2, r2, #2097152	@ 0x200000
 8005160:	f420 1080 	bic.w	r0, r0, #1048576	@ 0x100000
 8005164:	6218      	str	r0, [r3, #32]
 8005166:	4849      	ldr	r0, [pc, #292]	@ (800528c <HAL_TIM_OC_ConfigChannel+0x16c>)
 8005168:	685d      	ldr	r5, [r3, #4]
 800516a:	6d5e      	ldr	r6, [r3, #84]	@ 0x54
 800516c:	4030      	ands	r0, r6
 800516e:	680e      	ldr	r6, [r1, #0]
 8005170:	ea40 2006 	orr.w	r0, r0, r6, lsl #8
 8005174:	688e      	ldr	r6, [r1, #8]
 8005176:	ea42 5206 	orr.w	r2, r2, r6, lsl #20
 800517a:	4e45      	ldr	r6, [pc, #276]	@ (8005290 <HAL_TIM_OC_ConfigChannel+0x170>)
 800517c:	42b3      	cmp	r3, r6
 800517e:	d00e      	beq.n	800519e <HAL_TIM_OC_ConfigChannel+0x7e>
 8005180:	f506 6680 	add.w	r6, r6, #1024	@ 0x400
 8005184:	42b3      	cmp	r3, r6
 8005186:	d00a      	beq.n	800519e <HAL_TIM_OC_ConfigChannel+0x7e>
 8005188:	4f42      	ldr	r7, [pc, #264]	@ (8005294 <HAL_TIM_OC_ConfigChannel+0x174>)
 800518a:	f506 4680 	add.w	r6, r6, #16384	@ 0x4000
 800518e:	42b3      	cmp	r3, r6
 8005190:	bf18      	it	ne
 8005192:	42bb      	cmpne	r3, r7
 8005194:	d003      	beq.n	800519e <HAL_TIM_OC_ConfigChannel+0x7e>
 8005196:	f506 6680 	add.w	r6, r6, #1024	@ 0x400
 800519a:	42b3      	cmp	r3, r6
 800519c:	d104      	bne.n	80051a8 <HAL_TIM_OC_ConfigChannel+0x88>
 800519e:	f425 2580 	bic.w	r5, r5, #262144	@ 0x40000
 80051a2:	694e      	ldr	r6, [r1, #20]
 80051a4:	ea45 2586 	orr.w	r5, r5, r6, lsl #10
 80051a8:	6849      	ldr	r1, [r1, #4]
 80051aa:	605d      	str	r5, [r3, #4]
 80051ac:	6558      	str	r0, [r3, #84]	@ 0x54
 80051ae:	65d9      	str	r1, [r3, #92]	@ 0x5c
 80051b0:	621a      	str	r2, [r3, #32]
 80051b2:	e002      	b.n	80051ba <HAL_TIM_OC_ConfigChannel+0x9a>
 80051b4:	6800      	ldr	r0, [r0, #0]
 80051b6:	f7ff fb75 	bl	80048a4 <TIM_OC1_SetConfig>
 80051ba:	2000      	movs	r0, #0
 80051bc:	e7c7      	b.n	800514e <HAL_TIM_OC_ConfigChannel+0x2e>
 80051be:	6800      	ldr	r0, [r0, #0]
 80051c0:	f7ff ff6a 	bl	8005098 <TIM_OC2_SetConfig>
 80051c4:	e7f9      	b.n	80051ba <HAL_TIM_OC_ConfigChannel+0x9a>
 80051c6:	6800      	ldr	r0, [r0, #0]
 80051c8:	f7ff fbaa 	bl	8004920 <TIM_OC3_SetConfig>
 80051cc:	e7f5      	b.n	80051ba <HAL_TIM_OC_ConfigChannel+0x9a>
 80051ce:	6803      	ldr	r3, [r0, #0]
 80051d0:	6a1a      	ldr	r2, [r3, #32]
 80051d2:	6a18      	ldr	r0, [r3, #32]
 80051d4:	f422 5200 	bic.w	r2, r2, #8192	@ 0x2000
 80051d8:	f420 5080 	bic.w	r0, r0, #4096	@ 0x1000
 80051dc:	6218      	str	r0, [r3, #32]
 80051de:	482e      	ldr	r0, [pc, #184]	@ (8005298 <HAL_TIM_OC_ConfigChannel+0x178>)
 80051e0:	685d      	ldr	r5, [r3, #4]
 80051e2:	69de      	ldr	r6, [r3, #28]
 80051e4:	4030      	ands	r0, r6
 80051e6:	680e      	ldr	r6, [r1, #0]
 80051e8:	ea40 2006 	orr.w	r0, r0, r6, lsl #8
 80051ec:	688e      	ldr	r6, [r1, #8]
 80051ee:	ea42 3206 	orr.w	r2, r2, r6, lsl #12
 80051f2:	4e27      	ldr	r6, [pc, #156]	@ (8005290 <HAL_TIM_OC_ConfigChannel+0x170>)
 80051f4:	42b3      	cmp	r3, r6
 80051f6:	d00e      	beq.n	8005216 <HAL_TIM_OC_ConfigChannel+0xf6>
 80051f8:	f506 6680 	add.w	r6, r6, #1024	@ 0x400
 80051fc:	42b3      	cmp	r3, r6
 80051fe:	d00a      	beq.n	8005216 <HAL_TIM_OC_ConfigChannel+0xf6>
 8005200:	4f24      	ldr	r7, [pc, #144]	@ (8005294 <HAL_TIM_OC_ConfigChannel+0x174>)
 8005202:	f506 4680 	add.w	r6, r6, #16384	@ 0x4000
 8005206:	42b3      	cmp	r3, r6
 8005208:	bf18      	it	ne
 800520a:	42bb      	cmpne	r3, r7
 800520c:	d003      	beq.n	8005216 <HAL_TIM_OC_ConfigChannel+0xf6>
 800520e:	f506 6680 	add.w	r6, r6, #1024	@ 0x400
 8005212:	42b3      	cmp	r3, r6
 8005214:	d104      	bne.n	8005220 <HAL_TIM_OC_ConfigChannel+0x100>
 8005216:	f425 4580 	bic.w	r5, r5, #16384	@ 0x4000
 800521a:	694e      	ldr	r6, [r1, #20]
 800521c:	ea45 1586 	orr.w	r5, r5, r6, lsl #6
 8005220:	6849      	ldr	r1, [r1, #4]
 8005222:	605d      	str	r5, [r3, #4]
 8005224:	61d8      	str	r0, [r3, #28]
 8005226:	6419      	str	r1, [r3, #64]	@ 0x40
 8005228:	621a      	str	r2, [r3, #32]
 800522a:	e7c6      	b.n	80051ba <HAL_TIM_OC_ConfigChannel+0x9a>
 800522c:	6803      	ldr	r3, [r0, #0]
 800522e:	6a1a      	ldr	r2, [r3, #32]
 8005230:	6a18      	ldr	r0, [r3, #32]
 8005232:	f422 3200 	bic.w	r2, r2, #131072	@ 0x20000
 8005236:	f420 3080 	bic.w	r0, r0, #65536	@ 0x10000
 800523a:	6218      	str	r0, [r3, #32]
 800523c:	4817      	ldr	r0, [pc, #92]	@ (800529c <HAL_TIM_OC_ConfigChannel+0x17c>)
 800523e:	685d      	ldr	r5, [r3, #4]
 8005240:	6d5e      	ldr	r6, [r3, #84]	@ 0x54
 8005242:	4030      	ands	r0, r6
 8005244:	680e      	ldr	r6, [r1, #0]
 8005246:	4330      	orrs	r0, r6
 8005248:	688e      	ldr	r6, [r1, #8]
 800524a:	ea42 4206 	orr.w	r2, r2, r6, lsl #16
 800524e:	4e10      	ldr	r6, [pc, #64]	@ (8005290 <HAL_TIM_OC_ConfigChannel+0x170>)
 8005250:	42b3      	cmp	r3, r6
 8005252:	d00e      	beq.n	8005272 <HAL_TIM_OC_ConfigChannel+0x152>
 8005254:	f506 6680 	add.w	r6, r6, #1024	@ 0x400
 8005258:	42b3      	cmp	r3, r6
 800525a:	d00a      	beq.n	8005272 <HAL_TIM_OC_ConfigChannel+0x152>
 800525c:	4f0d      	ldr	r7, [pc, #52]	@ (8005294 <HAL_TIM_OC_ConfigChannel+0x174>)
 800525e:	f506 4680 	add.w	r6, r6, #16384	@ 0x4000
 8005262:	42b3      	cmp	r3, r6
 8005264:	bf18      	it	ne
 8005266:	42bb      	cmpne	r3, r7
 8005268:	d003      	beq.n	8005272 <HAL_TIM_OC_ConfigChannel+0x152>
 800526a:	f506 6680 	add.w	r6, r6, #1024	@ 0x400
 800526e:	42b3      	cmp	r3, r6
 8005270:	d104      	bne.n	800527c <HAL_TIM_OC_ConfigChannel+0x15c>
 8005272:	f425 3580 	bic.w	r5, r5, #65536	@ 0x10000
 8005276:	694e      	ldr	r6, [r1, #20]
 8005278:	ea45 2506 	orr.w	r5, r5, r6, lsl #8
 800527c:	6849      	ldr	r1, [r1, #4]
 800527e:	605d      	str	r5, [r3, #4]
 8005280:	6558      	str	r0, [r3, #84]	@ 0x54
 8005282:	6599      	str	r1, [r3, #88]	@ 0x58
 8005284:	621a      	str	r2, [r3, #32]
 8005286:	e798      	b.n	80051ba <HAL_TIM_OC_ConfigChannel+0x9a>
 8005288:	2002      	movs	r0, #2
 800528a:	bdf8      	pop	{r3, r4, r5, r6, r7, pc}
 800528c:	feff8fff 	.word	0xfeff8fff
 8005290:	40010000 	.word	0x40010000
 8005294:	40014000 	.word	0x40014000
 8005298:	feff8cff 	.word	0xfeff8cff
 800529c:	fffeff8f 	.word	0xfffeff8f

080052a0 <HAL_TIMEx_MasterConfigSynchronization>:
 80052a0:	f890 303c 	ldrb.w	r3, [r0, #60]	@ 0x3c
 80052a4:	2b01      	cmp	r3, #1
 80052a6:	d053      	beq.n	8005350 <HAL_TIMEx_MasterConfigSynchronization+0xb0>
 80052a8:	6803      	ldr	r3, [r0, #0]
 80052aa:	4602      	mov	r2, r0
 80052ac:	2002      	movs	r0, #2
 80052ae:	b470      	push	{r4, r5, r6}
 80052b0:	4d28      	ldr	r5, [pc, #160]	@ (8005354 <HAL_TIMEx_MasterConfigSynchronization+0xb4>)
 80052b2:	f882 003d 	strb.w	r0, [r2, #61]	@ 0x3d
 80052b6:	42ab      	cmp	r3, r5
 80052b8:	6858      	ldr	r0, [r3, #4]
 80052ba:	689c      	ldr	r4, [r3, #8]
 80052bc:	d03e      	beq.n	800533c <HAL_TIMEx_MasterConfigSynchronization+0x9c>
 80052be:	f505 6580 	add.w	r5, r5, #1024	@ 0x400
 80052c2:	42ab      	cmp	r3, r5
 80052c4:	d03a      	beq.n	800533c <HAL_TIMEx_MasterConfigSynchronization+0x9c>
 80052c6:	f020 0570 	bic.w	r5, r0, #112	@ 0x70
 80052ca:	4823      	ldr	r0, [pc, #140]	@ (8005358 <HAL_TIMEx_MasterConfigSynchronization+0xb8>)
 80052cc:	4e23      	ldr	r6, [pc, #140]	@ (800535c <HAL_TIMEx_MasterConfigSynchronization+0xbc>)
 80052ce:	4283      	cmp	r3, r0
 80052d0:	bf18      	it	ne
 80052d2:	f1b3 4f80 	cmpne.w	r3, #1073741824	@ 0x40000000
 80052d6:	bf0c      	ite	eq
 80052d8:	2001      	moveq	r0, #1
 80052da:	2000      	movne	r0, #0
 80052dc:	42b3      	cmp	r3, r6
 80052de:	bf08      	it	eq
 80052e0:	f040 0001 	orreq.w	r0, r0, #1
 80052e4:	f506 6680 	add.w	r6, r6, #1024	@ 0x400
 80052e8:	42b3      	cmp	r3, r6
 80052ea:	bf08      	it	eq
 80052ec:	f040 0001 	orreq.w	r0, r0, #1
 80052f0:	f506 6640 	add.w	r6, r6, #3072	@ 0xc00
 80052f4:	42b3      	cmp	r3, r6
 80052f6:	bf08      	it	eq
 80052f8:	f040 0001 	orreq.w	r0, r0, #1
 80052fc:	f506 3694 	add.w	r6, r6, #75776	@ 0x12800
 8005300:	42b3      	cmp	r3, r6
 8005302:	bf08      	it	eq
 8005304:	f040 0001 	orreq.w	r0, r0, #1
 8005308:	680e      	ldr	r6, [r1, #0]
 800530a:	4335      	orrs	r5, r6
 800530c:	605d      	str	r5, [r3, #4]
 800530e:	4d14      	ldr	r5, [pc, #80]	@ (8005360 <HAL_TIMEx_MasterConfigSynchronization+0xc0>)
 8005310:	42ab      	cmp	r3, r5
 8005312:	bf08      	it	eq
 8005314:	f040 0001 	orreq.w	r0, r0, #1
 8005318:	b910      	cbnz	r0, 8005320 <HAL_TIMEx_MasterConfigSynchronization+0x80>
 800531a:	4812      	ldr	r0, [pc, #72]	@ (8005364 <HAL_TIMEx_MasterConfigSynchronization+0xc4>)
 800531c:	4283      	cmp	r3, r0
 800531e:	d104      	bne.n	800532a <HAL_TIMEx_MasterConfigSynchronization+0x8a>
 8005320:	6889      	ldr	r1, [r1, #8]
 8005322:	f024 0480 	bic.w	r4, r4, #128	@ 0x80
 8005326:	430c      	orrs	r4, r1
 8005328:	609c      	str	r4, [r3, #8]
 800532a:	2300      	movs	r3, #0
 800532c:	2101      	movs	r1, #1
 800532e:	4618      	mov	r0, r3
 8005330:	f882 103d 	strb.w	r1, [r2, #61]	@ 0x3d
 8005334:	f882 303c 	strb.w	r3, [r2, #60]	@ 0x3c
 8005338:	bc70      	pop	{r4, r5, r6}
 800533a:	4770      	bx	lr
 800533c:	684d      	ldr	r5, [r1, #4]
 800533e:	f420 0070 	bic.w	r0, r0, #15728640	@ 0xf00000
 8005342:	4328      	orrs	r0, r5
 8005344:	680d      	ldr	r5, [r1, #0]
 8005346:	f020 0070 	bic.w	r0, r0, #112	@ 0x70
 800534a:	4328      	orrs	r0, r5
 800534c:	6058      	str	r0, [r3, #4]
 800534e:	e7e7      	b.n	8005320 <HAL_TIMEx_MasterConfigSynchronization+0x80>
 8005350:	2002      	movs	r0, #2
 8005352:	4770      	bx	lr
 8005354:	40010000 	.word	0x40010000
 8005358:	40000400 	.word	0x40000400
 800535c:	40000800 	.word	0x40000800
 8005360:	4000e000 	.word	0x4000e000
 8005364:	4000e400 	.word	0x4000e400

08005368 <HAL_TIMEx_CommutCallback>:
 8005368:	4770      	bx	lr
 800536a:	bf00      	nop

0800536c <HAL_TIMEx_BreakCallback>:
 800536c:	4770      	bx	lr
 800536e:	bf00      	nop

08005370 <HAL_TIMEx_Break2Callback>:
 8005370:	4770      	bx	lr
 8005372:	bf00      	nop
 8005374:	0000      	movs	r0, r0
	...

08005378 <Recalibrate>:
 8005378:	f8d0 319c 	ldr.w	r3, [r0, #412]	@ 0x19c
 800537c:	ed90 0a6d 	vldr	s0, [r0, #436]	@ 0x1b4
 8005380:	b510      	push	{r4, lr}
 8005382:	4604      	mov	r4, r0
 8005384:	ed2d 8b04 	vpush	{d8-d9}
 8005388:	f8c0 30fc 	str.w	r3, [r0, #252]	@ 0xfc
 800538c:	f004 fbb4 	bl	8009af8 <SPE_ipowSquare_Hcbd8c48e05b139646178cc6f7987b8955b6ce985_cb4a8a449b4ada864625ee5a4355578a3aaf08ed>
 8005390:	eef0 6a40 	vmov.f32	s13, s0
 8005394:	ed94 7a6b 	vldr	s14, [r4, #428]	@ 0x1ac
 8005398:	ed94 0a6c 	vldr	s0, [r4, #432]	@ 0x1b0
 800539c:	eec6 7a87 	vdiv.f32	s15, s13, s14
 80053a0:	edc4 7a41 	vstr	s15, [r4, #260]	@ 0x104
 80053a4:	f004 fba8 	bl	8009af8 <SPE_ipowSquare_Hcbd8c48e05b139646178cc6f7987b8955b6ce985_cb4a8a449b4ada864625ee5a4355578a3aaf08ed>
 80053a8:	ed94 6a3f 	vldr	s12, [r4, #252]	@ 0xfc
 80053ac:	edd4 7a41 	vldr	s15, [r4, #260]	@ 0x104
 80053b0:	eec0 5a06 	vdiv.f32	s11, s0, s12
 80053b4:	ed94 7a6f 	vldr	s14, [r4, #444]	@ 0x1bc
 80053b8:	edd4 6a70 	vldr	s13, [r4, #448]	@ 0x1c0
 80053bc:	f8d4 317c 	ldr.w	r3, [r4, #380]	@ 0x17c
 80053c0:	f8d4 0180 	ldr.w	r0, [r4, #384]	@ 0x180
 80053c4:	f8d4 1184 	ldr.w	r1, [r4, #388]	@ 0x184
 80053c8:	ee27 5a87 	vmul.f32	s10, s15, s14
 80053cc:	ed94 7a68 	vldr	s14, [r4, #416]	@ 0x1a0
 80053d0:	ee27 6aa6 	vmul.f32	s12, s15, s13
 80053d4:	f8d4 2188 	ldr.w	r2, [r4, #392]	@ 0x188
 80053d8:	ed84 7a1f 	vstr	s14, [r4, #124]	@ 0x7c
 80053dc:	eeb7 7ac7 	vcvt.f64.f32	d7, s14
 80053e0:	f8c4 30dc 	str.w	r3, [r4, #220]	@ 0xdc
 80053e4:	f8d4 318c 	ldr.w	r3, [r4, #396]	@ 0x18c
 80053e8:	ed94 8a67 	vldr	s16, [r4, #412]	@ 0x19c
 80053ec:	edd4 6a47 	vldr	s13, [r4, #284]	@ 0x11c
 80053f0:	f8c4 00e0 	str.w	r0, [r4, #224]	@ 0xe0
 80053f4:	f8c4 10e8 	str.w	r1, [r4, #232]	@ 0xe8
 80053f8:	f8d4 0190 	ldr.w	r0, [r4, #400]	@ 0x190
 80053fc:	f8d4 1194 	ldr.w	r1, [r4, #404]	@ 0x194
 8005400:	eec5 4a25 	vdiv.f32	s9, s10, s11
 8005404:	f8c4 20e4 	str.w	r2, [r4, #228]	@ 0xe4
 8005408:	f8c4 30ec 	str.w	r3, [r4, #236]	@ 0xec
 800540c:	f8d4 2198 	ldr.w	r2, [r4, #408]	@ 0x198
 8005410:	f8d4 3114 	ldr.w	r3, [r4, #276]	@ 0x114
 8005414:	f8c4 00f0 	str.w	r0, [r4, #240]	@ 0xf0
 8005418:	ee86 5a25 	vdiv.f32	s10, s12, s11
 800541c:	f8c4 20f4 	str.w	r2, [r4, #244]	@ 0xf4
 8005420:	ed84 8a0b 	vstr	s16, [r4, #44]	@ 0x2c
 8005424:	ed84 8a17 	vstr	s16, [r4, #92]	@ 0x5c
 8005428:	edc4 6a19 	vstr	s13, [r4, #100]	@ 0x64
 800542c:	6523      	str	r3, [r4, #80]	@ 0x50
 800542e:	edc4 5a40 	vstr	s11, [r4, #256]	@ 0x100
 8005432:	f8c4 10f8 	str.w	r1, [r4, #248]	@ 0xf8
 8005436:	ed9f 3bec 	vldr	d3, [pc, #944]	@ 80057e8 <Recalibrate+0x470>
 800543a:	ee27 7b03 	vmul.f64	d7, d7, d3
 800543e:	edc4 4a42 	vstr	s9, [r4, #264]	@ 0x108
 8005442:	ed84 5a43 	vstr	s10, [r4, #268]	@ 0x10c
 8005446:	eeb7 7bc7 	vcvt.f32.f64	s14, d7
 800544a:	f8d4 1118 	ldr.w	r1, [r4, #280]	@ 0x118
 800544e:	edd4 7a51 	vldr	s15, [r4, #324]	@ 0x144
 8005452:	ed94 0a57 	vldr	s0, [r4, #348]	@ 0x15c
 8005456:	ee88 6a27 	vdiv.f32	s12, s16, s15
 800545a:	f8d4 2124 	ldr.w	r2, [r4, #292]	@ 0x124
 800545e:	f8d4 3120 	ldr.w	r3, [r4, #288]	@ 0x120
 8005462:	6561      	str	r1, [r4, #84]	@ 0x54
 8005464:	f8c4 2094 	str.w	r2, [r4, #148]	@ 0x94
 8005468:	66e3      	str	r3, [r4, #108]	@ 0x6c
 800546a:	ee28 5a00 	vmul.f32	s10, s16, s0
 800546e:	ed84 7a29 	vstr	s14, [r4, #164]	@ 0xa4
 8005472:	eec0 5a26 	vdiv.f32	s11, s0, s13
 8005476:	ee66 6aa7 	vmul.f32	s13, s13, s15
 800547a:	eec6 7a85 	vdiv.f32	s15, s13, s10
 800547e:	ed84 6a16 	vstr	s12, [r4, #88]	@ 0x58
 8005482:	edc4 5a18 	vstr	s11, [r4, #96]	@ 0x60
 8005486:	edc4 7a11 	vstr	s15, [r4, #68]	@ 0x44
 800548a:	f004 fb35 	bl	8009af8 <SPE_ipowSquare_Hcbd8c48e05b139646178cc6f7987b8955b6ce985_cb4a8a449b4ada864625ee5a4355578a3aaf08ed>
 800548e:	eef0 7a40 	vmov.f32	s15, s0
 8005492:	edd4 8a51 	vldr	s17, [r4, #324]	@ 0x144
 8005496:	ed94 0a19 	vldr	s0, [r4, #100]	@ 0x64
 800549a:	ee28 8a27 	vmul.f32	s16, s16, s15
 800549e:	f004 fb2b 	bl	8009af8 <SPE_ipowSquare_Hcbd8c48e05b139646178cc6f7987b8955b6ce985_cb4a8a449b4ada864625ee5a4355578a3aaf08ed>
 80054a2:	ee68 7a80 	vmul.f32	s15, s17, s0
 80054a6:	ed94 7a17 	vldr	s14, [r4, #92]	@ 0x5c
 80054aa:	edd4 5a15 	vldr	s11, [r4, #84]	@ 0x54
 80054ae:	edd4 6a14 	vldr	s13, [r4, #80]	@ 0x50
 80054b2:	ed94 0a1b 	vldr	s0, [r4, #108]	@ 0x6c
 80054b6:	ee86 6a87 	vdiv.f32	s12, s13, s14
 80054ba:	edd4 8a25 	vldr	s17, [r4, #148]	@ 0x94
 80054be:	eec5 6a87 	vdiv.f32	s13, s11, s14
 80054c2:	ee88 7a27 	vdiv.f32	s14, s16, s15
 80054c6:	ed84 6a22 	vstr	s12, [r4, #136]	@ 0x88
 80054ca:	edc4 6a24 	vstr	s13, [r4, #144]	@ 0x90
 80054ce:	ed84 7a1a 	vstr	s14, [r4, #104]	@ 0x68
 80054d2:	f004 fb2f 	bl	8009b34 <SPE_cos_Hcbd8c48e05b139646178cc6f7987b8955b6ce985_cb4a8a449b4ada864625ee5a4355578a3aaf08ed>
 80054d6:	eef0 7a40 	vmov.f32	s15, s0
 80054da:	ed94 0a1b 	vldr	s0, [r4, #108]	@ 0x6c
 80054de:	ed94 8a25 	vldr	s16, [r4, #148]	@ 0x94
 80054e2:	ee68 7aa7 	vmul.f32	s15, s17, s15
 80054e6:	edc4 7a34 	vstr	s15, [r4, #208]	@ 0xd0
 80054ea:	f004 fb21 	bl	8009b30 <SPE_sin_Hcbd8c48e05b139646178cc6f7987b8955b6ce985_cb4a8a449b4ada864625ee5a4355578a3aaf08ed>
 80054ee:	edd4 5a24 	vldr	s11, [r4, #144]	@ 0x90
 80054f2:	ee28 7a00 	vmul.f32	s14, s16, s0
 80054f6:	ed94 6a34 	vldr	s12, [r4, #208]	@ 0xd0
 80054fa:	eef1 5a65 	vneg.f32	s11, s11
 80054fe:	edd4 4a22 	vldr	s9, [r4, #136]	@ 0x88
 8005502:	ee26 5a06 	vmul.f32	s10, s12, s12
 8005506:	ed94 3a5e 	vldr	s6, [r4, #376]	@ 0x178
 800550a:	ee64 3a86 	vmul.f32	s7, s9, s12
 800550e:	edc4 4a30 	vstr	s9, [r4, #192]	@ 0xc0
 8005512:	ee27 2a25 	vmul.f32	s4, s14, s11
 8005516:	edc4 5a2f 	vstr	s11, [r4, #188]	@ 0xbc
 800551a:	ee65 2a86 	vmul.f32	s5, s11, s12
 800551e:	edd4 6a1a 	vldr	s13, [r4, #104]	@ 0x68
 8005522:	ee67 1a07 	vmul.f32	s3, s14, s14
 8005526:	edd4 7a58 	vldr	s15, [r4, #352]	@ 0x160
 800552a:	ee27 4a24 	vmul.f32	s8, s14, s9
 800552e:	ed84 3a2a 	vstr	s6, [r4, #168]	@ 0xa8
 8005532:	ee73 3ac2 	vsub.f32	s7, s7, s4
 8005536:	ed84 7a33 	vstr	s14, [r4, #204]	@ 0xcc
 800553a:	ee35 5a21 	vadd.f32	s10, s10, s3
 800553e:	ee34 4a22 	vadd.f32	s8, s8, s5
 8005542:	ee66 7aa7 	vmul.f32	s15, s13, s15
 8005546:	eec3 4a85 	vdiv.f32	s9, s7, s10
 800554a:	eec4 5a05 	vdiv.f32	s11, s8, s10
 800554e:	ee63 6a26 	vmul.f32	s13, s6, s13
 8005552:	ed9f 8ba7 	vldr	d8, [pc, #668]	@ 80057f0 <Recalibrate+0x478>
 8005556:	ee64 0aa7 	vmul.f32	s1, s9, s15
 800555a:	edc4 4a2c 	vstr	s9, [r4, #176]	@ 0xb0
 800555e:	ee25 5aa6 	vmul.f32	s10, s11, s13
 8005562:	edc4 5a2b 	vstr	s11, [r4, #172]	@ 0xac
 8005566:	ee25 0aa7 	vmul.f32	s0, s11, s15
 800556a:	ee64 6aa6 	vmul.f32	s13, s9, s13
 800556e:	ee70 0ac5 	vsub.f32	s1, s1, s10
 8005572:	ee30 0a26 	vadd.f32	s0, s0, s13
 8005576:	ee70 0a86 	vadd.f32	s1, s1, s12
 800557a:	ee30 0a07 	vadd.f32	s0, s0, s14
 800557e:	edc4 0a36 	vstr	s1, [r4, #216]	@ 0xd8
 8005582:	ed84 0a35 	vstr	s0, [r4, #212]	@ 0xd4
 8005586:	f004 fad7 	bl	8009b38 <SPE_atan2_Hcbd8c48e05b139646178cc6f7987b8955b6ce985_cb4a8a449b4ada864625ee5a4355578a3aaf08ed>
 800558a:	eeb7 7ac0 	vcvt.f64.f32	d7, s0
 800558e:	ed84 0a1c 	vstr	s0, [r4, #112]	@ 0x70
 8005592:	ed94 9a34 	vldr	s18, [r4, #208]	@ 0xd0
 8005596:	ee38 0b47 	vsub.f64	d0, d8, d7
 800559a:	eeb7 0bc0 	vcvt.f32.f64	s0, d0
 800559e:	f004 fac9 	bl	8009b34 <SPE_cos_Hcbd8c48e05b139646178cc6f7987b8955b6ce985_cb4a8a449b4ada864625ee5a4355578a3aaf08ed>
 80055a2:	edd4 7a1c 	vldr	s15, [r4, #112]	@ 0x70
 80055a6:	ee29 9a00 	vmul.f32	s18, s18, s0
 80055aa:	edd4 9a33 	vldr	s19, [r4, #204]	@ 0xcc
 80055ae:	eeb7 0ae7 	vcvt.f64.f32	d0, s15
 80055b2:	ee38 0b40 	vsub.f64	d0, d8, d0
 80055b6:	eeb7 0bc0 	vcvt.f32.f64	s0, d0
 80055ba:	f004 fab9 	bl	8009b30 <SPE_sin_Hcbd8c48e05b139646178cc6f7987b8955b6ce985_cb4a8a449b4ada864625ee5a4355578a3aaf08ed>
 80055be:	ee29 7a80 	vmul.f32	s14, s19, s0
 80055c2:	edd4 6a18 	vldr	s13, [r4, #96]	@ 0x60
 80055c6:	edd4 7a1c 	vldr	s15, [r4, #112]	@ 0x70
 80055ca:	ee39 9a47 	vsub.f32	s18, s18, s14
 80055ce:	edd4 9a34 	vldr	s19, [r4, #208]	@ 0xd0
 80055d2:	eeb7 0ae7 	vcvt.f64.f32	d0, s15
 80055d6:	eec9 7a26 	vdiv.f32	s15, s18, s13
 80055da:	ee38 0b40 	vsub.f64	d0, d8, d0
 80055de:	eeb7 0bc0 	vcvt.f32.f64	s0, d0
 80055e2:	edc4 7a32 	vstr	s15, [r4, #200]	@ 0xc8
 80055e6:	f004 faa3 	bl	8009b30 <SPE_sin_Hcbd8c48e05b139646178cc6f7987b8955b6ce985_cb4a8a449b4ada864625ee5a4355578a3aaf08ed>
 80055ea:	edd4 7a1c 	vldr	s15, [r4, #112]	@ 0x70
 80055ee:	ee69 9a80 	vmul.f32	s19, s19, s0
 80055f2:	ed94 9a33 	vldr	s18, [r4, #204]	@ 0xcc
 80055f6:	eeb7 0ae7 	vcvt.f64.f32	d0, s15
 80055fa:	ee38 0b40 	vsub.f64	d0, d8, d0
 80055fe:	eeb7 0bc0 	vcvt.f32.f64	s0, d0
 8005602:	f004 fa97 	bl	8009b34 <SPE_cos_Hcbd8c48e05b139646178cc6f7987b8955b6ce985_cb4a8a449b4ada864625ee5a4355578a3aaf08ed>
 8005606:	ee29 7a00 	vmul.f32	s14, s18, s0
 800560a:	edd4 7a1c 	vldr	s15, [r4, #112]	@ 0x70
 800560e:	edd4 6a18 	vldr	s13, [r4, #96]	@ 0x60
 8005612:	eeb7 0ae7 	vcvt.f64.f32	d0, s15
 8005616:	ed94 9a2c 	vldr	s18, [r4, #176]	@ 0xb0
 800561a:	ee77 7a29 	vadd.f32	s15, s14, s19
 800561e:	ee38 0b40 	vsub.f64	d0, d8, d0
 8005622:	ee87 7aa6 	vdiv.f32	s14, s15, s13
 8005626:	eeb7 0bc0 	vcvt.f32.f64	s0, d0
 800562a:	ed84 7a31 	vstr	s14, [r4, #196]	@ 0xc4
 800562e:	f004 fa81 	bl	8009b34 <SPE_cos_Hcbd8c48e05b139646178cc6f7987b8955b6ce985_cb4a8a449b4ada864625ee5a4355578a3aaf08ed>
 8005632:	edd4 7a1c 	vldr	s15, [r4, #112]	@ 0x70
 8005636:	ee29 9a00 	vmul.f32	s18, s18, s0
 800563a:	edd4 9a2b 	vldr	s19, [r4, #172]	@ 0xac
 800563e:	eeb7 0ae7 	vcvt.f64.f32	d0, s15
 8005642:	ee38 0b40 	vsub.f64	d0, d8, d0
 8005646:	eeb7 0bc0 	vcvt.f32.f64	s0, d0
 800564a:	f004 fa71 	bl	8009b30 <SPE_sin_Hcbd8c48e05b139646178cc6f7987b8955b6ce985_cb4a8a449b4ada864625ee5a4355578a3aaf08ed>
 800564e:	ee29 7a80 	vmul.f32	s14, s19, s0
 8005652:	edd4 6a11 	vldr	s13, [r4, #68]	@ 0x44
 8005656:	edd4 7a1c 	vldr	s15, [r4, #112]	@ 0x70
 800565a:	ee39 9a47 	vsub.f32	s18, s18, s14
 800565e:	edd4 9a2c 	vldr	s19, [r4, #176]	@ 0xb0
 8005662:	eeb7 0ae7 	vcvt.f64.f32	d0, s15
 8005666:	eec9 7a26 	vdiv.f32	s15, s18, s13
 800566a:	ee38 0b40 	vsub.f64	d0, d8, d0
 800566e:	eeb7 0bc0 	vcvt.f32.f64	s0, d0
 8005672:	edc4 7a2e 	vstr	s15, [r4, #184]	@ 0xb8
 8005676:	f004 fa5b 	bl	8009b30 <SPE_sin_Hcbd8c48e05b139646178cc6f7987b8955b6ce985_cb4a8a449b4ada864625ee5a4355578a3aaf08ed>
 800567a:	ed94 7a1c 	vldr	s14, [r4, #112]	@ 0x70
 800567e:	ee69 9a80 	vmul.f32	s19, s19, s0
 8005682:	ed94 9a2b 	vldr	s18, [r4, #172]	@ 0xac
 8005686:	eeb7 7ac7 	vcvt.f64.f32	d7, s14
 800568a:	ee38 0b47 	vsub.f64	d0, d8, d7
 800568e:	eeb7 0bc0 	vcvt.f32.f64	s0, d0
 8005692:	f004 fa4f 	bl	8009b34 <SPE_cos_Hcbd8c48e05b139646178cc6f7987b8955b6ce985_cb4a8a449b4ada864625ee5a4355578a3aaf08ed>
 8005696:	ed94 7a5b 	vldr	s14, [r4, #364]	@ 0x16c
 800569a:	edd4 6a59 	vldr	s13, [r4, #356]	@ 0x164
 800569e:	ee29 9a00 	vmul.f32	s18, s18, s0
 80056a2:	ed94 6a54 	vldr	s12, [r4, #336]	@ 0x150
 80056a6:	edd4 7a5d 	vldr	s15, [r4, #372]	@ 0x174
 80056aa:	ee67 5a06 	vmul.f32	s11, s14, s12
 80056ae:	ed94 2a52 	vldr	s4, [r4, #328]	@ 0x148
 80056b2:	ee77 7ae6 	vsub.f32	s15, s15, s13
 80056b6:	edd4 3a11 	vldr	s7, [r4, #68]	@ 0x44
 80056ba:	ee26 4a82 	vmul.f32	s8, s13, s4
 80056be:	edd4 2a2e 	vldr	s5, [r4, #184]	@ 0xb8
 80056c2:	ee36 6ac7 	vsub.f32	s12, s13, s14
 80056c6:	ed94 5a58 	vldr	s10, [r4, #352]	@ 0x160
 80056ca:	ee65 6aa7 	vmul.f32	s13, s11, s15
 80056ce:	edd4 4a31 	vldr	s9, [r4, #196]	@ 0xc4
 80056d2:	ee39 9a29 	vadd.f32	s18, s18, s19
 80056d6:	ed94 1a56 	vldr	s2, [r4, #344]	@ 0x158
 80056da:	ee62 5a85 	vmul.f32	s11, s5, s10
 80056de:	edc4 4a28 	vstr	s9, [r4, #160]	@ 0xa0
 80056e2:	eec6 0a84 	vdiv.f32	s1, s13, s8
 80056e6:	ed94 0a18 	vldr	s0, [r4, #96]	@ 0x60
 80056ea:	69e3      	ldr	r3, [r4, #28]
 80056ec:	f8d4 0138 	ldr.w	r0, [r4, #312]	@ 0x138
 80056f0:	f8d4 113c 	ldr.w	r1, [r4, #316]	@ 0x13c
 80056f4:	6a62      	ldr	r2, [r4, #36]	@ 0x24
 80056f6:	eec9 1a23 	vdiv.f32	s3, s18, s7
 80056fa:	62a3      	str	r3, [r4, #40]	@ 0x28
 80056fc:	6323      	str	r3, [r4, #48]	@ 0x30
 80056fe:	edc4 2a20 	vstr	s5, [r4, #128]	@ 0x80
 8005702:	63e0      	str	r0, [r4, #60]	@ 0x3c
 8005704:	6421      	str	r1, [r4, #64]	@ 0x40
 8005706:	ee62 6a87 	vmul.f32	s13, s5, s14
 800570a:	ed94 7a32 	vldr	s14, [r4, #200]	@ 0xc8
 800570e:	ee81 8a02 	vdiv.f32	s16, s2, s4
 8005712:	ed84 7a26 	vstr	s14, [r4, #152]	@ 0x98
 8005716:	ee77 7ae0 	vsub.f32	s15, s15, s1
 800571a:	ee36 6a20 	vadd.f32	s12, s12, s1
 800571e:	edd4 0a16 	vldr	s1, [r4, #88]	@ 0x58
 8005722:	ee75 5a87 	vadd.f32	s11, s11, s14
 8005726:	edc4 7a12 	vstr	s15, [r4, #72]	@ 0x48
 800572a:	ee22 7aa7 	vmul.f32	s14, s5, s15
 800572e:	ed84 6a13 	vstr	s12, [r4, #76]	@ 0x4c
 8005732:	eeb7 3b00 	vmov.f64	d3, #112	@ 0x3f800000  1.0
 8005736:	ee21 5a85 	vmul.f32	s10, s3, s10
 800573a:	edc4 1a2d 	vstr	s3, [r4, #180]	@ 0xb4
 800573e:	ee25 4aa2 	vmul.f32	s8, s11, s5
 8005742:	edc4 1a21 	vstr	s3, [r4, #132]	@ 0x84
 8005746:	ee77 5a86 	vadd.f32	s11, s15, s12
 800574a:	ee35 5a24 	vadd.f32	s10, s10, s9
 800574e:	ee62 4a86 	vmul.f32	s9, s5, s12
 8005752:	ee76 7a85 	vadd.f32	s15, s13, s10
 8005756:	ee65 6aa2 	vmul.f32	s13, s11, s5
 800575a:	eeb7 8ac8 	vcvt.f64.f32	d8, s16
 800575e:	ee34 6aa7 	vadd.f32	s12, s9, s15
 8005762:	edc4 7a1e 	vstr	s15, [r4, #120]	@ 0x78
 8005766:	ee76 6aa7 	vadd.f32	s13, s13, s15
 800576a:	ee33 3b48 	vsub.f64	d3, d3, d8
 800576e:	ee21 5a85 	vmul.f32	s10, s3, s10
 8005772:	ee66 7a81 	vmul.f32	s15, s13, s2
 8005776:	ee74 5a05 	vadd.f32	s11, s8, s10
 800577a:	eec7 6a82 	vdiv.f32	s13, s15, s4
 800577e:	ee85 5aa0 	vdiv.f32	s10, s11, s1
 8005782:	ee76 7a66 	vsub.f32	s15, s12, s13
 8005786:	ee37 7a27 	vadd.f32	s14, s14, s15
 800578a:	edc4 7a1d 	vstr	s15, [r4, #116]	@ 0x74
 800578e:	ed84 5a23 	vstr	s10, [r4, #140]	@ 0x8c
 8005792:	ee27 7a00 	vmul.f32	s14, s14, s0
 8005796:	eeb7 7ac7 	vcvt.f64.f32	d7, s14
 800579a:	ee87 6b03 	vdiv.f64	d6, d7, d3
 800579e:	eeb7 6bc6 	vcvt.f32.f64	s12, d6
 80057a2:	ed84 6a27 	vstr	s12, [r4, #156]	@ 0x9c
 80057a6:	f8c4 2110 	str.w	r2, [r4, #272]	@ 0x110
 80057aa:	ed94 0a69 	vldr	s0, [r4, #420]	@ 0x1a4
 80057ae:	edd4 8a6a 	vldr	s17, [r4, #424]	@ 0x1a8
 80057b2:	f004 f9bf 	bl	8009b34 <SPE_cos_Hcbd8c48e05b139646178cc6f7987b8955b6ce985_cb4a8a449b4ada864625ee5a4355578a3aaf08ed>
 80057b6:	eef0 7a40 	vmov.f32	s15, s0
 80057ba:	ed94 8a6a 	vldr	s16, [r4, #424]	@ 0x1a8
 80057be:	ed94 0a69 	vldr	s0, [r4, #420]	@ 0x1a4
 80057c2:	ee68 7aa7 	vmul.f32	s15, s17, s15
 80057c6:	edc4 7a75 	vstr	s15, [r4, #468]	@ 0x1d4
 80057ca:	f004 f9b1 	bl	8009b30 <SPE_sin_Hcbd8c48e05b139646178cc6f7987b8955b6ce985_cb4a8a449b4ada864625ee5a4355578a3aaf08ed>
 80057ce:	ee28 8a00 	vmul.f32	s16, s16, s0
 80057d2:	f8d4 309c 	ldr.w	r3, [r4, #156]	@ 0x9c
 80057d6:	ed84 8a74 	vstr	s16, [r4, #464]	@ 0x1d0
 80057da:	6163      	str	r3, [r4, #20]
 80057dc:	ecbd 8b04 	vpop	{d8-d9}
 80057e0:	bd10      	pop	{r4, pc}
 80057e2:	bf00      	nop
 80057e4:	f3af 8000 	nop.w
 80057e8:	54442d18 	.word	0x54442d18
 80057ec:	401921fb 	.word	0x401921fb
 80057f0:	54442d18 	.word	0x54442d18
 80057f4:	3ff921fb 	.word	0x3ff921fb

080057f8 <Reinitialize>:
 80057f8:	4bf9      	ldr	r3, [pc, #996]	@ (8005be0 <Reinitialize+0x3e8>)
 80057fa:	eeb0 0a00 	vmov.f32	s0, #0	@ 0x40000000  2.0
 80057fe:	7802      	ldrb	r2, [r0, #0]
 8005800:	f04f 517e 	mov.w	r1, #1065353216	@ 0x3f800000
 8005804:	eddf 7af7 	vldr	s15, [pc, #988]	@ 8005be4 <Reinitialize+0x3ec>
 8005808:	2a00      	cmp	r2, #0
 800580a:	6f82      	ldr	r2, [r0, #120]	@ 0x78
 800580c:	ee00 1a90 	vmov	s1, r1
 8005810:	fe07 0a80 	vseleq.f32	s0, s15, s0
 8005814:	e92d 41f0 	stmdb	sp!, {r4, r5, r6, r7, r8, lr}
 8005818:	681f      	ldr	r7, [r3, #0]
 800581a:	f500 780f 	add.w	r8, r0, #572	@ 0x23c
 800581e:	6f43      	ldr	r3, [r0, #116]	@ 0x74
 8005820:	4604      	mov	r4, r0
 8005822:	f8d0 623c 	ldr.w	r6, [r0, #572]	@ 0x23c
 8005826:	ed2d 8b10 	vpush	{d8-d15}
 800582a:	b0bc      	sub	sp, #240	@ 0xf0
 800582c:	f8c0 3210 	str.w	r3, [r0, #528]	@ 0x210
 8005830:	6f03      	ldr	r3, [r0, #112]	@ 0x70
 8005832:	f8c0 1224 	str.w	r1, [r0, #548]	@ 0x224
 8005836:	f8c0 2218 	str.w	r2, [r0, #536]	@ 0x218
 800583a:	f8c0 3208 	str.w	r3, [r0, #520]	@ 0x208
 800583e:	edc0 7a77 	vstr	s15, [r0, #476]	@ 0x1dc
 8005842:	edc0 7a78 	vstr	s15, [r0, #480]	@ 0x1e0
 8005846:	edc0 7a76 	vstr	s15, [r0, #472]	@ 0x1d8
 800584a:	edc0 7a7e 	vstr	s15, [r0, #504]	@ 0x1f8
 800584e:	edc0 7a80 	vstr	s15, [r0, #512]	@ 0x200
 8005852:	edc0 7a81 	vstr	s15, [r0, #516]	@ 0x204
 8005856:	edc0 7a7c 	vstr	s15, [r0, #496]	@ 0x1f0
 800585a:	edc0 7a06 	vstr	s15, [r0, #24]
 800585e:	edc0 7a02 	vstr	s15, [r0, #8]
 8005862:	edc0 7a03 	vstr	s15, [r0, #12]
 8005866:	edc0 7a7d 	vstr	s15, [r0, #500]	@ 0x1f4
 800586a:	edc0 7a7f 	vstr	s15, [r0, #508]	@ 0x1fc
 800586e:	f8c0 723c 	str.w	r7, [r0, #572]	@ 0x23c
 8005872:	4640      	mov	r0, r8
 8005874:	f004 f92e 	bl	8009ad4 <SPE_greater_Hcbd8c48e05b139646178cc6f7987b8955b6ce985_cb4a8a449b4ada864625ee5a4355578a3aaf08ed>
 8005878:	ed94 7a6e 	vldr	s14, [r4, #440]	@ 0x1b8
 800587c:	edd4 6a43 	vldr	s13, [r4, #268]	@ 0x10c
 8005880:	4605      	mov	r5, r0
 8005882:	ed94 8a42 	vldr	s16, [r4, #264]	@ 0x108
 8005886:	eec6 7a87 	vdiv.f32	s15, s13, s14
 800588a:	ed9f cad6 	vldr	s24, [pc, #856]	@ 8005be4 <Reinitialize+0x3ec>
 800588e:	ed94 0a82 	vldr	s0, [r4, #520]	@ 0x208
 8005892:	ed94 aa11 	vldr	s20, [r4, #68]	@ 0x44
 8005896:	ed8d ca1a 	vstr	s24, [sp, #104]	@ 0x68
 800589a:	ed8d ca1b 	vstr	s24, [sp, #108]	@ 0x6c
 800589e:	eec8 6a07 	vdiv.f32	s13, s16, s14
 80058a2:	eef1 7a67 	vneg.f32	s15, s15
 80058a6:	edcd 7a19 	vstr	s15, [sp, #100]	@ 0x64
 80058aa:	edcd 6a18 	vstr	s13, [sp, #96]	@ 0x60
 80058ae:	f004 f93f 	bl	8009b30 <SPE_sin_Hcbd8c48e05b139646178cc6f7987b8955b6ce985_cb4a8a449b4ada864625ee5a4355578a3aaf08ed>
 80058b2:	eef0 7a40 	vmov.f32	s15, s0
 80058b6:	ed94 0a82 	vldr	s0, [r4, #520]	@ 0x208
 80058ba:	ed94 9a18 	vldr	s18, [r4, #96]	@ 0x60
 80058be:	ee2a aa27 	vmul.f32	s20, s20, s15
 80058c2:	f004 f937 	bl	8009b34 <SPE_cos_Hcbd8c48e05b139646178cc6f7987b8955b6ce985_cb4a8a449b4ada864625ee5a4355578a3aaf08ed>
 80058c6:	edd4 6a6e 	vldr	s13, [r4, #440]	@ 0x1b8
 80058ca:	ee29 9a00 	vmul.f32	s18, s18, s0
 80058ce:	eeb7 7ae6 	vcvt.f64.f32	d7, s13
 80058d2:	ee2a aa08 	vmul.f32	s20, s20, s16
 80058d6:	eeb7 8b00 	vmov.f64	d8, #112	@ 0x3f800000  1.0
 80058da:	eeb0 0a66 	vmov.f32	s0, s13
 80058de:	eeb7 baca 	vcvt.f64.f32	d11, s20
 80058e2:	ee88 6b07 	vdiv.f64	d6, d8, d7
 80058e6:	eeb7 9ac9 	vcvt.f64.f32	d9, s18
 80058ea:	ee86 ab07 	vdiv.f64	d10, d6, d7
 80058ee:	f004 f903 	bl	8009af8 <SPE_ipowSquare_Hcbd8c48e05b139646178cc6f7987b8955b6ce985_cb4a8a449b4ada864625ee5a4355578a3aaf08ed>
 80058f2:	ed94 7a5b 	vldr	s14, [r4, #364]	@ 0x16c
 80058f6:	ed94 ea18 	vldr	s28, [r4, #96]	@ 0x60
 80058fa:	eeb0 6a40 	vmov.f32	s12, s0
 80058fe:	ed94 0a82 	vldr	s0, [r4, #520]	@ 0x208
 8005902:	eeb7 7ac7 	vcvt.f64.f32	d7, s14
 8005906:	eeb7 6ac6 	vcvt.f64.f32	d6, s12
 800590a:	ee88 5b06 	vdiv.f64	d5, d8, d6
 800590e:	ee3a ab45 	vsub.f64	d10, d10, d5
 8005912:	ee2a ab09 	vmul.f64	d10, d10, d9
 8005916:	ee2a ab07 	vmul.f64	d10, d10, d7
 800591a:	f004 f909 	bl	8009b30 <SPE_sin_Hcbd8c48e05b139646178cc6f7987b8955b6ce985_cb4a8a449b4ada864625ee5a4355578a3aaf08ed>
 800591e:	edd4 6a6e 	vldr	s13, [r4, #440]	@ 0x1b8
 8005922:	eeb7 7ae6 	vcvt.f64.f32	d7, s13
 8005926:	ee2e ea00 	vmul.f32	s28, s28, s0
 800592a:	eeb0 0a66 	vmov.f32	s0, s13
 800592e:	ee88 6b07 	vdiv.f64	d6, d8, d7
 8005932:	eeb7 eace 	vcvt.f64.f32	d14, s28
 8005936:	ee86 db07 	vdiv.f64	d13, d6, d7
 800593a:	f004 f8dd 	bl	8009af8 <SPE_ipowSquare_Hcbd8c48e05b139646178cc6f7987b8955b6ce985_cb4a8a449b4ada864625ee5a4355578a3aaf08ed>
 800593e:	ed94 6a58 	vldr	s12, [r4, #352]	@ 0x160
 8005942:	edd4 ca43 	vldr	s25, [r4, #268]	@ 0x10c
 8005946:	ed94 9a11 	vldr	s18, [r4, #68]	@ 0x44
 800594a:	eeb0 7a40 	vmov.f32	s14, s0
 800594e:	ed94 0a82 	vldr	s0, [r4, #520]	@ 0x208
 8005952:	eeb7 6ac6 	vcvt.f64.f32	d6, s12
 8005956:	eeb7 7ac7 	vcvt.f64.f32	d7, s14
 800595a:	ee88 5b07 	vdiv.f64	d5, d8, d7
 800595e:	ee3d 7b45 	vsub.f64	d7, d13, d5
 8005962:	ee27 7b0e 	vmul.f64	d7, d7, d14
 8005966:	ee07 ab06 	vmla.f64	d10, d7, d6
 800596a:	f004 f8e3 	bl	8009b34 <SPE_cos_Hcbd8c48e05b139646178cc6f7987b8955b6ce985_cb4a8a449b4ada864625ee5a4355578a3aaf08ed>
 800596e:	edd4 9a18 	vldr	s19, [r4, #96]	@ 0x60
 8005972:	eeb0 7a40 	vmov.f32	s14, s0
 8005976:	ed94 0a82 	vldr	s0, [r4, #520]	@ 0x208
 800597a:	ee29 7a07 	vmul.f32	s14, s18, s14
 800597e:	ee27 7a2c 	vmul.f32	s14, s14, s25
 8005982:	ee3b ab4a 	vsub.f64	d10, d11, d10
 8005986:	eeb7 7ac7 	vcvt.f64.f32	d7, s14
 800598a:	ee37 7b0a 	vadd.f64	d7, d7, d10
 800598e:	eeb7 7bc7 	vcvt.f32.f64	s14, d7
 8005992:	ed8d 7a1c 	vstr	s14, [sp, #112]	@ 0x70
 8005996:	f004 f8cb 	bl	8009b30 <SPE_sin_Hcbd8c48e05b139646178cc6f7987b8955b6ce985_cb4a8a449b4ada864625ee5a4355578a3aaf08ed>
 800599a:	edd4 6a6e 	vldr	s13, [r4, #440]	@ 0x1b8
 800599e:	ee29 9a80 	vmul.f32	s18, s19, s0
 80059a2:	eeb7 7ae6 	vcvt.f64.f32	d7, s13
 80059a6:	eeb0 0a66 	vmov.f32	s0, s13
 80059aa:	eeb7 9ac9 	vcvt.f64.f32	d9, s18
 80059ae:	ee88 6b07 	vdiv.f64	d6, d8, d7
 80059b2:	ee86 ab07 	vdiv.f64	d10, d6, d7
 80059b6:	f004 f89f 	bl	8009af8 <SPE_ipowSquare_Hcbd8c48e05b139646178cc6f7987b8955b6ce985_cb4a8a449b4ada864625ee5a4355578a3aaf08ed>
 80059ba:	ed94 4a5a 	vldr	s8, [r4, #360]	@ 0x168
 80059be:	edd4 5a5c 	vldr	s11, [r4, #368]	@ 0x170
 80059c2:	ed94 7a5e 	vldr	s14, [r4, #376]	@ 0x178
 80059c6:	edd4 7a55 	vldr	s15, [r4, #340]	@ 0x154
 80059ca:	eeb7 6ac0 	vcvt.f64.f32	d6, s0
 80059ce:	ee37 7a44 	vsub.f32	s14, s14, s8
 80059d2:	edd4 4a53 	vldr	s9, [r4, #332]	@ 0x14c
 80059d6:	ee67 7aa5 	vmul.f32	s15, s15, s11
 80059da:	ed94 0a82 	vldr	s0, [r4, #520]	@ 0x208
 80059de:	ee88 3b06 	vdiv.f64	d3, d8, d6
 80059e2:	ed94 da18 	vldr	s26, [r4, #96]	@ 0x60
 80059e6:	ee67 7a87 	vmul.f32	s15, s15, s14
 80059ea:	eeb7 5ae4 	vcvt.f64.f32	d5, s9
 80059ee:	eec7 6aa4 	vdiv.f32	s13, s15, s9
 80059f2:	eec6 7a84 	vdiv.f32	s15, s13, s8
 80059f6:	ee3a 6b43 	vsub.f64	d6, d10, d3
 80059fa:	ee26 6b09 	vmul.f64	d6, d6, d9
 80059fe:	ee37 7a67 	vsub.f32	s14, s14, s15
 8005a02:	ee27 7a24 	vmul.f32	s14, s14, s9
 8005a06:	eeb7 7ac7 	vcvt.f64.f32	d7, s14
 8005a0a:	ee27 7b06 	vmul.f64	d7, d7, d6
 8005a0e:	ee87 9b05 	vdiv.f64	d9, d7, d5
 8005a12:	f004 f88f 	bl	8009b34 <SPE_cos_Hcbd8c48e05b139646178cc6f7987b8955b6ce985_cb4a8a449b4ada864625ee5a4355578a3aaf08ed>
 8005a16:	edd4 6a6e 	vldr	s13, [r4, #440]	@ 0x1b8
 8005a1a:	eeb7 7ae6 	vcvt.f64.f32	d7, s13
 8005a1e:	ee2d da00 	vmul.f32	s26, s26, s0
 8005a22:	eeb0 0a66 	vmov.f32	s0, s13
 8005a26:	ee88 6b07 	vdiv.f64	d6, d8, d7
 8005a2a:	eeb7 dacd 	vcvt.f64.f32	d13, s26
 8005a2e:	ee86 ab07 	vdiv.f64	d10, d6, d7
 8005a32:	f004 f861 	bl	8009af8 <SPE_ipowSquare_Hcbd8c48e05b139646178cc6f7987b8955b6ce985_cb4a8a449b4ada864625ee5a4355578a3aaf08ed>
 8005a36:	ed94 6a58 	vldr	s12, [r4, #352]	@ 0x160
 8005a3a:	ed94 ba18 	vldr	s22, [r4, #96]	@ 0x60
 8005a3e:	eeb0 7a40 	vmov.f32	s14, s0
 8005a42:	ed94 0a82 	vldr	s0, [r4, #520]	@ 0x208
 8005a46:	eeb7 6ac6 	vcvt.f64.f32	d6, s12
 8005a4a:	eeb7 7ac7 	vcvt.f64.f32	d7, s14
 8005a4e:	ee88 5b07 	vdiv.f64	d5, d8, d7
 8005a52:	ee3a 7b45 	vsub.f64	d7, d10, d5
 8005a56:	ee27 7b0d 	vmul.f64	d7, d7, d13
 8005a5a:	ee07 9b46 	vmls.f64	d9, d7, d6
 8005a5e:	f004 f867 	bl	8009b30 <SPE_sin_Hcbd8c48e05b139646178cc6f7987b8955b6ce985_cb4a8a449b4ada864625ee5a4355578a3aaf08ed>
 8005a62:	edd4 6a6e 	vldr	s13, [r4, #440]	@ 0x1b8
 8005a66:	eeb7 7ae6 	vcvt.f64.f32	d7, s13
 8005a6a:	ee2b ba00 	vmul.f32	s22, s22, s0
 8005a6e:	eeb0 0a66 	vmov.f32	s0, s13
 8005a72:	ee88 6b07 	vdiv.f64	d6, d8, d7
 8005a76:	eeb7 bacb 	vcvt.f64.f32	d11, s22
 8005a7a:	ee86 ab07 	vdiv.f64	d10, d6, d7
 8005a7e:	f004 f83b 	bl	8009af8 <SPE_ipowSquare_Hcbd8c48e05b139646178cc6f7987b8955b6ce985_cb4a8a449b4ada864625ee5a4355578a3aaf08ed>
 8005a82:	ed94 4a55 	vldr	s8, [r4, #340]	@ 0x154
 8005a86:	edd4 6a5a 	vldr	s13, [r4, #360]	@ 0x168
 8005a8a:	ed94 7a5c 	vldr	s14, [r4, #368]	@ 0x170
 8005a8e:	edd4 7a5e 	vldr	s15, [r4, #376]	@ 0x178
 8005a92:	eeb7 0ac0 	vcvt.f64.f32	d0, s0
 8005a96:	ee24 6a07 	vmul.f32	s12, s8, s14
 8005a9a:	edd4 3a53 	vldr	s7, [r4, #332]	@ 0x14c
 8005a9e:	ee77 7ae6 	vsub.f32	s15, s15, s13
 8005aa2:	edd4 ca18 	vldr	s25, [r4, #96]	@ 0x60
 8005aa6:	ee88 5b00 	vdiv.f64	d5, d8, d0
 8005aaa:	ed94 0a82 	vldr	s0, [r4, #520]	@ 0x208
 8005aae:	ee67 7a86 	vmul.f32	s15, s15, s12
 8005ab2:	ee76 4ac7 	vsub.f32	s9, s13, s14
 8005ab6:	ee87 6aa3 	vdiv.f32	s12, s15, s7
 8005aba:	ee86 7a26 	vdiv.f32	s14, s12, s13
 8005abe:	ee3a 6b45 	vsub.f64	d6, d10, d5
 8005ac2:	eeb7 5ac4 	vcvt.f64.f32	d5, s8
 8005ac6:	ee26 6b0b 	vmul.f64	d6, d6, d11
 8005aca:	ee37 7a24 	vadd.f32	s14, s14, s9
 8005ace:	ee27 7a04 	vmul.f32	s14, s14, s8
 8005ad2:	eeb7 7ac7 	vcvt.f64.f32	d7, s14
 8005ad6:	ee27 7b06 	vmul.f64	d7, d7, d6
 8005ada:	ee87 db05 	vdiv.f64	d13, d7, d5
 8005ade:	f004 f827 	bl	8009b30 <SPE_sin_Hcbd8c48e05b139646178cc6f7987b8955b6ce985_cb4a8a449b4ada864625ee5a4355578a3aaf08ed>
 8005ae2:	edd4 6a6e 	vldr	s13, [r4, #440]	@ 0x1b8
 8005ae6:	eeb7 7ae6 	vcvt.f64.f32	d7, s13
 8005aea:	ee2c ba80 	vmul.f32	s22, s25, s0
 8005aee:	eeb0 0a66 	vmov.f32	s0, s13
 8005af2:	ee88 6b07 	vdiv.f64	d6, d8, d7
 8005af6:	eeb7 bacb 	vcvt.f64.f32	d11, s22
 8005afa:	ee3d db09 	vadd.f64	d13, d13, d9
 8005afe:	ee86 ab07 	vdiv.f64	d10, d6, d7
 8005b02:	f003 fff9 	bl	8009af8 <SPE_ipowSquare_Hcbd8c48e05b139646178cc6f7987b8955b6ce985_cb4a8a449b4ada864625ee5a4355578a3aaf08ed>
 8005b06:	ed94 6a5c 	vldr	s12, [r4, #368]	@ 0x170
 8005b0a:	edd4 9a42 	vldr	s19, [r4, #264]	@ 0x108
 8005b0e:	ed94 9a11 	vldr	s18, [r4, #68]	@ 0x44
 8005b12:	eeb0 7a40 	vmov.f32	s14, s0
 8005b16:	ed94 0a82 	vldr	s0, [r4, #520]	@ 0x208
 8005b1a:	eeb7 6ac6 	vcvt.f64.f32	d6, s12
 8005b1e:	eeb7 7ac7 	vcvt.f64.f32	d7, s14
 8005b22:	ee88 5b07 	vdiv.f64	d5, d8, d7
 8005b26:	ee3a 7b45 	vsub.f64	d7, d10, d5
 8005b2a:	ee27 7b0b 	vmul.f64	d7, d7, d11
 8005b2e:	ee07 db06 	vmla.f64	d13, d7, d6
 8005b32:	f003 ffff 	bl	8009b34 <SPE_cos_Hcbd8c48e05b139646178cc6f7987b8955b6ce985_cb4a8a449b4ada864625ee5a4355578a3aaf08ed>
 8005b36:	edd4 aa43 	vldr	s21, [r4, #268]	@ 0x10c
 8005b3a:	ed94 aa11 	vldr	s20, [r4, #68]	@ 0x44
 8005b3e:	eef0 7a40 	vmov.f32	s15, s0
 8005b42:	ed94 0a82 	vldr	s0, [r4, #520]	@ 0x208
 8005b46:	ee29 9a27 	vmul.f32	s18, s18, s15
 8005b4a:	f003 fff1 	bl	8009b30 <SPE_sin_Hcbd8c48e05b139646178cc6f7987b8955b6ce985_cb4a8a449b4ada864625ee5a4355578a3aaf08ed>
 8005b4e:	edd4 7a6e 	vldr	s15, [r4, #440]	@ 0x1b8
 8005b52:	ee2a 7a00 	vmul.f32	s14, s20, s0
 8005b56:	edd4 5a42 	vldr	s11, [r4, #264]	@ 0x108
 8005b5a:	edd4 6a43 	vldr	s13, [r4, #268]	@ 0x10c
 8005b5e:	ee29 9a29 	vmul.f32	s18, s18, s19
 8005b62:	ee27 7a2a 	vmul.f32	s14, s14, s21
 8005b66:	ed94 0a82 	vldr	s0, [r4, #520]	@ 0x208
 8005b6a:	ee86 6aa7 	vdiv.f32	s12, s13, s15
 8005b6e:	ed94 aa18 	vldr	s20, [r4, #96]	@ 0x60
 8005b72:	ed8d ca20 	vstr	s24, [sp, #128]	@ 0x80
 8005b76:	ed8d ca21 	vstr	s24, [sp, #132]	@ 0x84
 8005b7a:	eec5 6aa7 	vdiv.f32	s13, s11, s15
 8005b7e:	eeb7 9ac9 	vcvt.f64.f32	d9, s18
 8005b82:	eeb7 7ac7 	vcvt.f64.f32	d7, s14
 8005b86:	ee39 9b0d 	vadd.f64	d9, d9, d13
 8005b8a:	ee39 9b47 	vsub.f64	d9, d9, d7
 8005b8e:	ed8d 6a1e 	vstr	s12, [sp, #120]	@ 0x78
 8005b92:	eeb7 9bc9 	vcvt.f32.f64	s18, d9
 8005b96:	edcd 6a1f 	vstr	s13, [sp, #124]	@ 0x7c
 8005b9a:	ed8d 9a1d 	vstr	s18, [sp, #116]	@ 0x74
 8005b9e:	f003 ffc9 	bl	8009b34 <SPE_cos_Hcbd8c48e05b139646178cc6f7987b8955b6ce985_cb4a8a449b4ada864625ee5a4355578a3aaf08ed>
 8005ba2:	edd4 6a6e 	vldr	s13, [r4, #440]	@ 0x1b8
 8005ba6:	ee2a aa00 	vmul.f32	s20, s20, s0
 8005baa:	eeb7 7ae6 	vcvt.f64.f32	d7, s13
 8005bae:	eeb0 0a66 	vmov.f32	s0, s13
 8005bb2:	eeb7 aaca 	vcvt.f64.f32	d10, s20
 8005bb6:	ee88 6b07 	vdiv.f64	d6, d8, d7
 8005bba:	ee86 9b07 	vdiv.f64	d9, d6, d7
 8005bbe:	f003 ff9b 	bl	8009af8 <SPE_ipowSquare_Hcbd8c48e05b139646178cc6f7987b8955b6ce985_cb4a8a449b4ada864625ee5a4355578a3aaf08ed>
 8005bc2:	ed94 6a58 	vldr	s12, [r4, #352]	@ 0x160
 8005bc6:	ed94 ca18 	vldr	s24, [r4, #96]	@ 0x60
 8005bca:	eeb0 7a40 	vmov.f32	s14, s0
 8005bce:	ed94 0a82 	vldr	s0, [r4, #520]	@ 0x208
 8005bd2:	eeb7 6ac6 	vcvt.f64.f32	d6, s12
 8005bd6:	eeb7 7ac7 	vcvt.f64.f32	d7, s14
 8005bda:	ee88 5b07 	vdiv.f64	d5, d8, d7
 8005bde:	e003      	b.n	8005be8 <Reinitialize+0x3f0>
 8005be0:	0800a72c 	.word	0x0800a72c
 8005be4:	00000000 	.word	0x00000000
 8005be8:	ee39 5b45 	vsub.f64	d5, d9, d5
 8005bec:	ee25 ab0a 	vmul.f64	d10, d5, d10
 8005bf0:	ee2a ab06 	vmul.f64	d10, d10, d6
 8005bf4:	f003 ff9c 	bl	8009b30 <SPE_sin_Hcbd8c48e05b139646178cc6f7987b8955b6ce985_cb4a8a449b4ada864625ee5a4355578a3aaf08ed>
 8005bf8:	edd4 6a6e 	vldr	s13, [r4, #440]	@ 0x1b8
 8005bfc:	eeb7 7ae6 	vcvt.f64.f32	d7, s13
 8005c00:	ee2c ca00 	vmul.f32	s24, s24, s0
 8005c04:	eeb0 0a66 	vmov.f32	s0, s13
 8005c08:	ee88 6b07 	vdiv.f64	d6, d8, d7
 8005c0c:	eeb7 cacc 	vcvt.f64.f32	d12, s24
 8005c10:	ee86 bb07 	vdiv.f64	d11, d6, d7
 8005c14:	f003 ff70 	bl	8009af8 <SPE_ipowSquare_Hcbd8c48e05b139646178cc6f7987b8955b6ce985_cb4a8a449b4ada864625ee5a4355578a3aaf08ed>
 8005c18:	ed94 6a5b 	vldr	s12, [r4, #364]	@ 0x16c
 8005c1c:	edd4 9a43 	vldr	s19, [r4, #268]	@ 0x10c
 8005c20:	ed94 9a11 	vldr	s18, [r4, #68]	@ 0x44
 8005c24:	eeb0 7a40 	vmov.f32	s14, s0
 8005c28:	ed94 0a82 	vldr	s0, [r4, #520]	@ 0x208
 8005c2c:	eeb7 6ac6 	vcvt.f64.f32	d6, s12
 8005c30:	eeb7 7ac7 	vcvt.f64.f32	d7, s14
 8005c34:	ee88 5b07 	vdiv.f64	d5, d8, d7
 8005c38:	ee3b 7b45 	vsub.f64	d7, d11, d5
 8005c3c:	ee27 7b0c 	vmul.f64	d7, d7, d12
 8005c40:	ee07 ab46 	vmls.f64	d10, d7, d6
 8005c44:	f003 ff74 	bl	8009b30 <SPE_sin_Hcbd8c48e05b139646178cc6f7987b8955b6ce985_cb4a8a449b4ada864625ee5a4355578a3aaf08ed>
 8005c48:	ed94 ca42 	vldr	s24, [r4, #264]	@ 0x108
 8005c4c:	eef0 7a40 	vmov.f32	s15, s0
 8005c50:	ed94 0a82 	vldr	s0, [r4, #520]	@ 0x208
 8005c54:	ee29 9a27 	vmul.f32	s18, s18, s15
 8005c58:	eeb0 bb4a 	vmov.f64	d11, d10
 8005c5c:	ed94 aa11 	vldr	s20, [r4, #68]	@ 0x44
 8005c60:	f003 ff68 	bl	8009b34 <SPE_cos_Hcbd8c48e05b139646178cc6f7987b8955b6ce985_cb4a8a449b4ada864625ee5a4355578a3aaf08ed>
 8005c64:	eeb0 7a40 	vmov.f32	s14, s0
 8005c68:	ee29 9a29 	vmul.f32	s18, s18, s19
 8005c6c:	ed94 0a82 	vldr	s0, [r4, #520]	@ 0x208
 8005c70:	edd4 aa11 	vldr	s21, [r4, #68]	@ 0x44
 8005c74:	ee2a 7a07 	vmul.f32	s14, s20, s14
 8005c78:	eeb7 9ac9 	vcvt.f64.f32	d9, s18
 8005c7c:	ee27 7a0c 	vmul.f32	s14, s14, s24
 8005c80:	ee39 9b0b 	vadd.f64	d9, d9, d11
 8005c84:	edd4 ba43 	vldr	s23, [r4, #268]	@ 0x10c
 8005c88:	eeb7 7ac7 	vcvt.f64.f32	d7, s14
 8005c8c:	ee39 9b47 	vsub.f64	d9, d9, d7
 8005c90:	eeb7 9bc9 	vcvt.f32.f64	s18, d9
 8005c94:	ed8d 9a22 	vstr	s18, [sp, #136]	@ 0x88
 8005c98:	f003 ff4c 	bl	8009b34 <SPE_cos_Hcbd8c48e05b139646178cc6f7987b8955b6ce985_cb4a8a449b4ada864625ee5a4355578a3aaf08ed>
 8005c9c:	eeb0 9a40 	vmov.f32	s18, s0
 8005ca0:	ed94 0a82 	vldr	s0, [r4, #520]	@ 0x208
 8005ca4:	ed94 ba18 	vldr	s22, [r4, #96]	@ 0x60
 8005ca8:	f003 ff42 	bl	8009b30 <SPE_sin_Hcbd8c48e05b139646178cc6f7987b8955b6ce985_cb4a8a449b4ada864625ee5a4355578a3aaf08ed>
 8005cac:	edd4 6a6e 	vldr	s13, [r4, #440]	@ 0x1b8
 8005cb0:	ee2b ba00 	vmul.f32	s22, s22, s0
 8005cb4:	eeb7 7ae6 	vcvt.f64.f32	d7, s13
 8005cb8:	eeb0 0a66 	vmov.f32	s0, s13
 8005cbc:	ee2a 9a89 	vmul.f32	s18, s21, s18
 8005cc0:	ee88 6b07 	vdiv.f64	d6, d8, d7
 8005cc4:	ee29 9a2b 	vmul.f32	s18, s18, s23
 8005cc8:	eeb7 bacb 	vcvt.f64.f32	d11, s22
 8005ccc:	eeb7 9ac9 	vcvt.f64.f32	d9, s18
 8005cd0:	ee86 ab07 	vdiv.f64	d10, d6, d7
 8005cd4:	f003 ff10 	bl	8009af8 <SPE_ipowSquare_Hcbd8c48e05b139646178cc6f7987b8955b6ce985_cb4a8a449b4ada864625ee5a4355578a3aaf08ed>
 8005cd8:	ed94 7a58 	vldr	s14, [r4, #352]	@ 0x160
 8005cdc:	ed94 da18 	vldr	s26, [r4, #96]	@ 0x60
 8005ce0:	eeb0 6a40 	vmov.f32	s12, s0
 8005ce4:	ed94 0a82 	vldr	s0, [r4, #520]	@ 0x208
 8005ce8:	eeb7 7ac7 	vcvt.f64.f32	d7, s14
 8005cec:	eeb7 6ac6 	vcvt.f64.f32	d6, s12
 8005cf0:	ee88 5b06 	vdiv.f64	d5, d8, d6
 8005cf4:	ee3a ab45 	vsub.f64	d10, d10, d5
 8005cf8:	ee2a ab0b 	vmul.f64	d10, d10, d11
 8005cfc:	ee2a ab07 	vmul.f64	d10, d10, d7
 8005d00:	f003 ff18 	bl	8009b34 <SPE_cos_Hcbd8c48e05b139646178cc6f7987b8955b6ce985_cb4a8a449b4ada864625ee5a4355578a3aaf08ed>
 8005d04:	edd4 6a6e 	vldr	s13, [r4, #440]	@ 0x1b8
 8005d08:	eeb7 7ae6 	vcvt.f64.f32	d7, s13
 8005d0c:	ee2d da00 	vmul.f32	s26, s26, s0
 8005d10:	eeb0 0a66 	vmov.f32	s0, s13
 8005d14:	ee88 6b07 	vdiv.f64	d6, d8, d7
 8005d18:	eeb7 dacd 	vcvt.f64.f32	d13, s26
 8005d1c:	ee86 bb07 	vdiv.f64	d11, d6, d7
 8005d20:	f003 feea 	bl	8009af8 <SPE_ipowSquare_Hcbd8c48e05b139646178cc6f7987b8955b6ce985_cb4a8a449b4ada864625ee5a4355578a3aaf08ed>
 8005d24:	edd4 6a5a 	vldr	s13, [r4, #360]	@ 0x168
 8005d28:	ed94 6a5c 	vldr	s12, [r4, #368]	@ 0x170
 8005d2c:	ed94 7a5e 	vldr	s14, [r4, #376]	@ 0x178
 8005d30:	edd4 7a55 	vldr	s15, [r4, #340]	@ 0x154
 8005d34:	eeb7 0ac0 	vcvt.f64.f32	d0, s0
 8005d38:	ee37 7a66 	vsub.f32	s14, s14, s13
 8005d3c:	edd4 5a53 	vldr	s11, [r4, #332]	@ 0x14c
 8005d40:	ee67 7a86 	vmul.f32	s15, s15, s12
 8005d44:	ed94 ca18 	vldr	s24, [r4, #96]	@ 0x60
 8005d48:	ee88 4b00 	vdiv.f64	d4, d8, d0
 8005d4c:	ed94 0a82 	vldr	s0, [r4, #520]	@ 0x208
 8005d50:	ee67 7a87 	vmul.f32	s15, s15, s14
 8005d54:	ee87 6aa5 	vdiv.f32	s12, s15, s11
 8005d58:	eec6 7a26 	vdiv.f32	s15, s12, s13
 8005d5c:	eeb7 6ae5 	vcvt.f64.f32	d6, s11
 8005d60:	ee3b bb44 	vsub.f64	d11, d11, d4
 8005d64:	ee2b bb0d 	vmul.f64	d11, d11, d13
 8005d68:	ee37 7a67 	vsub.f32	s14, s14, s15
 8005d6c:	ee27 7a25 	vmul.f32	s14, s14, s11
 8005d70:	eeb7 7ac7 	vcvt.f64.f32	d7, s14
 8005d74:	ee27 7b0b 	vmul.f64	d7, d7, d11
 8005d78:	ee87 bb06 	vdiv.f64	d11, d7, d6
 8005d7c:	f003 feda 	bl	8009b34 <SPE_cos_Hcbd8c48e05b139646178cc6f7987b8955b6ce985_cb4a8a449b4ada864625ee5a4355578a3aaf08ed>
 8005d80:	edd4 6a6e 	vldr	s13, [r4, #440]	@ 0x1b8
 8005d84:	eeb7 7ae6 	vcvt.f64.f32	d7, s13
 8005d88:	ee2c ca00 	vmul.f32	s24, s24, s0
 8005d8c:	eeb0 0a66 	vmov.f32	s0, s13
 8005d90:	ee88 6b07 	vdiv.f64	d6, d8, d7
 8005d94:	eeb7 cacc 	vcvt.f64.f32	d12, s24
 8005d98:	ee3b bb0a 	vadd.f64	d11, d11, d10
 8005d9c:	ee86 ab07 	vdiv.f64	d10, d6, d7
 8005da0:	f003 feaa 	bl	8009af8 <SPE_ipowSquare_Hcbd8c48e05b139646178cc6f7987b8955b6ce985_cb4a8a449b4ada864625ee5a4355578a3aaf08ed>
 8005da4:	edd4 5a55 	vldr	s11, [r4, #340]	@ 0x154
 8005da8:	ed94 6a5a 	vldr	s12, [r4, #360]	@ 0x168
 8005dac:	ed94 7a5c 	vldr	s14, [r4, #368]	@ 0x170
 8005db0:	edd4 7a5e 	vldr	s15, [r4, #376]	@ 0x178
 8005db4:	eeb7 0ac0 	vcvt.f64.f32	d0, s0
 8005db8:	ee25 5a87 	vmul.f32	s10, s11, s14
 8005dbc:	ed94 da18 	vldr	s26, [r4, #96]	@ 0x60
 8005dc0:	ee77 7ac6 	vsub.f32	s15, s15, s12
 8005dc4:	ee76 6a47 	vsub.f32	s13, s12, s14
 8005dc8:	ed94 7a53 	vldr	s14, [r4, #332]	@ 0x14c
 8005dcc:	ee88 4b00 	vdiv.f64	d4, d8, d0
 8005dd0:	ed94 0a82 	vldr	s0, [r4, #520]	@ 0x208
 8005dd4:	ee67 7a85 	vmul.f32	s15, s15, s10
 8005dd8:	ee87 5a87 	vdiv.f32	s10, s15, s14
 8005ddc:	ee85 7a06 	vdiv.f32	s14, s10, s12
 8005de0:	ee3a ab44 	vsub.f64	d10, d10, d4
 8005de4:	ee2a ab0c 	vmul.f64	d10, d10, d12
 8005de8:	ee37 7a26 	vadd.f32	s14, s14, s13
 8005dec:	eeb7 6ae5 	vcvt.f64.f32	d6, s11
 8005df0:	ee27 7a25 	vmul.f32	s14, s14, s11
 8005df4:	eeb7 7ac7 	vcvt.f64.f32	d7, s14
 8005df8:	ee27 7b0a 	vmul.f64	d7, d7, d10
 8005dfc:	ee87 ab06 	vdiv.f64	d10, d7, d6
 8005e00:	f003 fe98 	bl	8009b34 <SPE_cos_Hcbd8c48e05b139646178cc6f7987b8955b6ce985_cb4a8a449b4ada864625ee5a4355578a3aaf08ed>
 8005e04:	edd4 6a6e 	vldr	s13, [r4, #440]	@ 0x1b8
 8005e08:	eeb7 7ae6 	vcvt.f64.f32	d7, s13
 8005e0c:	ee2d ca00 	vmul.f32	s24, s26, s0
 8005e10:	eeb0 0a66 	vmov.f32	s0, s13
 8005e14:	ee88 6b07 	vdiv.f64	d6, d8, d7
 8005e18:	eeb7 cacc 	vcvt.f64.f32	d12, s24
 8005e1c:	ee3a ab0b 	vadd.f64	d10, d10, d11
 8005e20:	ee86 bb07 	vdiv.f64	d11, d6, d7
 8005e24:	f003 fe68 	bl	8009af8 <SPE_ipowSquare_Hcbd8c48e05b139646178cc6f7987b8955b6ce985_cb4a8a449b4ada864625ee5a4355578a3aaf08ed>
 8005e28:	ed94 6a5c 	vldr	s12, [r4, #368]	@ 0x170
 8005e2c:	ed94 da42 	vldr	s26, [r4, #264]	@ 0x108
 8005e30:	eeb0 7a40 	vmov.f32	s14, s0
 8005e34:	ed94 0a82 	vldr	s0, [r4, #520]	@ 0x208
 8005e38:	eeb7 6ac6 	vcvt.f64.f32	d6, s12
 8005e3c:	eeb7 7ac7 	vcvt.f64.f32	d7, s14
 8005e40:	ee88 5b07 	vdiv.f64	d5, d8, d7
 8005e44:	ed94 8a11 	vldr	s16, [r4, #68]	@ 0x44
 8005e48:	ee3b 7b45 	vsub.f64	d7, d11, d5
 8005e4c:	ee27 7b0c 	vmul.f64	d7, d7, d12
 8005e50:	ee07 ab06 	vmla.f64	d10, d7, d6
 8005e54:	f003 fe6c 	bl	8009b30 <SPE_sin_Hcbd8c48e05b139646178cc6f7987b8955b6ce985_cb4a8a449b4ada864625ee5a4355578a3aaf08ed>
 8005e58:	ee28 7a00 	vmul.f32	s14, s16, s0
 8005e5c:	ee27 7a0d 	vmul.f32	s14, s14, s26
 8005e60:	ee39 9b4a 	vsub.f64	d9, d9, d10
 8005e64:	eeb7 7ac7 	vcvt.f64.f32	d7, s14
 8005e68:	ee37 7b09 	vadd.f64	d7, d7, d9
 8005e6c:	eeb7 7bc7 	vcvt.f32.f64	s14, d7
 8005e70:	ed8d 7a23 	vstr	s14, [sp, #140]	@ 0x8c
 8005e74:	2d00      	cmp	r5, #0
 8005e76:	f041 835f 	bne.w	8007538 <Reinitialize+0x1d40>
 8005e7a:	ed9f ab15 	vldr	d10, [pc, #84]	@ 8005ed0 <Reinitialize+0x6d8>
 8005e7e:	edd4 2a3a 	vldr	s5, [r4, #232]	@ 0xe8
 8005e82:	ed94 7a37 	vldr	s14, [r4, #220]	@ 0xdc
 8005e86:	ed94 2a39 	vldr	s4, [r4, #228]	@ 0xe4
 8005e8a:	eeb7 3ae2 	vcvt.f64.f32	d3, s5
 8005e8e:	edd4 7a38 	vldr	s15, [r4, #224]	@ 0xe0
 8005e92:	ee22 5a87 	vmul.f32	s10, s5, s14
 8005e96:	ee27 7a02 	vmul.f32	s14, s14, s4
 8005e9a:	ed94 6a43 	vldr	s12, [r4, #268]	@ 0x10c
 8005e9e:	ee62 6a27 	vmul.f32	s13, s4, s15
 8005ea2:	ee62 7aa7 	vmul.f32	s15, s5, s15
 8005ea6:	ee35 5a26 	vadd.f32	s10, s10, s13
 8005eaa:	ee77 7ac7 	vsub.f32	s15, s15, s14
 8005eae:	eeb7 6ac6 	vcvt.f64.f32	d6, s12
 8005eb2:	eeb7 5ac5 	vcvt.f64.f32	d5, s10
 8005eb6:	eeb7 7ae7 	vcvt.f64.f32	d7, s15
 8005eba:	ee13 5b0a 	vnmls.f64	d5, d3, d10
 8005ebe:	ee25 4b06 	vmul.f64	d4, d5, d6
 8005ec2:	2d00      	cmp	r5, #0
 8005ec4:	f041 833c 	bne.w	8007540 <Reinitialize+0x1d48>
 8005ec8:	ed9f 9b01 	vldr	d9, [pc, #4]	@ 8005ed0 <Reinitialize+0x6d8>
 8005ecc:	e004      	b.n	8005ed8 <Reinitialize+0x6e0>
 8005ece:	bf00      	nop
	...
 8005ed8:	edcd 2a27 	vstr	s5, [sp, #156]	@ 0x9c
 8005edc:	eef1 2a42 	vneg.f32	s5, s4
 8005ee0:	eeb7 8b00 	vmov.f64	d8, #112	@ 0x3f800000  1.0
 8005ee4:	ed94 1a42 	vldr	s2, [r4, #264]	@ 0x108
 8005ee8:	ed94 0a82 	vldr	s0, [r4, #520]	@ 0x208
 8005eec:	edcd 2a26 	vstr	s5, [sp, #152]	@ 0x98
 8005ef0:	eeb7 2ac2 	vcvt.f64.f32	d2, s4
 8005ef4:	eeb7 1ac1 	vcvt.f64.f32	d1, s2
 8005ef8:	edd4 ba18 	vldr	s23, [r4, #96]	@ 0x60
 8005efc:	ee02 7b49 	vmls.f64	d7, d2, d9
 8005f00:	ee37 7b08 	vadd.f64	d7, d7, d8
 8005f04:	ee26 6b07 	vmul.f64	d6, d6, d7
 8005f08:	ee07 4b01 	vmla.f64	d4, d7, d1
 8005f0c:	ee15 6b01 	vnmls.f64	d6, d5, d1
 8005f10:	ee34 4b03 	vadd.f64	d4, d4, d3
 8005f14:	eeb7 4bc4 	vcvt.f32.f64	s8, d4
 8005f18:	ee36 6b42 	vsub.f64	d6, d6, d2
 8005f1c:	ed8d 4a24 	vstr	s8, [sp, #144]	@ 0x90
 8005f20:	eeb7 6bc6 	vcvt.f32.f64	s12, d6
 8005f24:	ed8d 6a25 	vstr	s12, [sp, #148]	@ 0x94
 8005f28:	f003 fe02 	bl	8009b30 <SPE_sin_Hcbd8c48e05b139646178cc6f7987b8955b6ce985_cb4a8a449b4ada864625ee5a4355578a3aaf08ed>
 8005f2c:	edd4 7a3a 	vldr	s15, [r4, #232]	@ 0xe8
 8005f30:	ed94 7a38 	vldr	s14, [r4, #224]	@ 0xe0
 8005f34:	ed94 ba39 	vldr	s22, [r4, #228]	@ 0xe4
 8005f38:	eeb7 5ae7 	vcvt.f64.f32	d5, s15
 8005f3c:	edd4 6a37 	vldr	s13, [r4, #220]	@ 0xdc
 8005f40:	ee2b ba07 	vmul.f32	s22, s22, s14
 8005f44:	ed94 ca18 	vldr	s24, [r4, #96]	@ 0x60
 8005f48:	ee67 6aa6 	vmul.f32	s13, s15, s13
 8005f4c:	ee2b 7a80 	vmul.f32	s14, s23, s0
 8005f50:	ed94 0a82 	vldr	s0, [r4, #520]	@ 0x208
 8005f54:	ee3b ba26 	vadd.f32	s22, s22, s13
 8005f58:	eeb7 7ac7 	vcvt.f64.f32	d7, s14
 8005f5c:	eeb7 bacb 	vcvt.f64.f32	d11, s22
 8005f60:	ee15 bb0a 	vnmls.f64	d11, d5, d10
 8005f64:	ee2b bb07 	vmul.f64	d11, d11, d7
 8005f68:	f003 fde4 	bl	8009b34 <SPE_cos_Hcbd8c48e05b139646178cc6f7987b8955b6ce985_cb4a8a449b4ada864625ee5a4355578a3aaf08ed>
 8005f6c:	edd4 7a39 	vldr	s15, [r4, #228]	@ 0xe4
 8005f70:	edd4 5a38 	vldr	s11, [r4, #224]	@ 0xe0
 8005f74:	edd4 6a37 	vldr	s13, [r4, #220]	@ 0xdc
 8005f78:	eeb7 4ae7 	vcvt.f64.f32	d4, s15
 8005f7c:	ed94 7a3a 	vldr	s14, [r4, #232]	@ 0xe8
 8005f80:	ee2c 6a00 	vmul.f32	s12, s24, s0
 8005f84:	ee67 7aa6 	vmul.f32	s15, s15, s13
 8005f88:	ed94 5a5b 	vldr	s10, [r4, #364]	@ 0x16c
 8005f8c:	ee27 7a25 	vmul.f32	s14, s14, s11
 8005f90:	ed94 0a82 	vldr	s0, [r4, #520]	@ 0x208
 8005f94:	eeb7 6ac6 	vcvt.f64.f32	d6, s12
 8005f98:	ed94 ca18 	vldr	s24, [r4, #96]	@ 0x60
 8005f9c:	eeb7 5ac5 	vcvt.f64.f32	d5, s10
 8005fa0:	ee37 7a67 	vsub.f32	s14, s14, s15
 8005fa4:	eeb7 7ac7 	vcvt.f64.f32	d7, s14
 8005fa8:	ee04 7b49 	vmls.f64	d7, d4, d9
 8005fac:	ee37 7b08 	vadd.f64	d7, d7, d8
 8005fb0:	ee07 bb06 	vmla.f64	d11, d7, d6
 8005fb4:	ee2b bb05 	vmul.f64	d11, d11, d5
 8005fb8:	f003 fdba 	bl	8009b30 <SPE_sin_Hcbd8c48e05b139646178cc6f7987b8955b6ce985_cb4a8a449b4ada864625ee5a4355578a3aaf08ed>
 8005fbc:	edd4 7a39 	vldr	s15, [r4, #228]	@ 0xe4
 8005fc0:	edd4 5a38 	vldr	s11, [r4, #224]	@ 0xe0
 8005fc4:	edd4 6a37 	vldr	s13, [r4, #220]	@ 0xdc
 8005fc8:	ee2c 6a00 	vmul.f32	s12, s24, s0
 8005fcc:	ed94 7a3a 	vldr	s14, [r4, #232]	@ 0xe8
 8005fd0:	ed94 0a82 	vldr	s0, [r4, #520]	@ 0x208
 8005fd4:	ee27 7a25 	vmul.f32	s14, s14, s11
 8005fd8:	ed94 da18 	vldr	s26, [r4, #96]	@ 0x60
 8005fdc:	eeb7 5ae7 	vcvt.f64.f32	d5, s15
 8005fe0:	ee67 7aa6 	vmul.f32	s15, s15, s13
 8005fe4:	eeb7 6ac6 	vcvt.f64.f32	d6, s12
 8005fe8:	ee37 7a67 	vsub.f32	s14, s14, s15
 8005fec:	eeb7 7ac7 	vcvt.f64.f32	d7, s14
 8005ff0:	ee05 7b49 	vmls.f64	d7, d5, d9
 8005ff4:	ee37 7b08 	vadd.f64	d7, d7, d8
 8005ff8:	ee27 cb06 	vmul.f64	d12, d7, d6
 8005ffc:	f003 fd9a 	bl	8009b34 <SPE_cos_Hcbd8c48e05b139646178cc6f7987b8955b6ce985_cb4a8a449b4ada864625ee5a4355578a3aaf08ed>
 8006000:	edd4 7a3a 	vldr	s15, [r4, #232]	@ 0xe8
 8006004:	edd4 6a38 	vldr	s13, [r4, #224]	@ 0xe0
 8006008:	ed94 7a37 	vldr	s14, [r4, #220]	@ 0xdc
 800600c:	eeb7 5ae7 	vcvt.f64.f32	d5, s15
 8006010:	ed94 6a39 	vldr	s12, [r4, #228]	@ 0xe4
 8006014:	ee2d 0a00 	vmul.f32	s0, s26, s0
 8006018:	ee67 7a87 	vmul.f32	s15, s15, s14
 800601c:	ee26 6a26 	vmul.f32	s12, s12, s13
 8006020:	eeb7 0ac0 	vcvt.f64.f32	d0, s0
 8006024:	eeb0 4b4c 	vmov.f64	d4, d12
 8006028:	edd4 ca18 	vldr	s25, [r4, #96]	@ 0x60
 800602c:	ee36 6a27 	vadd.f32	s12, s12, s15
 8006030:	edd4 7a6e 	vldr	s15, [r4, #440]	@ 0x1b8
 8006034:	eeb7 6ac6 	vcvt.f64.f32	d6, s12
 8006038:	ee15 6b0a 	vnmls.f64	d6, d5, d10
 800603c:	ed94 5a58 	vldr	s10, [r4, #352]	@ 0x160
 8006040:	eeb7 5ac5 	vcvt.f64.f32	d5, s10
 8006044:	ee06 4b40 	vmls.f64	d4, d6, d0
 8006048:	ed94 0a82 	vldr	s0, [r4, #520]	@ 0x208
 800604c:	eeb7 6ae7 	vcvt.f64.f32	d6, s15
 8006050:	ee04 bb05 	vmla.f64	d11, d4, d5
 8006054:	ee8b 7b06 	vdiv.f64	d7, d11, d6
 8006058:	eeb7 7bc7 	vcvt.f32.f64	s14, d7
 800605c:	eeb1 7a47 	vneg.f32	s14, s14
 8006060:	ed8d 7a28 	vstr	s14, [sp, #160]	@ 0xa0
 8006064:	f003 fd64 	bl	8009b30 <SPE_sin_Hcbd8c48e05b139646178cc6f7987b8955b6ce985_cb4a8a449b4ada864625ee5a4355578a3aaf08ed>
 8006068:	edd4 7a39 	vldr	s15, [r4, #228]	@ 0xe4
 800606c:	ed94 7a38 	vldr	s14, [r4, #224]	@ 0xe0
 8006070:	ed94 ba3a 	vldr	s22, [r4, #232]	@ 0xe8
 8006074:	eeb7 6ae7 	vcvt.f64.f32	d6, s15
 8006078:	edd4 5a37 	vldr	s11, [r4, #220]	@ 0xdc
 800607c:	ee2b ba07 	vmul.f32	s22, s22, s14
 8006080:	ed94 ca18 	vldr	s24, [r4, #96]	@ 0x60
 8006084:	ee67 5aa5 	vmul.f32	s11, s15, s11
 8006088:	ee2c 7a80 	vmul.f32	s14, s25, s0
 800608c:	ed94 0a82 	vldr	s0, [r4, #520]	@ 0x208
 8006090:	ee3b ba65 	vsub.f32	s22, s22, s11
 8006094:	eeb7 7ac7 	vcvt.f64.f32	d7, s14
 8006098:	eeb7 bacb 	vcvt.f64.f32	d11, s22
 800609c:	ee06 bb49 	vmls.f64	d11, d6, d9
 80060a0:	ee3b bb08 	vadd.f64	d11, d11, d8
 80060a4:	ee2b bb07 	vmul.f64	d11, d11, d7
 80060a8:	f003 fd44 	bl	8009b34 <SPE_cos_Hcbd8c48e05b139646178cc6f7987b8955b6ce985_cb4a8a449b4ada864625ee5a4355578a3aaf08ed>
 80060ac:	edd4 5a5a 	vldr	s11, [r4, #360]	@ 0x168
 80060b0:	edd4 6a5c 	vldr	s13, [r4, #368]	@ 0x170
 80060b4:	edd4 7a5e 	vldr	s15, [r4, #376]	@ 0x178
 80060b8:	ee2c 3a00 	vmul.f32	s6, s24, s0
 80060bc:	ed94 7a55 	vldr	s14, [r4, #340]	@ 0x154
 80060c0:	ee77 7ae5 	vsub.f32	s15, s15, s11
 80060c4:	ed94 4a53 	vldr	s8, [r4, #332]	@ 0x14c
 80060c8:	ee27 7a26 	vmul.f32	s14, s14, s13
 80060cc:	edd4 4a3a 	vldr	s9, [r4, #232]	@ 0xe8
 80060d0:	eeb7 3ac3 	vcvt.f64.f32	d3, s6
 80060d4:	ed94 2a6e 	vldr	s4, [r4, #440]	@ 0x1b8
 80060d8:	eeb7 6ae4 	vcvt.f64.f32	d6, s9
 80060dc:	ed94 0a82 	vldr	s0, [r4, #520]	@ 0x208
 80060e0:	ee27 7a27 	vmul.f32	s14, s14, s15
 80060e4:	ed94 da18 	vldr	s26, [r4, #96]	@ 0x60
 80060e8:	eeb7 2ac2 	vcvt.f64.f32	d2, s4
 80060ec:	ee87 5a04 	vdiv.f32	s10, s14, s8
 80060f0:	ee85 7a25 	vdiv.f32	s14, s10, s11
 80060f4:	ee77 7ac7 	vsub.f32	s15, s15, s14
 80060f8:	ed94 7a39 	vldr	s14, [r4, #228]	@ 0xe4
 80060fc:	ee67 7a84 	vmul.f32	s15, s15, s8
 8006100:	eeb7 5ae7 	vcvt.f64.f32	d5, s15
 8006104:	edd4 7a38 	vldr	s15, [r4, #224]	@ 0xe0
 8006108:	ee27 7a27 	vmul.f32	s14, s14, s15
 800610c:	edd4 7a37 	vldr	s15, [r4, #220]	@ 0xdc
 8006110:	ee64 4aa7 	vmul.f32	s9, s9, s15
 8006114:	ee37 7a24 	vadd.f32	s14, s14, s9
 8006118:	eeb7 4ac4 	vcvt.f64.f32	d4, s8
 800611c:	eeb7 7ac7 	vcvt.f64.f32	d7, s14
 8006120:	ee16 7b0a 	vnmls.f64	d7, d6, d10
 8006124:	ee07 bb43 	vmls.f64	d11, d7, d3
 8006128:	ee2b bb05 	vmul.f64	d11, d11, d5
 800612c:	ee8b 7b02 	vdiv.f64	d7, d11, d2
 8006130:	ee87 cb04 	vdiv.f64	d12, d7, d4
 8006134:	f003 fcfc 	bl	8009b30 <SPE_sin_Hcbd8c48e05b139646178cc6f7987b8955b6ce985_cb4a8a449b4ada864625ee5a4355578a3aaf08ed>
 8006138:	edd4 7a3a 	vldr	s15, [r4, #232]	@ 0xe8
 800613c:	ed94 7a38 	vldr	s14, [r4, #224]	@ 0xe0
 8006140:	ed94 ba39 	vldr	s22, [r4, #228]	@ 0xe4
 8006144:	edd4 5a37 	vldr	s11, [r4, #220]	@ 0xdc
 8006148:	eeb7 6ae7 	vcvt.f64.f32	d6, s15
 800614c:	ee2b ba07 	vmul.f32	s22, s22, s14
 8006150:	ee67 5aa5 	vmul.f32	s11, s15, s11
 8006154:	ee2d 7a00 	vmul.f32	s14, s26, s0
 8006158:	ed94 0a82 	vldr	s0, [r4, #520]	@ 0x208
 800615c:	ed94 da18 	vldr	s26, [r4, #96]	@ 0x60
 8006160:	ee3b ba25 	vadd.f32	s22, s22, s11
 8006164:	eeb7 7ac7 	vcvt.f64.f32	d7, s14
 8006168:	eeb7 bacb 	vcvt.f64.f32	d11, s22
 800616c:	ee16 bb0a 	vnmls.f64	d11, d6, d10
 8006170:	ee2b bb07 	vmul.f64	d11, d11, d7
 8006174:	f003 fcde 	bl	8009b34 <SPE_cos_Hcbd8c48e05b139646178cc6f7987b8955b6ce985_cb4a8a449b4ada864625ee5a4355578a3aaf08ed>
 8006178:	ed94 6a39 	vldr	s12, [r4, #228]	@ 0xe4
 800617c:	edd4 6a38 	vldr	s13, [r4, #224]	@ 0xe0
 8006180:	ed94 7a3a 	vldr	s14, [r4, #232]	@ 0xe8
 8006184:	ee2d 0a00 	vmul.f32	s0, s26, s0
 8006188:	edd4 7a37 	vldr	s15, [r4, #220]	@ 0xdc
 800618c:	ee27 7a26 	vmul.f32	s14, s14, s13
 8006190:	ed94 5a58 	vldr	s10, [r4, #352]	@ 0x160
 8006194:	ee66 7a27 	vmul.f32	s15, s12, s15
 8006198:	eeb7 6ac6 	vcvt.f64.f32	d6, s12
 800619c:	eeb7 0ac0 	vcvt.f64.f32	d0, s0
 80061a0:	ee37 7a67 	vsub.f32	s14, s14, s15
 80061a4:	eeb7 5ac5 	vcvt.f64.f32	d5, s10
 80061a8:	eeb7 7ac7 	vcvt.f64.f32	d7, s14
 80061ac:	ee06 7b49 	vmls.f64	d7, d6, d9
 80061b0:	eeb0 6b4b 	vmov.f64	d6, d11
 80061b4:	edd4 ba18 	vldr	s23, [r4, #96]	@ 0x60
 80061b8:	ee37 7b08 	vadd.f64	d7, d7, d8
 80061bc:	ee07 6b00 	vmla.f64	d6, d7, d0
 80061c0:	ed94 7a6e 	vldr	s14, [r4, #440]	@ 0x1b8
 80061c4:	ed94 0a82 	vldr	s0, [r4, #520]	@ 0x208
 80061c8:	eeb7 7ac7 	vcvt.f64.f32	d7, s14
 80061cc:	ee26 6b05 	vmul.f64	d6, d6, d5
 80061d0:	ee86 5b07 	vdiv.f64	d5, d6, d7
 80061d4:	ee3c cb45 	vsub.f64	d12, d12, d5
 80061d8:	f003 fcaa 	bl	8009b30 <SPE_sin_Hcbd8c48e05b139646178cc6f7987b8955b6ce985_cb4a8a449b4ada864625ee5a4355578a3aaf08ed>
 80061dc:	edd4 7a39 	vldr	s15, [r4, #228]	@ 0xe4
 80061e0:	ee2b 6a80 	vmul.f32	s12, s23, s0
 80061e4:	edd4 6a38 	vldr	s13, [r4, #224]	@ 0xe0
 80061e8:	ed94 7a37 	vldr	s14, [r4, #220]	@ 0xdc
 80061ec:	eeb7 5ae7 	vcvt.f64.f32	d5, s15
 80061f0:	ed94 ba3a 	vldr	s22, [r4, #232]	@ 0xe8
 80061f4:	ee67 7a87 	vmul.f32	s15, s15, s14
 80061f8:	ed94 0a82 	vldr	s0, [r4, #520]	@ 0x208
 80061fc:	ee2b ba26 	vmul.f32	s22, s22, s13
 8006200:	ed94 da18 	vldr	s26, [r4, #96]	@ 0x60
 8006204:	eeb7 6ac6 	vcvt.f64.f32	d6, s12
 8006208:	ee3b ba67 	vsub.f32	s22, s22, s15
 800620c:	eeb7 bacb 	vcvt.f64.f32	d11, s22
 8006210:	ee05 bb49 	vmls.f64	d11, d5, d9
 8006214:	ee3b bb08 	vadd.f64	d11, d11, d8
 8006218:	ee2b bb06 	vmul.f64	d11, d11, d6
 800621c:	f003 fc8a 	bl	8009b34 <SPE_cos_Hcbd8c48e05b139646178cc6f7987b8955b6ce985_cb4a8a449b4ada864625ee5a4355578a3aaf08ed>
 8006220:	edd4 6a5a 	vldr	s13, [r4, #360]	@ 0x168
 8006224:	ed94 5a55 	vldr	s10, [r4, #340]	@ 0x154
 8006228:	ed94 7a5c 	vldr	s14, [r4, #368]	@ 0x170
 800622c:	ee2d 4a00 	vmul.f32	s8, s26, s0
 8006230:	edd4 7a5e 	vldr	s15, [r4, #376]	@ 0x178
 8006234:	ee25 6a07 	vmul.f32	s12, s10, s14
 8006238:	ed94 3a3a 	vldr	s6, [r4, #232]	@ 0xe8
 800623c:	ee77 7ae6 	vsub.f32	s15, s15, s13
 8006240:	ed94 2a6e 	vldr	s4, [r4, #440]	@ 0x1b8
 8006244:	ee36 7ac7 	vsub.f32	s14, s13, s14
 8006248:	ed94 0a82 	vldr	s0, [r4, #520]	@ 0x208
 800624c:	eeb7 4ac4 	vcvt.f64.f32	d4, s8
 8006250:	ee67 7a86 	vmul.f32	s15, s15, s12
 8006254:	ed94 6a53 	vldr	s12, [r4, #332]	@ 0x14c
 8006258:	eeb7 2ac2 	vcvt.f64.f32	d2, s4
 800625c:	eec7 5a86 	vdiv.f32	s11, s15, s12
 8006260:	edd4 7a38 	vldr	s15, [r4, #224]	@ 0xe0
 8006264:	ee85 6aa6 	vdiv.f32	s12, s11, s13
 8006268:	ee36 6a07 	vadd.f32	s12, s12, s14
 800626c:	ed94 7a39 	vldr	s14, [r4, #228]	@ 0xe4
 8006270:	ee27 7a27 	vmul.f32	s14, s14, s15
 8006274:	edd4 7a37 	vldr	s15, [r4, #220]	@ 0xdc
 8006278:	ee26 6a05 	vmul.f32	s12, s12, s10
 800627c:	ee63 7a27 	vmul.f32	s15, s6, s15
 8006280:	eeb7 3ac3 	vcvt.f64.f32	d3, s6
 8006284:	eeb7 6ac6 	vcvt.f64.f32	d6, s12
 8006288:	ee37 7a27 	vadd.f32	s14, s14, s15
 800628c:	eeb7 5ac5 	vcvt.f64.f32	d5, s10
 8006290:	eeb7 7ac7 	vcvt.f64.f32	d7, s14
 8006294:	ee13 7b0a 	vnmls.f64	d7, d3, d10
 8006298:	ee07 bb44 	vmls.f64	d11, d7, d4
 800629c:	ee2b bb06 	vmul.f64	d11, d11, d6
 80062a0:	ee8b 6b02 	vdiv.f64	d6, d11, d2
 80062a4:	ed94 ba18 	vldr	s22, [r4, #96]	@ 0x60
 80062a8:	ee86 7b05 	vdiv.f64	d7, d6, d5
 80062ac:	ee37 cb0c 	vadd.f64	d12, d7, d12
 80062b0:	f003 fc3e 	bl	8009b30 <SPE_sin_Hcbd8c48e05b139646178cc6f7987b8955b6ce985_cb4a8a449b4ada864625ee5a4355578a3aaf08ed>
 80062b4:	edd4 7a39 	vldr	s15, [r4, #228]	@ 0xe4
 80062b8:	ee2b 6a00 	vmul.f32	s12, s22, s0
 80062bc:	edd4 5a38 	vldr	s11, [r4, #224]	@ 0xe0
 80062c0:	edd4 6a37 	vldr	s13, [r4, #220]	@ 0xdc
 80062c4:	ed94 7a3a 	vldr	s14, [r4, #232]	@ 0xe8
 80062c8:	ed94 0a82 	vldr	s0, [r4, #520]	@ 0x208
 80062cc:	ee27 7a25 	vmul.f32	s14, s14, s11
 80062d0:	ed94 ba18 	vldr	s22, [r4, #96]	@ 0x60
 80062d4:	eeb7 5ae7 	vcvt.f64.f32	d5, s15
 80062d8:	ee67 7aa6 	vmul.f32	s15, s15, s13
 80062dc:	eeb7 6ac6 	vcvt.f64.f32	d6, s12
 80062e0:	ee37 7a67 	vsub.f32	s14, s14, s15
 80062e4:	eeb7 7ac7 	vcvt.f64.f32	d7, s14
 80062e8:	ee05 7b49 	vmls.f64	d7, d5, d9
 80062ec:	ee37 7b08 	vadd.f64	d7, d7, d8
 80062f0:	ee27 4b06 	vmul.f64	d4, d7, d6
 80062f4:	ed8d 4b04 	vstr	d4, [sp, #16]
 80062f8:	f003 fc1c 	bl	8009b34 <SPE_cos_Hcbd8c48e05b139646178cc6f7987b8955b6ce985_cb4a8a449b4ada864625ee5a4355578a3aaf08ed>
 80062fc:	edd4 6a39 	vldr	s13, [r4, #228]	@ 0xe4
 8006300:	edd4 7a3a 	vldr	s15, [r4, #232]	@ 0xe8
 8006304:	ee2b ba00 	vmul.f32	s22, s22, s0
 8006308:	ed94 6a37 	vldr	s12, [r4, #220]	@ 0xdc
 800630c:	edd4 5a38 	vldr	s11, [r4, #224]	@ 0xe0
 8006310:	eeb7 1ae7 	vcvt.f64.f32	d1, s15
 8006314:	ee27 7a86 	vmul.f32	s14, s15, s12
 8006318:	edcd 7a2c 	vstr	s15, [sp, #176]	@ 0xb0
 800631c:	ee67 7aa5 	vmul.f32	s15, s15, s11
 8006320:	ed94 5a5c 	vldr	s10, [r4, #368]	@ 0x170
 8006324:	ee66 5aa5 	vmul.f32	s11, s13, s11
 8006328:	edcd 6a2d 	vstr	s13, [sp, #180]	@ 0xb4
 800632c:	ee26 6a26 	vmul.f32	s12, s12, s13
 8006330:	ed94 2a43 	vldr	s4, [r4, #268]	@ 0x10c
 8006334:	eeb7 eac5 	vcvt.f64.f32	d14, s10
 8006338:	ed94 3a42 	vldr	s6, [r4, #264]	@ 0x108
 800633c:	ee37 7a25 	vadd.f32	s14, s14, s11
 8006340:	edd4 5a6e 	vldr	s11, [r4, #440]	@ 0x1b8
 8006344:	ee37 6ac6 	vsub.f32	s12, s15, s12
 8006348:	edd4 0a18 	vldr	s1, [r4, #96]	@ 0x60
 800634c:	eeb7 fae5 	vcvt.f64.f32	d15, s11
 8006350:	ed94 0a82 	vldr	s0, [r4, #520]	@ 0x208
 8006354:	eeb7 7ac7 	vcvt.f64.f32	d7, s14
 8006358:	edcd 0a03 	vstr	s1, [sp, #12]
 800635c:	eeb7 dacb 	vcvt.f64.f32	d13, s22
 8006360:	eeb7 bae6 	vcvt.f64.f32	d11, s13
 8006364:	eeb0 5b47 	vmov.f64	d5, d7
 8006368:	eeb7 6ac6 	vcvt.f64.f32	d6, s12
 800636c:	ee01 7b09 	vmla.f64	d7, d1, d9
 8006370:	ee11 5b0a 	vnmls.f64	d5, d1, d10
 8006374:	ee0b 6b0a 	vmla.f64	d6, d11, d10
 8006378:	eeb7 2ac2 	vcvt.f64.f32	d2, s4
 800637c:	eeb7 3ac3 	vcvt.f64.f32	d3, s6
 8006380:	ed9d 4b04 	vldr	d4, [sp, #16]
 8006384:	ee05 4b4d 	vmls.f64	d4, d5, d13
 8006388:	ee36 6b08 	vadd.f64	d6, d6, d8
 800638c:	ee24 4b0e 	vmul.f64	d4, d4, d14
 8006390:	ee84 5b0f 	vdiv.f64	d5, d4, d15
 8006394:	ee35 5b0c 	vadd.f64	d5, d5, d12
 8006398:	eeb7 5bc5 	vcvt.f32.f64	s10, d5
 800639c:	ed8d 5a29 	vstr	s10, [sp, #164]	@ 0xa4
 80063a0:	ee27 5b03 	vmul.f64	d5, d7, d3
 80063a4:	ee22 7b07 	vmul.f64	d7, d2, d7
 80063a8:	ee06 5b02 	vmla.f64	d5, d6, d2
 80063ac:	ee16 7b03 	vnmls.f64	d7, d6, d3
 80063b0:	ee35 5b0b 	vadd.f64	d5, d5, d11
 80063b4:	eeb7 5bc5 	vcvt.f32.f64	s10, d5
 80063b8:	ee37 7b01 	vadd.f64	d7, d7, d1
 80063bc:	ed8d 5a2a 	vstr	s10, [sp, #168]	@ 0xa8
 80063c0:	eeb7 7bc7 	vcvt.f32.f64	s14, d7
 80063c4:	ed8d 7a2b 	vstr	s14, [sp, #172]	@ 0xac
 80063c8:	f003 fbb2 	bl	8009b30 <SPE_sin_Hcbd8c48e05b139646178cc6f7987b8955b6ce985_cb4a8a449b4ada864625ee5a4355578a3aaf08ed>
 80063cc:	edd4 7a39 	vldr	s15, [r4, #228]	@ 0xe4
 80063d0:	edd4 6a38 	vldr	s13, [r4, #224]	@ 0xe0
 80063d4:	ed94 7a37 	vldr	s14, [r4, #220]	@ 0xdc
 80063d8:	eeb7 5ae7 	vcvt.f64.f32	d5, s15
 80063dc:	ed94 ba3a 	vldr	s22, [r4, #232]	@ 0xe8
 80063e0:	eddd 0a03 	vldr	s1, [sp, #12]
 80063e4:	ee2b ba26 	vmul.f32	s22, s22, s13
 80063e8:	ed94 ca18 	vldr	s24, [r4, #96]	@ 0x60
 80063ec:	ee67 6a87 	vmul.f32	s13, s15, s14
 80063f0:	ee60 0a80 	vmul.f32	s1, s1, s0
 80063f4:	ed94 0a82 	vldr	s0, [r4, #520]	@ 0x208
 80063f8:	ee3b ba66 	vsub.f32	s22, s22, s13
 80063fc:	eeb7 7ae0 	vcvt.f64.f32	d7, s1
 8006400:	eeb7 bacb 	vcvt.f64.f32	d11, s22
 8006404:	ee05 bb0a 	vmla.f64	d11, d5, d10
 8006408:	ee3b bb08 	vadd.f64	d11, d11, d8
 800640c:	ee2b bb07 	vmul.f64	d11, d11, d7
 8006410:	f003 fb90 	bl	8009b34 <SPE_cos_Hcbd8c48e05b139646178cc6f7987b8955b6ce985_cb4a8a449b4ada864625ee5a4355578a3aaf08ed>
 8006414:	edd4 7a3a 	vldr	s15, [r4, #232]	@ 0xe8
 8006418:	edd4 5a38 	vldr	s11, [r4, #224]	@ 0xe0
 800641c:	edd4 6a37 	vldr	s13, [r4, #220]	@ 0xdc
 8006420:	eeb7 4ae7 	vcvt.f64.f32	d4, s15
 8006424:	ed94 7a39 	vldr	s14, [r4, #228]	@ 0xe4
 8006428:	ee2c 6a00 	vmul.f32	s12, s24, s0
 800642c:	ee67 7aa6 	vmul.f32	s15, s15, s13
 8006430:	ed94 5a5b 	vldr	s10, [r4, #364]	@ 0x16c
 8006434:	ee27 7a25 	vmul.f32	s14, s14, s11
 8006438:	ed94 0a82 	vldr	s0, [r4, #520]	@ 0x208
 800643c:	eeb7 6ac6 	vcvt.f64.f32	d6, s12
 8006440:	edd4 ca18 	vldr	s25, [r4, #96]	@ 0x60
 8006444:	eeb7 5ac5 	vcvt.f64.f32	d5, s10
 8006448:	ee37 7a27 	vadd.f32	s14, s14, s15
 800644c:	eeb7 7ac7 	vcvt.f64.f32	d7, s14
 8006450:	ee04 7b09 	vmla.f64	d7, d4, d9
 8006454:	ee07 bb06 	vmla.f64	d11, d7, d6
 8006458:	ee2b bb05 	vmul.f64	d11, d11, d5
 800645c:	f003 fb68 	bl	8009b30 <SPE_sin_Hcbd8c48e05b139646178cc6f7987b8955b6ce985_cb4a8a449b4ada864625ee5a4355578a3aaf08ed>
 8006460:	edd4 7a3a 	vldr	s15, [r4, #232]	@ 0xe8
 8006464:	edd4 6a38 	vldr	s13, [r4, #224]	@ 0xe0
 8006468:	ed94 ca39 	vldr	s24, [r4, #228]	@ 0xe4
 800646c:	ee2c 7a80 	vmul.f32	s14, s25, s0
 8006470:	edd4 5a37 	vldr	s11, [r4, #220]	@ 0xdc
 8006474:	ee2c ca26 	vmul.f32	s24, s24, s13
 8006478:	ed94 0a82 	vldr	s0, [r4, #520]	@ 0x208
 800647c:	ee67 5aa5 	vmul.f32	s11, s15, s11
 8006480:	ed94 da18 	vldr	s26, [r4, #96]	@ 0x60
 8006484:	eeb7 6ae7 	vcvt.f64.f32	d6, s15
 8006488:	eeb7 7ac7 	vcvt.f64.f32	d7, s14
 800648c:	ee3c ca25 	vadd.f32	s24, s24, s11
 8006490:	eeb7 cacc 	vcvt.f64.f32	d12, s24
 8006494:	ee06 cb09 	vmla.f64	d12, d6, d9
 8006498:	ee2c cb07 	vmul.f64	d12, d12, d7
 800649c:	f003 fb4a 	bl	8009b34 <SPE_cos_Hcbd8c48e05b139646178cc6f7987b8955b6ce985_cb4a8a449b4ada864625ee5a4355578a3aaf08ed>
 80064a0:	ed94 6a39 	vldr	s12, [r4, #228]	@ 0xe4
 80064a4:	edd4 6a38 	vldr	s13, [r4, #224]	@ 0xe0
 80064a8:	ed94 7a3a 	vldr	s14, [r4, #232]	@ 0xe8
 80064ac:	ee2d 0a00 	vmul.f32	s0, s26, s0
 80064b0:	edd4 7a37 	vldr	s15, [r4, #220]	@ 0xdc
 80064b4:	ee27 7a26 	vmul.f32	s14, s14, s13
 80064b8:	edd4 4a58 	vldr	s9, [r4, #352]	@ 0x160
 80064bc:	ee66 7a27 	vmul.f32	s15, s12, s15
 80064c0:	eeb7 6ac6 	vcvt.f64.f32	d6, s12
 80064c4:	eeb7 0ac0 	vcvt.f64.f32	d0, s0
 80064c8:	ee37 7a67 	vsub.f32	s14, s14, s15
 80064cc:	eeb0 5b4c 	vmov.f64	d5, d12
 80064d0:	edd4 ca18 	vldr	s25, [r4, #96]	@ 0x60
 80064d4:	eeb7 7ac7 	vcvt.f64.f32	d7, s14
 80064d8:	ee06 7b0a 	vmla.f64	d7, d6, d10
 80064dc:	ed94 6a6e 	vldr	s12, [r4, #440]	@ 0x1b8
 80064e0:	eeb7 6ac6 	vcvt.f64.f32	d6, s12
 80064e4:	ee37 7b08 	vadd.f64	d7, d7, d8
 80064e8:	ee07 5b40 	vmls.f64	d5, d7, d0
 80064ec:	ed94 0a82 	vldr	s0, [r4, #520]	@ 0x208
 80064f0:	eeb7 7ae4 	vcvt.f64.f32	d7, s9
 80064f4:	ee05 bb07 	vmla.f64	d11, d5, d7
 80064f8:	ee8b 7b06 	vdiv.f64	d7, d11, d6
 80064fc:	eeb7 7bc7 	vcvt.f32.f64	s14, d7
 8006500:	eeb1 7a47 	vneg.f32	s14, s14
 8006504:	ed8d 7a2e 	vstr	s14, [sp, #184]	@ 0xb8
 8006508:	f003 fb12 	bl	8009b30 <SPE_sin_Hcbd8c48e05b139646178cc6f7987b8955b6ce985_cb4a8a449b4ada864625ee5a4355578a3aaf08ed>
 800650c:	edd4 7a3a 	vldr	s15, [r4, #232]	@ 0xe8
 8006510:	ed94 7a38 	vldr	s14, [r4, #224]	@ 0xe0
 8006514:	ed94 ba39 	vldr	s22, [r4, #228]	@ 0xe4
 8006518:	eeb7 6ae7 	vcvt.f64.f32	d6, s15
 800651c:	edd4 5a37 	vldr	s11, [r4, #220]	@ 0xdc
 8006520:	ee2b ba07 	vmul.f32	s22, s22, s14
 8006524:	ed94 ca18 	vldr	s24, [r4, #96]	@ 0x60
 8006528:	ee67 5aa5 	vmul.f32	s11, s15, s11
 800652c:	ee2c 7a80 	vmul.f32	s14, s25, s0
 8006530:	ed94 0a82 	vldr	s0, [r4, #520]	@ 0x208
 8006534:	ee3b ba25 	vadd.f32	s22, s22, s11
 8006538:	eeb7 7ac7 	vcvt.f64.f32	d7, s14
 800653c:	eeb7 bacb 	vcvt.f64.f32	d11, s22
 8006540:	ee06 bb09 	vmla.f64	d11, d6, d9
 8006544:	ee2b bb07 	vmul.f64	d11, d11, d7
 8006548:	f003 faf4 	bl	8009b34 <SPE_cos_Hcbd8c48e05b139646178cc6f7987b8955b6ce985_cb4a8a449b4ada864625ee5a4355578a3aaf08ed>
 800654c:	edd4 6a5a 	vldr	s13, [r4, #360]	@ 0x168
 8006550:	ed94 7a5c 	vldr	s14, [r4, #368]	@ 0x170
 8006554:	ed94 6a5e 	vldr	s12, [r4, #376]	@ 0x178
 8006558:	ee2c 4a00 	vmul.f32	s8, s24, s0
 800655c:	edd4 7a55 	vldr	s15, [r4, #340]	@ 0x154
 8006560:	ee36 6a66 	vsub.f32	s12, s12, s13
 8006564:	ed94 5a53 	vldr	s10, [r4, #332]	@ 0x14c
 8006568:	ee67 7a87 	vmul.f32	s15, s15, s14
 800656c:	edd4 5a38 	vldr	s11, [r4, #224]	@ 0xe0
 8006570:	ed94 7a3a 	vldr	s14, [r4, #232]	@ 0xe8
 8006574:	eeb7 4ac4 	vcvt.f64.f32	d4, s8
 8006578:	ed94 2a39 	vldr	s4, [r4, #228]	@ 0xe4
 800657c:	ee67 7a86 	vmul.f32	s15, s15, s12
 8006580:	ed94 3a6e 	vldr	s6, [r4, #440]	@ 0x1b8
 8006584:	ee27 7a25 	vmul.f32	s14, s14, s11
 8006588:	ed94 0a82 	vldr	s0, [r4, #520]	@ 0x208
 800658c:	eeb7 3ac3 	vcvt.f64.f32	d3, s6
 8006590:	ed94 ca18 	vldr	s24, [r4, #96]	@ 0x60
 8006594:	eec7 5a85 	vdiv.f32	s11, s15, s10
 8006598:	eec5 7aa6 	vdiv.f32	s15, s11, s13
 800659c:	ee36 6a67 	vsub.f32	s12, s12, s15
 80065a0:	edd4 7a37 	vldr	s15, [r4, #220]	@ 0xdc
 80065a4:	ee62 7a27 	vmul.f32	s15, s4, s15
 80065a8:	eeb7 2ac2 	vcvt.f64.f32	d2, s4
 80065ac:	ee26 6a05 	vmul.f32	s12, s12, s10
 80065b0:	ee37 7a67 	vsub.f32	s14, s14, s15
 80065b4:	eeb7 5ac5 	vcvt.f64.f32	d5, s10
 80065b8:	eeb7 6ac6 	vcvt.f64.f32	d6, s12
 80065bc:	eeb7 7ac7 	vcvt.f64.f32	d7, s14
 80065c0:	ee02 7b0a 	vmla.f64	d7, d2, d10
 80065c4:	ee37 7b08 	vadd.f64	d7, d7, d8
 80065c8:	ee07 bb44 	vmls.f64	d11, d7, d4
 80065cc:	ee2b bb06 	vmul.f64	d11, d11, d6
 80065d0:	ee8b 7b03 	vdiv.f64	d7, d11, d3
 80065d4:	ee87 db05 	vdiv.f64	d13, d7, d5
 80065d8:	f003 faaa 	bl	8009b30 <SPE_sin_Hcbd8c48e05b139646178cc6f7987b8955b6ce985_cb4a8a449b4ada864625ee5a4355578a3aaf08ed>
 80065dc:	edd4 7a39 	vldr	s15, [r4, #228]	@ 0xe4
 80065e0:	edd4 6a38 	vldr	s13, [r4, #224]	@ 0xe0
 80065e4:	ed94 7a37 	vldr	s14, [r4, #220]	@ 0xdc
 80065e8:	ed94 ba3a 	vldr	s22, [r4, #232]	@ 0xe8
 80065ec:	ee2c ca00 	vmul.f32	s24, s24, s0
 80065f0:	ed94 0a82 	vldr	s0, [r4, #520]	@ 0x208
 80065f4:	ee2b ba26 	vmul.f32	s22, s22, s13
 80065f8:	ed94 ea18 	vldr	s28, [r4, #96]	@ 0x60
 80065fc:	eeb7 6ae7 	vcvt.f64.f32	d6, s15
 8006600:	ee67 7a87 	vmul.f32	s15, s15, s14
 8006604:	eeb7 cacc 	vcvt.f64.f32	d12, s24
 8006608:	ee3b ba67 	vsub.f32	s22, s22, s15
 800660c:	eeb7 bacb 	vcvt.f64.f32	d11, s22
 8006610:	ee06 bb0a 	vmla.f64	d11, d6, d10
 8006614:	f003 fa8e 	bl	8009b34 <SPE_cos_Hcbd8c48e05b139646178cc6f7987b8955b6ce985_cb4a8a449b4ada864625ee5a4355578a3aaf08ed>
 8006618:	ed94 6a3a 	vldr	s12, [r4, #232]	@ 0xe8
 800661c:	edd4 6a38 	vldr	s13, [r4, #224]	@ 0xe0
 8006620:	ed94 7a39 	vldr	s14, [r4, #228]	@ 0xe4
 8006624:	edd4 7a37 	vldr	s15, [r4, #220]	@ 0xdc
 8006628:	ee2e 0a00 	vmul.f32	s0, s28, s0
 800662c:	ee27 7a26 	vmul.f32	s14, s14, s13
 8006630:	ed94 5a58 	vldr	s10, [r4, #352]	@ 0x160
 8006634:	ee66 7a27 	vmul.f32	s15, s12, s15
 8006638:	eeb7 6ac6 	vcvt.f64.f32	d6, s12
 800663c:	eeb7 0ac0 	vcvt.f64.f32	d0, s0
 8006640:	ee37 7a27 	vadd.f32	s14, s14, s15
 8006644:	ee3b bb08 	vadd.f64	d11, d11, d8
 8006648:	eeb7 5ac5 	vcvt.f64.f32	d5, s10
 800664c:	eeb7 7ac7 	vcvt.f64.f32	d7, s14
 8006650:	ee2b bb0c 	vmul.f64	d11, d11, d12
 8006654:	ee06 7b09 	vmla.f64	d7, d6, d9
 8006658:	eeb0 6b4b 	vmov.f64	d6, d11
 800665c:	edd4 ba18 	vldr	s23, [r4, #96]	@ 0x60
 8006660:	ee07 6b00 	vmla.f64	d6, d7, d0
 8006664:	ed94 7a6e 	vldr	s14, [r4, #440]	@ 0x1b8
 8006668:	ed94 0a82 	vldr	s0, [r4, #520]	@ 0x208
 800666c:	eeb7 7ac7 	vcvt.f64.f32	d7, s14
 8006670:	ee26 6b05 	vmul.f64	d6, d6, d5
 8006674:	ee86 5b07 	vdiv.f64	d5, d6, d7
 8006678:	ee3d db45 	vsub.f64	d13, d13, d5
 800667c:	f003 fa58 	bl	8009b30 <SPE_sin_Hcbd8c48e05b139646178cc6f7987b8955b6ce985_cb4a8a449b4ada864625ee5a4355578a3aaf08ed>
 8006680:	edd4 7a3a 	vldr	s15, [r4, #232]	@ 0xe8
 8006684:	ee2b 7a80 	vmul.f32	s14, s23, s0
 8006688:	edd4 6a38 	vldr	s13, [r4, #224]	@ 0xe0
 800668c:	ed94 ba39 	vldr	s22, [r4, #228]	@ 0xe4
 8006690:	edd4 5a37 	vldr	s11, [r4, #220]	@ 0xdc
 8006694:	ee2b ba26 	vmul.f32	s22, s22, s13
 8006698:	ed94 0a82 	vldr	s0, [r4, #520]	@ 0x208
 800669c:	ee67 5aa5 	vmul.f32	s11, s15, s11
 80066a0:	ed94 ca18 	vldr	s24, [r4, #96]	@ 0x60
 80066a4:	eeb7 6ae7 	vcvt.f64.f32	d6, s15
 80066a8:	eeb7 7ac7 	vcvt.f64.f32	d7, s14
 80066ac:	ee3b ba25 	vadd.f32	s22, s22, s11
 80066b0:	eeb7 bacb 	vcvt.f64.f32	d11, s22
 80066b4:	ee06 bb09 	vmla.f64	d11, d6, d9
 80066b8:	ee2b bb07 	vmul.f64	d11, d11, d7
 80066bc:	f003 fa3a 	bl	8009b34 <SPE_cos_Hcbd8c48e05b139646178cc6f7987b8955b6ce985_cb4a8a449b4ada864625ee5a4355578a3aaf08ed>
 80066c0:	edd4 5a5a 	vldr	s11, [r4, #360]	@ 0x168
 80066c4:	ed94 5a55 	vldr	s10, [r4, #340]	@ 0x154
 80066c8:	edd4 6a5c 	vldr	s13, [r4, #368]	@ 0x170
 80066cc:	ee2c 4a00 	vmul.f32	s8, s24, s0
 80066d0:	edd4 7a5e 	vldr	s15, [r4, #376]	@ 0x178
 80066d4:	ee25 6a26 	vmul.f32	s12, s10, s13
 80066d8:	ed94 7a3a 	vldr	s14, [r4, #232]	@ 0xe8
 80066dc:	ee77 7ae5 	vsub.f32	s15, s15, s11
 80066e0:	ed94 3a39 	vldr	s6, [r4, #228]	@ 0xe4
 80066e4:	ee75 6ae6 	vsub.f32	s13, s11, s13
 80066e8:	edd4 2a6e 	vldr	s5, [r4, #440]	@ 0x1b8
 80066ec:	ed94 0a82 	vldr	s0, [r4, #520]	@ 0x208
 80066f0:	ee67 7a86 	vmul.f32	s15, s15, s12
 80066f4:	ed94 6a53 	vldr	s12, [r4, #332]	@ 0x14c
 80066f8:	eec7 4a86 	vdiv.f32	s9, s15, s12
 80066fc:	edd4 7a38 	vldr	s15, [r4, #224]	@ 0xe0
 8006700:	ee27 7a27 	vmul.f32	s14, s14, s15
 8006704:	edd4 7a37 	vldr	s15, [r4, #220]	@ 0xdc
 8006708:	ee63 7a27 	vmul.f32	s15, s6, s15
 800670c:	eeb7 3ac3 	vcvt.f64.f32	d3, s6
 8006710:	ee37 7a67 	vsub.f32	s14, s14, s15
 8006714:	eeb7 7ac7 	vcvt.f64.f32	d7, s14
 8006718:	ee84 6aa5 	vdiv.f32	s12, s9, s11
 800671c:	ee03 7b0a 	vmla.f64	d7, d3, d10
 8006720:	eeb7 4ac4 	vcvt.f64.f32	d4, s8
 8006724:	ee37 7b08 	vadd.f64	d7, d7, d8
 8006728:	ee36 6a26 	vadd.f32	s12, s12, s13
 800672c:	ee07 bb44 	vmls.f64	d11, d7, d4
 8006730:	ee26 6a05 	vmul.f32	s12, s12, s10
 8006734:	eeb7 5ac5 	vcvt.f64.f32	d5, s10
 8006738:	eeb7 6ac6 	vcvt.f64.f32	d6, s12
 800673c:	ee2b 7b06 	vmul.f64	d7, d11, d6
 8006740:	edd4 ba18 	vldr	s23, [r4, #96]	@ 0x60
 8006744:	eeb7 6ae2 	vcvt.f64.f32	d6, s5
 8006748:	ee87 4b06 	vdiv.f64	d4, d7, d6
 800674c:	ee84 cb05 	vdiv.f64	d12, d4, d5
 8006750:	f003 f9ee 	bl	8009b30 <SPE_sin_Hcbd8c48e05b139646178cc6f7987b8955b6ce985_cb4a8a449b4ada864625ee5a4355578a3aaf08ed>
 8006754:	edd4 7a3a 	vldr	s15, [r4, #232]	@ 0xe8
 8006758:	edd4 6a38 	vldr	s13, [r4, #224]	@ 0xe0
 800675c:	ed94 ba39 	vldr	s22, [r4, #228]	@ 0xe4
 8006760:	edd4 5a37 	vldr	s11, [r4, #220]	@ 0xdc
 8006764:	ee2b 7a80 	vmul.f32	s14, s23, s0
 8006768:	ee2b ba26 	vmul.f32	s22, s22, s13
 800676c:	ed94 0a82 	vldr	s0, [r4, #520]	@ 0x208
 8006770:	ee67 5aa5 	vmul.f32	s11, s15, s11
 8006774:	eeb7 6ae7 	vcvt.f64.f32	d6, s15
 8006778:	eeb7 7ac7 	vcvt.f64.f32	d7, s14
 800677c:	ee3b ba25 	vadd.f32	s22, s22, s11
 8006780:	eeb7 bacb 	vcvt.f64.f32	d11, s22
 8006784:	ee06 bb09 	vmla.f64	d11, d6, d9
 8006788:	ee2b bb07 	vmul.f64	d11, d11, d7
 800678c:	ee3c cb0d 	vadd.f64	d12, d12, d13
 8006790:	ed94 da18 	vldr	s26, [r4, #96]	@ 0x60
 8006794:	f003 f9ce 	bl	8009b34 <SPE_cos_Hcbd8c48e05b139646178cc6f7987b8955b6ce985_cb4a8a449b4ada864625ee5a4355578a3aaf08ed>
 8006798:	ed94 6a39 	vldr	s12, [r4, #228]	@ 0xe4
 800679c:	edd4 6a38 	vldr	s13, [r4, #224]	@ 0xe0
 80067a0:	ee2d 0a00 	vmul.f32	s0, s26, s0
 80067a4:	ed94 7a3a 	vldr	s14, [r4, #232]	@ 0xe8
 80067a8:	edd4 7a37 	vldr	s15, [r4, #220]	@ 0xdc
 80067ac:	ee27 7a26 	vmul.f32	s14, s14, s13
 80067b0:	edd4 5a5c 	vldr	s11, [r4, #368]	@ 0x170
 80067b4:	ee66 7a27 	vmul.f32	s15, s12, s15
 80067b8:	ed94 3a6e 	vldr	s6, [r4, #440]	@ 0x1b8
 80067bc:	eeb7 6ac6 	vcvt.f64.f32	d6, s12
 80067c0:	edd4 4a3c 	vldr	s9, [r4, #240]	@ 0xf0
 80067c4:	eeb7 0ac0 	vcvt.f64.f32	d0, s0
 80067c8:	ed94 4a42 	vldr	s8, [r4, #264]	@ 0x108
 80067cc:	ee37 7a67 	vsub.f32	s14, s14, s15
 80067d0:	eeb7 3ac3 	vcvt.f64.f32	d3, s6
 80067d4:	eeb7 7ac7 	vcvt.f64.f32	d7, s14
 80067d8:	ee06 7b0a 	vmla.f64	d7, d6, d10
 80067dc:	eeb7 6ae5 	vcvt.f64.f32	d6, s11
 80067e0:	edd4 5a3d 	vldr	s11, [r4, #244]	@ 0xf4
 80067e4:	edcd 5a32 	vstr	s11, [sp, #200]	@ 0xc8
 80067e8:	ee37 7b08 	vadd.f64	d7, d7, d8
 80067ec:	ee07 bb40 	vmls.f64	d11, d7, d0
 80067f0:	edd4 7a3e 	vldr	s15, [r4, #248]	@ 0xf8
 80067f4:	ed94 7a3b 	vldr	s14, [r4, #236]	@ 0xec
 80067f8:	ed94 0a82 	vldr	s0, [r4, #520]	@ 0x208
 80067fc:	ee27 5aa4 	vmul.f32	s10, s15, s9
 8006800:	ee64 4aa5 	vmul.f32	s9, s9, s11
 8006804:	ee65 5a87 	vmul.f32	s11, s11, s14
 8006808:	ee27 7a87 	vmul.f32	s14, s15, s14
 800680c:	eef1 7a67 	vneg.f32	s15, s15
 8006810:	ee35 5a65 	vsub.f32	s10, s10, s11
 8006814:	ee2b bb06 	vmul.f64	d11, d11, d6
 8006818:	edcd 7a33 	vstr	s15, [sp, #204]	@ 0xcc
 800681c:	ee37 7a24 	vadd.f32	s14, s14, s9
 8006820:	eeb7 5ac5 	vcvt.f64.f32	d5, s10
 8006824:	ee8b 6b03 	vdiv.f64	d6, d11, d3
 8006828:	ed94 3a43 	vldr	s6, [r4, #268]	@ 0x10c
 800682c:	edd4 ba18 	vldr	s23, [r4, #96]	@ 0x60
 8006830:	ee35 5b08 	vadd.f64	d5, d5, d8
 8006834:	ee36 6b0c 	vadd.f64	d6, d6, d12
 8006838:	eeb7 6bc6 	vcvt.f32.f64	s12, d6
 800683c:	ed8d 6a2f 	vstr	s12, [sp, #188]	@ 0xbc
 8006840:	ee24 6a07 	vmul.f32	s12, s8, s14
 8006844:	ee27 7a03 	vmul.f32	s14, s14, s6
 8006848:	eeb7 3ac3 	vcvt.f64.f32	d3, s6
 800684c:	eeb7 6ac6 	vcvt.f64.f32	d6, s12
 8006850:	eeb7 4ac4 	vcvt.f64.f32	d4, s8
 8006854:	eeb7 7ac7 	vcvt.f64.f32	d7, s14
 8006858:	ee03 6b05 	vmla.f64	d6, d3, d5
 800685c:	ee14 7b05 	vnmls.f64	d7, d4, d5
 8006860:	eeb7 6bc6 	vcvt.f32.f64	s12, d6
 8006864:	eeb1 6a46 	vneg.f32	s12, s12
 8006868:	eeb7 7bc7 	vcvt.f32.f64	s14, d7
 800686c:	ed8d 6a31 	vstr	s12, [sp, #196]	@ 0xc4
 8006870:	ed8d 7a30 	vstr	s14, [sp, #192]	@ 0xc0
 8006874:	f003 f95e 	bl	8009b34 <SPE_cos_Hcbd8c48e05b139646178cc6f7987b8955b6ce985_cb4a8a449b4ada864625ee5a4355578a3aaf08ed>
 8006878:	ed94 6a3c 	vldr	s12, [r4, #240]	@ 0xf0
 800687c:	ee2b 7a80 	vmul.f32	s14, s23, s0
 8006880:	edd4 7a3d 	vldr	s15, [r4, #244]	@ 0xf4
 8006884:	ed94 ba3e 	vldr	s22, [r4, #248]	@ 0xf8
 8006888:	edd4 6a3b 	vldr	s13, [r4, #236]	@ 0xec
 800688c:	ee2b ba06 	vmul.f32	s22, s22, s12
 8006890:	ed94 0a82 	vldr	s0, [r4, #520]	@ 0x208
 8006894:	ee67 6aa6 	vmul.f32	s13, s15, s13
 8006898:	ed94 ca18 	vldr	s24, [r4, #96]	@ 0x60
 800689c:	eeb7 7ac7 	vcvt.f64.f32	d7, s14
 80068a0:	ee3b ba66 	vsub.f32	s22, s22, s13
 80068a4:	eeb7 bacb 	vcvt.f64.f32	d11, s22
 80068a8:	ee3b bb08 	vadd.f64	d11, d11, d8
 80068ac:	ee2b bb07 	vmul.f64	d11, d11, d7
 80068b0:	f003 f93e 	bl	8009b30 <SPE_sin_Hcbd8c48e05b139646178cc6f7987b8955b6ce985_cb4a8a449b4ada864625ee5a4355578a3aaf08ed>
 80068b4:	ed94 6a3b 	vldr	s12, [r4, #236]	@ 0xec
 80068b8:	edd4 6a3c 	vldr	s13, [r4, #240]	@ 0xf0
 80068bc:	ed94 7a3e 	vldr	s14, [r4, #248]	@ 0xf8
 80068c0:	ee2c ca00 	vmul.f32	s24, s24, s0
 80068c4:	edd4 7a3d 	vldr	s15, [r4, #244]	@ 0xf4
 80068c8:	ee27 7a06 	vmul.f32	s14, s14, s12
 80068cc:	ed94 6a5b 	vldr	s12, [r4, #364]	@ 0x16c
 80068d0:	ee67 7aa6 	vmul.f32	s15, s15, s13
 80068d4:	ed94 0a82 	vldr	s0, [r4, #520]	@ 0x208
 80068d8:	eeb7 6ac6 	vcvt.f64.f32	d6, s12
 80068dc:	edd4 ca18 	vldr	s25, [r4, #96]	@ 0x60
 80068e0:	ee37 7a27 	vadd.f32	s14, s14, s15
 80068e4:	ee27 7a0c 	vmul.f32	s14, s14, s24
 80068e8:	eeb7 7ac7 	vcvt.f64.f32	d7, s14
 80068ec:	ee3b bb47 	vsub.f64	d11, d11, d7
 80068f0:	ee2b bb06 	vmul.f64	d11, d11, d6
 80068f4:	f003 f91e 	bl	8009b34 <SPE_cos_Hcbd8c48e05b139646178cc6f7987b8955b6ce985_cb4a8a449b4ada864625ee5a4355578a3aaf08ed>
 80068f8:	edd4 6a3b 	vldr	s13, [r4, #236]	@ 0xec
 80068fc:	ed94 7a3c 	vldr	s14, [r4, #240]	@ 0xf0
 8006900:	ed94 ca3e 	vldr	s24, [r4, #248]	@ 0xf8
 8006904:	ee6c ca80 	vmul.f32	s25, s25, s0
 8006908:	edd4 7a3d 	vldr	s15, [r4, #244]	@ 0xf4
 800690c:	ee2c ca26 	vmul.f32	s24, s24, s13
 8006910:	ed94 0a82 	vldr	s0, [r4, #520]	@ 0x208
 8006914:	ee67 7a87 	vmul.f32	s15, s15, s14
 8006918:	ed94 da18 	vldr	s26, [r4, #96]	@ 0x60
 800691c:	ee3c ca27 	vadd.f32	s24, s24, s15
 8006920:	f003 f906 	bl	8009b30 <SPE_sin_Hcbd8c48e05b139646178cc6f7987b8955b6ce985_cb4a8a449b4ada864625ee5a4355578a3aaf08ed>
 8006924:	edd4 5a3c 	vldr	s11, [r4, #240]	@ 0xf0
 8006928:	ee2d 6a00 	vmul.f32	s12, s26, s0
 800692c:	edd4 6a3b 	vldr	s13, [r4, #236]	@ 0xec
 8006930:	ed94 7a3e 	vldr	s14, [r4, #248]	@ 0xf8
 8006934:	ee2c ca2c 	vmul.f32	s24, s24, s25
 8006938:	edd4 7a3d 	vldr	s15, [r4, #244]	@ 0xf4
 800693c:	ee27 7a25 	vmul.f32	s14, s14, s11
 8006940:	ed94 5a58 	vldr	s10, [r4, #352]	@ 0x160
 8006944:	ee67 7aa6 	vmul.f32	s15, s15, s13
 8006948:	ed94 4a6e 	vldr	s8, [r4, #440]	@ 0x1b8
 800694c:	eeb7 6ac6 	vcvt.f64.f32	d6, s12
 8006950:	ed94 0a82 	vldr	s0, [r4, #520]	@ 0x208
 8006954:	eeb7 cacc 	vcvt.f64.f32	d12, s24
 8006958:	ed94 da18 	vldr	s26, [r4, #96]	@ 0x60
 800695c:	ee37 7a67 	vsub.f32	s14, s14, s15
 8006960:	eeb7 5ac5 	vcvt.f64.f32	d5, s10
 8006964:	eeb7 4ac4 	vcvt.f64.f32	d4, s8
 8006968:	eeb7 7ac7 	vcvt.f64.f32	d7, s14
 800696c:	ee37 7b08 	vadd.f64	d7, d7, d8
 8006970:	ee07 cb06 	vmla.f64	d12, d7, d6
 8006974:	ee0c bb05 	vmla.f64	d11, d12, d5
 8006978:	ee8b 7b04 	vdiv.f64	d7, d11, d4
 800697c:	eeb7 7bc7 	vcvt.f32.f64	s14, d7
 8006980:	eeb1 7a47 	vneg.f32	s14, s14
 8006984:	ed8d 7a34 	vstr	s14, [sp, #208]	@ 0xd0
 8006988:	f003 f8d4 	bl	8009b34 <SPE_cos_Hcbd8c48e05b139646178cc6f7987b8955b6ce985_cb4a8a449b4ada864625ee5a4355578a3aaf08ed>
 800698c:	ed94 6a3b 	vldr	s12, [r4, #236]	@ 0xec
 8006990:	ee6d 7a00 	vmul.f32	s15, s26, s0
 8006994:	edd4 6a3c 	vldr	s13, [r4, #240]	@ 0xf0
 8006998:	ed94 ba3e 	vldr	s22, [r4, #248]	@ 0xf8
 800699c:	ed94 7a3d 	vldr	s14, [r4, #244]	@ 0xf4
 80069a0:	ee2b ba06 	vmul.f32	s22, s22, s12
 80069a4:	ed94 0a82 	vldr	s0, [r4, #520]	@ 0x208
 80069a8:	ee27 7a26 	vmul.f32	s14, s14, s13
 80069ac:	ed94 ca18 	vldr	s24, [r4, #96]	@ 0x60
 80069b0:	ee3b ba07 	vadd.f32	s22, s22, s14
 80069b4:	ee2b ba27 	vmul.f32	s22, s22, s15
 80069b8:	f003 f8ba 	bl	8009b30 <SPE_sin_Hcbd8c48e05b139646178cc6f7987b8955b6ce985_cb4a8a449b4ada864625ee5a4355578a3aaf08ed>
 80069bc:	ed94 6a5a 	vldr	s12, [r4, #360]	@ 0x168
 80069c0:	ee2c 0a00 	vmul.f32	s0, s24, s0
 80069c4:	ed94 7a5c 	vldr	s14, [r4, #368]	@ 0x170
 80069c8:	edd4 7a5e 	vldr	s15, [r4, #376]	@ 0x178
 80069cc:	eeb7 bacb 	vcvt.f64.f32	d11, s22
 80069d0:	edd4 6a55 	vldr	s13, [r4, #340]	@ 0x154
 80069d4:	eeb7 0ac0 	vcvt.f64.f32	d0, s0
 80069d8:	ee77 7ac6 	vsub.f32	s15, s15, s12
 80069dc:	edd4 3a53 	vldr	s7, [r4, #332]	@ 0x14c
 80069e0:	ee66 6a87 	vmul.f32	s13, s13, s14
 80069e4:	edd4 5a3c 	vldr	s11, [r4, #240]	@ 0xf0
 80069e8:	ed94 7a3e 	vldr	s14, [r4, #248]	@ 0xf8
 80069ec:	edd4 4a3d 	vldr	s9, [r4, #244]	@ 0xf4
 80069f0:	ee66 6aa7 	vmul.f32	s13, s13, s15
 80069f4:	ee27 7a25 	vmul.f32	s14, s14, s11
 80069f8:	ee86 5aa3 	vdiv.f32	s10, s13, s7
 80069fc:	eec5 5a06 	vdiv.f32	s11, s10, s12
 8006a00:	ed94 6a6e 	vldr	s12, [r4, #440]	@ 0x1b8
 8006a04:	eeb7 6ac6 	vcvt.f64.f32	d6, s12
 8006a08:	ee77 7ae5 	vsub.f32	s15, s15, s11
 8006a0c:	ee67 7aa3 	vmul.f32	s15, s15, s7
 8006a10:	eeb7 5ae7 	vcvt.f64.f32	d5, s15
 8006a14:	edd4 7a3b 	vldr	s15, [r4, #236]	@ 0xec
 8006a18:	ee64 7aa7 	vmul.f32	s15, s9, s15
 8006a1c:	eeb0 4b4b 	vmov.f64	d4, d11
 8006a20:	edd4 ba18 	vldr	s23, [r4, #96]	@ 0x60
 8006a24:	ee37 7a67 	vsub.f32	s14, s14, s15
 8006a28:	eeb7 7ac7 	vcvt.f64.f32	d7, s14
 8006a2c:	ee37 7b08 	vadd.f64	d7, d7, d8
 8006a30:	ee07 4b00 	vmla.f64	d4, d7, d0
 8006a34:	ed94 0a82 	vldr	s0, [r4, #520]	@ 0x208
 8006a38:	eeb7 7ae3 	vcvt.f64.f32	d7, s7
 8006a3c:	ee24 5b05 	vmul.f64	d5, d4, d5
 8006a40:	ee85 4b06 	vdiv.f64	d4, d5, d6
 8006a44:	ee84 cb07 	vdiv.f64	d12, d4, d7
 8006a48:	f003 f874 	bl	8009b34 <SPE_cos_Hcbd8c48e05b139646178cc6f7987b8955b6ce985_cb4a8a449b4ada864625ee5a4355578a3aaf08ed>
 8006a4c:	ed94 6a3c 	vldr	s12, [r4, #240]	@ 0xf0
 8006a50:	edd4 7a3d 	vldr	s15, [r4, #244]	@ 0xf4
 8006a54:	ed94 ba3e 	vldr	s22, [r4, #248]	@ 0xf8
 8006a58:	edd4 6a3b 	vldr	s13, [r4, #236]	@ 0xec
 8006a5c:	ee2b 7a80 	vmul.f32	s14, s23, s0
 8006a60:	ee2b ba06 	vmul.f32	s22, s22, s12
 8006a64:	ed94 0a82 	vldr	s0, [r4, #520]	@ 0x208
 8006a68:	ee67 6aa6 	vmul.f32	s13, s15, s13
 8006a6c:	ed94 da18 	vldr	s26, [r4, #96]	@ 0x60
 8006a70:	eeb7 7ac7 	vcvt.f64.f32	d7, s14
 8006a74:	ee3b ba66 	vsub.f32	s22, s22, s13
 8006a78:	eeb7 bacb 	vcvt.f64.f32	d11, s22
 8006a7c:	ee3b bb08 	vadd.f64	d11, d11, d8
 8006a80:	ee2b bb07 	vmul.f64	d11, d11, d7
 8006a84:	f003 f854 	bl	8009b30 <SPE_sin_Hcbd8c48e05b139646178cc6f7987b8955b6ce985_cb4a8a449b4ada864625ee5a4355578a3aaf08ed>
 8006a88:	edd4 7a3e 	vldr	s15, [r4, #248]	@ 0xf8
 8006a8c:	ed94 6a3b 	vldr	s12, [r4, #236]	@ 0xec
 8006a90:	ed94 7a3d 	vldr	s14, [r4, #244]	@ 0xf4
 8006a94:	ee2d da00 	vmul.f32	s26, s26, s0
 8006a98:	edd4 6a3c 	vldr	s13, [r4, #240]	@ 0xf0
 8006a9c:	ee27 0a86 	vmul.f32	s0, s15, s12
 8006aa0:	ed94 6a58 	vldr	s12, [r4, #352]	@ 0x160
 8006aa4:	ee67 7a26 	vmul.f32	s15, s14, s13
 8006aa8:	ed94 7a6e 	vldr	s14, [r4, #440]	@ 0x1b8
 8006aac:	eeb7 6ac6 	vcvt.f64.f32	d6, s12
 8006ab0:	ee30 0a27 	vadd.f32	s0, s0, s15
 8006ab4:	eeb7 7ac7 	vcvt.f64.f32	d7, s14
 8006ab8:	ee20 0a0d 	vmul.f32	s0, s0, s26
 8006abc:	ed94 da18 	vldr	s26, [r4, #96]	@ 0x60
 8006ac0:	eeb7 0ac0 	vcvt.f64.f32	d0, s0
 8006ac4:	ee3b bb40 	vsub.f64	d11, d11, d0
 8006ac8:	ed94 0a82 	vldr	s0, [r4, #520]	@ 0x208
 8006acc:	ee2b bb06 	vmul.f64	d11, d11, d6
 8006ad0:	ee8b 6b07 	vdiv.f64	d6, d11, d7
 8006ad4:	ee3c cb46 	vsub.f64	d12, d12, d6
 8006ad8:	f003 f82c 	bl	8009b34 <SPE_cos_Hcbd8c48e05b139646178cc6f7987b8955b6ce985_cb4a8a449b4ada864625ee5a4355578a3aaf08ed>
 8006adc:	edd4 6a3b 	vldr	s13, [r4, #236]	@ 0xec
 8006ae0:	ee2d da00 	vmul.f32	s26, s26, s0
 8006ae4:	ed94 7a3c 	vldr	s14, [r4, #240]	@ 0xf0
 8006ae8:	ed94 ba3e 	vldr	s22, [r4, #248]	@ 0xf8
 8006aec:	edd4 7a3d 	vldr	s15, [r4, #244]	@ 0xf4
 8006af0:	ee2b ba26 	vmul.f32	s22, s22, s13
 8006af4:	ed94 0a82 	vldr	s0, [r4, #520]	@ 0x208
 8006af8:	ee67 7a87 	vmul.f32	s15, s15, s14
 8006afc:	edd4 da18 	vldr	s27, [r4, #96]	@ 0x60
 8006b00:	ee3b ba27 	vadd.f32	s22, s22, s15
 8006b04:	f003 f814 	bl	8009b30 <SPE_sin_Hcbd8c48e05b139646178cc6f7987b8955b6ce985_cb4a8a449b4ada864625ee5a4355578a3aaf08ed>
 8006b08:	edd4 7a3c 	vldr	s15, [r4, #240]	@ 0xf0
 8006b0c:	ee2d 0a80 	vmul.f32	s0, s27, s0
 8006b10:	ed94 7a3e 	vldr	s14, [r4, #248]	@ 0xf8
 8006b14:	edd4 5a55 	vldr	s11, [r4, #340]	@ 0x154
 8006b18:	ee2b ba0d 	vmul.f32	s22, s22, s26
 8006b1c:	ed94 6a5a 	vldr	s12, [r4, #360]	@ 0x168
 8006b20:	ee27 7a27 	vmul.f32	s14, s14, s15
 8006b24:	edd4 6a5c 	vldr	s13, [r4, #368]	@ 0x170
 8006b28:	eeb7 0ac0 	vcvt.f64.f32	d0, s0
 8006b2c:	edd4 7a5e 	vldr	s15, [r4, #376]	@ 0x178
 8006b30:	eeb7 bacb 	vcvt.f64.f32	d11, s22
 8006b34:	ee65 4aa6 	vmul.f32	s9, s11, s13
 8006b38:	ed94 4a53 	vldr	s8, [r4, #332]	@ 0x14c
 8006b3c:	ee77 7ac6 	vsub.f32	s15, s15, s12
 8006b40:	ed94 5a3d 	vldr	s10, [r4, #244]	@ 0xf4
 8006b44:	ee76 6a66 	vsub.f32	s13, s12, s13
 8006b48:	ed94 da18 	vldr	s26, [r4, #96]	@ 0x60
 8006b4c:	ee67 7aa4 	vmul.f32	s15, s15, s9
 8006b50:	eec7 4a84 	vdiv.f32	s9, s15, s8
 8006b54:	eec4 7a86 	vdiv.f32	s15, s9, s12
 8006b58:	ee77 7aa6 	vadd.f32	s15, s15, s13
 8006b5c:	ee67 7aa5 	vmul.f32	s15, s15, s11
 8006b60:	eeb7 6ae7 	vcvt.f64.f32	d6, s15
 8006b64:	edd4 7a3b 	vldr	s15, [r4, #236]	@ 0xec
 8006b68:	ee65 7a27 	vmul.f32	s15, s10, s15
 8006b6c:	ee37 7a67 	vsub.f32	s14, s14, s15
 8006b70:	eeb7 7ac7 	vcvt.f64.f32	d7, s14
 8006b74:	ee37 7b08 	vadd.f64	d7, d7, d8
 8006b78:	ee07 bb00 	vmla.f64	d11, d7, d0
 8006b7c:	ed94 0a82 	vldr	s0, [r4, #520]	@ 0x208
 8006b80:	eeb7 7ae5 	vcvt.f64.f32	d7, s11
 8006b84:	ee2b bb06 	vmul.f64	d11, d11, d6
 8006b88:	ed94 6a6e 	vldr	s12, [r4, #440]	@ 0x1b8
 8006b8c:	eeb7 6ac6 	vcvt.f64.f32	d6, s12
 8006b90:	ee8b 5b06 	vdiv.f64	d5, d11, d6
 8006b94:	ee85 bb07 	vdiv.f64	d11, d5, d7
 8006b98:	f002 ffcc 	bl	8009b34 <SPE_cos_Hcbd8c48e05b139646178cc6f7987b8955b6ce985_cb4a8a449b4ada864625ee5a4355578a3aaf08ed>
 8006b9c:	edd4 5a3b 	vldr	s11, [r4, #236]	@ 0xec
 8006ba0:	ed94 6a3c 	vldr	s12, [r4, #240]	@ 0xf0
 8006ba4:	edd4 7a3e 	vldr	s15, [r4, #248]	@ 0xf8
 8006ba8:	edd4 6a3d 	vldr	s13, [r4, #244]	@ 0xf4
 8006bac:	ee2d 7a00 	vmul.f32	s14, s26, s0
 8006bb0:	ee67 7aa5 	vmul.f32	s15, s15, s11
 8006bb4:	ed94 0a82 	vldr	s0, [r4, #520]	@ 0x208
 8006bb8:	ee66 6a86 	vmul.f32	s13, s13, s12
 8006bbc:	ed94 da18 	vldr	s26, [r4, #96]	@ 0x60
 8006bc0:	ee77 7aa6 	vadd.f32	s15, s15, s13
 8006bc4:	ee67 7a87 	vmul.f32	s15, s15, s14
 8006bc8:	ee3b bb0c 	vadd.f64	d11, d11, d12
 8006bcc:	eeb7 cae7 	vcvt.f64.f32	d12, s15
 8006bd0:	f002 ffae 	bl	8009b30 <SPE_sin_Hcbd8c48e05b139646178cc6f7987b8955b6ce985_cb4a8a449b4ada864625ee5a4355578a3aaf08ed>
 8006bd4:	edd4 6a3e 	vldr	s13, [r4, #248]	@ 0xf8
 8006bd8:	ee2d 5a00 	vmul.f32	s10, s26, s0
 8006bdc:	edd4 7a3d 	vldr	s15, [r4, #244]	@ 0xf4
 8006be0:	edd4 5a3c 	vldr	s11, [r4, #240]	@ 0xf0
 8006be4:	ed94 7a3b 	vldr	s14, [r4, #236]	@ 0xec
 8006be8:	ee26 6aa5 	vmul.f32	s12, s13, s11
 8006bec:	ed94 3a6e 	vldr	s6, [r4, #440]	@ 0x1b8
 8006bf0:	ee67 4a87 	vmul.f32	s9, s15, s14
 8006bf4:	ed94 2a43 	vldr	s4, [r4, #268]	@ 0x10c
 8006bf8:	ee26 7a87 	vmul.f32	s14, s13, s14
 8006bfc:	ed94 0a82 	vldr	s0, [r4, #520]	@ 0x208
 8006c00:	eef1 6a66 	vneg.f32	s13, s13
 8006c04:	ed94 da18 	vldr	s26, [r4, #96]	@ 0x60
 8006c08:	ee36 6a64 	vsub.f32	s12, s12, s9
 8006c0c:	edd4 4a42 	vldr	s9, [r4, #264]	@ 0x108
 8006c10:	ee65 5aa7 	vmul.f32	s11, s11, s15
 8006c14:	edcd 6a38 	vstr	s13, [sp, #224]	@ 0xe0
 8006c18:	eeb7 3ac3 	vcvt.f64.f32	d3, s6
 8006c1c:	eeb7 6ac6 	vcvt.f64.f32	d6, s12
 8006c20:	ee37 7a25 	vadd.f32	s14, s14, s11
 8006c24:	eeb7 5ac5 	vcvt.f64.f32	d5, s10
 8006c28:	ee36 6b08 	vadd.f64	d6, d6, d8
 8006c2c:	eef1 7a67 	vneg.f32	s15, s15
 8006c30:	ee05 cb06 	vmla.f64	d12, d5, d6
 8006c34:	ed94 5a5c 	vldr	s10, [r4, #368]	@ 0x170
 8006c38:	edcd 7a39 	vstr	s15, [sp, #228]	@ 0xe4
 8006c3c:	eeb7 5ac5 	vcvt.f64.f32	d5, s10
 8006c40:	ee2c cb05 	vmul.f64	d12, d12, d5
 8006c44:	ee8c 5b03 	vdiv.f64	d5, d12, d3
 8006c48:	ee27 3a24 	vmul.f32	s6, s14, s9
 8006c4c:	ee22 7a07 	vmul.f32	s14, s4, s14
 8006c50:	eeb7 2ac2 	vcvt.f64.f32	d2, s4
 8006c54:	eeb7 3ac3 	vcvt.f64.f32	d3, s6
 8006c58:	eeb7 7ac7 	vcvt.f64.f32	d7, s14
 8006c5c:	ee02 3b06 	vmla.f64	d3, d2, d6
 8006c60:	eeb7 3bc3 	vcvt.f32.f64	s6, d3
 8006c64:	ed8d 3a36 	vstr	s6, [sp, #216]	@ 0xd8
 8006c68:	ee35 5b0b 	vadd.f64	d5, d5, d11
 8006c6c:	eeb7 5bc5 	vcvt.f32.f64	s10, d5
 8006c70:	ed8d 5a35 	vstr	s10, [sp, #212]	@ 0xd4
 8006c74:	eeb7 5ae4 	vcvt.f64.f32	d5, s9
 8006c78:	ee15 7b06 	vnmls.f64	d7, d5, d6
 8006c7c:	eeb7 7bc7 	vcvt.f32.f64	s14, d7
 8006c80:	ed8d 7a37 	vstr	s14, [sp, #220]	@ 0xdc
 8006c84:	f002 ff54 	bl	8009b30 <SPE_sin_Hcbd8c48e05b139646178cc6f7987b8955b6ce985_cb4a8a449b4ada864625ee5a4355578a3aaf08ed>
 8006c88:	edd4 5a3c 	vldr	s11, [r4, #240]	@ 0xf0
 8006c8c:	ee2d 6a00 	vmul.f32	s12, s26, s0
 8006c90:	edd4 6a3b 	vldr	s13, [r4, #236]	@ 0xec
 8006c94:	ed94 7a3e 	vldr	s14, [r4, #248]	@ 0xf8
 8006c98:	edd4 7a3d 	vldr	s15, [r4, #244]	@ 0xf4
 8006c9c:	ee27 7a25 	vmul.f32	s14, s14, s11
 8006ca0:	ed94 0a82 	vldr	s0, [r4, #520]	@ 0x208
 8006ca4:	ee67 7aa6 	vmul.f32	s15, s15, s13
 8006ca8:	ed94 ca18 	vldr	s24, [r4, #96]	@ 0x60
 8006cac:	eeb7 6ac6 	vcvt.f64.f32	d6, s12
 8006cb0:	ee37 7a67 	vsub.f32	s14, s14, s15
 8006cb4:	eeb7 7ac7 	vcvt.f64.f32	d7, s14
 8006cb8:	ee37 7b08 	vadd.f64	d7, d7, d8
 8006cbc:	ee27 bb06 	vmul.f64	d11, d7, d6
 8006cc0:	f002 ff38 	bl	8009b34 <SPE_cos_Hcbd8c48e05b139646178cc6f7987b8955b6ce985_cb4a8a449b4ada864625ee5a4355578a3aaf08ed>
 8006cc4:	ed94 6a3b 	vldr	s12, [r4, #236]	@ 0xec
 8006cc8:	edd4 6a3c 	vldr	s13, [r4, #240]	@ 0xf0
 8006ccc:	ed94 7a3e 	vldr	s14, [r4, #248]	@ 0xf8
 8006cd0:	ee2c ca00 	vmul.f32	s24, s24, s0
 8006cd4:	edd4 7a3d 	vldr	s15, [r4, #244]	@ 0xf4
 8006cd8:	ee27 7a06 	vmul.f32	s14, s14, s12
 8006cdc:	ed94 6a5b 	vldr	s12, [r4, #364]	@ 0x16c
 8006ce0:	ee67 7aa6 	vmul.f32	s15, s15, s13
 8006ce4:	ed94 0a82 	vldr	s0, [r4, #520]	@ 0x208
 8006ce8:	eeb7 6ac6 	vcvt.f64.f32	d6, s12
 8006cec:	edd4 ca18 	vldr	s25, [r4, #96]	@ 0x60
 8006cf0:	ee37 7a27 	vadd.f32	s14, s14, s15
 8006cf4:	ee27 7a0c 	vmul.f32	s14, s14, s24
 8006cf8:	eeb7 7ac7 	vcvt.f64.f32	d7, s14
 8006cfc:	ee37 bb0b 	vadd.f64	d11, d7, d11
 8006d00:	ee2b bb06 	vmul.f64	d11, d11, d6
 8006d04:	f002 ff14 	bl	8009b30 <SPE_sin_Hcbd8c48e05b139646178cc6f7987b8955b6ce985_cb4a8a449b4ada864625ee5a4355578a3aaf08ed>
 8006d08:	edd4 6a3b 	vldr	s13, [r4, #236]	@ 0xec
 8006d0c:	ed94 7a3c 	vldr	s14, [r4, #240]	@ 0xf0
 8006d10:	ed94 ca3e 	vldr	s24, [r4, #248]	@ 0xf8
 8006d14:	ee6c ca80 	vmul.f32	s25, s25, s0
 8006d18:	edd4 7a3d 	vldr	s15, [r4, #244]	@ 0xf4
 8006d1c:	ee2c ca26 	vmul.f32	s24, s24, s13
 8006d20:	ed94 0a82 	vldr	s0, [r4, #520]	@ 0x208
 8006d24:	ee67 7a87 	vmul.f32	s15, s15, s14
 8006d28:	ed94 da18 	vldr	s26, [r4, #96]	@ 0x60
 8006d2c:	ee3c ca27 	vadd.f32	s24, s24, s15
 8006d30:	f002 ff00 	bl	8009b34 <SPE_cos_Hcbd8c48e05b139646178cc6f7987b8955b6ce985_cb4a8a449b4ada864625ee5a4355578a3aaf08ed>
 8006d34:	edd4 5a3c 	vldr	s11, [r4, #240]	@ 0xf0
 8006d38:	ee2d 6a00 	vmul.f32	s12, s26, s0
 8006d3c:	edd4 6a3b 	vldr	s13, [r4, #236]	@ 0xec
 8006d40:	ed94 7a3e 	vldr	s14, [r4, #248]	@ 0xf8
 8006d44:	ee2c ca2c 	vmul.f32	s24, s24, s25
 8006d48:	edd4 7a3d 	vldr	s15, [r4, #244]	@ 0xf4
 8006d4c:	ee27 7a25 	vmul.f32	s14, s14, s11
 8006d50:	ed94 5a58 	vldr	s10, [r4, #352]	@ 0x160
 8006d54:	ee67 7aa6 	vmul.f32	s15, s15, s13
 8006d58:	ed94 4a6e 	vldr	s8, [r4, #440]	@ 0x1b8
 8006d5c:	eeb7 6ac6 	vcvt.f64.f32	d6, s12
 8006d60:	ed94 0a82 	vldr	s0, [r4, #520]	@ 0x208
 8006d64:	eeb7 cacc 	vcvt.f64.f32	d12, s24
 8006d68:	ed94 da18 	vldr	s26, [r4, #96]	@ 0x60
 8006d6c:	ee37 7a67 	vsub.f32	s14, s14, s15
 8006d70:	eeb7 5ac5 	vcvt.f64.f32	d5, s10
 8006d74:	eeb7 4ac4 	vcvt.f64.f32	d4, s8
 8006d78:	eeb7 7ac7 	vcvt.f64.f32	d7, s14
 8006d7c:	ee37 7b08 	vadd.f64	d7, d7, d8
 8006d80:	ee07 cb46 	vmls.f64	d12, d7, d6
 8006d84:	ee0c bb05 	vmla.f64	d11, d12, d5
 8006d88:	ee8b 6b04 	vdiv.f64	d6, d11, d4
 8006d8c:	eeb7 6bc6 	vcvt.f32.f64	s12, d6
 8006d90:	eeb1 6a46 	vneg.f32	s12, s12
 8006d94:	ed8d 6a3a 	vstr	s12, [sp, #232]	@ 0xe8
 8006d98:	f002 feca 	bl	8009b30 <SPE_sin_Hcbd8c48e05b139646178cc6f7987b8955b6ce985_cb4a8a449b4ada864625ee5a4355578a3aaf08ed>
 8006d9c:	ed94 6a3b 	vldr	s12, [r4, #236]	@ 0xec
 8006da0:	ee6d 7a00 	vmul.f32	s15, s26, s0
 8006da4:	edd4 6a3c 	vldr	s13, [r4, #240]	@ 0xf0
 8006da8:	ed94 ba3e 	vldr	s22, [r4, #248]	@ 0xf8
 8006dac:	ed94 7a3d 	vldr	s14, [r4, #244]	@ 0xf4
 8006db0:	ee2b ba06 	vmul.f32	s22, s22, s12
 8006db4:	ed94 0a82 	vldr	s0, [r4, #520]	@ 0x208
 8006db8:	ee27 7a26 	vmul.f32	s14, s14, s13
 8006dbc:	ed94 ca18 	vldr	s24, [r4, #96]	@ 0x60
 8006dc0:	ee3b ba07 	vadd.f32	s22, s22, s14
 8006dc4:	ee2b ba27 	vmul.f32	s22, s22, s15
 8006dc8:	f002 feb4 	bl	8009b34 <SPE_cos_Hcbd8c48e05b139646178cc6f7987b8955b6ce985_cb4a8a449b4ada864625ee5a4355578a3aaf08ed>
 8006dcc:	ed94 6a5a 	vldr	s12, [r4, #360]	@ 0x168
 8006dd0:	ee2c 0a00 	vmul.f32	s0, s24, s0
 8006dd4:	ed94 7a5c 	vldr	s14, [r4, #368]	@ 0x170
 8006dd8:	edd4 7a5e 	vldr	s15, [r4, #376]	@ 0x178
 8006ddc:	eeb7 bacb 	vcvt.f64.f32	d11, s22
 8006de0:	edd4 6a55 	vldr	s13, [r4, #340]	@ 0x154
 8006de4:	eeb7 0ac0 	vcvt.f64.f32	d0, s0
 8006de8:	ee77 7ac6 	vsub.f32	s15, s15, s12
 8006dec:	edd4 4a53 	vldr	s9, [r4, #332]	@ 0x14c
 8006df0:	ee66 6a87 	vmul.f32	s13, s13, s14
 8006df4:	edd4 5a3c 	vldr	s11, [r4, #240]	@ 0xf0
 8006df8:	ed94 7a3e 	vldr	s14, [r4, #248]	@ 0xf8
 8006dfc:	ed94 4a3d 	vldr	s8, [r4, #244]	@ 0xf4
 8006e00:	ee66 6aa7 	vmul.f32	s13, s13, s15
 8006e04:	edd4 ca18 	vldr	s25, [r4, #96]	@ 0x60
 8006e08:	ee27 7a25 	vmul.f32	s14, s14, s11
 8006e0c:	ee86 5aa4 	vdiv.f32	s10, s13, s9
 8006e10:	eec5 5a06 	vdiv.f32	s11, s10, s12
 8006e14:	ed94 6a6e 	vldr	s12, [r4, #440]	@ 0x1b8
 8006e18:	eeb7 6ac6 	vcvt.f64.f32	d6, s12
 8006e1c:	ee77 7ae5 	vsub.f32	s15, s15, s11
 8006e20:	ee67 7aa4 	vmul.f32	s15, s15, s9
 8006e24:	eeb7 5ae7 	vcvt.f64.f32	d5, s15
 8006e28:	edd4 7a3b 	vldr	s15, [r4, #236]	@ 0xec
 8006e2c:	ee64 7a27 	vmul.f32	s15, s8, s15
 8006e30:	ee37 7a67 	vsub.f32	s14, s14, s15
 8006e34:	eeb7 7ac7 	vcvt.f64.f32	d7, s14
 8006e38:	ee37 7b08 	vadd.f64	d7, d7, d8
 8006e3c:	ee07 bb40 	vmls.f64	d11, d7, d0
 8006e40:	ed94 0a82 	vldr	s0, [r4, #520]	@ 0x208
 8006e44:	eeb7 7ae4 	vcvt.f64.f32	d7, s9
 8006e48:	ee2b bb05 	vmul.f64	d11, d11, d5
 8006e4c:	ee8b 5b06 	vdiv.f64	d5, d11, d6
 8006e50:	ee85 bb07 	vdiv.f64	d11, d5, d7
 8006e54:	f002 fe6c 	bl	8009b30 <SPE_sin_Hcbd8c48e05b139646178cc6f7987b8955b6ce985_cb4a8a449b4ada864625ee5a4355578a3aaf08ed>
 8006e58:	ed94 6a3c 	vldr	s12, [r4, #240]	@ 0xf0
 8006e5c:	edd4 7a3d 	vldr	s15, [r4, #244]	@ 0xf4
 8006e60:	ed94 ca3e 	vldr	s24, [r4, #248]	@ 0xf8
 8006e64:	edd4 6a3b 	vldr	s13, [r4, #236]	@ 0xec
 8006e68:	ee2c 7a80 	vmul.f32	s14, s25, s0
 8006e6c:	ee2c ca06 	vmul.f32	s24, s24, s12
 8006e70:	ed94 0a82 	vldr	s0, [r4, #520]	@ 0x208
 8006e74:	ee67 6aa6 	vmul.f32	s13, s15, s13
 8006e78:	ed94 da18 	vldr	s26, [r4, #96]	@ 0x60
 8006e7c:	eeb7 7ac7 	vcvt.f64.f32	d7, s14
 8006e80:	ee3c ca66 	vsub.f32	s24, s24, s13
 8006e84:	eeb7 cacc 	vcvt.f64.f32	d12, s24
 8006e88:	ee3c cb08 	vadd.f64	d12, d12, d8
 8006e8c:	ee2c cb07 	vmul.f64	d12, d12, d7
 8006e90:	f002 fe50 	bl	8009b34 <SPE_cos_Hcbd8c48e05b139646178cc6f7987b8955b6ce985_cb4a8a449b4ada864625ee5a4355578a3aaf08ed>
 8006e94:	edd4 7a3e 	vldr	s15, [r4, #248]	@ 0xf8
 8006e98:	ed94 6a3c 	vldr	s12, [r4, #240]	@ 0xf0
 8006e9c:	ed94 7a3b 	vldr	s14, [r4, #236]	@ 0xec
 8006ea0:	ee2d da00 	vmul.f32	s26, s26, s0
 8006ea4:	edd4 6a3d 	vldr	s13, [r4, #244]	@ 0xf4
 8006ea8:	ee27 7a87 	vmul.f32	s14, s15, s14
 8006eac:	ed94 5a58 	vldr	s10, [r4, #352]	@ 0x160
 8006eb0:	ee66 6a86 	vmul.f32	s13, s13, s12
 8006eb4:	ed94 6a6e 	vldr	s12, [r4, #440]	@ 0x1b8
 8006eb8:	eeb7 5ac5 	vcvt.f64.f32	d5, s10
 8006ebc:	ed94 0a82 	vldr	s0, [r4, #520]	@ 0x208
 8006ec0:	ee37 7a26 	vadd.f32	s14, s14, s13
 8006ec4:	eeb7 6ac6 	vcvt.f64.f32	d6, s12
 8006ec8:	ee27 7a0d 	vmul.f32	s14, s14, s26
 8006ecc:	eeb7 7ac7 	vcvt.f64.f32	d7, s14
 8006ed0:	ee37 7b0c 	vadd.f64	d7, d7, d12
 8006ed4:	ed94 ca18 	vldr	s24, [r4, #96]	@ 0x60
 8006ed8:	ee27 7b05 	vmul.f64	d7, d7, d5
 8006edc:	ee87 db06 	vdiv.f64	d13, d7, d6
 8006ee0:	f002 fe26 	bl	8009b30 <SPE_sin_Hcbd8c48e05b139646178cc6f7987b8955b6ce985_cb4a8a449b4ada864625ee5a4355578a3aaf08ed>
 8006ee4:	edd4 6a3b 	vldr	s13, [r4, #236]	@ 0xec
 8006ee8:	ed94 7a3c 	vldr	s14, [r4, #240]	@ 0xf0
 8006eec:	edd4 7a3d 	vldr	s15, [r4, #244]	@ 0xf4
 8006ef0:	ee2c ca00 	vmul.f32	s24, s24, s0
 8006ef4:	ed94 0a82 	vldr	s0, [r4, #520]	@ 0x208
 8006ef8:	ee67 7a87 	vmul.f32	s15, s15, s14
 8006efc:	edd4 ca18 	vldr	s25, [r4, #96]	@ 0x60
 8006f00:	ee3b db4d 	vsub.f64	d13, d11, d13
 8006f04:	ed94 ba3e 	vldr	s22, [r4, #248]	@ 0xf8
 8006f08:	ee2b ba26 	vmul.f32	s22, s22, s13
 8006f0c:	ee3b ba27 	vadd.f32	s22, s22, s15
 8006f10:	f002 fe10 	bl	8009b34 <SPE_cos_Hcbd8c48e05b139646178cc6f7987b8955b6ce985_cb4a8a449b4ada864625ee5a4355578a3aaf08ed>
 8006f14:	edd4 7a3c 	vldr	s15, [r4, #240]	@ 0xf0
 8006f18:	ee2c 0a80 	vmul.f32	s0, s25, s0
 8006f1c:	ed94 7a3e 	vldr	s14, [r4, #248]	@ 0xf8
 8006f20:	edd4 5a55 	vldr	s11, [r4, #340]	@ 0x154
 8006f24:	ee2b ba0c 	vmul.f32	s22, s22, s24
 8006f28:	ed94 6a5a 	vldr	s12, [r4, #360]	@ 0x168
 8006f2c:	ee27 7a27 	vmul.f32	s14, s14, s15
 8006f30:	edd4 6a5c 	vldr	s13, [r4, #368]	@ 0x170
 8006f34:	eeb7 0ac0 	vcvt.f64.f32	d0, s0
 8006f38:	edd4 7a5e 	vldr	s15, [r4, #376]	@ 0x178
 8006f3c:	eeb7 bacb 	vcvt.f64.f32	d11, s22
 8006f40:	ee65 4aa6 	vmul.f32	s9, s11, s13
 8006f44:	ed94 4a53 	vldr	s8, [r4, #332]	@ 0x14c
 8006f48:	ee77 7ac6 	vsub.f32	s15, s15, s12
 8006f4c:	ed94 5a3d 	vldr	s10, [r4, #244]	@ 0xf4
 8006f50:	ee76 6a66 	vsub.f32	s13, s12, s13
 8006f54:	ed94 ea18 	vldr	s28, [r4, #96]	@ 0x60
 8006f58:	ee67 7aa4 	vmul.f32	s15, s15, s9
 8006f5c:	eec7 4a84 	vdiv.f32	s9, s15, s8
 8006f60:	eec4 7a86 	vdiv.f32	s15, s9, s12
 8006f64:	ee77 7aa6 	vadd.f32	s15, s15, s13
 8006f68:	ee67 7aa5 	vmul.f32	s15, s15, s11
 8006f6c:	eeb7 6ae7 	vcvt.f64.f32	d6, s15
 8006f70:	edd4 7a3b 	vldr	s15, [r4, #236]	@ 0xec
 8006f74:	ee65 7a27 	vmul.f32	s15, s10, s15
 8006f78:	ee37 7a67 	vsub.f32	s14, s14, s15
 8006f7c:	eeb7 7ac7 	vcvt.f64.f32	d7, s14
 8006f80:	ee37 7b08 	vadd.f64	d7, d7, d8
 8006f84:	ee07 bb40 	vmls.f64	d11, d7, d0
 8006f88:	ed94 0a82 	vldr	s0, [r4, #520]	@ 0x208
 8006f8c:	eeb7 7ae5 	vcvt.f64.f32	d7, s11
 8006f90:	ee2b bb06 	vmul.f64	d11, d11, d6
 8006f94:	ed94 6a6e 	vldr	s12, [r4, #440]	@ 0x1b8
 8006f98:	eeb7 6ac6 	vcvt.f64.f32	d6, s12
 8006f9c:	ee8b 5b06 	vdiv.f64	d5, d11, d6
 8006fa0:	ee85 cb07 	vdiv.f64	d12, d5, d7
 8006fa4:	f002 fdc4 	bl	8009b30 <SPE_sin_Hcbd8c48e05b139646178cc6f7987b8955b6ce985_cb4a8a449b4ada864625ee5a4355578a3aaf08ed>
 8006fa8:	edd4 6a3b 	vldr	s13, [r4, #236]	@ 0xec
 8006fac:	ed94 7a3c 	vldr	s14, [r4, #240]	@ 0xf0
 8006fb0:	ed94 ba3e 	vldr	s22, [r4, #248]	@ 0xf8
 8006fb4:	edd4 7a3d 	vldr	s15, [r4, #244]	@ 0xf4
 8006fb8:	ee2e ea00 	vmul.f32	s28, s28, s0
 8006fbc:	ee2b ba26 	vmul.f32	s22, s22, s13
 8006fc0:	ed94 0a82 	vldr	s0, [r4, #520]	@ 0x208
 8006fc4:	ee67 7a87 	vmul.f32	s15, s15, s14
 8006fc8:	ee3b ba27 	vadd.f32	s22, s22, s15
 8006fcc:	ee2b ba0e 	vmul.f32	s22, s22, s28
 8006fd0:	eeb7 bacb 	vcvt.f64.f32	d11, s22
 8006fd4:	ee3c cb0d 	vadd.f64	d12, d12, d13
 8006fd8:	ed94 da18 	vldr	s26, [r4, #96]	@ 0x60
 8006fdc:	f002 fdaa 	bl	8009b34 <SPE_cos_Hcbd8c48e05b139646178cc6f7987b8955b6ce985_cb4a8a449b4ada864625ee5a4355578a3aaf08ed>
 8006fe0:	edd4 5a3c 	vldr	s11, [r4, #240]	@ 0xf0
 8006fe4:	edd4 6a3b 	vldr	s13, [r4, #236]	@ 0xec
 8006fe8:	ee2d 6a00 	vmul.f32	s12, s26, s0
 8006fec:	ed94 7a3e 	vldr	s14, [r4, #248]	@ 0xf8
 8006ff0:	edd4 7a3d 	vldr	s15, [r4, #244]	@ 0xf4
 8006ff4:	ee27 7a25 	vmul.f32	s14, s14, s11
 8006ff8:	ed94 5a5c 	vldr	s10, [r4, #368]	@ 0x170
 8006ffc:	ee67 7aa6 	vmul.f32	s15, s15, s13
 8007000:	ed94 4a6e 	vldr	s8, [r4, #440]	@ 0x1b8
 8007004:	eeb7 6ac6 	vcvt.f64.f32	d6, s12
 8007008:	ed94 0a82 	vldr	s0, [r4, #520]	@ 0x208
 800700c:	eeb7 5ac5 	vcvt.f64.f32	d5, s10
 8007010:	ed94 da18 	vldr	s26, [r4, #96]	@ 0x60
 8007014:	ee37 7a67 	vsub.f32	s14, s14, s15
 8007018:	eeb7 4ac4 	vcvt.f64.f32	d4, s8
 800701c:	eeb7 7ac7 	vcvt.f64.f32	d7, s14
 8007020:	ee37 7b08 	vadd.f64	d7, d7, d8
 8007024:	ee07 bb46 	vmls.f64	d11, d7, d6
 8007028:	ee2b bb05 	vmul.f64	d11, d11, d5
 800702c:	ee8b 7b04 	vdiv.f64	d7, d11, d4
 8007030:	ee37 7b0c 	vadd.f64	d7, d7, d12
 8007034:	eeb7 7bc7 	vcvt.f32.f64	s14, d7
 8007038:	ed8d 7a3b 	vstr	s14, [sp, #236]	@ 0xec
 800703c:	f002 fd7a 	bl	8009b34 <SPE_cos_Hcbd8c48e05b139646178cc6f7987b8955b6ce985_cb4a8a449b4ada864625ee5a4355578a3aaf08ed>
 8007040:	edd4 6a6e 	vldr	s13, [r4, #440]	@ 0x1b8
 8007044:	ee2d ca00 	vmul.f32	s24, s26, s0
 8007048:	eeb7 7ae6 	vcvt.f64.f32	d7, s13
 800704c:	eeb0 0a66 	vmov.f32	s0, s13
 8007050:	eeb7 cacc 	vcvt.f64.f32	d12, s24
 8007054:	ee88 6b07 	vdiv.f64	d6, d8, d7
 8007058:	ee86 bb07 	vdiv.f64	d11, d6, d7
 800705c:	f002 fd4c 	bl	8009af8 <SPE_ipowSquare_Hcbd8c48e05b139646178cc6f7987b8955b6ce985_cb4a8a449b4ada864625ee5a4355578a3aaf08ed>
 8007060:	ed94 6a86 	vldr	s12, [r4, #536]	@ 0x218
 8007064:	ed94 ea18 	vldr	s28, [r4, #96]	@ 0x60
 8007068:	eeb0 7a40 	vmov.f32	s14, s0
 800706c:	ed94 0a82 	vldr	s0, [r4, #520]	@ 0x208
 8007070:	eeb7 6ac6 	vcvt.f64.f32	d6, s12
 8007074:	eeb7 7ac7 	vcvt.f64.f32	d7, s14
 8007078:	ee88 5b07 	vdiv.f64	d5, d8, d7
 800707c:	ee3b 7b45 	vsub.f64	d7, d11, d5
 8007080:	ee27 7b0c 	vmul.f64	d7, d7, d12
 8007084:	ee27 7b06 	vmul.f64	d7, d7, d6
 8007088:	eeb7 7bc7 	vcvt.f32.f64	s14, d7
 800708c:	eeb1 7a47 	vneg.f32	s14, s14
 8007090:	ed8d 7a06 	vstr	s14, [sp, #24]
 8007094:	f002 fd4c 	bl	8009b30 <SPE_sin_Hcbd8c48e05b139646178cc6f7987b8955b6ce985_cb4a8a449b4ada864625ee5a4355578a3aaf08ed>
 8007098:	edd4 6a6e 	vldr	s13, [r4, #440]	@ 0x1b8
 800709c:	ee2e ea00 	vmul.f32	s28, s28, s0
 80070a0:	eeb7 7ae6 	vcvt.f64.f32	d7, s13
 80070a4:	eeb0 0a66 	vmov.f32	s0, s13
 80070a8:	eeb7 eace 	vcvt.f64.f32	d14, s28
 80070ac:	ee88 6b07 	vdiv.f64	d6, d8, d7
 80070b0:	ee86 db07 	vdiv.f64	d13, d6, d7
 80070b4:	f002 fd20 	bl	8009af8 <SPE_ipowSquare_Hcbd8c48e05b139646178cc6f7987b8955b6ce985_cb4a8a449b4ada864625ee5a4355578a3aaf08ed>
 80070b8:	ed94 6a86 	vldr	s12, [r4, #536]	@ 0x218
 80070bc:	edd4 ba18 	vldr	s23, [r4, #96]	@ 0x60
 80070c0:	ed94 ca75 	vldr	s24, [r4, #468]	@ 0x1d4
 80070c4:	eeb0 7a40 	vmov.f32	s14, s0
 80070c8:	ed94 0a82 	vldr	s0, [r4, #520]	@ 0x208
 80070cc:	eeb7 6ac6 	vcvt.f64.f32	d6, s12
 80070d0:	eeb7 cacc 	vcvt.f64.f32	d12, s24
 80070d4:	eeb7 7ac7 	vcvt.f64.f32	d7, s14
 80070d8:	ee88 5b07 	vdiv.f64	d5, d8, d7
 80070dc:	ee3d 7b45 	vsub.f64	d7, d13, d5
 80070e0:	ee27 7b0e 	vmul.f64	d7, d7, d14
 80070e4:	ee27 7b06 	vmul.f64	d7, d7, d6
 80070e8:	eeb7 7bc7 	vcvt.f32.f64	s14, d7
 80070ec:	eeb1 7a47 	vneg.f32	s14, s14
 80070f0:	ed8d 7a07 	vstr	s14, [sp, #28]
 80070f4:	f002 fd1c 	bl	8009b30 <SPE_sin_Hcbd8c48e05b139646178cc6f7987b8955b6ce985_cb4a8a449b4ada864625ee5a4355578a3aaf08ed>
 80070f8:	edd4 7a3a 	vldr	s15, [r4, #232]	@ 0xe8
 80070fc:	ed94 7a38 	vldr	s14, [r4, #224]	@ 0xe0
 8007100:	ed94 ba39 	vldr	s22, [r4, #228]	@ 0xe4
 8007104:	eeb7 6ae7 	vcvt.f64.f32	d6, s15
 8007108:	edd4 5a37 	vldr	s11, [r4, #220]	@ 0xdc
 800710c:	ee2b ba07 	vmul.f32	s22, s22, s14
 8007110:	ed94 da18 	vldr	s26, [r4, #96]	@ 0x60
 8007114:	ee67 5aa5 	vmul.f32	s11, s15, s11
 8007118:	ee2b 7a80 	vmul.f32	s14, s23, s0
 800711c:	ed94 0a82 	vldr	s0, [r4, #520]	@ 0x208
 8007120:	ee3b ba25 	vadd.f32	s22, s22, s11
 8007124:	eeb7 7ac7 	vcvt.f64.f32	d7, s14
 8007128:	eeb7 bacb 	vcvt.f64.f32	d11, s22
 800712c:	ee16 bb0a 	vnmls.f64	d11, d6, d10
 8007130:	ee2b bb07 	vmul.f64	d11, d11, d7
 8007134:	f002 fcfe 	bl	8009b34 <SPE_cos_Hcbd8c48e05b139646178cc6f7987b8955b6ce985_cb4a8a449b4ada864625ee5a4355578a3aaf08ed>
 8007138:	ed94 6a39 	vldr	s12, [r4, #228]	@ 0xe4
 800713c:	edd4 6a38 	vldr	s13, [r4, #224]	@ 0xe0
 8007140:	ed94 7a3a 	vldr	s14, [r4, #232]	@ 0xe8
 8007144:	ee2d 0a00 	vmul.f32	s0, s26, s0
 8007148:	edd4 7a37 	vldr	s15, [r4, #220]	@ 0xdc
 800714c:	ee27 7a26 	vmul.f32	s14, s14, s13
 8007150:	edd4 5a86 	vldr	s11, [r4, #536]	@ 0x218
 8007154:	ee66 7a27 	vmul.f32	s15, s12, s15
 8007158:	edd4 4a74 	vldr	s9, [r4, #464]	@ 0x1d0
 800715c:	eeb7 6ac6 	vcvt.f64.f32	d6, s12
 8007160:	ed94 da18 	vldr	s26, [r4, #96]	@ 0x60
 8007164:	eeb7 0ac0 	vcvt.f64.f32	d0, s0
 8007168:	ee37 7a67 	vsub.f32	s14, s14, s15
 800716c:	eeb7 7ac7 	vcvt.f64.f32	d7, s14
 8007170:	ee06 7b49 	vmls.f64	d7, d6, d9
 8007174:	eeb7 6ae5 	vcvt.f64.f32	d6, s11
 8007178:	ee37 7b08 	vadd.f64	d7, d7, d8
 800717c:	ee07 bb00 	vmla.f64	d11, d7, d0
 8007180:	ed94 7a6e 	vldr	s14, [r4, #440]	@ 0x1b8
 8007184:	ed94 0a82 	vldr	s0, [r4, #520]	@ 0x208
 8007188:	eeb7 7ac7 	vcvt.f64.f32	d7, s14
 800718c:	ee2b 6b06 	vmul.f64	d6, d11, d6
 8007190:	eeb7 bae4 	vcvt.f64.f32	d11, s9
 8007194:	ee86 5b07 	vdiv.f64	d5, d6, d7
 8007198:	ee3c cb45 	vsub.f64	d12, d12, d5
 800719c:	eeb7 cbcc 	vcvt.f32.f64	s24, d12
 80071a0:	ed8d ca08 	vstr	s24, [sp, #32]
 80071a4:	f002 fcc4 	bl	8009b30 <SPE_sin_Hcbd8c48e05b139646178cc6f7987b8955b6ce985_cb4a8a449b4ada864625ee5a4355578a3aaf08ed>
 80071a8:	edd4 7a39 	vldr	s15, [r4, #228]	@ 0xe4
 80071ac:	ee2d 6a00 	vmul.f32	s12, s26, s0
 80071b0:	edd4 5a38 	vldr	s11, [r4, #224]	@ 0xe0
 80071b4:	edd4 6a37 	vldr	s13, [r4, #220]	@ 0xdc
 80071b8:	ed94 7a3a 	vldr	s14, [r4, #232]	@ 0xe8
 80071bc:	ed94 0a82 	vldr	s0, [r4, #520]	@ 0x208
 80071c0:	ee27 7a25 	vmul.f32	s14, s14, s11
 80071c4:	ed94 ca18 	vldr	s24, [r4, #96]	@ 0x60
 80071c8:	eeb7 5ae7 	vcvt.f64.f32	d5, s15
 80071cc:	ee67 7aa6 	vmul.f32	s15, s15, s13
 80071d0:	eeb7 6ac6 	vcvt.f64.f32	d6, s12
 80071d4:	ee37 7a67 	vsub.f32	s14, s14, s15
 80071d8:	eeb7 7ac7 	vcvt.f64.f32	d7, s14
 80071dc:	ee05 7b0a 	vmla.f64	d7, d5, d10
 80071e0:	ee37 ab08 	vadd.f64	d10, d7, d8
 80071e4:	ee2a ab06 	vmul.f64	d10, d10, d6
 80071e8:	f002 fca4 	bl	8009b34 <SPE_cos_Hcbd8c48e05b139646178cc6f7987b8955b6ce985_cb4a8a449b4ada864625ee5a4355578a3aaf08ed>
 80071ec:	edd4 7a3a 	vldr	s15, [r4, #232]	@ 0xe8
 80071f0:	ed94 6a38 	vldr	s12, [r4, #224]	@ 0xe0
 80071f4:	edd4 6a37 	vldr	s13, [r4, #220]	@ 0xdc
 80071f8:	eeb7 3ae7 	vcvt.f64.f32	d3, s15
 80071fc:	ed94 7a39 	vldr	s14, [r4, #228]	@ 0xe4
 8007200:	ee2c 4a00 	vmul.f32	s8, s24, s0
 8007204:	ee67 7aa6 	vmul.f32	s15, s15, s13
 8007208:	ed94 5a86 	vldr	s10, [r4, #536]	@ 0x218
 800720c:	ee27 7a06 	vmul.f32	s14, s14, s12
 8007210:	ed94 6a6e 	vldr	s12, [r4, #440]	@ 0x1b8
 8007214:	eeb7 4ac4 	vcvt.f64.f32	d4, s8
 8007218:	ed94 0a82 	vldr	s0, [r4, #520]	@ 0x208
 800721c:	eeb7 5ac5 	vcvt.f64.f32	d5, s10
 8007220:	ed94 ca75 	vldr	s24, [r4, #468]	@ 0x1d4
 8007224:	ee37 7a27 	vadd.f32	s14, s14, s15
 8007228:	ed94 da18 	vldr	s26, [r4, #96]	@ 0x60
 800722c:	eeb7 6ac6 	vcvt.f64.f32	d6, s12
 8007230:	eeb7 cacc 	vcvt.f64.f32	d12, s24
 8007234:	eeb7 7ac7 	vcvt.f64.f32	d7, s14
 8007238:	ee03 7b09 	vmla.f64	d7, d3, d9
 800723c:	ee07 ab04 	vmla.f64	d10, d7, d4
 8007240:	ee2a ab05 	vmul.f64	d10, d10, d5
 8007244:	ee8a 7b06 	vdiv.f64	d7, d10, d6
 8007248:	ee3b bb47 	vsub.f64	d11, d11, d7
 800724c:	eeb7 bbcb 	vcvt.f32.f64	s22, d11
 8007250:	ed8d ba09 	vstr	s22, [sp, #36]	@ 0x24
 8007254:	f002 fc6e 	bl	8009b34 <SPE_cos_Hcbd8c48e05b139646178cc6f7987b8955b6ce985_cb4a8a449b4ada864625ee5a4355578a3aaf08ed>
 8007258:	ed94 6a3c 	vldr	s12, [r4, #240]	@ 0xf0
 800725c:	ee2d 7a00 	vmul.f32	s14, s26, s0
 8007260:	edd4 7a3d 	vldr	s15, [r4, #244]	@ 0xf4
 8007264:	ed94 9a3e 	vldr	s18, [r4, #248]	@ 0xf8
 8007268:	edd4 6a3b 	vldr	s13, [r4, #236]	@ 0xec
 800726c:	ee29 9a06 	vmul.f32	s18, s18, s12
 8007270:	ed94 0a82 	vldr	s0, [r4, #520]	@ 0x208
 8007274:	ee67 6aa6 	vmul.f32	s13, s15, s13
 8007278:	ed94 aa18 	vldr	s20, [r4, #96]	@ 0x60
 800727c:	eeb7 7ac7 	vcvt.f64.f32	d7, s14
 8007280:	ee39 9a66 	vsub.f32	s18, s18, s13
 8007284:	eeb7 9ac9 	vcvt.f64.f32	d9, s18
 8007288:	ee39 9b08 	vadd.f64	d9, d9, d8
 800728c:	ee29 9b07 	vmul.f64	d9, d9, d7
 8007290:	f002 fc4e 	bl	8009b30 <SPE_sin_Hcbd8c48e05b139646178cc6f7987b8955b6ce985_cb4a8a449b4ada864625ee5a4355578a3aaf08ed>
 8007294:	ed94 6a3b 	vldr	s12, [r4, #236]	@ 0xec
 8007298:	edd4 6a3c 	vldr	s13, [r4, #240]	@ 0xf0
 800729c:	ed94 7a3e 	vldr	s14, [r4, #248]	@ 0xf8
 80072a0:	ee6a 7a00 	vmul.f32	s15, s20, s0
 80072a4:	edd4 4a3d 	vldr	s9, [r4, #244]	@ 0xf4
 80072a8:	ee27 7a06 	vmul.f32	s14, s14, s12
 80072ac:	ed94 5a86 	vldr	s10, [r4, #536]	@ 0x218
 80072b0:	ee64 4aa6 	vmul.f32	s9, s9, s13
 80072b4:	ed94 6a6e 	vldr	s12, [r4, #440]	@ 0x1b8
 80072b8:	eeb7 5ac5 	vcvt.f64.f32	d5, s10
 80072bc:	ed94 0a82 	vldr	s0, [r4, #520]	@ 0x208
 80072c0:	eeb7 6ac6 	vcvt.f64.f32	d6, s12
 80072c4:	ed94 aa74 	vldr	s20, [r4, #464]	@ 0x1d0
 80072c8:	ee37 7a24 	vadd.f32	s14, s14, s9
 80072cc:	ed94 ba18 	vldr	s22, [r4, #96]	@ 0x60
 80072d0:	eeb7 aaca 	vcvt.f64.f32	d10, s20
 80072d4:	ee27 7a27 	vmul.f32	s14, s14, s15
 80072d8:	eeb7 7ac7 	vcvt.f64.f32	d7, s14
 80072dc:	ee39 9b47 	vsub.f64	d9, d9, d7
 80072e0:	ee29 9b05 	vmul.f64	d9, d9, d5
 80072e4:	ee89 7b06 	vdiv.f64	d7, d9, d6
 80072e8:	ee3c cb47 	vsub.f64	d12, d12, d7
 80072ec:	eeb7 cbcc 	vcvt.f32.f64	s24, d12
 80072f0:	ed8d ca0a 	vstr	s24, [sp, #40]	@ 0x28
 80072f4:	f002 fc1c 	bl	8009b30 <SPE_sin_Hcbd8c48e05b139646178cc6f7987b8955b6ce985_cb4a8a449b4ada864625ee5a4355578a3aaf08ed>
 80072f8:	edd4 5a3c 	vldr	s11, [r4, #240]	@ 0xf0
 80072fc:	ee2b 6a00 	vmul.f32	s12, s22, s0
 8007300:	edd4 6a3b 	vldr	s13, [r4, #236]	@ 0xec
 8007304:	ed94 7a3e 	vldr	s14, [r4, #248]	@ 0xf8
 8007308:	edd4 7a3d 	vldr	s15, [r4, #244]	@ 0xf4
 800730c:	ee27 7a25 	vmul.f32	s14, s14, s11
 8007310:	ed94 0a82 	vldr	s0, [r4, #520]	@ 0x208
 8007314:	ee67 7aa6 	vmul.f32	s15, s15, s13
 8007318:	ed94 9a18 	vldr	s18, [r4, #96]	@ 0x60
 800731c:	eeb7 6ac6 	vcvt.f64.f32	d6, s12
 8007320:	ee37 7a67 	vsub.f32	s14, s14, s15
 8007324:	eeb7 7ac7 	vcvt.f64.f32	d7, s14
 8007328:	ee37 8b08 	vadd.f64	d8, d7, d8
 800732c:	ee28 8b06 	vmul.f64	d8, d8, d6
 8007330:	f002 fc00 	bl	8009b34 <SPE_cos_Hcbd8c48e05b139646178cc6f7987b8955b6ce985_cb4a8a449b4ada864625ee5a4355578a3aaf08ed>
 8007334:	edd4 7a3e 	vldr	s15, [r4, #248]	@ 0xf8
 8007338:	2306      	movs	r3, #6
 800733a:	edd4 6a3d 	vldr	s13, [r4, #244]	@ 0xf4
 800733e:	aa06      	add	r2, sp, #24
 8007340:	edd4 5a3c 	vldr	s11, [r4, #240]	@ 0xf0
 8007344:	ee29 9a00 	vmul.f32	s18, s18, s0
 8007348:	ed94 7a3b 	vldr	s14, [r4, #236]	@ 0xec
 800734c:	a918      	add	r1, sp, #96	@ 0x60
 800734e:	ed94 6a86 	vldr	s12, [r4, #536]	@ 0x218
 8007352:	4640      	mov	r0, r8
 8007354:	ee27 7a87 	vmul.f32	s14, s15, s14
 8007358:	ed94 5a6e 	vldr	s10, [r4, #440]	@ 0x1b8
 800735c:	ee66 7aa5 	vmul.f32	s15, s13, s11
 8007360:	9301      	str	r3, [sp, #4]
 8007362:	eeb7 6ac6 	vcvt.f64.f32	d6, s12
 8007366:	ab12      	add	r3, sp, #72	@ 0x48
 8007368:	eeb7 5ac5 	vcvt.f64.f32	d5, s10
 800736c:	ee37 7a27 	vadd.f32	s14, s14, s15
 8007370:	9300      	str	r3, [sp, #0]
 8007372:	ab0c      	add	r3, sp, #48	@ 0x30
 8007374:	ee27 7a09 	vmul.f32	s14, s14, s18
 8007378:	eeb7 7ac7 	vcvt.f64.f32	d7, s14
 800737c:	ee37 7b08 	vadd.f64	d7, d7, d8
 8007380:	ee27 7b06 	vmul.f64	d7, d7, d6
 8007384:	ee87 6b05 	vdiv.f64	d6, d7, d5
 8007388:	ee3a ab46 	vsub.f64	d10, d10, d6
 800738c:	eeb7 abca 	vcvt.f32.f64	s20, d10
 8007390:	ed8d aa0b 	vstr	s20, [sp, #44]	@ 0x2c
 8007394:	f002 fbf8 	bl	8009b88 <SPE_solveLinearEquations_Hcbd8c48e05b139646178cc6f7987b8955b6ce985_cb4a8a449b4ada864625ee5a4355578a3aaf08ed>
 8007398:	4a7b      	ldr	r2, [pc, #492]	@ (8007588 <Reinitialize+0x1d90>)
 800739a:	f8d4 323c 	ldr.w	r3, [r4, #572]	@ 0x23c
 800739e:	6812      	ldr	r2, [r2, #0]
 80073a0:	ea03 0102 	and.w	r1, r3, r2
 80073a4:	428f      	cmp	r7, r1
 80073a6:	f000 80cf 	beq.w	8007548 <Reinitialize+0x1d50>
 80073aa:	404b      	eors	r3, r1
 80073ac:	edd4 6a20 	vldr	s13, [r4, #128]	@ 0x80
 80073b0:	edd4 5a21 	vldr	s11, [r4, #132]	@ 0x84
 80073b4:	4313      	orrs	r3, r2
 80073b6:	edc4 6a87 	vstr	s13, [r4, #540]	@ 0x21c
 80073ba:	edc4 5a88 	vstr	s11, [r4, #544]	@ 0x220
 80073be:	f8c4 323c 	str.w	r3, [r4, #572]	@ 0x23c
 80073c2:	f04f 5316 	mov.w	r3, #629145600	@ 0x25800000
 80073c6:	f8c4 3234 	str.w	r3, [r4, #564]	@ 0x234
 80073ca:	f8c4 3230 	str.w	r3, [r4, #560]	@ 0x230
 80073ce:	f8c4 3228 	str.w	r3, [r4, #552]	@ 0x228
 80073d2:	f8c4 322c 	str.w	r3, [r4, #556]	@ 0x22c
 80073d6:	edd4 4a5a 	vldr	s9, [r4, #360]	@ 0x168
 80073da:	edd4 3a55 	vldr	s7, [r4, #340]	@ 0x154
 80073de:	ed94 6a5c 	vldr	s12, [r4, #368]	@ 0x170
 80073e2:	edd4 7a5e 	vldr	s15, [r4, #376]	@ 0x178
 80073e6:	ee23 4a86 	vmul.f32	s8, s7, s12
 80073ea:	ed94 5a53 	vldr	s10, [r4, #332]	@ 0x14c
 80073ee:	ee77 7ae4 	vsub.f32	s15, s15, s9
 80073f2:	ed94 8a58 	vldr	s16, [r4, #352]	@ 0x160
 80073f6:	ed94 3a5b 	vldr	s6, [r4, #364]	@ 0x16c
 80073fa:	ee34 7ac6 	vsub.f32	s14, s9, s12
 80073fe:	ee68 2a25 	vmul.f32	s5, s16, s11
 8007402:	ed94 9a86 	vldr	s18, [r4, #536]	@ 0x218
 8007406:	ee24 4a27 	vmul.f32	s8, s8, s15
 800740a:	ed94 0a82 	vldr	s0, [r4, #520]	@ 0x208
 800740e:	ee28 8a26 	vmul.f32	s16, s16, s13
 8007412:	ed94 aa18 	vldr	s20, [r4, #96]	@ 0x60
 8007416:	ee66 6a83 	vmul.f32	s13, s13, s6
 800741a:	ee84 3a05 	vdiv.f32	s6, s8, s10
 800741e:	ee76 6aa2 	vadd.f32	s13, s13, s5
 8007422:	ee26 6a25 	vmul.f32	s12, s12, s11
 8007426:	ee39 9a66 	vsub.f32	s18, s18, s13
 800742a:	eec3 6a24 	vdiv.f32	s13, s6, s9
 800742e:	ee77 7ae6 	vsub.f32	s15, s15, s13
 8007432:	ee37 7a26 	vadd.f32	s14, s14, s13
 8007436:	ee67 7aa5 	vmul.f32	s15, s15, s11
 800743a:	ee27 7a25 	vmul.f32	s14, s14, s11
 800743e:	ee67 7a85 	vmul.f32	s15, s15, s10
 8007442:	eec7 6a85 	vdiv.f32	s13, s15, s10
 8007446:	ee77 7a26 	vadd.f32	s15, s14, s13
 800744a:	edc4 6a83 	vstr	s13, [r4, #524]	@ 0x20c
 800744e:	ee67 7aa3 	vmul.f32	s15, s15, s7
 8007452:	ee87 7aa3 	vdiv.f32	s14, s15, s7
 8007456:	ee37 8a48 	vsub.f32	s16, s14, s16
 800745a:	ed84 7a85 	vstr	s14, [r4, #532]	@ 0x214
 800745e:	ee38 8a06 	vadd.f32	s16, s16, s12
 8007462:	f002 fb65 	bl	8009b30 <SPE_sin_Hcbd8c48e05b139646178cc6f7987b8955b6ce985_cb4a8a449b4ada864625ee5a4355578a3aaf08ed>
 8007466:	eef0 8a40 	vmov.f32	s17, s0
 800746a:	ed94 0a82 	vldr	s0, [r4, #520]	@ 0x208
 800746e:	f002 fb61 	bl	8009b34 <SPE_cos_Hcbd8c48e05b139646178cc6f7987b8955b6ce985_cb4a8a449b4ada864625ee5a4355578a3aaf08ed>
 8007472:	eef0 7a40 	vmov.f32	s15, s0
 8007476:	ed94 0a82 	vldr	s0, [r4, #520]	@ 0x208
 800747a:	ee68 8a89 	vmul.f32	s17, s17, s18
 800747e:	edd4 9a18 	vldr	s19, [r4, #96]	@ 0x60
 8007482:	ee67 7a88 	vmul.f32	s15, s15, s16
 8007486:	ee78 8ae7 	vsub.f32	s17, s17, s15
 800748a:	f002 fb51 	bl	8009b30 <SPE_sin_Hcbd8c48e05b139646178cc6f7987b8955b6ce985_cb4a8a449b4ada864625ee5a4355578a3aaf08ed>
 800748e:	eef0 7a40 	vmov.f32	s15, s0
 8007492:	ed94 0a82 	vldr	s0, [r4, #520]	@ 0x208
 8007496:	ee68 8a8a 	vmul.f32	s17, s17, s20
 800749a:	ee27 8a88 	vmul.f32	s16, s15, s16
 800749e:	f002 fb49 	bl	8009b34 <SPE_cos_Hcbd8c48e05b139646178cc6f7987b8955b6ce985_cb4a8a449b4ada864625ee5a4355578a3aaf08ed>
 80074a2:	ee20 0a09 	vmul.f32	s0, s0, s18
 80074a6:	ee30 0a08 	vadd.f32	s0, s0, s16
 80074aa:	ee20 0a29 	vmul.f32	s0, s0, s19
 80074ae:	f002 fb23 	bl	8009af8 <SPE_ipowSquare_Hcbd8c48e05b139646178cc6f7987b8955b6ce985_cb4a8a449b4ada864625ee5a4355578a3aaf08ed>
 80074b2:	eeb0 8a40 	vmov.f32	s16, s0
 80074b6:	eeb0 0a68 	vmov.f32	s0, s17
 80074ba:	f002 fb1d 	bl	8009af8 <SPE_ipowSquare_Hcbd8c48e05b139646178cc6f7987b8955b6ce985_cb4a8a449b4ada864625ee5a4355578a3aaf08ed>
 80074be:	ee38 0a00 	vadd.f32	s0, s16, s0
 80074c2:	f002 fb29 	bl	8009b18 <SPE_sqrt_Hcbd8c48e05b139646178cc6f7987b8955b6ce985_cb4a8a449b4ada864625ee5a4355578a3aaf08ed>
 80074c6:	ed94 6a4a 	vldr	s12, [r4, #296]	@ 0x128
 80074ca:	edd4 6a4b 	vldr	s13, [r4, #300]	@ 0x12c
 80074ce:	eeb7 7b00 	vmov.f64	d7, #112	@ 0x3f800000  1.0
 80074d2:	ed94 5a0c 	vldr	s10, [r4, #48]	@ 0x30
 80074d6:	2200      	movs	r2, #0
 80074d8:	ee86 4a26 	vdiv.f32	s8, s12, s13
 80074dc:	edd4 6a01 	vldr	s13, [r4, #4]
 80074e0:	f8d4 323c 	ldr.w	r3, [r4, #572]	@ 0x23c
 80074e4:	edc4 6a0d 	vstr	s13, [r4, #52]	@ 0x34
 80074e8:	f8d4 109c 	ldr.w	r1, [r4, #156]	@ 0x9c
 80074ec:	4333      	orrs	r3, r6
 80074ee:	ed84 0a04 	vstr	s0, [r4, #16]
 80074f2:	ee30 6a26 	vadd.f32	s12, s0, s13
 80074f6:	ed84 0a0e 	vstr	s0, [r4, #56]	@ 0x38
 80074fa:	eeb7 5ac5 	vcvt.f64.f32	d5, s10
 80074fe:	f8c4 11e4 	str.w	r1, [r4, #484]	@ 0x1e4
 8007502:	ed84 0a7a 	vstr	s0, [r4, #488]	@ 0x1e8
 8007506:	ee36 6a40 	vsub.f32	s12, s12, s0
 800750a:	f884 2238 	strb.w	r2, [r4, #568]	@ 0x238
 800750e:	f8c4 323c 	str.w	r3, [r4, #572]	@ 0x23c
 8007512:	eeb7 6ac6 	vcvt.f64.f32	d6, s12
 8007516:	eeb7 4ac4 	vcvt.f64.f32	d4, s8
 800751a:	ee37 7b44 	vsub.f64	d7, d7, d4
 800751e:	ee27 7b05 	vmul.f64	d7, d7, d5
 8007522:	ee27 7b06 	vmul.f64	d7, d7, d6
 8007526:	eeb7 7bc7 	vcvt.f32.f64	s14, d7
 800752a:	ed84 7a7b 	vstr	s14, [r4, #492]	@ 0x1ec
 800752e:	b03c      	add	sp, #240	@ 0xf0
 8007530:	ecbd 8b10 	vpop	{d8-d15}
 8007534:	e8bd 81f0 	ldmia.w	sp!, {r4, r5, r6, r7, r8, pc}
 8007538:	ed9f ab0f 	vldr	d10, [pc, #60]	@ 8007578 <Reinitialize+0x1d80>
 800753c:	f7fe bc9f 	b.w	8005e7e <Reinitialize+0x686>
 8007540:	ed9f 9b0f 	vldr	d9, [pc, #60]	@ 8007580 <Reinitialize+0x1d88>
 8007544:	f7fe bcc8 	b.w	8005ed8 <Reinitialize+0x6e0>
 8007548:	9b06      	ldr	r3, [sp, #24]
 800754a:	9907      	ldr	r1, [sp, #28]
 800754c:	9a08      	ldr	r2, [sp, #32]
 800754e:	eddd 6a0a 	vldr	s13, [sp, #40]	@ 0x28
 8007552:	eddd 5a0b 	vldr	s11, [sp, #44]	@ 0x2c
 8007556:	f8c4 3234 	str.w	r3, [r4, #564]	@ 0x234
 800755a:	9b09      	ldr	r3, [sp, #36]	@ 0x24
 800755c:	f8c4 1230 	str.w	r1, [r4, #560]	@ 0x230
 8007560:	f8c4 2228 	str.w	r2, [r4, #552]	@ 0x228
 8007564:	edc4 6a87 	vstr	s13, [r4, #540]	@ 0x21c
 8007568:	f8c4 322c 	str.w	r3, [r4, #556]	@ 0x22c
 800756c:	edc4 5a88 	vstr	s11, [r4, #544]	@ 0x220
 8007570:	e731      	b.n	80073d6 <Reinitialize+0x1bde>
 8007572:	bf00      	nop
 8007574:	f3af 8000 	nop.w
 8007578:	00000000 	.word	0x00000000
 800757c:	40a15800 	.word	0x40a15800
 8007580:	00000000 	.word	0x00000000
 8007584:	c0a15800 	.word	0xc0a15800
 8007588:	0800a728 	.word	0x0800a728

0800758c <Startup_Hcbd8c48e05b139646178cc6f7987b8955b6ce985_cb4a8a449b4ada864625ee5a4355578a3aaf08ed>:
 800758c:	eddf 7a50 	vldr	s15, [pc, #320]	@ 80076d0 <Startup_Hcbd8c48e05b139646178cc6f7987b8955b6ce985_cb4a8a449b4ada864625ee5a4355578a3aaf08ed+0x144>
 8007590:	4a50      	ldr	r2, [pc, #320]	@ (80076d4 <Startup_Hcbd8c48e05b139646178cc6f7987b8955b6ce985_cb4a8a449b4ada864625ee5a4355578a3aaf08ed+0x148>)
 8007592:	4951      	ldr	r1, [pc, #324]	@ (80076d8 <Startup_Hcbd8c48e05b139646178cc6f7987b8955b6ce985_cb4a8a449b4ada864625ee5a4355578a3aaf08ed+0x14c>)
 8007594:	6812      	ldr	r2, [r2, #0]
 8007596:	f8df c1a0 	ldr.w	ip, [pc, #416]	@ 8007738 <Startup_Hcbd8c48e05b139646178cc6f7987b8955b6ce985_cb4a8a449b4ada864625ee5a4355578a3aaf08ed+0x1ac>
 800759a:	b538      	push	{r3, r4, r5, lr}
 800759c:	edc0 7a58 	vstr	s15, [r0, #352]	@ 0x160
 80075a0:	f04f 557a 	mov.w	r5, #1048576000	@ 0x3e800000
 80075a4:	eddf 7a4d 	vldr	s15, [pc, #308]	@ 80076dc <Startup_Hcbd8c48e05b139646178cc6f7987b8955b6ce985_cb4a8a449b4ada864625ee5a4355578a3aaf08ed+0x150>
 80075a8:	f04f 537e 	mov.w	r3, #1065353216	@ 0x3f800000
 80075ac:	f8c0 223c 	str.w	r2, [r0, #572]	@ 0x23c
 80075b0:	4604      	mov	r4, r0
 80075b2:	4a4b      	ldr	r2, [pc, #300]	@ (80076e0 <Startup_Hcbd8c48e05b139646178cc6f7987b8955b6ce985_cb4a8a449b4ada864625ee5a4355578a3aaf08ed+0x154>)
 80075b4:	edc0 7a5b 	vstr	s15, [r0, #364]	@ 0x16c
 80075b8:	eddf 7a4a 	vldr	s15, [pc, #296]	@ 80076e4 <Startup_Hcbd8c48e05b139646178cc6f7987b8955b6ce985_cb4a8a449b4ada864625ee5a4355578a3aaf08ed+0x158>
 80075bc:	f8c0 2140 	str.w	r2, [r0, #320]	@ 0x140
 80075c0:	f8c0 2138 	str.w	r2, [r0, #312]	@ 0x138
 80075c4:	edc0 7a4d 	vstr	s15, [r0, #308]	@ 0x134
 80075c8:	4a47      	ldr	r2, [pc, #284]	@ (80076e8 <Startup_Hcbd8c48e05b139646178cc6f7987b8955b6ce985_cb4a8a449b4ada864625ee5a4355578a3aaf08ed+0x15c>)
 80075ca:	eddf 7a48 	vldr	s15, [pc, #288]	@ 80076ec <Startup_Hcbd8c48e05b139646178cc6f7987b8955b6ce985_cb4a8a449b4ada864625ee5a4355578a3aaf08ed+0x160>
 80075ce:	f8c0 2168 	str.w	r2, [r0, #360]	@ 0x168
 80075d2:	edc0 7a4c 	vstr	s15, [r0, #304]	@ 0x130
 80075d6:	4a46      	ldr	r2, [pc, #280]	@ (80076f0 <Startup_Hcbd8c48e05b139646178cc6f7987b8955b6ce985_cb4a8a449b4ada864625ee5a4355578a3aaf08ed+0x164>)
 80075d8:	eddf 7a46 	vldr	s15, [pc, #280]	@ 80076f4 <Startup_Hcbd8c48e05b139646178cc6f7987b8955b6ce985_cb4a8a449b4ada864625ee5a4355578a3aaf08ed+0x168>
 80075dc:	f8c0 2154 	str.w	r2, [r0, #340]	@ 0x154
 80075e0:	edc0 7a56 	vstr	s15, [r0, #344]	@ 0x158
 80075e4:	4a44      	ldr	r2, [pc, #272]	@ (80076f8 <Startup_Hcbd8c48e05b139646178cc6f7987b8955b6ce985_cb4a8a449b4ada864625ee5a4355578a3aaf08ed+0x16c>)
 80075e6:	eddf 7a45 	vldr	s15, [pc, #276]	@ 80076fc <Startup_Hcbd8c48e05b139646178cc6f7987b8955b6ce985_cb4a8a449b4ada864625ee5a4355578a3aaf08ed+0x170>
 80075ea:	f8c0 219c 	str.w	r2, [r0, #412]	@ 0x19c
 80075ee:	edc0 7a5d 	vstr	s15, [r0, #372]	@ 0x174
 80075f2:	4a43      	ldr	r2, [pc, #268]	@ (8007700 <Startup_Hcbd8c48e05b139646178cc6f7987b8955b6ce985_cb4a8a449b4ada864625ee5a4355578a3aaf08ed+0x174>)
 80075f4:	eddf 7a43 	vldr	s15, [pc, #268]	@ 8007704 <Startup_Hcbd8c48e05b139646178cc6f7987b8955b6ce985_cb4a8a449b4ada864625ee5a4355578a3aaf08ed+0x178>
 80075f8:	f8c0 5170 	str.w	r5, [r0, #368]	@ 0x170
 80075fc:	f8c0 21a8 	str.w	r2, [r0, #424]	@ 0x1a8
 8007600:	f04f 4282 	mov.w	r2, #1090519040	@ 0x41000000
 8007604:	edc0 7a59 	vstr	s15, [r0, #356]	@ 0x164
 8007608:	4d3f      	ldr	r5, [pc, #252]	@ (8007708 <Startup_Hcbd8c48e05b139646178cc6f7987b8955b6ce985_cb4a8a449b4ada864625ee5a4355578a3aaf08ed+0x17c>)
 800760a:	eddf 7a40 	vldr	s15, [pc, #256]	@ 800770c <Startup_Hcbd8c48e05b139646178cc6f7987b8955b6ce985_cb4a8a449b4ada864625ee5a4355578a3aaf08ed+0x180>
 800760e:	f8c0 11cc 	str.w	r1, [r0, #460]	@ 0x1cc
 8007612:	f8c0 5178 	str.w	r5, [r0, #376]	@ 0x178
 8007616:	2500      	movs	r5, #0
 8007618:	493d      	ldr	r1, [pc, #244]	@ (8007710 <Startup_Hcbd8c48e05b139646178cc6f7987b8955b6ce985_cb4a8a449b4ada864625ee5a4355578a3aaf08ed+0x184>)
 800761a:	f8c0 2148 	str.w	r2, [r0, #328]	@ 0x148
 800761e:	edc0 7a54 	vstr	s15, [r0, #336]	@ 0x150
 8007622:	4a3c      	ldr	r2, [pc, #240]	@ (8007714 <Startup_Hcbd8c48e05b139646178cc6f7987b8955b6ce985_cb4a8a449b4ada864625ee5a4355578a3aaf08ed+0x188>)
 8007624:	eddf 7a3c 	vldr	s15, [pc, #240]	@ 8007718 <Startup_Hcbd8c48e05b139646178cc6f7987b8955b6ce985_cb4a8a449b4ada864625ee5a4355578a3aaf08ed+0x18c>
 8007628:	f8c0 31b8 	str.w	r3, [r0, #440]	@ 0x1b8
 800762c:	f8c0 3128 	str.w	r3, [r0, #296]	@ 0x128
 8007630:	f8c0 312c 	str.w	r3, [r0, #300]	@ 0x12c
 8007634:	f8c0 314c 	str.w	r3, [r0, #332]	@ 0x14c
 8007638:	f8c0 31c4 	str.w	r3, [r0, #452]	@ 0x1c4
 800763c:	f8c0 31c8 	str.w	r3, [r0, #456]	@ 0x1c8
 8007640:	f8c0 3124 	str.w	r3, [r0, #292]	@ 0x124
 8007644:	f8c0 51a4 	str.w	r5, [r0, #420]	@ 0x1a4
 8007648:	f8c0 215c 	str.w	r2, [r0, #348]	@ 0x15c
 800764c:	f8c0 1144 	str.w	r1, [r0, #324]	@ 0x144
 8007650:	edc0 7a4f 	vstr	s15, [r0, #316]	@ 0x13c
 8007654:	6203      	str	r3, [r0, #32]
 8007656:	4b31      	ldr	r3, [pc, #196]	@ (800771c <Startup_Hcbd8c48e05b139646178cc6f7987b8955b6ce985_cb4a8a449b4ada864625ee5a4355578a3aaf08ed+0x190>)
 8007658:	eddf 7a31 	vldr	s15, [pc, #196]	@ 8007720 <Startup_Hcbd8c48e05b139646178cc6f7987b8955b6ce985_cb4a8a449b4ada864625ee5a4355578a3aaf08ed+0x194>
 800765c:	f8c0 211c 	str.w	r2, [r0, #284]	@ 0x11c
 8007660:	f8c0 21b0 	str.w	r2, [r0, #432]	@ 0x1b0
 8007664:	f8c0 21b4 	str.w	r2, [r0, #436]	@ 0x1b4
 8007668:	f8c0 31a0 	str.w	r3, [r0, #416]	@ 0x1a0
 800766c:	4a2d      	ldr	r2, [pc, #180]	@ (8007724 <Startup_Hcbd8c48e05b139646178cc6f7987b8955b6ce985_cb4a8a449b4ada864625ee5a4355578a3aaf08ed+0x198>)
 800766e:	4b2e      	ldr	r3, [pc, #184]	@ (8007728 <Startup_Hcbd8c48e05b139646178cc6f7987b8955b6ce985_cb4a8a449b4ada864625ee5a4355578a3aaf08ed+0x19c>)
 8007670:	f8df e0c8 	ldr.w	lr, [pc, #200]	@ 800773c <Startup_Hcbd8c48e05b139646178cc6f7987b8955b6ce985_cb4a8a449b4ada864625ee5a4355578a3aaf08ed+0x1b0>
 8007674:	edc0 7a48 	vstr	s15, [r0, #288]	@ 0x120
 8007678:	f8c0 2114 	str.w	r2, [r0, #276]	@ 0x114
 800767c:	eddf 7a2b 	vldr	s15, [pc, #172]	@ 800772c <Startup_Hcbd8c48e05b139646178cc6f7987b8955b6ce985_cb4a8a449b4ada864625ee5a4355578a3aaf08ed+0x1a0>
 8007680:	4a2b      	ldr	r2, [pc, #172]	@ (8007730 <Startup_Hcbd8c48e05b139646178cc6f7987b8955b6ce985_cb4a8a449b4ada864625ee5a4355578a3aaf08ed+0x1a4>)
 8007682:	f8c0 3188 	str.w	r3, [r0, #392]	@ 0x188
 8007686:	4b2b      	ldr	r3, [pc, #172]	@ (8007734 <Startup_Hcbd8c48e05b139646178cc6f7987b8955b6ce985_cb4a8a449b4ada864625ee5a4355578a3aaf08ed+0x1a8>)
 8007688:	f8c0 e024 	str.w	lr, [r0, #36]	@ 0x24
 800768c:	f8c0 5194 	str.w	r5, [r0, #404]	@ 0x194
 8007690:	f8c0 518c 	str.w	r5, [r0, #396]	@ 0x18c
 8007694:	f8c0 5190 	str.w	r5, [r0, #400]	@ 0x190
 8007698:	f8c0 5184 	str.w	r5, [r0, #388]	@ 0x184
 800769c:	f8c0 517c 	str.w	r5, [r0, #380]	@ 0x17c
 80076a0:	f8c0 5180 	str.w	r5, [r0, #384]	@ 0x180
 80076a4:	f8c0 51bc 	str.w	r5, [r0, #444]	@ 0x1bc
 80076a8:	f8c0 31c0 	str.w	r3, [r0, #448]	@ 0x1c0
 80076ac:	edc0 7a46 	vstr	s15, [r0, #280]	@ 0x118
 80076b0:	f8c0 11ac 	str.w	r1, [r0, #428]	@ 0x1ac
 80076b4:	f8c0 c01c 	str.w	ip, [r0, #28]
 80076b8:	f8c0 2198 	str.w	r2, [r0, #408]	@ 0x198
 80076bc:	f7fd fe5c 	bl	8005378 <Recalibrate>
 80076c0:	2300      	movs	r3, #0
 80076c2:	4620      	mov	r0, r4
 80076c4:	6065      	str	r5, [r4, #4]
 80076c6:	7023      	strb	r3, [r4, #0]
 80076c8:	e8bd 4038 	ldmia.w	sp!, {r3, r4, r5, lr}
 80076cc:	f7fe b894 	b.w	80057f8 <Reinitialize>
 80076d0:	3b449ba6 	.word	0x3b449ba6
 80076d4:	0800a72c 	.word	0x0800a72c
 80076d8:	3951b717 	.word	0x3951b717
 80076dc:	3e6b851f 	.word	0x3e6b851f
 80076e0:	40e00000 	.word	0x40e00000
 80076e4:	3c75c28f 	.word	0x3c75c28f
 80076e8:	3f266666 	.word	0x3f266666
 80076ec:	3dcccccd 	.word	0x3dcccccd
 80076f0:	3d8f5c29 	.word	0x3d8f5c29
 80076f4:	3b03126f 	.word	0x3b03126f
 80076f8:	4cbebc20 	.word	0x4cbebc20
 80076fc:	3fe7ae14 	.word	0x3fe7ae14
 8007700:	3f669b7c 	.word	0x3f669b7c
 8007704:	3e99999a 	.word	0x3e99999a
 8007708:	3fe147ae 	.word	0x3fe147ae
 800770c:	3cf5c28f 	.word	0x3cf5c28f
 8007710:	4f045283 	.word	0x4f045283
 8007714:	48c35000 	.word	0x48c35000
 8007718:	c0cccccd 	.word	0xc0cccccd
 800771c:	42700000 	.word	0x42700000
 8007720:	3efd4654 	.word	0x3efd4654
 8007724:	4eee2e1f 	.word	0x4eee2e1f
 8007728:	3cb88127 	.word	0x3cb88127
 800772c:	4e66c574 	.word	0x4e66c574
 8007730:	3d2b96d5 	.word	0x3d2b96d5
 8007734:	3e19999a 	.word	0x3e19999a
 8007738:	41f00000 	.word	0x41f00000
 800773c:	41200000 	.word	0x41200000

08007740 <DoStep_Hcbd8c48e05b139646178cc6f7987b8955b6ce985_cb4a8a449b4ada864625ee5a4355578a3aaf08ed>:
 8007740:	4bf9      	ldr	r3, [pc, #996]	@ (8007b28 <DoStep_Hcbd8c48e05b139646178cc6f7987b8955b6ce985_cb4a8a449b4ada864625ee5a4355578a3aaf08ed+0x3e8>)
 8007742:	b5f0      	push	{r4, r5, r6, r7, lr}
 8007744:	681d      	ldr	r5, [r3, #0]
 8007746:	4604      	mov	r4, r0
 8007748:	f890 3238 	ldrb.w	r3, [r0, #568]	@ 0x238
 800774c:	ed2d 8b10 	vpush	{d8-d15}
 8007750:	b0b9      	sub	sp, #228	@ 0xe4
 8007752:	f8c0 523c 	str.w	r5, [r0, #572]	@ 0x23c
 8007756:	2b00      	cmp	r3, #0
 8007758:	d05b      	beq.n	8007812 <DoStep_Hcbd8c48e05b139646178cc6f7987b8955b6ce985_cb4a8a449b4ada864625ee5a4355578a3aaf08ed+0xd2>
 800775a:	edd0 7a73 	vldr	s15, [r0, #460]	@ 0x1cc
 800775e:	edd0 6a77 	vldr	s13, [r0, #476]	@ 0x1dc
 8007762:	ed90 7a78 	vldr	s14, [r0, #480]	@ 0x1e0
 8007766:	ee67 6aa6 	vmul.f32	s13, s15, s13
 800776a:	ed90 6a7f 	vldr	s12, [r0, #508]	@ 0x1fc
 800776e:	ee27 7a87 	vmul.f32	s14, s15, s14
 8007772:	ed90 0a76 	vldr	s0, [r0, #472]	@ 0x1d8
 8007776:	edd0 0a7e 	vldr	s1, [r0, #504]	@ 0x1f8
 800777a:	ed90 1a80 	vldr	s2, [r0, #512]	@ 0x200
 800777e:	ee27 0a80 	vmul.f32	s0, s15, s0
 8007782:	edd0 1a81 	vldr	s3, [r0, #516]	@ 0x204
 8007786:	ee67 0aa0 	vmul.f32	s1, s15, s1
 800778a:	ed90 2a7c 	vldr	s4, [r0, #496]	@ 0x1f0
 800778e:	ee27 1a81 	vmul.f32	s2, s15, s2
 8007792:	edd0 2a7d 	vldr	s5, [r0, #500]	@ 0x1f4
 8007796:	ee67 1aa1 	vmul.f32	s3, s15, s3
 800779a:	ed90 3a7a 	vldr	s6, [r0, #488]	@ 0x1e8
 800779e:	ee27 2a82 	vmul.f32	s4, s15, s4
 80077a2:	edd0 3a7b 	vldr	s7, [r0, #492]	@ 0x1ec
 80077a6:	ee67 2aa2 	vmul.f32	s5, s15, s5
 80077aa:	ee67 7a86 	vmul.f32	s15, s15, s12
 80077ae:	ed90 4a79 	vldr	s8, [r0, #484]	@ 0x1e4
 80077b2:	ee33 3a26 	vadd.f32	s6, s6, s13
 80077b6:	edd0 4a84 	vldr	s9, [r0, #528]	@ 0x210
 80077ba:	ee73 3a87 	vadd.f32	s7, s7, s14
 80077be:	ed90 5a86 	vldr	s10, [r0, #536]	@ 0x218
 80077c2:	edd0 5a89 	vldr	s11, [r0, #548]	@ 0x224
 80077c6:	ee34 4a00 	vadd.f32	s8, s8, s0
 80077ca:	ed90 6a82 	vldr	s12, [r0, #520]	@ 0x208
 80077ce:	ee74 4aa0 	vadd.f32	s9, s9, s1
 80077d2:	edd0 6a83 	vldr	s13, [r0, #524]	@ 0x20c
 80077d6:	ee35 5a01 	vadd.f32	s10, s10, s2
 80077da:	ed90 7a85 	vldr	s14, [r0, #532]	@ 0x214
 80077de:	ee75 5aa1 	vadd.f32	s11, s11, s3
 80077e2:	ee36 6a02 	vadd.f32	s12, s12, s4
 80077e6:	ed80 3a7a 	vstr	s6, [r0, #488]	@ 0x1e8
 80077ea:	ee76 6aa2 	vadd.f32	s13, s13, s5
 80077ee:	edc0 3a7b 	vstr	s7, [r0, #492]	@ 0x1ec
 80077f2:	ee77 7a27 	vadd.f32	s15, s14, s15
 80077f6:	ed80 4a79 	vstr	s8, [r0, #484]	@ 0x1e4
 80077fa:	edc0 4a84 	vstr	s9, [r0, #528]	@ 0x210
 80077fe:	ed80 5a86 	vstr	s10, [r0, #536]	@ 0x218
 8007802:	edc0 5a89 	vstr	s11, [r0, #548]	@ 0x224
 8007806:	ed80 6a82 	vstr	s12, [r0, #520]	@ 0x208
 800780a:	edc0 6a83 	vstr	s13, [r0, #524]	@ 0x20c
 800780e:	edc0 7a85 	vstr	s15, [r0, #532]	@ 0x214
 8007812:	7823      	ldrb	r3, [r4, #0]
 8007814:	2b00      	cmp	r3, #0
 8007816:	f002 8111 	beq.w	8009a3c <DoStep_Hcbd8c48e05b139646178cc6f7987b8955b6ce985_cb4a8a449b4ada864625ee5a4355578a3aaf08ed+0x22fc>
 800781a:	eeb0 0a00 	vmov.f32	s0, #0	@ 0x40000000  2.0
 800781e:	f504 760f 	add.w	r6, r4, #572	@ 0x23c
 8007822:	eef7 0a00 	vmov.f32	s1, #112	@ 0x3f800000  1.0
 8007826:	ed9f 9ac1 	vldr	s18, [pc, #772]	@ 8007b2c <DoStep_Hcbd8c48e05b139646178cc6f7987b8955b6ce985_cb4a8a449b4ada864625ee5a4355578a3aaf08ed+0x3ec>
 800782a:	4630      	mov	r0, r6
 800782c:	f002 f952 	bl	8009ad4 <SPE_greater_Hcbd8c48e05b139646178cc6f7987b8955b6ce985_cb4a8a449b4ada864625ee5a4355578a3aaf08ed>
 8007830:	edd4 7a43 	vldr	s15, [r4, #268]	@ 0x10c
 8007834:	ed94 7a42 	vldr	s14, [r4, #264]	@ 0x108
 8007838:	4607      	mov	r7, r0
 800783a:	eef1 7a67 	vneg.f32	s15, s15
 800783e:	ed94 aa6e 	vldr	s20, [r4, #440]	@ 0x1b8
 8007842:	ed94 0a82 	vldr	s0, [r4, #520]	@ 0x208
 8007846:	ee27 aa0a 	vmul.f32	s20, s14, s20
 800784a:	ed94 8a11 	vldr	s16, [r4, #68]	@ 0x44
 800784e:	ed8d 7a15 	vstr	s14, [sp, #84]	@ 0x54
 8007852:	edcd 7a14 	vstr	s15, [sp, #80]	@ 0x50
 8007856:	ed8d 9a16 	vstr	s18, [sp, #88]	@ 0x58
 800785a:	ed8d 9a17 	vstr	s18, [sp, #92]	@ 0x5c
 800785e:	f002 f969 	bl	8009b34 <SPE_cos_Hcbd8c48e05b139646178cc6f7987b8955b6ce985_cb4a8a449b4ada864625ee5a4355578a3aaf08ed>
 8007862:	eef0 7a40 	vmov.f32	s15, s0
 8007866:	ed94 7a43 	vldr	s14, [r4, #268]	@ 0x10c
 800786a:	edd4 9a6e 	vldr	s19, [r4, #440]	@ 0x1b8
 800786e:	ed94 0a82 	vldr	s0, [r4, #520]	@ 0x208
 8007872:	ee68 7a27 	vmul.f32	s15, s16, s15
 8007876:	edd4 8a11 	vldr	s17, [r4, #68]	@ 0x44
 800787a:	ee69 9a87 	vmul.f32	s19, s19, s14
 800787e:	ee27 aa8a 	vmul.f32	s20, s15, s20
 8007882:	f002 f955 	bl	8009b30 <SPE_sin_Hcbd8c48e05b139646178cc6f7987b8955b6ce985_cb4a8a449b4ada864625ee5a4355578a3aaf08ed>
 8007886:	eef0 7a40 	vmov.f32	s15, s0
 800788a:	ed94 0a82 	vldr	s0, [r4, #520]	@ 0x208
 800788e:	ed94 da18 	vldr	s26, [r4, #96]	@ 0x60
 8007892:	ee68 7aa7 	vmul.f32	s15, s17, s15
 8007896:	ee67 7aa9 	vmul.f32	s15, s15, s19
 800789a:	ee7a 7a67 	vsub.f32	s15, s20, s15
 800789e:	eeb7 ab00 	vmov.f64	d10, #112	@ 0x3f800000  1.0
 80078a2:	eeb7 bae7 	vcvt.f64.f32	d11, s15
 80078a6:	f002 f943 	bl	8009b30 <SPE_sin_Hcbd8c48e05b139646178cc6f7987b8955b6ce985_cb4a8a449b4ada864625ee5a4355578a3aaf08ed>
 80078aa:	edd4 7a6e 	vldr	s15, [r4, #440]	@ 0x1b8
 80078ae:	ee2d da00 	vmul.f32	s26, s26, s0
 80078b2:	eeb7 8ae7 	vcvt.f64.f32	d8, s15
 80078b6:	eeb0 0a67 	vmov.f32	s0, s15
 80078ba:	f002 f91d 	bl	8009af8 <SPE_ipowSquare_Hcbd8c48e05b139646178cc6f7987b8955b6ce985_cb4a8a449b4ada864625ee5a4355578a3aaf08ed>
 80078be:	eeb7 5ac0 	vcvt.f64.f32	d5, s0
 80078c2:	ee8a eb08 	vdiv.f64	d14, d10, d8
 80078c6:	ed94 7a5c 	vldr	s14, [r4, #368]	@ 0x170
 80078ca:	ed94 0a82 	vldr	s0, [r4, #520]	@ 0x208
 80078ce:	ed94 ca18 	vldr	s24, [r4, #96]	@ 0x60
 80078d2:	eeb1 8b48 	vneg.f64	d8, d8
 80078d6:	eeb7 dacd 	vcvt.f64.f32	d13, s26
 80078da:	eeb7 7ac7 	vcvt.f64.f32	d7, s14
 80078de:	ee88 6b05 	vdiv.f64	d6, d8, d5
 80078e2:	ee36 6b0e 	vadd.f64	d6, d6, d14
 80078e6:	ee26 6b0d 	vmul.f64	d6, d6, d13
 80078ea:	ee06 bb07 	vmla.f64	d11, d6, d7
 80078ee:	f002 f921 	bl	8009b34 <SPE_cos_Hcbd8c48e05b139646178cc6f7987b8955b6ce985_cb4a8a449b4ada864625ee5a4355578a3aaf08ed>
 80078f2:	edd4 7a6e 	vldr	s15, [r4, #440]	@ 0x1b8
 80078f6:	eeb7 8ae7 	vcvt.f64.f32	d8, s15
 80078fa:	ee2c ca00 	vmul.f32	s24, s24, s0
 80078fe:	eeb0 0a67 	vmov.f32	s0, s15
 8007902:	f002 f8f9 	bl	8009af8 <SPE_ipowSquare_Hcbd8c48e05b139646178cc6f7987b8955b6ce985_cb4a8a449b4ada864625ee5a4355578a3aaf08ed>
 8007906:	ee8a eb08 	vdiv.f64	d14, d10, d8
 800790a:	ed94 5a58 	vldr	s10, [r4, #352]	@ 0x160
 800790e:	edd4 7a42 	vldr	s15, [r4, #264]	@ 0x108
 8007912:	ed94 da6e 	vldr	s26, [r4, #440]	@ 0x1b8
 8007916:	eeb7 0ac0 	vcvt.f64.f32	d0, s0
 800791a:	eeb1 8b48 	vneg.f64	d8, d8
 800791e:	eeb7 cacc 	vcvt.f64.f32	d12, s24
 8007922:	eeb7 5ac5 	vcvt.f64.f32	d5, s10
 8007926:	ee88 6b00 	vdiv.f64	d6, d8, d0
 800792a:	ed94 0a82 	vldr	s0, [r4, #520]	@ 0x208
 800792e:	edd4 8a11 	vldr	s17, [r4, #68]	@ 0x44
 8007932:	ee2d da27 	vmul.f32	s26, s26, s15
 8007936:	ee36 6b0e 	vadd.f64	d6, d6, d14
 800793a:	ee26 6b0c 	vmul.f64	d6, d6, d12
 800793e:	ee06 bb45 	vmls.f64	d11, d6, d5
 8007942:	eeb7 7bcb 	vcvt.f32.f64	s14, d11
 8007946:	ed8d 7a18 	vstr	s14, [sp, #96]	@ 0x60
 800794a:	f002 f8f1 	bl	8009b30 <SPE_sin_Hcbd8c48e05b139646178cc6f7987b8955b6ce985_cb4a8a449b4ada864625ee5a4355578a3aaf08ed>
 800794e:	eeb0 7a40 	vmov.f32	s14, s0
 8007952:	edd4 7a43 	vldr	s15, [r4, #268]	@ 0x10c
 8007956:	edd4 9a6e 	vldr	s19, [r4, #440]	@ 0x1b8
 800795a:	ed94 0a82 	vldr	s0, [r4, #520]	@ 0x208
 800795e:	ee68 8a87 	vmul.f32	s17, s17, s14
 8007962:	ed94 8a11 	vldr	s16, [r4, #68]	@ 0x44
 8007966:	ee69 9aa7 	vmul.f32	s19, s19, s15
 800796a:	f002 f8e3 	bl	8009b34 <SPE_cos_Hcbd8c48e05b139646178cc6f7987b8955b6ce985_cb4a8a449b4ada864625ee5a4355578a3aaf08ed>
 800796e:	eef0 7a40 	vmov.f32	s15, s0
 8007972:	ed94 0a82 	vldr	s0, [r4, #520]	@ 0x208
 8007976:	ed94 ca18 	vldr	s24, [r4, #96]	@ 0x60
 800797a:	ee68 8a8d 	vmul.f32	s17, s17, s26
 800797e:	ee28 8a27 	vmul.f32	s16, s16, s15
 8007982:	f002 f8d5 	bl	8009b30 <SPE_sin_Hcbd8c48e05b139646178cc6f7987b8955b6ce985_cb4a8a449b4ada864625ee5a4355578a3aaf08ed>
 8007986:	edd4 7a6e 	vldr	s15, [r4, #440]	@ 0x1b8
 800798a:	ee2c ca00 	vmul.f32	s24, s24, s0
 800798e:	eeb7 bae7 	vcvt.f64.f32	d11, s15
 8007992:	eeb0 0a67 	vmov.f32	s0, s15
 8007996:	f002 f8af 	bl	8009af8 <SPE_ipowSquare_Hcbd8c48e05b139646178cc6f7987b8955b6ce985_cb4a8a449b4ada864625ee5a4355578a3aaf08ed>
 800799a:	eeb7 5ac0 	vcvt.f64.f32	d5, s0
 800799e:	ee8a db0b 	vdiv.f64	d13, d10, d11
 80079a2:	ed94 6a58 	vldr	s12, [r4, #352]	@ 0x160
 80079a6:	ed94 0a82 	vldr	s0, [r4, #520]	@ 0x208
 80079aa:	eeb1 bb4b 	vneg.f64	d11, d11
 80079ae:	ee28 8a29 	vmul.f32	s16, s16, s19
 80079b2:	edd4 9a18 	vldr	s19, [r4, #96]	@ 0x60
 80079b6:	eeb7 cacc 	vcvt.f64.f32	d12, s24
 80079ba:	ee8b 7b05 	vdiv.f64	d7, d11, d5
 80079be:	ee38 8a28 	vadd.f32	s16, s16, s17
 80079c2:	eeb7 6ac6 	vcvt.f64.f32	d6, s12
 80079c6:	eeb7 8ac8 	vcvt.f64.f32	d8, s16
 80079ca:	ee37 7b0d 	vadd.f64	d7, d7, d13
 80079ce:	ee27 7b0c 	vmul.f64	d7, d7, d12
 80079d2:	ee07 8b46 	vmls.f64	d8, d7, d6
 80079d6:	f002 f8ad 	bl	8009b34 <SPE_cos_Hcbd8c48e05b139646178cc6f7987b8955b6ce985_cb4a8a449b4ada864625ee5a4355578a3aaf08ed>
 80079da:	edd4 7a6e 	vldr	s15, [r4, #440]	@ 0x1b8
 80079de:	eeb7 dae7 	vcvt.f64.f32	d13, s15
 80079e2:	ee29 ba80 	vmul.f32	s22, s19, s0
 80079e6:	eeb0 0a67 	vmov.f32	s0, s15
 80079ea:	f002 f885 	bl	8009af8 <SPE_ipowSquare_Hcbd8c48e05b139646178cc6f7987b8955b6ce985_cb4a8a449b4ada864625ee5a4355578a3aaf08ed>
 80079ee:	ee8a cb0d 	vdiv.f64	d12, d10, d13
 80079f2:	edd4 7a43 	vldr	s15, [r4, #268]	@ 0x10c
 80079f6:	ed94 7a6e 	vldr	s14, [r4, #440]	@ 0x1b8
 80079fa:	edcd 7a1b 	vstr	s15, [sp, #108]	@ 0x6c
 80079fe:	eeb7 0ac0 	vcvt.f64.f32	d0, s0
 8007a02:	ed94 6a5b 	vldr	s12, [r4, #364]	@ 0x16c
 8007a06:	eeb1 db4d 	vneg.f64	d13, d13
 8007a0a:	f8d4 3108 	ldr.w	r3, [r4, #264]	@ 0x108
 8007a0e:	eeb7 bacb 	vcvt.f64.f32	d11, s22
 8007a12:	ed8d 9a1c 	vstr	s18, [sp, #112]	@ 0x70
 8007a16:	ee67 9a87 	vmul.f32	s19, s15, s14
 8007a1a:	931a      	str	r3, [sp, #104]	@ 0x68
 8007a1c:	ee8d 5b00 	vdiv.f64	d5, d13, d0
 8007a20:	ed94 0a82 	vldr	s0, [r4, #520]	@ 0x208
 8007a24:	ed8d 9a1d 	vstr	s18, [sp, #116]	@ 0x74
 8007a28:	ed94 9a11 	vldr	s18, [r4, #68]	@ 0x44
 8007a2c:	eeb7 6ac6 	vcvt.f64.f32	d6, s12
 8007a30:	ee35 7b0c 	vadd.f64	d7, d5, d12
 8007a34:	ee27 7b0b 	vmul.f64	d7, d7, d11
 8007a38:	ee07 8b46 	vmls.f64	d8, d7, d6
 8007a3c:	eeb7 8bc8 	vcvt.f32.f64	s16, d8
 8007a40:	ed8d 8a19 	vstr	s16, [sp, #100]	@ 0x64
 8007a44:	f002 f876 	bl	8009b34 <SPE_cos_Hcbd8c48e05b139646178cc6f7987b8955b6ce985_cb4a8a449b4ada864625ee5a4355578a3aaf08ed>
 8007a48:	eeb0 8a40 	vmov.f32	s16, s0
 8007a4c:	edd4 7a42 	vldr	s15, [r4, #264]	@ 0x108
 8007a50:	edd4 8a6e 	vldr	s17, [r4, #440]	@ 0x1b8
 8007a54:	ed94 0a82 	vldr	s0, [r4, #520]	@ 0x208
 8007a58:	ee68 8aa7 	vmul.f32	s17, s17, s15
 8007a5c:	ee29 8a08 	vmul.f32	s16, s18, s16
 8007a60:	ed94 9a11 	vldr	s18, [r4, #68]	@ 0x44
 8007a64:	f002 f864 	bl	8009b30 <SPE_sin_Hcbd8c48e05b139646178cc6f7987b8955b6ce985_cb4a8a449b4ada864625ee5a4355578a3aaf08ed>
 8007a68:	eef0 7a40 	vmov.f32	s15, s0
 8007a6c:	ed94 0a82 	vldr	s0, [r4, #520]	@ 0x208
 8007a70:	ee28 8a29 	vmul.f32	s16, s16, s19
 8007a74:	ed94 ca18 	vldr	s24, [r4, #96]	@ 0x60
 8007a78:	ee29 9a27 	vmul.f32	s18, s18, s15
 8007a7c:	f002 f85a 	bl	8009b34 <SPE_cos_Hcbd8c48e05b139646178cc6f7987b8955b6ce985_cb4a8a449b4ada864625ee5a4355578a3aaf08ed>
 8007a80:	edd4 7a6e 	vldr	s15, [r4, #440]	@ 0x1b8
 8007a84:	ee2c ca00 	vmul.f32	s24, s24, s0
 8007a88:	ee29 9a28 	vmul.f32	s18, s18, s17
 8007a8c:	eeb0 0a67 	vmov.f32	s0, s15
 8007a90:	eeb7 cacc 	vcvt.f64.f32	d12, s24
 8007a94:	ee39 9a08 	vadd.f32	s18, s18, s16
 8007a98:	eeb7 8ae7 	vcvt.f64.f32	d8, s15
 8007a9c:	f002 f82c 	bl	8009af8 <SPE_ipowSquare_Hcbd8c48e05b139646178cc6f7987b8955b6ce985_cb4a8a449b4ada864625ee5a4355578a3aaf08ed>
 8007aa0:	eeb7 5ac0 	vcvt.f64.f32	d5, s0
 8007aa4:	ed94 6a5c 	vldr	s12, [r4, #368]	@ 0x170
 8007aa8:	eeb7 9ac9 	vcvt.f64.f32	d9, s18
 8007aac:	ed94 0a82 	vldr	s0, [r4, #520]	@ 0x208
 8007ab0:	ee8a db08 	vdiv.f64	d13, d10, d8
 8007ab4:	ed94 ba18 	vldr	s22, [r4, #96]	@ 0x60
 8007ab8:	eeb1 8b48 	vneg.f64	d8, d8
 8007abc:	eeb7 6ac6 	vcvt.f64.f32	d6, s12
 8007ac0:	ee88 7b05 	vdiv.f64	d7, d8, d5
 8007ac4:	ee37 7b0d 	vadd.f64	d7, d7, d13
 8007ac8:	ee27 7b0c 	vmul.f64	d7, d7, d12
 8007acc:	ee07 9b46 	vmls.f64	d9, d7, d6
 8007ad0:	f002 f82e 	bl	8009b30 <SPE_sin_Hcbd8c48e05b139646178cc6f7987b8955b6ce985_cb4a8a449b4ada864625ee5a4355578a3aaf08ed>
 8007ad4:	edd4 7a6e 	vldr	s15, [r4, #440]	@ 0x1b8
 8007ad8:	eeb7 8ae7 	vcvt.f64.f32	d8, s15
 8007adc:	ee2b ba00 	vmul.f32	s22, s22, s0
 8007ae0:	eeb0 0a67 	vmov.f32	s0, s15
 8007ae4:	f002 f808 	bl	8009af8 <SPE_ipowSquare_Hcbd8c48e05b139646178cc6f7987b8955b6ce985_cb4a8a449b4ada864625ee5a4355578a3aaf08ed>
 8007ae8:	ee8a cb08 	vdiv.f64	d12, d10, d8
 8007aec:	ed94 6a58 	vldr	s12, [r4, #352]	@ 0x160
 8007af0:	edd4 5a43 	vldr	s11, [r4, #268]	@ 0x10c
 8007af4:	ed94 da6e 	vldr	s26, [r4, #440]	@ 0x1b8
 8007af8:	eeb7 0ac0 	vcvt.f64.f32	d0, s0
 8007afc:	eeb1 8b48 	vneg.f64	d8, d8
 8007b00:	eeb7 bacb 	vcvt.f64.f32	d11, s22
 8007b04:	eeb7 6ac6 	vcvt.f64.f32	d6, s12
 8007b08:	ee88 7b00 	vdiv.f64	d7, d8, d0
 8007b0c:	ed94 0a82 	vldr	s0, [r4, #520]	@ 0x208
 8007b10:	ed94 8a11 	vldr	s16, [r4, #68]	@ 0x44
 8007b14:	ee2d da25 	vmul.f32	s26, s26, s11
 8007b18:	ee37 7b0c 	vadd.f64	d7, d7, d12
 8007b1c:	ee27 7b0b 	vmul.f64	d7, d7, d11
 8007b20:	ee07 9b46 	vmls.f64	d9, d7, d6
 8007b24:	e004      	b.n	8007b30 <DoStep_Hcbd8c48e05b139646178cc6f7987b8955b6ce985_cb4a8a449b4ada864625ee5a4355578a3aaf08ed+0x3f0>
 8007b26:	bf00      	nop
 8007b28:	0800a72c 	.word	0x0800a72c
 8007b2c:	00000000 	.word	0x00000000
 8007b30:	eeb7 9bc9 	vcvt.f32.f64	s18, d9
 8007b34:	ed8d 9a1e 	vstr	s18, [sp, #120]	@ 0x78
 8007b38:	f001 fffa 	bl	8009b30 <SPE_sin_Hcbd8c48e05b139646178cc6f7987b8955b6ce985_cb4a8a449b4ada864625ee5a4355578a3aaf08ed>
 8007b3c:	eeb0 7a40 	vmov.f32	s14, s0
 8007b40:	edd4 7a42 	vldr	s15, [r4, #264]	@ 0x108
 8007b44:	ed94 9a6e 	vldr	s18, [r4, #440]	@ 0x1b8
 8007b48:	ed94 0a82 	vldr	s0, [r4, #520]	@ 0x208
 8007b4c:	ee28 8a07 	vmul.f32	s16, s16, s14
 8007b50:	edd4 8a11 	vldr	s17, [r4, #68]	@ 0x44
 8007b54:	ee29 9a27 	vmul.f32	s18, s18, s15
 8007b58:	f001 ffec 	bl	8009b34 <SPE_cos_Hcbd8c48e05b139646178cc6f7987b8955b6ce985_cb4a8a449b4ada864625ee5a4355578a3aaf08ed>
 8007b5c:	eef0 7a40 	vmov.f32	s15, s0
 8007b60:	ed94 0a82 	vldr	s0, [r4, #520]	@ 0x208
 8007b64:	ee28 8a0d 	vmul.f32	s16, s16, s26
 8007b68:	ed94 ba18 	vldr	s22, [r4, #96]	@ 0x60
 8007b6c:	ee68 7aa7 	vmul.f32	s15, s17, s15
 8007b70:	ee67 7a89 	vmul.f32	s15, s15, s18
 8007b74:	ee38 8a67 	vsub.f32	s16, s16, s15
 8007b78:	f001 ffdc 	bl	8009b34 <SPE_cos_Hcbd8c48e05b139646178cc6f7987b8955b6ce985_cb4a8a449b4ada864625ee5a4355578a3aaf08ed>
 8007b7c:	edd4 7a6e 	vldr	s15, [r4, #440]	@ 0x1b8
 8007b80:	ee2b ba00 	vmul.f32	s22, s22, s0
 8007b84:	eeb7 9ae7 	vcvt.f64.f32	d9, s15
 8007b88:	eeb0 0a67 	vmov.f32	s0, s15
 8007b8c:	f001 ffb4 	bl	8009af8 <SPE_ipowSquare_Hcbd8c48e05b139646178cc6f7987b8955b6ce985_cb4a8a449b4ada864625ee5a4355578a3aaf08ed>
 8007b90:	eeb7 5ac0 	vcvt.f64.f32	d5, s0
 8007b94:	ee8a db09 	vdiv.f64	d13, d10, d9
 8007b98:	ed94 6a58 	vldr	s12, [r4, #352]	@ 0x160
 8007b9c:	ed94 0a82 	vldr	s0, [r4, #520]	@ 0x208
 8007ba0:	ed94 ca18 	vldr	s24, [r4, #96]	@ 0x60
 8007ba4:	eeb1 9b49 	vneg.f64	d9, d9
 8007ba8:	eeb7 bacb 	vcvt.f64.f32	d11, s22
 8007bac:	eeb7 6ac6 	vcvt.f64.f32	d6, s12
 8007bb0:	ee89 7b05 	vdiv.f64	d7, d9, d5
 8007bb4:	eeb7 8ac8 	vcvt.f64.f32	d8, s16
 8007bb8:	ee37 7b0d 	vadd.f64	d7, d7, d13
 8007bbc:	ee27 7b0b 	vmul.f64	d7, d7, d11
 8007bc0:	ee07 8b06 	vmla.f64	d8, d7, d6
 8007bc4:	f001 ffb4 	bl	8009b30 <SPE_sin_Hcbd8c48e05b139646178cc6f7987b8955b6ce985_cb4a8a449b4ada864625ee5a4355578a3aaf08ed>
 8007bc8:	edd4 7a6e 	vldr	s15, [r4, #440]	@ 0x1b8
 8007bcc:	ee2c 9a00 	vmul.f32	s18, s24, s0
 8007bd0:	eeb7 cae7 	vcvt.f64.f32	d12, s15
 8007bd4:	eeb0 0a67 	vmov.f32	s0, s15
 8007bd8:	f001 ff8e 	bl	8009af8 <SPE_ipowSquare_Hcbd8c48e05b139646178cc6f7987b8955b6ce985_cb4a8a449b4ada864625ee5a4355578a3aaf08ed>
 8007bdc:	eeb7 6ac0 	vcvt.f64.f32	d6, s0
 8007be0:	ee8a bb0c 	vdiv.f64	d11, d10, d12
 8007be4:	ed94 2a5b 	vldr	s4, [r4, #364]	@ 0x16c
 8007be8:	edd4 7a39 	vldr	s15, [r4, #228]	@ 0xe4
 8007bec:	ed94 5a3a 	vldr	s10, [r4, #232]	@ 0xe8
 8007bf0:	ed94 4a6e 	vldr	s8, [r4, #440]	@ 0x1b8
 8007bf4:	eeb1 cb4c 	vneg.f64	d12, d12
 8007bf8:	ed94 3a43 	vldr	s6, [r4, #268]	@ 0x10c
 8007bfc:	eeb7 9ac9 	vcvt.f64.f32	d9, s18
 8007c00:	edd4 5a38 	vldr	s11, [r4, #224]	@ 0xe0
 8007c04:	eeb7 2ac2 	vcvt.f64.f32	d2, s4
 8007c08:	ed8d 5a21 	vstr	s10, [sp, #132]	@ 0x84
 8007c0c:	ee8c 0b06 	vdiv.f64	d0, d12, d6
 8007c10:	edd4 6a42 	vldr	s13, [r4, #264]	@ 0x108
 8007c14:	ed8d 5a22 	vstr	s10, [sp, #136]	@ 0x88
 8007c18:	eeb1 7a67 	vneg.f32	s14, s15
 8007c1c:	ee24 3a03 	vmul.f32	s6, s8, s6
 8007c20:	ee25 6a25 	vmul.f32	s12, s10, s11
 8007c24:	ed8d 7a20 	vstr	s14, [sp, #128]	@ 0x80
 8007c28:	ee24 4a26 	vmul.f32	s8, s8, s13
 8007c2c:	ed8d 7a23 	vstr	s14, [sp, #140]	@ 0x8c
 8007c30:	eeb7 3ac3 	vcvt.f64.f32	d3, s6
 8007c34:	ed94 7a37 	vldr	s14, [r4, #220]	@ 0xdc
 8007c38:	eeb7 4ac4 	vcvt.f64.f32	d4, s8
 8007c3c:	ee67 6a87 	vmul.f32	s13, s15, s14
 8007c40:	ee36 6a66 	vsub.f32	s12, s12, s13
 8007c44:	eeb7 6ac6 	vcvt.f64.f32	d6, s12
 8007c48:	ee30 0b0b 	vadd.f64	d0, d0, d11
 8007c4c:	ee20 0b09 	vmul.f64	d0, d0, d9
 8007c50:	ee00 8b42 	vmls.f64	d8, d0, d2
 8007c54:	eeb7 2ae7 	vcvt.f64.f32	d2, s15
 8007c58:	eeb7 8bc8 	vcvt.f32.f64	s16, d8
 8007c5c:	ed8d 8a1f 	vstr	s16, [sp, #124]	@ 0x7c
 8007c60:	2f00      	cmp	r7, #0
 8007c62:	f041 86ef 	bne.w	8009a44 <DoStep_Hcbd8c48e05b139646178cc6f7987b8955b6ce985_cb4a8a449b4ada864625ee5a4355578a3aaf08ed+0x2304>
 8007c66:	ed9f 9b06 	vldr	d9, [pc, #24]	@ 8007c80 <DoStep_Hcbd8c48e05b139646178cc6f7987b8955b6ce985_cb4a8a449b4ada864625ee5a4355578a3aaf08ed+0x540>
 8007c6a:	ee02 6b49 	vmls.f64	d6, d2, d9
 8007c6e:	eeb0 bb49 	vmov.f64	d11, d9
 8007c72:	ee36 ab0a 	vadd.f64	d10, d6, d10
 8007c76:	ee2a ab03 	vmul.f64	d10, d10, d3
 8007c7a:	e005      	b.n	8007c88 <DoStep_Hcbd8c48e05b139646178cc6f7987b8955b6ce985_cb4a8a449b4ada864625ee5a4355578a3aaf08ed+0x548>
 8007c7c:	f3af 8000 	nop.w
	...
 8007c88:	ed94 0a82 	vldr	s0, [r4, #520]	@ 0x208
 8007c8c:	ed94 da11 	vldr	s26, [r4, #68]	@ 0x44
 8007c90:	ee67 7aa5 	vmul.f32	s15, s15, s11
 8007c94:	ee25 7a07 	vmul.f32	s14, s10, s14
 8007c98:	eeb7 5ac5 	vcvt.f64.f32	d5, s10
 8007c9c:	eeb7 8b00 	vmov.f64	d8, #112	@ 0x3f800000  1.0
 8007ca0:	ee37 7a27 	vadd.f32	s14, s14, s15
 8007ca4:	eeb7 7ac7 	vcvt.f64.f32	d7, s14
 8007ca8:	ee15 7b0b 	vnmls.f64	d7, d5, d11
 8007cac:	ee07 ab44 	vmls.f64	d10, d7, d4
 8007cb0:	f001 ff3e 	bl	8009b30 <SPE_sin_Hcbd8c48e05b139646178cc6f7987b8955b6ce985_cb4a8a449b4ada864625ee5a4355578a3aaf08ed>
 8007cb4:	edd4 6a39 	vldr	s13, [r4, #228]	@ 0xe4
 8007cb8:	ed94 3a3a 	vldr	s6, [r4, #232]	@ 0xe8
 8007cbc:	edd4 7a38 	vldr	s15, [r4, #224]	@ 0xe0
 8007cc0:	ed94 7a37 	vldr	s14, [r4, #220]	@ 0xdc
 8007cc4:	eeb7 4ae6 	vcvt.f64.f32	d4, s13
 8007cc8:	ee23 6a27 	vmul.f32	s12, s6, s15
 8007ccc:	ed94 5a6e 	vldr	s10, [r4, #440]	@ 0x1b8
 8007cd0:	ee66 5a87 	vmul.f32	s11, s13, s14
 8007cd4:	ed94 ca11 	vldr	s24, [r4, #68]	@ 0x44
 8007cd8:	ee67 7aa6 	vmul.f32	s15, s15, s13
 8007cdc:	ee23 7a07 	vmul.f32	s14, s6, s14
 8007ce0:	ee36 6a65 	vsub.f32	s12, s12, s11
 8007ce4:	edd4 5a42 	vldr	s11, [r4, #264]	@ 0x108
 8007ce8:	eeb7 3ac3 	vcvt.f64.f32	d3, s6
 8007cec:	ee37 7a27 	vadd.f32	s14, s14, s15
 8007cf0:	eeb7 6ac6 	vcvt.f64.f32	d6, s12
 8007cf4:	ee2d da00 	vmul.f32	s26, s26, s0
 8007cf8:	ed94 0a82 	vldr	s0, [r4, #520]	@ 0x208
 8007cfc:	eeb7 7ac7 	vcvt.f64.f32	d7, s14
 8007d00:	ee04 6b49 	vmls.f64	d6, d4, d9
 8007d04:	ed94 4a43 	vldr	s8, [r4, #268]	@ 0x10c
 8007d08:	ee13 7b0b 	vnmls.f64	d7, d3, d11
 8007d0c:	ee25 4a04 	vmul.f32	s8, s10, s8
 8007d10:	eeb7 dacd 	vcvt.f64.f32	d13, s26
 8007d14:	ee25 5a25 	vmul.f32	s10, s10, s11
 8007d18:	eeb7 4ac4 	vcvt.f64.f32	d4, s8
 8007d1c:	ee2d db0a 	vmul.f64	d13, d13, d10
 8007d20:	ee27 ab04 	vmul.f64	d10, d7, d4
 8007d24:	eeb7 5ac5 	vcvt.f64.f32	d5, s10
 8007d28:	ee36 6b08 	vadd.f64	d6, d6, d8
 8007d2c:	ee06 ab05 	vmla.f64	d10, d6, d5
 8007d30:	f001 ff00 	bl	8009b34 <SPE_cos_Hcbd8c48e05b139646178cc6f7987b8955b6ce985_cb4a8a449b4ada864625ee5a4355578a3aaf08ed>
 8007d34:	edd4 ca18 	vldr	s25, [r4, #96]	@ 0x60
 8007d38:	eeb0 6a40 	vmov.f32	s12, s0
 8007d3c:	ed94 0a82 	vldr	s0, [r4, #520]	@ 0x208
 8007d40:	ee2c 6a06 	vmul.f32	s12, s24, s12
 8007d44:	eeb7 6ac6 	vcvt.f64.f32	d6, s12
 8007d48:	ee06 db4a 	vmls.f64	d13, d6, d10
 8007d4c:	f001 fef0 	bl	8009b30 <SPE_sin_Hcbd8c48e05b139646178cc6f7987b8955b6ce985_cb4a8a449b4ada864625ee5a4355578a3aaf08ed>
 8007d50:	edd4 7a39 	vldr	s15, [r4, #228]	@ 0xe4
 8007d54:	ed94 6a38 	vldr	s12, [r4, #224]	@ 0xe0
 8007d58:	ed94 aa3a 	vldr	s20, [r4, #232]	@ 0xe8
 8007d5c:	edd4 6a37 	vldr	s13, [r4, #220]	@ 0xdc
 8007d60:	eeb7 4ae7 	vcvt.f64.f32	d4, s15
 8007d64:	ee2a aa06 	vmul.f32	s20, s20, s12
 8007d68:	ed94 5a6e 	vldr	s10, [r4, #440]	@ 0x1b8
 8007d6c:	ee67 6aa6 	vmul.f32	s13, s15, s13
 8007d70:	ed94 ca18 	vldr	s24, [r4, #96]	@ 0x60
 8007d74:	eeb7 5ac5 	vcvt.f64.f32	d5, s10
 8007d78:	ee2c 7a80 	vmul.f32	s14, s25, s0
 8007d7c:	ed94 0a82 	vldr	s0, [r4, #520]	@ 0x208
 8007d80:	ee3a aa66 	vsub.f32	s20, s20, s13
 8007d84:	eeb7 7ac7 	vcvt.f64.f32	d7, s14
 8007d88:	eeb7 aaca 	vcvt.f64.f32	d10, s20
 8007d8c:	ee04 ab49 	vmls.f64	d10, d4, d9
 8007d90:	ee3a ab08 	vadd.f64	d10, d10, d8
 8007d94:	ee2a ab05 	vmul.f64	d10, d10, d5
 8007d98:	ee2a ab07 	vmul.f64	d10, d10, d7
 8007d9c:	f001 feca 	bl	8009b34 <SPE_cos_Hcbd8c48e05b139646178cc6f7987b8955b6ce985_cb4a8a449b4ada864625ee5a4355578a3aaf08ed>
 8007da0:	edd4 4a38 	vldr	s9, [r4, #224]	@ 0xe0
 8007da4:	edd4 7a3a 	vldr	s15, [r4, #232]	@ 0xe8
 8007da8:	edd4 6a37 	vldr	s13, [r4, #220]	@ 0xdc
 8007dac:	ee2c 6a00 	vmul.f32	s12, s24, s0
 8007db0:	ed94 7a39 	vldr	s14, [r4, #228]	@ 0xe4
 8007db4:	eeb7 5ae7 	vcvt.f64.f32	d5, s15
 8007db8:	ee67 7aa6 	vmul.f32	s15, s15, s13
 8007dbc:	ed94 0a6e 	vldr	s0, [r4, #440]	@ 0x1b8
 8007dc0:	ee27 7a24 	vmul.f32	s14, s14, s9
 8007dc4:	eeb7 6ac6 	vcvt.f64.f32	d6, s12
 8007dc8:	ee37 7a27 	vadd.f32	s14, s14, s15
 8007dcc:	eeb7 7ac7 	vcvt.f64.f32	d7, s14
 8007dd0:	ee15 7b0b 	vnmls.f64	d7, d5, d11
 8007dd4:	eeb7 5ac0 	vcvt.f64.f32	d5, s0
 8007dd8:	ee27 7b05 	vmul.f64	d7, d7, d5
 8007ddc:	edd4 5a5c 	vldr	s11, [r4, #368]	@ 0x170
 8007de0:	eeb7 eae5 	vcvt.f64.f32	d14, s11
 8007de4:	ee07 ab46 	vmls.f64	d10, d7, d6
 8007de8:	f001 fe86 	bl	8009af8 <SPE_ipowSquare_Hcbd8c48e05b139646178cc6f7987b8955b6ce985_cb4a8a449b4ada864625ee5a4355578a3aaf08ed>
 8007dec:	eeb0 7a40 	vmov.f32	s14, s0
 8007df0:	ed94 0a82 	vldr	s0, [r4, #520]	@ 0x208
 8007df4:	eeb7 7ac7 	vcvt.f64.f32	d7, s14
 8007df8:	ee2a eb0e 	vmul.f64	d14, d10, d14
 8007dfc:	edd4 aa18 	vldr	s21, [r4, #96]	@ 0x60
 8007e00:	ee8e cb07 	vdiv.f64	d12, d14, d7
 8007e04:	f001 fe96 	bl	8009b34 <SPE_cos_Hcbd8c48e05b139646178cc6f7987b8955b6ce985_cb4a8a449b4ada864625ee5a4355578a3aaf08ed>
 8007e08:	edd4 7a39 	vldr	s15, [r4, #228]	@ 0xe4
 8007e0c:	ed94 6a38 	vldr	s12, [r4, #224]	@ 0xe0
 8007e10:	ed94 aa3a 	vldr	s20, [r4, #232]	@ 0xe8
 8007e14:	edd4 6a37 	vldr	s13, [r4, #220]	@ 0xdc
 8007e18:	eeb7 4ae7 	vcvt.f64.f32	d4, s15
 8007e1c:	ee2a aa06 	vmul.f32	s20, s20, s12
 8007e20:	ed94 5a6e 	vldr	s10, [r4, #440]	@ 0x1b8
 8007e24:	ee67 6aa6 	vmul.f32	s13, s15, s13
 8007e28:	ee2a 7a80 	vmul.f32	s14, s21, s0
 8007e2c:	ed94 0a82 	vldr	s0, [r4, #520]	@ 0x208
 8007e30:	eeb7 5ac5 	vcvt.f64.f32	d5, s10
 8007e34:	ee3a aa66 	vsub.f32	s20, s20, s13
 8007e38:	eeb7 7ac7 	vcvt.f64.f32	d7, s14
 8007e3c:	eeb7 aaca 	vcvt.f64.f32	d10, s20
 8007e40:	ee04 ab49 	vmls.f64	d10, d4, d9
 8007e44:	ee3a ab08 	vadd.f64	d10, d10, d8
 8007e48:	ee2a ab05 	vmul.f64	d10, d10, d5
 8007e4c:	ee3c cb0d 	vadd.f64	d12, d12, d13
 8007e50:	ed94 da18 	vldr	s26, [r4, #96]	@ 0x60
 8007e54:	ee2a ab07 	vmul.f64	d10, d10, d7
 8007e58:	f001 fe6a 	bl	8009b30 <SPE_sin_Hcbd8c48e05b139646178cc6f7987b8955b6ce985_cb4a8a449b4ada864625ee5a4355578a3aaf08ed>
 8007e5c:	edd4 7a3a 	vldr	s15, [r4, #232]	@ 0xe8
 8007e60:	edd4 4a38 	vldr	s9, [r4, #224]	@ 0xe0
 8007e64:	edd4 6a37 	vldr	s13, [r4, #220]	@ 0xdc
 8007e68:	eeb7 5ae7 	vcvt.f64.f32	d5, s15
 8007e6c:	ed94 7a39 	vldr	s14, [r4, #228]	@ 0xe4
 8007e70:	ee2d 6a00 	vmul.f32	s12, s26, s0
 8007e74:	ee67 7aa6 	vmul.f32	s15, s15, s13
 8007e78:	ed94 0a6e 	vldr	s0, [r4, #440]	@ 0x1b8
 8007e7c:	ee27 7a24 	vmul.f32	s14, s14, s9
 8007e80:	eeb7 6ac6 	vcvt.f64.f32	d6, s12
 8007e84:	ee37 7a27 	vadd.f32	s14, s14, s15
 8007e88:	eeb7 7ac7 	vcvt.f64.f32	d7, s14
 8007e8c:	ee15 7b0b 	vnmls.f64	d7, d5, d11
 8007e90:	eeb7 5ac0 	vcvt.f64.f32	d5, s0
 8007e94:	ee27 7b05 	vmul.f64	d7, d7, d5
 8007e98:	edd4 5a58 	vldr	s11, [r4, #352]	@ 0x160
 8007e9c:	ee07 ab06 	vmla.f64	d10, d7, d6
 8007ea0:	eeb7 7ae5 	vcvt.f64.f32	d7, s11
 8007ea4:	ee2a ab07 	vmul.f64	d10, d10, d7
 8007ea8:	f001 fe26 	bl	8009af8 <SPE_ipowSquare_Hcbd8c48e05b139646178cc6f7987b8955b6ce985_cb4a8a449b4ada864625ee5a4355578a3aaf08ed>
 8007eac:	ed94 3a3a 	vldr	s6, [r4, #232]	@ 0xe8
 8007eb0:	ed94 5a39 	vldr	s10, [r4, #228]	@ 0xe4
 8007eb4:	eeb7 0ac0 	vcvt.f64.f32	d0, s0
 8007eb8:	edd4 7a38 	vldr	s15, [r4, #224]	@ 0xe0
 8007ebc:	edd4 6a37 	vldr	s13, [r4, #220]	@ 0xdc
 8007ec0:	ee27 6a85 	vmul.f32	s12, s15, s10
 8007ec4:	ed94 7a6e 	vldr	s14, [r4, #440]	@ 0x1b8
 8007ec8:	ee8a 4b00 	vdiv.f64	d4, d10, d0
 8007ecc:	ed94 0a82 	vldr	s0, [r4, #520]	@ 0x208
 8007ed0:	ed94 da11 	vldr	s26, [r4, #68]	@ 0x44
 8007ed4:	ee23 aa26 	vmul.f32	s20, s6, s13
 8007ed8:	ee63 7a27 	vmul.f32	s15, s6, s15
 8007edc:	ee65 6a26 	vmul.f32	s13, s10, s13
 8007ee0:	ee3a aa06 	vadd.f32	s20, s20, s12
 8007ee4:	eeb7 3ac3 	vcvt.f64.f32	d3, s6
 8007ee8:	ee77 7ae6 	vsub.f32	s15, s15, s13
 8007eec:	eeb7 aaca 	vcvt.f64.f32	d10, s20
 8007ef0:	eeb7 5ac5 	vcvt.f64.f32	d5, s10
 8007ef4:	eeb7 6ae7 	vcvt.f64.f32	d6, s15
 8007ef8:	edd4 7a42 	vldr	s15, [r4, #264]	@ 0x108
 8007efc:	ee13 ab0b 	vnmls.f64	d10, d3, d11
 8007f00:	ee05 6b49 	vmls.f64	d6, d5, d9
 8007f04:	ee27 5a27 	vmul.f32	s10, s14, s15
 8007f08:	edd4 7a43 	vldr	s15, [r4, #268]	@ 0x10c
 8007f0c:	ee27 7a27 	vmul.f32	s14, s14, s15
 8007f10:	eeb7 5ac5 	vcvt.f64.f32	d5, s10
 8007f14:	eeb7 7ac7 	vcvt.f64.f32	d7, s14
 8007f18:	ee36 6b08 	vadd.f64	d6, d6, d8
 8007f1c:	ee2a ab07 	vmul.f64	d10, d10, d7
 8007f20:	ee3c cb44 	vsub.f64	d12, d12, d4
 8007f24:	eeb7 cbcc 	vcvt.f32.f64	s24, d12
 8007f28:	ee06 ab05 	vmla.f64	d10, d6, d5
 8007f2c:	ed8d ca24 	vstr	s24, [sp, #144]	@ 0x90
 8007f30:	f001 fdfe 	bl	8009b30 <SPE_sin_Hcbd8c48e05b139646178cc6f7987b8955b6ce985_cb4a8a449b4ada864625ee5a4355578a3aaf08ed>
 8007f34:	ed94 5a3a 	vldr	s10, [r4, #232]	@ 0xe8
 8007f38:	ed94 2a39 	vldr	s4, [r4, #228]	@ 0xe4
 8007f3c:	ee2d da00 	vmul.f32	s26, s26, s0
 8007f40:	edd4 7a38 	vldr	s15, [r4, #224]	@ 0xe0
 8007f44:	ed94 7a37 	vldr	s14, [r4, #220]	@ 0xdc
 8007f48:	ee25 6a27 	vmul.f32	s12, s10, s15
 8007f4c:	edd4 3a6e 	vldr	s7, [r4, #440]	@ 0x1b8
 8007f50:	ee62 6a07 	vmul.f32	s13, s4, s14
 8007f54:	ed94 4a43 	vldr	s8, [r4, #268]	@ 0x10c
 8007f58:	ee67 7a82 	vmul.f32	s15, s15, s4
 8007f5c:	ed94 0a82 	vldr	s0, [r4, #520]	@ 0x208
 8007f60:	ee25 7a07 	vmul.f32	s14, s10, s14
 8007f64:	ed94 ca11 	vldr	s24, [r4, #68]	@ 0x44
 8007f68:	eeb7 5ac5 	vcvt.f64.f32	d5, s10
 8007f6c:	ee36 6a66 	vsub.f32	s12, s12, s13
 8007f70:	ee37 7a27 	vadd.f32	s14, s14, s15
 8007f74:	eeb7 2ac2 	vcvt.f64.f32	d2, s4
 8007f78:	eeb7 6ac6 	vcvt.f64.f32	d6, s12
 8007f7c:	eeb7 7ac7 	vcvt.f64.f32	d7, s14
 8007f80:	eeb7 dacd 	vcvt.f64.f32	d13, s26
 8007f84:	ee02 6b49 	vmls.f64	d6, d2, d9
 8007f88:	ee15 7b0b 	vnmls.f64	d7, d5, d11
 8007f8c:	edd4 5a42 	vldr	s11, [r4, #264]	@ 0x108
 8007f90:	ee23 5aa5 	vmul.f32	s10, s7, s11
 8007f94:	ee23 4a84 	vmul.f32	s8, s7, s8
 8007f98:	ee2d db0a 	vmul.f64	d13, d13, d10
 8007f9c:	eeb7 5ac5 	vcvt.f64.f32	d5, s10
 8007fa0:	eeb7 4ac4 	vcvt.f64.f32	d4, s8
 8007fa4:	ee36 6b08 	vadd.f64	d6, d6, d8
 8007fa8:	ee27 ab05 	vmul.f64	d10, d7, d5
 8007fac:	ee16 ab04 	vnmls.f64	d10, d6, d4
 8007fb0:	f001 fdc0 	bl	8009b34 <SPE_cos_Hcbd8c48e05b139646178cc6f7987b8955b6ce985_cb4a8a449b4ada864625ee5a4355578a3aaf08ed>
 8007fb4:	edd4 ca18 	vldr	s25, [r4, #96]	@ 0x60
 8007fb8:	eeb0 6a40 	vmov.f32	s12, s0
 8007fbc:	ed94 0a82 	vldr	s0, [r4, #520]	@ 0x208
 8007fc0:	ee2c 6a06 	vmul.f32	s12, s24, s12
 8007fc4:	eeb7 6ac6 	vcvt.f64.f32	d6, s12
 8007fc8:	ee06 db0a 	vmla.f64	d13, d6, d10
 8007fcc:	f001 fdb0 	bl	8009b30 <SPE_sin_Hcbd8c48e05b139646178cc6f7987b8955b6ce985_cb4a8a449b4ada864625ee5a4355578a3aaf08ed>
 8007fd0:	edd4 7a39 	vldr	s15, [r4, #228]	@ 0xe4
 8007fd4:	ed94 6a38 	vldr	s12, [r4, #224]	@ 0xe0
 8007fd8:	ed94 aa3a 	vldr	s20, [r4, #232]	@ 0xe8
 8007fdc:	edd4 6a37 	vldr	s13, [r4, #220]	@ 0xdc
 8007fe0:	eeb7 4ae7 	vcvt.f64.f32	d4, s15
 8007fe4:	ee2a aa06 	vmul.f32	s20, s20, s12
 8007fe8:	ed94 5a6e 	vldr	s10, [r4, #440]	@ 0x1b8
 8007fec:	ee67 6aa6 	vmul.f32	s13, s15, s13
 8007ff0:	ed94 ca18 	vldr	s24, [r4, #96]	@ 0x60
 8007ff4:	eeb7 5ac5 	vcvt.f64.f32	d5, s10
 8007ff8:	ee2c 7a80 	vmul.f32	s14, s25, s0
 8007ffc:	ed94 0a82 	vldr	s0, [r4, #520]	@ 0x208
 8008000:	ee3a aa66 	vsub.f32	s20, s20, s13
 8008004:	eeb7 7ac7 	vcvt.f64.f32	d7, s14
 8008008:	eeb7 aaca 	vcvt.f64.f32	d10, s20
 800800c:	ee04 ab49 	vmls.f64	d10, d4, d9
 8008010:	ee3a ab08 	vadd.f64	d10, d10, d8
 8008014:	ee2a ab05 	vmul.f64	d10, d10, d5
 8008018:	ee2a ab07 	vmul.f64	d10, d10, d7
 800801c:	f001 fd8a 	bl	8009b34 <SPE_cos_Hcbd8c48e05b139646178cc6f7987b8955b6ce985_cb4a8a449b4ada864625ee5a4355578a3aaf08ed>
 8008020:	edd4 4a38 	vldr	s9, [r4, #224]	@ 0xe0
 8008024:	edd4 7a3a 	vldr	s15, [r4, #232]	@ 0xe8
 8008028:	edd4 6a37 	vldr	s13, [r4, #220]	@ 0xdc
 800802c:	ee2c 6a00 	vmul.f32	s12, s24, s0
 8008030:	ed94 7a39 	vldr	s14, [r4, #228]	@ 0xe4
 8008034:	eeb7 5ae7 	vcvt.f64.f32	d5, s15
 8008038:	ee67 7aa6 	vmul.f32	s15, s15, s13
 800803c:	ed94 0a6e 	vldr	s0, [r4, #440]	@ 0x1b8
 8008040:	ee27 7a24 	vmul.f32	s14, s14, s9
 8008044:	eeb7 6ac6 	vcvt.f64.f32	d6, s12
 8008048:	ee37 7a27 	vadd.f32	s14, s14, s15
 800804c:	eeb7 7ac7 	vcvt.f64.f32	d7, s14
 8008050:	ee15 7b0b 	vnmls.f64	d7, d5, d11
 8008054:	eeb7 5ac0 	vcvt.f64.f32	d5, s0
 8008058:	ee27 7b05 	vmul.f64	d7, d7, d5
 800805c:	edd4 5a58 	vldr	s11, [r4, #352]	@ 0x160
 8008060:	eeb7 eae5 	vcvt.f64.f32	d14, s11
 8008064:	ee07 ab46 	vmls.f64	d10, d7, d6
 8008068:	f001 fd46 	bl	8009af8 <SPE_ipowSquare_Hcbd8c48e05b139646178cc6f7987b8955b6ce985_cb4a8a449b4ada864625ee5a4355578a3aaf08ed>
 800806c:	eeb0 7a40 	vmov.f32	s14, s0
 8008070:	ed94 0a82 	vldr	s0, [r4, #520]	@ 0x208
 8008074:	eeb7 7ac7 	vcvt.f64.f32	d7, s14
 8008078:	ee2a eb0e 	vmul.f64	d14, d10, d14
 800807c:	edd4 aa18 	vldr	s21, [r4, #96]	@ 0x60
 8008080:	ee8e cb07 	vdiv.f64	d12, d14, d7
 8008084:	f001 fd56 	bl	8009b34 <SPE_cos_Hcbd8c48e05b139646178cc6f7987b8955b6ce985_cb4a8a449b4ada864625ee5a4355578a3aaf08ed>
 8008088:	edd4 7a39 	vldr	s15, [r4, #228]	@ 0xe4
 800808c:	ed94 6a38 	vldr	s12, [r4, #224]	@ 0xe0
 8008090:	ed94 aa3a 	vldr	s20, [r4, #232]	@ 0xe8
 8008094:	edd4 6a37 	vldr	s13, [r4, #220]	@ 0xdc
 8008098:	eeb7 4ae7 	vcvt.f64.f32	d4, s15
 800809c:	ee2a aa06 	vmul.f32	s20, s20, s12
 80080a0:	ed94 5a6e 	vldr	s10, [r4, #440]	@ 0x1b8
 80080a4:	ee67 6aa6 	vmul.f32	s13, s15, s13
 80080a8:	ee2a 7a80 	vmul.f32	s14, s21, s0
 80080ac:	ed94 0a82 	vldr	s0, [r4, #520]	@ 0x208
 80080b0:	eeb7 5ac5 	vcvt.f64.f32	d5, s10
 80080b4:	ee3a aa66 	vsub.f32	s20, s20, s13
 80080b8:	eeb7 7ac7 	vcvt.f64.f32	d7, s14
 80080bc:	eeb7 aaca 	vcvt.f64.f32	d10, s20
 80080c0:	ee04 ab49 	vmls.f64	d10, d4, d9
 80080c4:	ee3a ab08 	vadd.f64	d10, d10, d8
 80080c8:	ee2a ab05 	vmul.f64	d10, d10, d5
 80080cc:	ee3c cb0d 	vadd.f64	d12, d12, d13
 80080d0:	ed94 da18 	vldr	s26, [r4, #96]	@ 0x60
 80080d4:	ee2a ab07 	vmul.f64	d10, d10, d7
 80080d8:	f001 fd2a 	bl	8009b30 <SPE_sin_Hcbd8c48e05b139646178cc6f7987b8955b6ce985_cb4a8a449b4ada864625ee5a4355578a3aaf08ed>
 80080dc:	edd4 7a3a 	vldr	s15, [r4, #232]	@ 0xe8
 80080e0:	edd4 4a38 	vldr	s9, [r4, #224]	@ 0xe0
 80080e4:	edd4 6a37 	vldr	s13, [r4, #220]	@ 0xdc
 80080e8:	eeb7 5ae7 	vcvt.f64.f32	d5, s15
 80080ec:	ed94 7a39 	vldr	s14, [r4, #228]	@ 0xe4
 80080f0:	ee2d 6a00 	vmul.f32	s12, s26, s0
 80080f4:	ee67 7aa6 	vmul.f32	s15, s15, s13
 80080f8:	ed94 0a6e 	vldr	s0, [r4, #440]	@ 0x1b8
 80080fc:	ee27 7a24 	vmul.f32	s14, s14, s9
 8008100:	eeb7 6ac6 	vcvt.f64.f32	d6, s12
 8008104:	ee37 7a27 	vadd.f32	s14, s14, s15
 8008108:	eeb7 7ac7 	vcvt.f64.f32	d7, s14
 800810c:	ee15 7b0b 	vnmls.f64	d7, d5, d11
 8008110:	eeb7 5ac0 	vcvt.f64.f32	d5, s0
 8008114:	ee27 7b05 	vmul.f64	d7, d7, d5
 8008118:	edd4 5a5b 	vldr	s11, [r4, #364]	@ 0x16c
 800811c:	ee07 ab06 	vmla.f64	d10, d7, d6
 8008120:	eeb7 7ae5 	vcvt.f64.f32	d7, s11
 8008124:	ee2a ab07 	vmul.f64	d10, d10, d7
 8008128:	f001 fce6 	bl	8009af8 <SPE_ipowSquare_Hcbd8c48e05b139646178cc6f7987b8955b6ce985_cb4a8a449b4ada864625ee5a4355578a3aaf08ed>
 800812c:	ed94 7a3a 	vldr	s14, [r4, #232]	@ 0xe8
 8008130:	ed94 6a39 	vldr	s12, [r4, #228]	@ 0xe4
 8008134:	eeb7 0ac0 	vcvt.f64.f32	d0, s0
 8008138:	edd4 7a37 	vldr	s15, [r4, #220]	@ 0xdc
 800813c:	edd4 6a38 	vldr	s13, [r4, #224]	@ 0xe0
 8008140:	ee66 4a27 	vmul.f32	s9, s12, s15
 8008144:	ed8d 6a27 	vstr	s12, [sp, #156]	@ 0x9c
 8008148:	ee8a 5b00 	vdiv.f64	d5, d10, d0
 800814c:	ed8d 6a28 	vstr	s12, [sp, #160]	@ 0xa0
 8008150:	edd4 3a6e 	vldr	s7, [r4, #440]	@ 0x1b8
 8008154:	ed8d 7a26 	vstr	s14, [sp, #152]	@ 0x98
 8008158:	ed8d 7a29 	vstr	s14, [sp, #164]	@ 0xa4
 800815c:	ee27 da26 	vmul.f32	s26, s14, s13
 8008160:	ed94 0a82 	vldr	s0, [r4, #520]	@ 0x208
 8008164:	ee66 6a26 	vmul.f32	s13, s12, s13
 8008168:	ee67 7a27 	vmul.f32	s15, s14, s15
 800816c:	ee3d da64 	vsub.f32	s26, s26, s9
 8008170:	ee77 7aa6 	vadd.f32	s15, s15, s13
 8008174:	eeb7 dacd 	vcvt.f64.f32	d13, s26
 8008178:	eeb7 6ac6 	vcvt.f64.f32	d6, s12
 800817c:	eeb7 4ae7 	vcvt.f64.f32	d4, s15
 8008180:	edd4 7a42 	vldr	s15, [r4, #264]	@ 0x108
 8008184:	ee06 db0b 	vmla.f64	d13, d6, d11
 8008188:	ee23 6aa7 	vmul.f32	s12, s7, s15
 800818c:	eeb7 7ac7 	vcvt.f64.f32	d7, s14
 8008190:	eeb7 6ac6 	vcvt.f64.f32	d6, s12
 8008194:	ee07 4b09 	vmla.f64	d4, d7, d9
 8008198:	ee3d db08 	vadd.f64	d13, d13, d8
 800819c:	ee2d db06 	vmul.f64	d13, d13, d6
 80081a0:	edd4 6a43 	vldr	s13, [r4, #268]	@ 0x10c
 80081a4:	ee35 5b0c 	vadd.f64	d5, d5, d12
 80081a8:	ed94 ca11 	vldr	s24, [r4, #68]	@ 0x44
 80081ac:	ee23 7aa6 	vmul.f32	s14, s7, s13
 80081b0:	eeb7 5bc5 	vcvt.f32.f64	s10, d5
 80081b4:	eeb7 7ac7 	vcvt.f64.f32	d7, s14
 80081b8:	eeb1 5a45 	vneg.f32	s10, s10
 80081bc:	ee14 db07 	vnmls.f64	d13, d4, d7
 80081c0:	ed8d 5a25 	vstr	s10, [sp, #148]	@ 0x94
 80081c4:	f001 fcb4 	bl	8009b30 <SPE_sin_Hcbd8c48e05b139646178cc6f7987b8955b6ce985_cb4a8a449b4ada864625ee5a4355578a3aaf08ed>
 80081c8:	ed94 4a3a 	vldr	s8, [r4, #232]	@ 0xe8
 80081cc:	ed94 5a39 	vldr	s10, [r4, #228]	@ 0xe4
 80081d0:	ee2c ca00 	vmul.f32	s24, s24, s0
 80081d4:	ed94 7a37 	vldr	s14, [r4, #220]	@ 0xdc
 80081d8:	edd4 7a38 	vldr	s15, [r4, #224]	@ 0xe0
 80081dc:	ee67 6a05 	vmul.f32	s13, s14, s10
 80081e0:	ed94 aa6e 	vldr	s20, [r4, #440]	@ 0x1b8
 80081e4:	ee24 6a27 	vmul.f32	s12, s8, s15
 80081e8:	edd4 3a43 	vldr	s7, [r4, #268]	@ 0x10c
 80081ec:	ee65 7a27 	vmul.f32	s15, s10, s15
 80081f0:	ed94 0a82 	vldr	s0, [r4, #520]	@ 0x208
 80081f4:	ee24 7a07 	vmul.f32	s14, s8, s14
 80081f8:	ee36 6a66 	vsub.f32	s12, s12, s13
 80081fc:	edd4 6a42 	vldr	s13, [r4, #264]	@ 0x108
 8008200:	eeb7 4ac4 	vcvt.f64.f32	d4, s8
 8008204:	ee37 7a27 	vadd.f32	s14, s14, s15
 8008208:	ee6a 3a23 	vmul.f32	s7, s20, s7
 800820c:	eeb7 5ac5 	vcvt.f64.f32	d5, s10
 8008210:	eeb7 7ac7 	vcvt.f64.f32	d7, s14
 8008214:	ee2a aa26 	vmul.f32	s20, s20, s13
 8008218:	eeb7 6ac6 	vcvt.f64.f32	d6, s12
 800821c:	ee04 7b09 	vmla.f64	d7, d4, d9
 8008220:	ee05 6b0b 	vmla.f64	d6, d5, d11
 8008224:	eeb7 aaca 	vcvt.f64.f32	d10, s20
 8008228:	eeb7 cacc 	vcvt.f64.f32	d12, s24
 800822c:	ee27 ab0a 	vmul.f64	d10, d7, d10
 8008230:	ee36 6b08 	vadd.f64	d6, d6, d8
 8008234:	eeb7 7ae3 	vcvt.f64.f32	d7, s7
 8008238:	ee2c cb0d 	vmul.f64	d12, d12, d13
 800823c:	ed94 da11 	vldr	s26, [r4, #68]	@ 0x44
 8008240:	ee06 ab07 	vmla.f64	d10, d6, d7
 8008244:	f001 fc76 	bl	8009b34 <SPE_cos_Hcbd8c48e05b139646178cc6f7987b8955b6ce985_cb4a8a449b4ada864625ee5a4355578a3aaf08ed>
 8008248:	edd4 da18 	vldr	s27, [r4, #96]	@ 0x60
 800824c:	eeb0 6a40 	vmov.f32	s12, s0
 8008250:	ed94 0a82 	vldr	s0, [r4, #520]	@ 0x208
 8008254:	ee2d 6a06 	vmul.f32	s12, s26, s12
 8008258:	eeb7 6ac6 	vcvt.f64.f32	d6, s12
 800825c:	ee06 cb4a 	vmls.f64	d12, d6, d10
 8008260:	f001 fc66 	bl	8009b30 <SPE_sin_Hcbd8c48e05b139646178cc6f7987b8955b6ce985_cb4a8a449b4ada864625ee5a4355578a3aaf08ed>
 8008264:	edd4 7a3a 	vldr	s15, [r4, #232]	@ 0xe8
 8008268:	ed94 6a38 	vldr	s12, [r4, #224]	@ 0xe0
 800826c:	ed94 aa39 	vldr	s20, [r4, #228]	@ 0xe4
 8008270:	edd4 6a37 	vldr	s13, [r4, #220]	@ 0xdc
 8008274:	eeb7 4ae7 	vcvt.f64.f32	d4, s15
 8008278:	ee2a aa06 	vmul.f32	s20, s20, s12
 800827c:	ed94 5a6e 	vldr	s10, [r4, #440]	@ 0x1b8
 8008280:	ee67 6aa6 	vmul.f32	s13, s15, s13
 8008284:	ed94 da18 	vldr	s26, [r4, #96]	@ 0x60
 8008288:	eeb7 5ac5 	vcvt.f64.f32	d5, s10
 800828c:	ee2d 7a80 	vmul.f32	s14, s27, s0
 8008290:	ed94 0a82 	vldr	s0, [r4, #520]	@ 0x208
 8008294:	ee3a aa26 	vadd.f32	s20, s20, s13
 8008298:	eeb7 7ac7 	vcvt.f64.f32	d7, s14
 800829c:	eeb7 aaca 	vcvt.f64.f32	d10, s20
 80082a0:	ee04 ab09 	vmla.f64	d10, d4, d9
 80082a4:	ee2a ab05 	vmul.f64	d10, d10, d5
 80082a8:	ee2a ab07 	vmul.f64	d10, d10, d7
 80082ac:	f001 fc42 	bl	8009b34 <SPE_cos_Hcbd8c48e05b139646178cc6f7987b8955b6ce985_cb4a8a449b4ada864625ee5a4355578a3aaf08ed>
 80082b0:	ed94 5a39 	vldr	s10, [r4, #228]	@ 0xe4
 80082b4:	edd4 6a38 	vldr	s13, [r4, #224]	@ 0xe0
 80082b8:	ed94 7a3a 	vldr	s14, [r4, #232]	@ 0xe8
 80082bc:	ee2d 6a00 	vmul.f32	s12, s26, s0
 80082c0:	edd4 7a37 	vldr	s15, [r4, #220]	@ 0xdc
 80082c4:	ee27 7a26 	vmul.f32	s14, s14, s13
 80082c8:	ed94 0a6e 	vldr	s0, [r4, #440]	@ 0x1b8
 80082cc:	ee65 7a27 	vmul.f32	s15, s10, s15
 80082d0:	eeb7 5ac5 	vcvt.f64.f32	d5, s10
 80082d4:	eeb7 6ac6 	vcvt.f64.f32	d6, s12
 80082d8:	ee37 7a67 	vsub.f32	s14, s14, s15
 80082dc:	eeb7 7ac7 	vcvt.f64.f32	d7, s14
 80082e0:	ee05 7b0b 	vmla.f64	d7, d5, d11
 80082e4:	eeb7 5ac0 	vcvt.f64.f32	d5, s0
 80082e8:	ee37 7b08 	vadd.f64	d7, d7, d8
 80082ec:	ee27 7b05 	vmul.f64	d7, d7, d5
 80082f0:	edd4 5a5c 	vldr	s11, [r4, #368]	@ 0x170
 80082f4:	eeb7 eae5 	vcvt.f64.f32	d14, s11
 80082f8:	ee07 ab46 	vmls.f64	d10, d7, d6
 80082fc:	f001 fbfc 	bl	8009af8 <SPE_ipowSquare_Hcbd8c48e05b139646178cc6f7987b8955b6ce985_cb4a8a449b4ada864625ee5a4355578a3aaf08ed>
 8008300:	eeb0 7a40 	vmov.f32	s14, s0
 8008304:	ed94 0a82 	vldr	s0, [r4, #520]	@ 0x208
 8008308:	eeb7 7ac7 	vcvt.f64.f32	d7, s14
 800830c:	ee2a eb0e 	vmul.f64	d14, d10, d14
 8008310:	edd4 aa18 	vldr	s21, [r4, #96]	@ 0x60
 8008314:	ee8e db07 	vdiv.f64	d13, d14, d7
 8008318:	f001 fc0c 	bl	8009b34 <SPE_cos_Hcbd8c48e05b139646178cc6f7987b8955b6ce985_cb4a8a449b4ada864625ee5a4355578a3aaf08ed>
 800831c:	edd4 7a3a 	vldr	s15, [r4, #232]	@ 0xe8
 8008320:	ed94 6a38 	vldr	s12, [r4, #224]	@ 0xe0
 8008324:	ed94 aa39 	vldr	s20, [r4, #228]	@ 0xe4
 8008328:	edd4 6a37 	vldr	s13, [r4, #220]	@ 0xdc
 800832c:	eeb7 4ae7 	vcvt.f64.f32	d4, s15
 8008330:	ee2a aa06 	vmul.f32	s20, s20, s12
 8008334:	ed94 5a6e 	vldr	s10, [r4, #440]	@ 0x1b8
 8008338:	ee67 6aa6 	vmul.f32	s13, s15, s13
 800833c:	ee2a 7a80 	vmul.f32	s14, s21, s0
 8008340:	ed94 0a82 	vldr	s0, [r4, #520]	@ 0x208
 8008344:	eeb7 5ac5 	vcvt.f64.f32	d5, s10
 8008348:	ee3a aa26 	vadd.f32	s20, s20, s13
 800834c:	eeb7 7ac7 	vcvt.f64.f32	d7, s14
 8008350:	eeb7 aaca 	vcvt.f64.f32	d10, s20
 8008354:	ee04 ab09 	vmla.f64	d10, d4, d9
 8008358:	ee2a ab05 	vmul.f64	d10, d10, d5
 800835c:	ee3d db0c 	vadd.f64	d13, d13, d12
 8008360:	ed94 ca18 	vldr	s24, [r4, #96]	@ 0x60
 8008364:	ee2a ab07 	vmul.f64	d10, d10, d7
 8008368:	f001 fbe2 	bl	8009b30 <SPE_sin_Hcbd8c48e05b139646178cc6f7987b8955b6ce985_cb4a8a449b4ada864625ee5a4355578a3aaf08ed>
 800836c:	ed94 5a39 	vldr	s10, [r4, #228]	@ 0xe4
 8008370:	edd4 6a38 	vldr	s13, [r4, #224]	@ 0xe0
 8008374:	ed94 7a3a 	vldr	s14, [r4, #232]	@ 0xe8
 8008378:	ee2c 6a00 	vmul.f32	s12, s24, s0
 800837c:	edd4 7a37 	vldr	s15, [r4, #220]	@ 0xdc
 8008380:	ee27 7a26 	vmul.f32	s14, s14, s13
 8008384:	ed94 0a6e 	vldr	s0, [r4, #440]	@ 0x1b8
 8008388:	ee65 7a27 	vmul.f32	s15, s10, s15
 800838c:	eeb7 5ac5 	vcvt.f64.f32	d5, s10
 8008390:	eeb7 6ac6 	vcvt.f64.f32	d6, s12
 8008394:	ee37 7a67 	vsub.f32	s14, s14, s15
 8008398:	eeb7 7ac7 	vcvt.f64.f32	d7, s14
 800839c:	ee05 7b0b 	vmla.f64	d7, d5, d11
 80083a0:	eeb7 5ac0 	vcvt.f64.f32	d5, s0
 80083a4:	ee37 7b08 	vadd.f64	d7, d7, d8
 80083a8:	ee27 7b05 	vmul.f64	d7, d7, d5
 80083ac:	edd4 5a58 	vldr	s11, [r4, #352]	@ 0x160
 80083b0:	ee07 ab06 	vmla.f64	d10, d7, d6
 80083b4:	eeb7 7ae5 	vcvt.f64.f32	d7, s11
 80083b8:	ee2a ab07 	vmul.f64	d10, d10, d7
 80083bc:	f001 fb9c 	bl	8009af8 <SPE_ipowSquare_Hcbd8c48e05b139646178cc6f7987b8955b6ce985_cb4a8a449b4ada864625ee5a4355578a3aaf08ed>
 80083c0:	ed94 2a3a 	vldr	s4, [r4, #232]	@ 0xe8
 80083c4:	ed94 4a39 	vldr	s8, [r4, #228]	@ 0xe4
 80083c8:	eeb7 0ac0 	vcvt.f64.f32	d0, s0
 80083cc:	edd4 6a37 	vldr	s13, [r4, #220]	@ 0xdc
 80083d0:	edd4 7a38 	vldr	s15, [r4, #224]	@ 0xe0
 80083d4:	ee22 5a26 	vmul.f32	s10, s4, s13
 80083d8:	ed94 7a6e 	vldr	s14, [r4, #440]	@ 0x1b8
 80083dc:	ee8a 3b00 	vdiv.f64	d3, d10, d0
 80083e0:	ed94 0a82 	vldr	s0, [r4, #520]	@ 0x208
 80083e4:	ed94 ca11 	vldr	s24, [r4, #68]	@ 0x44
 80083e8:	ee24 6a27 	vmul.f32	s12, s8, s15
 80083ec:	ee66 6a84 	vmul.f32	s13, s13, s8
 80083f0:	ee62 7a27 	vmul.f32	s15, s4, s15
 80083f4:	ee35 5a06 	vadd.f32	s10, s10, s12
 80083f8:	eeb7 2ac2 	vcvt.f64.f32	d2, s4
 80083fc:	ee77 7ae6 	vsub.f32	s15, s15, s13
 8008400:	eeb7 5ac5 	vcvt.f64.f32	d5, s10
 8008404:	eeb7 4ac4 	vcvt.f64.f32	d4, s8
 8008408:	eeb7 6ae7 	vcvt.f64.f32	d6, s15
 800840c:	edd4 7a43 	vldr	s15, [r4, #268]	@ 0x10c
 8008410:	ee02 5b09 	vmla.f64	d5, d2, d9
 8008414:	ee04 6b0b 	vmla.f64	d6, d4, d11
 8008418:	ee27 4a27 	vmul.f32	s8, s14, s15
 800841c:	edd4 7a42 	vldr	s15, [r4, #264]	@ 0x108
 8008420:	ee27 7a27 	vmul.f32	s14, s14, s15
 8008424:	eeb7 4ac4 	vcvt.f64.f32	d4, s8
 8008428:	eeb7 7ac7 	vcvt.f64.f32	d7, s14
 800842c:	ee36 6b08 	vadd.f64	d6, d6, d8
 8008430:	ee3d db43 	vsub.f64	d13, d13, d3
 8008434:	eeb7 dbcd 	vcvt.f32.f64	s26, d13
 8008438:	ed8d da2a 	vstr	s26, [sp, #168]	@ 0xa8
 800843c:	ee25 db07 	vmul.f64	d13, d5, d7
 8008440:	ee06 db04 	vmla.f64	d13, d6, d4
 8008444:	f001 fb74 	bl	8009b30 <SPE_sin_Hcbd8c48e05b139646178cc6f7987b8955b6ce985_cb4a8a449b4ada864625ee5a4355578a3aaf08ed>
 8008448:	ed94 4a3a 	vldr	s8, [r4, #232]	@ 0xe8
 800844c:	ed94 3a39 	vldr	s6, [r4, #228]	@ 0xe4
 8008450:	edd4 7a37 	vldr	s15, [r4, #220]	@ 0xdc
 8008454:	ed94 aa38 	vldr	s20, [r4, #224]	@ 0xe0
 8008458:	ee2c ca00 	vmul.f32	s24, s24, s0
 800845c:	ee24 7a27 	vmul.f32	s14, s8, s15
 8008460:	ed94 6a6e 	vldr	s12, [r4, #440]	@ 0x1b8
 8008464:	ee63 6a0a 	vmul.f32	s13, s6, s20
 8008468:	ed94 5a42 	vldr	s10, [r4, #264]	@ 0x108
 800846c:	ee67 7a83 	vmul.f32	s15, s15, s6
 8008470:	ed94 0a82 	vldr	s0, [r4, #520]	@ 0x208
 8008474:	ee24 aa0a 	vmul.f32	s20, s8, s20
 8008478:	eeb7 3ac3 	vcvt.f64.f32	d3, s6
 800847c:	ee37 7a26 	vadd.f32	s14, s14, s13
 8008480:	edd4 6a43 	vldr	s13, [r4, #268]	@ 0x10c
 8008484:	ee3a aa67 	vsub.f32	s20, s20, s15
 8008488:	eeb7 4ac4 	vcvt.f64.f32	d4, s8
 800848c:	eeb7 7ac7 	vcvt.f64.f32	d7, s14
 8008490:	eeb7 aaca 	vcvt.f64.f32	d10, s20
 8008494:	ee26 5a05 	vmul.f32	s10, s12, s10
 8008498:	ee04 7b09 	vmla.f64	d7, d4, d9
 800849c:	ee03 ab0b 	vmla.f64	d10, d3, d11
 80084a0:	eeb7 5ac5 	vcvt.f64.f32	d5, s10
 80084a4:	ee26 6a26 	vmul.f32	s12, s12, s13
 80084a8:	eeb7 cacc 	vcvt.f64.f32	d12, s24
 80084ac:	eeb7 6ac6 	vcvt.f64.f32	d6, s12
 80084b0:	ee2c cb0d 	vmul.f64	d12, d12, d13
 80084b4:	ed94 da11 	vldr	s26, [r4, #68]	@ 0x44
 80084b8:	ee3a ab08 	vadd.f64	d10, d10, d8
 80084bc:	ee2a ab05 	vmul.f64	d10, d10, d5
 80084c0:	ee17 ab06 	vnmls.f64	d10, d7, d6
 80084c4:	f001 fb36 	bl	8009b34 <SPE_cos_Hcbd8c48e05b139646178cc6f7987b8955b6ce985_cb4a8a449b4ada864625ee5a4355578a3aaf08ed>
 80084c8:	edd4 da18 	vldr	s27, [r4, #96]	@ 0x60
 80084cc:	eeb0 6a40 	vmov.f32	s12, s0
 80084d0:	ed94 0a82 	vldr	s0, [r4, #520]	@ 0x208
 80084d4:	ee2d 6a06 	vmul.f32	s12, s26, s12
 80084d8:	eeb7 6ac6 	vcvt.f64.f32	d6, s12
 80084dc:	ee06 cb0a 	vmla.f64	d12, d6, d10
 80084e0:	f001 fb26 	bl	8009b30 <SPE_sin_Hcbd8c48e05b139646178cc6f7987b8955b6ce985_cb4a8a449b4ada864625ee5a4355578a3aaf08ed>
 80084e4:	edd4 7a3a 	vldr	s15, [r4, #232]	@ 0xe8
 80084e8:	ed94 6a38 	vldr	s12, [r4, #224]	@ 0xe0
 80084ec:	ed94 aa39 	vldr	s20, [r4, #228]	@ 0xe4
 80084f0:	edd4 6a37 	vldr	s13, [r4, #220]	@ 0xdc
 80084f4:	eeb7 4ae7 	vcvt.f64.f32	d4, s15
 80084f8:	ee2a aa06 	vmul.f32	s20, s20, s12
 80084fc:	ed94 5a6e 	vldr	s10, [r4, #440]	@ 0x1b8
 8008500:	ee67 6aa6 	vmul.f32	s13, s15, s13
 8008504:	ed94 da18 	vldr	s26, [r4, #96]	@ 0x60
 8008508:	eeb7 5ac5 	vcvt.f64.f32	d5, s10
 800850c:	ee2d 7a80 	vmul.f32	s14, s27, s0
 8008510:	ed94 0a82 	vldr	s0, [r4, #520]	@ 0x208
 8008514:	ee3a aa26 	vadd.f32	s20, s20, s13
 8008518:	eeb7 7ac7 	vcvt.f64.f32	d7, s14
 800851c:	eeb7 aaca 	vcvt.f64.f32	d10, s20
 8008520:	ee04 ab09 	vmla.f64	d10, d4, d9
 8008524:	ee2a ab05 	vmul.f64	d10, d10, d5
 8008528:	ee2a ab07 	vmul.f64	d10, d10, d7
 800852c:	f001 fb02 	bl	8009b34 <SPE_cos_Hcbd8c48e05b139646178cc6f7987b8955b6ce985_cb4a8a449b4ada864625ee5a4355578a3aaf08ed>
 8008530:	ed94 5a39 	vldr	s10, [r4, #228]	@ 0xe4
 8008534:	edd4 6a38 	vldr	s13, [r4, #224]	@ 0xe0
 8008538:	ed94 7a3a 	vldr	s14, [r4, #232]	@ 0xe8
 800853c:	ee2d 6a00 	vmul.f32	s12, s26, s0
 8008540:	edd4 7a37 	vldr	s15, [r4, #220]	@ 0xdc
 8008544:	ee27 7a26 	vmul.f32	s14, s14, s13
 8008548:	ed94 0a6e 	vldr	s0, [r4, #440]	@ 0x1b8
 800854c:	ee65 7a27 	vmul.f32	s15, s10, s15
 8008550:	eeb7 5ac5 	vcvt.f64.f32	d5, s10
 8008554:	eeb7 6ac6 	vcvt.f64.f32	d6, s12
 8008558:	ee37 7a67 	vsub.f32	s14, s14, s15
 800855c:	eeb7 7ac7 	vcvt.f64.f32	d7, s14
 8008560:	ee05 7b0b 	vmla.f64	d7, d5, d11
 8008564:	eeb7 5ac0 	vcvt.f64.f32	d5, s0
 8008568:	ee37 7b08 	vadd.f64	d7, d7, d8
 800856c:	ee27 7b05 	vmul.f64	d7, d7, d5
 8008570:	edd4 5a58 	vldr	s11, [r4, #352]	@ 0x160
 8008574:	eeb7 eae5 	vcvt.f64.f32	d14, s11
 8008578:	ee07 ab46 	vmls.f64	d10, d7, d6
 800857c:	f001 fabc 	bl	8009af8 <SPE_ipowSquare_Hcbd8c48e05b139646178cc6f7987b8955b6ce985_cb4a8a449b4ada864625ee5a4355578a3aaf08ed>
 8008580:	eeb0 7a40 	vmov.f32	s14, s0
 8008584:	ed94 0a82 	vldr	s0, [r4, #520]	@ 0x208
 8008588:	eeb7 7ac7 	vcvt.f64.f32	d7, s14
 800858c:	ee2a eb0e 	vmul.f64	d14, d10, d14
 8008590:	edd4 aa18 	vldr	s21, [r4, #96]	@ 0x60
 8008594:	ee8e db07 	vdiv.f64	d13, d14, d7
 8008598:	f001 facc 	bl	8009b34 <SPE_cos_Hcbd8c48e05b139646178cc6f7987b8955b6ce985_cb4a8a449b4ada864625ee5a4355578a3aaf08ed>
 800859c:	edd4 7a3a 	vldr	s15, [r4, #232]	@ 0xe8
 80085a0:	ed94 6a38 	vldr	s12, [r4, #224]	@ 0xe0
 80085a4:	ed94 aa39 	vldr	s20, [r4, #228]	@ 0xe4
 80085a8:	edd4 6a37 	vldr	s13, [r4, #220]	@ 0xdc
 80085ac:	eeb7 4ae7 	vcvt.f64.f32	d4, s15
 80085b0:	ee2a aa06 	vmul.f32	s20, s20, s12
 80085b4:	ed94 5a6e 	vldr	s10, [r4, #440]	@ 0x1b8
 80085b8:	ee67 6aa6 	vmul.f32	s13, s15, s13
 80085bc:	ed9f eafd 	vldr	s28, [pc, #1012]	@ 80089b4 <DoStep_Hcbd8c48e05b139646178cc6f7987b8955b6ce985_cb4a8a449b4ada864625ee5a4355578a3aaf08ed+0x1274>
 80085c0:	ee2a 7a80 	vmul.f32	s14, s21, s0
 80085c4:	ed94 0a82 	vldr	s0, [r4, #520]	@ 0x208
 80085c8:	eeb7 5ac5 	vcvt.f64.f32	d5, s10
 80085cc:	ee3a aa26 	vadd.f32	s20, s20, s13
 80085d0:	eeb7 7ac7 	vcvt.f64.f32	d7, s14
 80085d4:	eeb7 aaca 	vcvt.f64.f32	d10, s20
 80085d8:	ee04 ab09 	vmla.f64	d10, d4, d9
 80085dc:	ee2a ab05 	vmul.f64	d10, d10, d5
 80085e0:	ee3d db0c 	vadd.f64	d13, d13, d12
 80085e4:	ed94 ca18 	vldr	s24, [r4, #96]	@ 0x60
 80085e8:	ee2a ab07 	vmul.f64	d10, d10, d7
 80085ec:	f001 faa0 	bl	8009b30 <SPE_sin_Hcbd8c48e05b139646178cc6f7987b8955b6ce985_cb4a8a449b4ada864625ee5a4355578a3aaf08ed>
 80085f0:	ed94 5a39 	vldr	s10, [r4, #228]	@ 0xe4
 80085f4:	edd4 6a38 	vldr	s13, [r4, #224]	@ 0xe0
 80085f8:	ed94 7a3a 	vldr	s14, [r4, #232]	@ 0xe8
 80085fc:	ee2c 6a00 	vmul.f32	s12, s24, s0
 8008600:	edd4 7a37 	vldr	s15, [r4, #220]	@ 0xdc
 8008604:	ee27 7a26 	vmul.f32	s14, s14, s13
 8008608:	ed94 0a6e 	vldr	s0, [r4, #440]	@ 0x1b8
 800860c:	ee65 7a27 	vmul.f32	s15, s10, s15
 8008610:	eeb7 5ac5 	vcvt.f64.f32	d5, s10
 8008614:	eeb7 6ac6 	vcvt.f64.f32	d6, s12
 8008618:	ee37 7a67 	vsub.f32	s14, s14, s15
 800861c:	eeb7 7ac7 	vcvt.f64.f32	d7, s14
 8008620:	ee05 7b0b 	vmla.f64	d7, d5, d11
 8008624:	eeb7 5ac0 	vcvt.f64.f32	d5, s0
 8008628:	ee37 7b08 	vadd.f64	d7, d7, d8
 800862c:	ee27 7b05 	vmul.f64	d7, d7, d5
 8008630:	edd4 5a5b 	vldr	s11, [r4, #364]	@ 0x16c
 8008634:	ee07 ab06 	vmla.f64	d10, d7, d6
 8008638:	eeb7 7ae5 	vcvt.f64.f32	d7, s11
 800863c:	ee2a ab07 	vmul.f64	d10, d10, d7
 8008640:	f001 fa5a 	bl	8009af8 <SPE_ipowSquare_Hcbd8c48e05b139646178cc6f7987b8955b6ce985_cb4a8a449b4ada864625ee5a4355578a3aaf08ed>
 8008644:	ed94 7a3e 	vldr	s14, [r4, #248]	@ 0xf8
 8008648:	edd4 4a3b 	vldr	s9, [r4, #236]	@ 0xec
 800864c:	eeb7 0ac0 	vcvt.f64.f32	d0, s0
 8008650:	edd4 5a3d 	vldr	s11, [r4, #244]	@ 0xf4
 8008654:	eef1 6a47 	vneg.f32	s13, s14
 8008658:	ed94 5a3c 	vldr	s10, [r4, #240]	@ 0xf0
 800865c:	edcd 5a2f 	vstr	s11, [sp, #188]	@ 0xbc
 8008660:	edd4 7a6e 	vldr	s15, [r4, #440]	@ 0x1b8
 8008664:	edcd 6a2e 	vstr	s13, [sp, #184]	@ 0xb8
 8008668:	ee8a 6b00 	vdiv.f64	d6, d10, d0
 800866c:	ed94 0a82 	vldr	s0, [r4, #520]	@ 0x208
 8008670:	ed94 ca11 	vldr	s24, [r4, #68]	@ 0x44
 8008674:	ed8d ea2c 	vstr	s28, [sp, #176]	@ 0xb0
 8008678:	ee27 aa24 	vmul.f32	s20, s14, s9
 800867c:	ed8d ea2d 	vstr	s28, [sp, #180]	@ 0xb4
 8008680:	ee27 7a05 	vmul.f32	s14, s14, s10
 8008684:	ee25 5a85 	vmul.f32	s10, s11, s10
 8008688:	ee65 5aa4 	vmul.f32	s11, s11, s9
 800868c:	ee3a aa05 	vadd.f32	s20, s20, s10
 8008690:	ed94 5a43 	vldr	s10, [r4, #268]	@ 0x10c
 8008694:	ee37 7a65 	vsub.f32	s14, s14, s11
 8008698:	edd4 5a42 	vldr	s11, [r4, #264]	@ 0x108
 800869c:	ee27 5a85 	vmul.f32	s10, s15, s10
 80086a0:	ee67 5aa5 	vmul.f32	s11, s15, s11
 80086a4:	eeb7 7ac7 	vcvt.f64.f32	d7, s14
 80086a8:	ee2a aa05 	vmul.f32	s20, s20, s10
 80086ac:	ee37 7b08 	vadd.f64	d7, d7, d8
 80086b0:	eeb7 aaca 	vcvt.f64.f32	d10, s20
 80086b4:	ee36 6b0d 	vadd.f64	d6, d6, d13
 80086b8:	eeb7 6bc6 	vcvt.f32.f64	s12, d6
 80086bc:	eeb1 6a46 	vneg.f32	s12, s12
 80086c0:	ed8d 6a2b 	vstr	s12, [sp, #172]	@ 0xac
 80086c4:	eeb7 6ae5 	vcvt.f64.f32	d6, s11
 80086c8:	ee07 ab46 	vmls.f64	d10, d7, d6
 80086cc:	f001 fa32 	bl	8009b34 <SPE_cos_Hcbd8c48e05b139646178cc6f7987b8955b6ce985_cb4a8a449b4ada864625ee5a4355578a3aaf08ed>
 80086d0:	edd4 5a3b 	vldr	s11, [r4, #236]	@ 0xec
 80086d4:	ed94 7a3e 	vldr	s14, [r4, #248]	@ 0xf8
 80086d8:	edd4 7a3c 	vldr	s15, [r4, #240]	@ 0xf0
 80086dc:	edd4 6a3d 	vldr	s13, [r4, #244]	@ 0xf4
 80086e0:	ee2c ca00 	vmul.f32	s24, s24, s0
 80086e4:	ee27 5a27 	vmul.f32	s10, s14, s15
 80086e8:	ed94 6a6e 	vldr	s12, [r4, #440]	@ 0x1b8
 80086ec:	ee67 7aa6 	vmul.f32	s15, s15, s13
 80086f0:	ed94 0a82 	vldr	s0, [r4, #520]	@ 0x208
 80086f4:	ee27 7a25 	vmul.f32	s14, s14, s11
 80086f8:	ed94 da11 	vldr	s26, [r4, #68]	@ 0x44
 80086fc:	ee66 6aa5 	vmul.f32	s13, s13, s11
 8008700:	eeb7 cacc 	vcvt.f64.f32	d12, s24
 8008704:	ee37 7a27 	vadd.f32	s14, s14, s15
 8008708:	edd4 7a42 	vldr	s15, [r4, #264]	@ 0x108
 800870c:	ee35 5a66 	vsub.f32	s10, s10, s13
 8008710:	edd4 6a43 	vldr	s13, [r4, #268]	@ 0x10c
 8008714:	ee66 7a27 	vmul.f32	s15, s12, s15
 8008718:	ee26 6a26 	vmul.f32	s12, s12, s13
 800871c:	eeb7 5ac5 	vcvt.f64.f32	d5, s10
 8008720:	ee27 7a27 	vmul.f32	s14, s14, s15
 8008724:	eeb7 6ac6 	vcvt.f64.f32	d6, s12
 8008728:	ee35 5b08 	vadd.f64	d5, d5, d8
 800872c:	ee2c cb0a 	vmul.f64	d12, d12, d10
 8008730:	eeb7 aac7 	vcvt.f64.f32	d10, s14
 8008734:	ee05 ab06 	vmla.f64	d10, d5, d6
 8008738:	f001 f9fa 	bl	8009b30 <SPE_sin_Hcbd8c48e05b139646178cc6f7987b8955b6ce985_cb4a8a449b4ada864625ee5a4355578a3aaf08ed>
 800873c:	edd4 da18 	vldr	s27, [r4, #96]	@ 0x60
 8008740:	eeb0 7a40 	vmov.f32	s14, s0
 8008744:	ed94 0a82 	vldr	s0, [r4, #520]	@ 0x208
 8008748:	ee2d 7a07 	vmul.f32	s14, s26, s14
 800874c:	eeb7 7ac7 	vcvt.f64.f32	d7, s14
 8008750:	ee07 cb0a 	vmla.f64	d12, d7, d10
 8008754:	f001 f9ec 	bl	8009b30 <SPE_sin_Hcbd8c48e05b139646178cc6f7987b8955b6ce985_cb4a8a449b4ada864625ee5a4355578a3aaf08ed>
 8008758:	ed94 7a3c 	vldr	s14, [r4, #240]	@ 0xf0
 800875c:	edd4 7a3b 	vldr	s15, [r4, #236]	@ 0xec
 8008760:	ed94 da3e 	vldr	s26, [r4, #248]	@ 0xf8
 8008764:	edd4 5a3d 	vldr	s11, [r4, #244]	@ 0xf4
 8008768:	ee2d da07 	vmul.f32	s26, s26, s14
 800876c:	ed94 6a6e 	vldr	s12, [r4, #440]	@ 0x1b8
 8008770:	ee65 5aa7 	vmul.f32	s11, s11, s15
 8008774:	edd4 aa18 	vldr	s21, [r4, #96]	@ 0x60
 8008778:	ee2d 7a80 	vmul.f32	s14, s27, s0
 800877c:	ed94 0a82 	vldr	s0, [r4, #520]	@ 0x208
 8008780:	eeb7 6ac6 	vcvt.f64.f32	d6, s12
 8008784:	ee3d da65 	vsub.f32	s26, s26, s11
 8008788:	eeb7 7ac7 	vcvt.f64.f32	d7, s14
 800878c:	eeb7 dacd 	vcvt.f64.f32	d13, s26
 8008790:	ee3d db08 	vadd.f64	d13, d13, d8
 8008794:	ee2d db06 	vmul.f64	d13, d13, d6
 8008798:	ee2d db07 	vmul.f64	d13, d13, d7
 800879c:	f001 f9ca 	bl	8009b34 <SPE_cos_Hcbd8c48e05b139646178cc6f7987b8955b6ce985_cb4a8a449b4ada864625ee5a4355578a3aaf08ed>
 80087a0:	edd4 6a3b 	vldr	s13, [r4, #236]	@ 0xec
 80087a4:	edd4 7a3d 	vldr	s15, [r4, #244]	@ 0xf4
 80087a8:	ed94 7a3c 	vldr	s14, [r4, #240]	@ 0xf0
 80087ac:	ed94 aa3e 	vldr	s20, [r4, #248]	@ 0xf8
 80087b0:	ee27 6a87 	vmul.f32	s12, s15, s14
 80087b4:	edd4 5a6e 	vldr	s11, [r4, #440]	@ 0x1b8
 80087b8:	ee2a aa26 	vmul.f32	s20, s20, s13
 80087bc:	ed94 7a5c 	vldr	s14, [r4, #368]	@ 0x170
 80087c0:	ee6a 6a80 	vmul.f32	s13, s21, s0
 80087c4:	eeb7 7ac7 	vcvt.f64.f32	d7, s14
 80087c8:	ee3a aa06 	vadd.f32	s20, s20, s12
 80087cc:	eeb0 0a65 	vmov.f32	s0, s11
 80087d0:	ee2a aa25 	vmul.f32	s20, s20, s11
 80087d4:	ee2a aa26 	vmul.f32	s20, s20, s13
 80087d8:	eeb7 aaca 	vcvt.f64.f32	d10, s20
 80087dc:	ee3a ab0d 	vadd.f64	d10, d10, d13
 80087e0:	ee2a ab07 	vmul.f64	d10, d10, d7
 80087e4:	f001 f988 	bl	8009af8 <SPE_ipowSquare_Hcbd8c48e05b139646178cc6f7987b8955b6ce985_cb4a8a449b4ada864625ee5a4355578a3aaf08ed>
 80087e8:	edd4 ea18 	vldr	s29, [r4, #96]	@ 0x60
 80087ec:	eeb0 7a40 	vmov.f32	s14, s0
 80087f0:	ed94 0a82 	vldr	s0, [r4, #520]	@ 0x208
 80087f4:	eeb7 7ac7 	vcvt.f64.f32	d7, s14
 80087f8:	ee8a db07 	vdiv.f64	d13, d10, d7
 80087fc:	f001 f99a 	bl	8009b34 <SPE_cos_Hcbd8c48e05b139646178cc6f7987b8955b6ce985_cb4a8a449b4ada864625ee5a4355578a3aaf08ed>
 8008800:	ed94 7a3c 	vldr	s14, [r4, #240]	@ 0xf0
 8008804:	edd4 7a3b 	vldr	s15, [r4, #236]	@ 0xec
 8008808:	ed94 aa3e 	vldr	s20, [r4, #248]	@ 0xf8
 800880c:	edd4 5a3d 	vldr	s11, [r4, #244]	@ 0xf4
 8008810:	ee2a aa07 	vmul.f32	s20, s20, s14
 8008814:	ed94 6a6e 	vldr	s12, [r4, #440]	@ 0x1b8
 8008818:	ee65 5aa7 	vmul.f32	s11, s11, s15
 800881c:	eeb7 6ac6 	vcvt.f64.f32	d6, s12
 8008820:	ee2e 7a80 	vmul.f32	s14, s29, s0
 8008824:	ed94 0a82 	vldr	s0, [r4, #520]	@ 0x208
 8008828:	ee3a aa65 	vsub.f32	s20, s20, s11
 800882c:	eeb7 7ac7 	vcvt.f64.f32	d7, s14
 8008830:	eeb7 aaca 	vcvt.f64.f32	d10, s20
 8008834:	ee3a ab08 	vadd.f64	d10, d10, d8
 8008838:	ee2a ab06 	vmul.f64	d10, d10, d6
 800883c:	ee2a ab07 	vmul.f64	d10, d10, d7
 8008840:	ee3d db0c 	vadd.f64	d13, d13, d12
 8008844:	ed94 ca18 	vldr	s24, [r4, #96]	@ 0x60
 8008848:	f001 f972 	bl	8009b30 <SPE_sin_Hcbd8c48e05b139646178cc6f7987b8955b6ce985_cb4a8a449b4ada864625ee5a4355578a3aaf08ed>
 800884c:	edd4 7a3b 	vldr	s15, [r4, #236]	@ 0xec
 8008850:	edd4 6a3d 	vldr	s13, [r4, #244]	@ 0xf4
 8008854:	ed94 6a3c 	vldr	s12, [r4, #240]	@ 0xf0
 8008858:	ed94 7a3e 	vldr	s14, [r4, #248]	@ 0xf8
 800885c:	ee66 5a86 	vmul.f32	s11, s13, s12
 8008860:	ed94 5a6e 	vldr	s10, [r4, #440]	@ 0x1b8
 8008864:	ee27 7a27 	vmul.f32	s14, s14, s15
 8008868:	ed94 6a58 	vldr	s12, [r4, #352]	@ 0x160
 800886c:	ee6c 7a00 	vmul.f32	s15, s24, s0
 8008870:	eeb7 6ac6 	vcvt.f64.f32	d6, s12
 8008874:	ee37 7a25 	vadd.f32	s14, s14, s11
 8008878:	eeb0 0a45 	vmov.f32	s0, s10
 800887c:	ee27 7a05 	vmul.f32	s14, s14, s10
 8008880:	ee27 7a27 	vmul.f32	s14, s14, s15
 8008884:	eeb7 7ac7 	vcvt.f64.f32	d7, s14
 8008888:	ee3a ab47 	vsub.f64	d10, d10, d7
 800888c:	ee2a ab06 	vmul.f64	d10, d10, d6
 8008890:	f001 f932 	bl	8009af8 <SPE_ipowSquare_Hcbd8c48e05b139646178cc6f7987b8955b6ce985_cb4a8a449b4ada864625ee5a4355578a3aaf08ed>
 8008894:	edd4 4a3d 	vldr	s9, [r4, #244]	@ 0xf4
 8008898:	ed94 7a3e 	vldr	s14, [r4, #248]	@ 0xf8
 800889c:	eeb7 0ac0 	vcvt.f64.f32	d0, s0
 80088a0:	edd4 7a3b 	vldr	s15, [r4, #236]	@ 0xec
 80088a4:	edd4 6a3c 	vldr	s13, [r4, #240]	@ 0xf0
 80088a8:	ed94 6a6e 	vldr	s12, [r4, #440]	@ 0x1b8
 80088ac:	ee8a 5b00 	vdiv.f64	d5, d10, d0
 80088b0:	ed94 0a82 	vldr	s0, [r4, #520]	@ 0x208
 80088b4:	ed94 ca11 	vldr	s24, [r4, #68]	@ 0x44
 80088b8:	ee27 aa27 	vmul.f32	s20, s14, s15
 80088bc:	ee27 7a26 	vmul.f32	s14, s14, s13
 80088c0:	ee64 6aa6 	vmul.f32	s13, s9, s13
 80088c4:	ee67 7aa4 	vmul.f32	s15, s15, s9
 80088c8:	ee3a aa26 	vadd.f32	s20, s20, s13
 80088cc:	edd4 6a43 	vldr	s13, [r4, #268]	@ 0x10c
 80088d0:	ee37 7a67 	vsub.f32	s14, s14, s15
 80088d4:	edd4 7a42 	vldr	s15, [r4, #264]	@ 0x108
 80088d8:	ee66 6a26 	vmul.f32	s13, s12, s13
 80088dc:	ee26 6a27 	vmul.f32	s12, s12, s15
 80088e0:	eeb7 7ac7 	vcvt.f64.f32	d7, s14
 80088e4:	ee2a aa26 	vmul.f32	s20, s20, s13
 80088e8:	eeb7 6ac6 	vcvt.f64.f32	d6, s12
 80088ec:	ee37 7b08 	vadd.f64	d7, d7, d8
 80088f0:	eeb7 aaca 	vcvt.f64.f32	d10, s20
 80088f4:	ee07 ab46 	vmls.f64	d10, d7, d6
 80088f8:	ee3d db45 	vsub.f64	d13, d13, d5
 80088fc:	eeb7 dbcd 	vcvt.f32.f64	s26, d13
 8008900:	ed8d da30 	vstr	s26, [sp, #192]	@ 0xc0
 8008904:	f001 f914 	bl	8009b30 <SPE_sin_Hcbd8c48e05b139646178cc6f7987b8955b6ce985_cb4a8a449b4ada864625ee5a4355578a3aaf08ed>
 8008908:	edd4 5a3b 	vldr	s11, [r4, #236]	@ 0xec
 800890c:	ee2c ca00 	vmul.f32	s24, s24, s0
 8008910:	ed94 7a3e 	vldr	s14, [r4, #248]	@ 0xf8
 8008914:	edd4 7a3c 	vldr	s15, [r4, #240]	@ 0xf0
 8008918:	edd4 6a3d 	vldr	s13, [r4, #244]	@ 0xf4
 800891c:	eeb7 cacc 	vcvt.f64.f32	d12, s24
 8008920:	ee27 5a27 	vmul.f32	s10, s14, s15
 8008924:	ed94 6a6e 	vldr	s12, [r4, #440]	@ 0x1b8
 8008928:	ee67 7aa6 	vmul.f32	s15, s15, s13
 800892c:	ed94 0a82 	vldr	s0, [r4, #520]	@ 0x208
 8008930:	ee27 7a25 	vmul.f32	s14, s14, s11
 8008934:	ed94 da11 	vldr	s26, [r4, #68]	@ 0x44
 8008938:	ee66 6aa5 	vmul.f32	s13, s13, s11
 800893c:	ee2c cb0a 	vmul.f64	d12, d12, d10
 8008940:	ee37 7a27 	vadd.f32	s14, s14, s15
 8008944:	edd4 7a42 	vldr	s15, [r4, #264]	@ 0x108
 8008948:	ee35 5a66 	vsub.f32	s10, s10, s13
 800894c:	edd4 6a43 	vldr	s13, [r4, #268]	@ 0x10c
 8008950:	ee66 7a27 	vmul.f32	s15, s12, s15
 8008954:	ee26 6a26 	vmul.f32	s12, s12, s13
 8008958:	eeb7 5ac5 	vcvt.f64.f32	d5, s10
 800895c:	ee27 7a27 	vmul.f32	s14, s14, s15
 8008960:	eeb7 6ac6 	vcvt.f64.f32	d6, s12
 8008964:	ee35 5b08 	vadd.f64	d5, d5, d8
 8008968:	eeb7 aac7 	vcvt.f64.f32	d10, s14
 800896c:	ee05 ab06 	vmla.f64	d10, d5, d6
 8008970:	f001 f8e0 	bl	8009b34 <SPE_cos_Hcbd8c48e05b139646178cc6f7987b8955b6ce985_cb4a8a449b4ada864625ee5a4355578a3aaf08ed>
 8008974:	edd4 da18 	vldr	s27, [r4, #96]	@ 0x60
 8008978:	eeb0 7a40 	vmov.f32	s14, s0
 800897c:	ed94 0a82 	vldr	s0, [r4, #520]	@ 0x208
 8008980:	ee2d 7a07 	vmul.f32	s14, s26, s14
 8008984:	eeb7 7ac7 	vcvt.f64.f32	d7, s14
 8008988:	ee07 cb4a 	vmls.f64	d12, d7, d10
 800898c:	f001 f8d0 	bl	8009b30 <SPE_sin_Hcbd8c48e05b139646178cc6f7987b8955b6ce985_cb4a8a449b4ada864625ee5a4355578a3aaf08ed>
 8008990:	ed94 7a3c 	vldr	s14, [r4, #240]	@ 0xf0
 8008994:	edd4 7a3b 	vldr	s15, [r4, #236]	@ 0xec
 8008998:	ed94 da3e 	vldr	s26, [r4, #248]	@ 0xf8
 800899c:	edd4 5a3d 	vldr	s11, [r4, #244]	@ 0xf4
 80089a0:	ee2d da07 	vmul.f32	s26, s26, s14
 80089a4:	ed94 6a6e 	vldr	s12, [r4, #440]	@ 0x1b8
 80089a8:	ee65 5aa7 	vmul.f32	s11, s11, s15
 80089ac:	edd4 aa18 	vldr	s21, [r4, #96]	@ 0x60
 80089b0:	e002      	b.n	80089b8 <DoStep_Hcbd8c48e05b139646178cc6f7987b8955b6ce985_cb4a8a449b4ada864625ee5a4355578a3aaf08ed+0x1278>
 80089b2:	bf00      	nop
 80089b4:	00000000 	.word	0x00000000
 80089b8:	ee2d 7a80 	vmul.f32	s14, s27, s0
 80089bc:	ed94 0a82 	vldr	s0, [r4, #520]	@ 0x208
 80089c0:	eeb7 6ac6 	vcvt.f64.f32	d6, s12
 80089c4:	ee3d da65 	vsub.f32	s26, s26, s11
 80089c8:	eeb7 7ac7 	vcvt.f64.f32	d7, s14
 80089cc:	eeb7 dacd 	vcvt.f64.f32	d13, s26
 80089d0:	ee3d db08 	vadd.f64	d13, d13, d8
 80089d4:	ee2d db06 	vmul.f64	d13, d13, d6
 80089d8:	ee2d db07 	vmul.f64	d13, d13, d7
 80089dc:	f001 f8aa 	bl	8009b34 <SPE_cos_Hcbd8c48e05b139646178cc6f7987b8955b6ce985_cb4a8a449b4ada864625ee5a4355578a3aaf08ed>
 80089e0:	edd4 6a3b 	vldr	s13, [r4, #236]	@ 0xec
 80089e4:	edd4 7a3d 	vldr	s15, [r4, #244]	@ 0xf4
 80089e8:	ed94 7a3c 	vldr	s14, [r4, #240]	@ 0xf0
 80089ec:	ed94 aa3e 	vldr	s20, [r4, #248]	@ 0xf8
 80089f0:	ee27 6a87 	vmul.f32	s12, s15, s14
 80089f4:	edd4 5a6e 	vldr	s11, [r4, #440]	@ 0x1b8
 80089f8:	ee2a aa26 	vmul.f32	s20, s20, s13
 80089fc:	ed94 7a58 	vldr	s14, [r4, #352]	@ 0x160
 8008a00:	ee6a 6a80 	vmul.f32	s13, s21, s0
 8008a04:	eeb7 7ac7 	vcvt.f64.f32	d7, s14
 8008a08:	ee3a aa06 	vadd.f32	s20, s20, s12
 8008a0c:	eeb0 0a65 	vmov.f32	s0, s11
 8008a10:	ee2a aa25 	vmul.f32	s20, s20, s11
 8008a14:	ee2a aa26 	vmul.f32	s20, s20, s13
 8008a18:	eeb7 aaca 	vcvt.f64.f32	d10, s20
 8008a1c:	ee3a ab0d 	vadd.f64	d10, d10, d13
 8008a20:	ee2a ab07 	vmul.f64	d10, d10, d7
 8008a24:	f001 f868 	bl	8009af8 <SPE_ipowSquare_Hcbd8c48e05b139646178cc6f7987b8955b6ce985_cb4a8a449b4ada864625ee5a4355578a3aaf08ed>
 8008a28:	ed94 da18 	vldr	s26, [r4, #96]	@ 0x60
 8008a2c:	eeb0 7a40 	vmov.f32	s14, s0
 8008a30:	ed94 0a82 	vldr	s0, [r4, #520]	@ 0x208
 8008a34:	eeb7 7ac7 	vcvt.f64.f32	d7, s14
 8008a38:	ee8a 6b07 	vdiv.f64	d6, d10, d7
 8008a3c:	ee3c cb46 	vsub.f64	d12, d12, d6
 8008a40:	f001 f878 	bl	8009b34 <SPE_cos_Hcbd8c48e05b139646178cc6f7987b8955b6ce985_cb4a8a449b4ada864625ee5a4355578a3aaf08ed>
 8008a44:	ed94 7a3c 	vldr	s14, [r4, #240]	@ 0xf0
 8008a48:	edd4 7a3b 	vldr	s15, [r4, #236]	@ 0xec
 8008a4c:	ed94 aa3e 	vldr	s20, [r4, #248]	@ 0xf8
 8008a50:	edd4 5a3d 	vldr	s11, [r4, #244]	@ 0xf4
 8008a54:	ee2a aa07 	vmul.f32	s20, s20, s14
 8008a58:	ed94 6a6e 	vldr	s12, [r4, #440]	@ 0x1b8
 8008a5c:	ee65 5aa7 	vmul.f32	s11, s11, s15
 8008a60:	eeb7 6ac6 	vcvt.f64.f32	d6, s12
 8008a64:	ee2d 7a00 	vmul.f32	s14, s26, s0
 8008a68:	ed94 0a82 	vldr	s0, [r4, #520]	@ 0x208
 8008a6c:	ee3a aa65 	vsub.f32	s20, s20, s11
 8008a70:	ed94 da18 	vldr	s26, [r4, #96]	@ 0x60
 8008a74:	eeb7 7ac7 	vcvt.f64.f32	d7, s14
 8008a78:	eeb7 aaca 	vcvt.f64.f32	d10, s20
 8008a7c:	ee3a ab08 	vadd.f64	d10, d10, d8
 8008a80:	ee2a ab06 	vmul.f64	d10, d10, d6
 8008a84:	ee2a ab07 	vmul.f64	d10, d10, d7
 8008a88:	f001 f852 	bl	8009b30 <SPE_sin_Hcbd8c48e05b139646178cc6f7987b8955b6ce985_cb4a8a449b4ada864625ee5a4355578a3aaf08ed>
 8008a8c:	edd4 7a3b 	vldr	s15, [r4, #236]	@ 0xec
 8008a90:	edd4 6a3d 	vldr	s13, [r4, #244]	@ 0xf4
 8008a94:	ed94 6a3c 	vldr	s12, [r4, #240]	@ 0xf0
 8008a98:	ed94 7a3e 	vldr	s14, [r4, #248]	@ 0xf8
 8008a9c:	ee66 5a86 	vmul.f32	s11, s13, s12
 8008aa0:	ed94 5a6e 	vldr	s10, [r4, #440]	@ 0x1b8
 8008aa4:	ee27 7a27 	vmul.f32	s14, s14, s15
 8008aa8:	ed94 6a5b 	vldr	s12, [r4, #364]	@ 0x16c
 8008aac:	ee6d 7a00 	vmul.f32	s15, s26, s0
 8008ab0:	eeb7 6ac6 	vcvt.f64.f32	d6, s12
 8008ab4:	ee37 7a25 	vadd.f32	s14, s14, s11
 8008ab8:	eeb0 0a45 	vmov.f32	s0, s10
 8008abc:	ee27 7a05 	vmul.f32	s14, s14, s10
 8008ac0:	ee27 7a27 	vmul.f32	s14, s14, s15
 8008ac4:	eeb7 7ac7 	vcvt.f64.f32	d7, s14
 8008ac8:	ee3a ab47 	vsub.f64	d10, d10, d7
 8008acc:	ee2a ab06 	vmul.f64	d10, d10, d6
 8008ad0:	f001 f812 	bl	8009af8 <SPE_ipowSquare_Hcbd8c48e05b139646178cc6f7987b8955b6ce985_cb4a8a449b4ada864625ee5a4355578a3aaf08ed>
 8008ad4:	edd4 6a3d 	vldr	s13, [r4, #244]	@ 0xf4
 8008ad8:	edd4 7a3e 	vldr	s15, [r4, #248]	@ 0xf8
 8008adc:	eeb7 0ac0 	vcvt.f64.f32	d0, s0
 8008ae0:	edd4 4a3b 	vldr	s9, [r4, #236]	@ 0xec
 8008ae4:	eef1 5a66 	vneg.f32	s11, s13
 8008ae8:	ed94 7a3c 	vldr	s14, [r4, #240]	@ 0xf0
 8008aec:	ed94 6a6e 	vldr	s12, [r4, #440]	@ 0x1b8
 8008af0:	ed94 da11 	vldr	s26, [r4, #68]	@ 0x44
 8008af4:	edcd 5a34 	vstr	s11, [sp, #208]	@ 0xd0
 8008af8:	ee8a 5b00 	vdiv.f64	d5, d10, d0
 8008afc:	ed94 0a82 	vldr	s0, [r4, #520]	@ 0x208
 8008b00:	ed8d ea32 	vstr	s28, [sp, #200]	@ 0xc8
 8008b04:	ed8d ea33 	vstr	s28, [sp, #204]	@ 0xcc
 8008b08:	ee27 aaa4 	vmul.f32	s20, s15, s9
 8008b0c:	ee66 4aa4 	vmul.f32	s9, s13, s9
 8008b10:	ee66 6a87 	vmul.f32	s13, s13, s14
 8008b14:	ee27 7a87 	vmul.f32	s14, s15, s14
 8008b18:	eef1 7a67 	vneg.f32	s15, s15
 8008b1c:	ee3a aa26 	vadd.f32	s20, s20, s13
 8008b20:	edd4 6a43 	vldr	s13, [r4, #268]	@ 0x10c
 8008b24:	ee37 7a64 	vsub.f32	s14, s14, s9
 8008b28:	ee66 6a26 	vmul.f32	s13, s12, s13
 8008b2c:	edcd 7a35 	vstr	s15, [sp, #212]	@ 0xd4
 8008b30:	eeb7 7ac7 	vcvt.f64.f32	d7, s14
 8008b34:	ee2a aa26 	vmul.f32	s20, s20, s13
 8008b38:	edd4 6a42 	vldr	s13, [r4, #264]	@ 0x108
 8008b3c:	ee26 6a26 	vmul.f32	s12, s12, s13
 8008b40:	ee37 7b08 	vadd.f64	d7, d7, d8
 8008b44:	eeb7 aaca 	vcvt.f64.f32	d10, s20
 8008b48:	eeb7 6ac6 	vcvt.f64.f32	d6, s12
 8008b4c:	ee07 ab46 	vmls.f64	d10, d7, d6
 8008b50:	ee3c cb45 	vsub.f64	d12, d12, d5
 8008b54:	eeb7 cbcc 	vcvt.f32.f64	s24, d12
 8008b58:	ed8d ca31 	vstr	s24, [sp, #196]	@ 0xc4
 8008b5c:	f000 ffe8 	bl	8009b30 <SPE_sin_Hcbd8c48e05b139646178cc6f7987b8955b6ce985_cb4a8a449b4ada864625ee5a4355578a3aaf08ed>
 8008b60:	edd4 5a3b 	vldr	s11, [r4, #236]	@ 0xec
 8008b64:	ee2d da00 	vmul.f32	s26, s26, s0
 8008b68:	edd4 6a3c 	vldr	s13, [r4, #240]	@ 0xf0
 8008b6c:	ed94 7a3e 	vldr	s14, [r4, #248]	@ 0xf8
 8008b70:	edd4 7a3d 	vldr	s15, [r4, #244]	@ 0xf4
 8008b74:	eeb7 dacd 	vcvt.f64.f32	d13, s26
 8008b78:	ee27 6a26 	vmul.f32	s12, s14, s13
 8008b7c:	ed94 5a6e 	vldr	s10, [r4, #440]	@ 0x1b8
 8008b80:	ee65 4aa7 	vmul.f32	s9, s11, s15
 8008b84:	ed94 0a82 	vldr	s0, [r4, #520]	@ 0x208
 8008b88:	ee67 7aa6 	vmul.f32	s15, s15, s13
 8008b8c:	edd4 6a42 	vldr	s13, [r4, #264]	@ 0x108
 8008b90:	ee27 7a25 	vmul.f32	s14, s14, s11
 8008b94:	ed94 ca11 	vldr	s24, [r4, #68]	@ 0x44
 8008b98:	ee36 6a64 	vsub.f32	s12, s12, s9
 8008b9c:	ee2d db0a 	vmul.f64	d13, d13, d10
 8008ba0:	ee37 7a27 	vadd.f32	s14, s14, s15
 8008ba4:	ee65 7a26 	vmul.f32	s15, s10, s13
 8008ba8:	edd4 6a43 	vldr	s13, [r4, #268]	@ 0x10c
 8008bac:	ee25 5a26 	vmul.f32	s10, s10, s13
 8008bb0:	ee27 7a27 	vmul.f32	s14, s14, s15
 8008bb4:	eeb7 6ac6 	vcvt.f64.f32	d6, s12
 8008bb8:	eeb7 5ac5 	vcvt.f64.f32	d5, s10
 8008bbc:	eeb7 aac7 	vcvt.f64.f32	d10, s14
 8008bc0:	ee36 6b08 	vadd.f64	d6, d6, d8
 8008bc4:	ee06 ab05 	vmla.f64	d10, d6, d5
 8008bc8:	f000 ffb4 	bl	8009b34 <SPE_cos_Hcbd8c48e05b139646178cc6f7987b8955b6ce985_cb4a8a449b4ada864625ee5a4355578a3aaf08ed>
 8008bcc:	edd4 ca18 	vldr	s25, [r4, #96]	@ 0x60
 8008bd0:	eeb0 7a40 	vmov.f32	s14, s0
 8008bd4:	ed94 0a82 	vldr	s0, [r4, #520]	@ 0x208
 8008bd8:	ee2c 7a07 	vmul.f32	s14, s24, s14
 8008bdc:	eeb7 7ac7 	vcvt.f64.f32	d7, s14
 8008be0:	ee07 db4a 	vmls.f64	d13, d7, d10
 8008be4:	f000 ffa4 	bl	8009b30 <SPE_sin_Hcbd8c48e05b139646178cc6f7987b8955b6ce985_cb4a8a449b4ada864625ee5a4355578a3aaf08ed>
 8008be8:	edd4 5a3b 	vldr	s11, [r4, #236]	@ 0xec
 8008bec:	ed94 6a3c 	vldr	s12, [r4, #240]	@ 0xf0
 8008bf0:	edd4 7a3e 	vldr	s15, [r4, #248]	@ 0xf8
 8008bf4:	ed94 7a3d 	vldr	s14, [r4, #244]	@ 0xf4
 8008bf8:	ee6c ca80 	vmul.f32	s25, s25, s0
 8008bfc:	ee67 7aa5 	vmul.f32	s15, s15, s11
 8008c00:	edd4 6a6e 	vldr	s13, [r4, #440]	@ 0x1b8
 8008c04:	ee27 7a06 	vmul.f32	s14, s14, s12
 8008c08:	ed94 0a82 	vldr	s0, [r4, #520]	@ 0x208
 8008c0c:	ed94 ca18 	vldr	s24, [r4, #96]	@ 0x60
 8008c10:	ee37 aa87 	vadd.f32	s20, s15, s14
 8008c14:	ee2a aa26 	vmul.f32	s20, s20, s13
 8008c18:	f000 ff8c 	bl	8009b34 <SPE_cos_Hcbd8c48e05b139646178cc6f7987b8955b6ce985_cb4a8a449b4ada864625ee5a4355578a3aaf08ed>
 8008c1c:	edd4 5a3c 	vldr	s11, [r4, #240]	@ 0xf0
 8008c20:	ee2c 6a00 	vmul.f32	s12, s24, s0
 8008c24:	edd4 6a3b 	vldr	s13, [r4, #236]	@ 0xec
 8008c28:	ed94 7a3e 	vldr	s14, [r4, #248]	@ 0xf8
 8008c2c:	ee2a aa2c 	vmul.f32	s20, s20, s25
 8008c30:	edd4 7a3d 	vldr	s15, [r4, #244]	@ 0xf4
 8008c34:	ee27 7a25 	vmul.f32	s14, s14, s11
 8008c38:	ed94 0a6e 	vldr	s0, [r4, #440]	@ 0x1b8
 8008c3c:	ee67 7aa6 	vmul.f32	s15, s15, s13
 8008c40:	eeb7 5ac0 	vcvt.f64.f32	d5, s0
 8008c44:	eeb7 6ac6 	vcvt.f64.f32	d6, s12
 8008c48:	ee37 7a67 	vsub.f32	s14, s14, s15
 8008c4c:	eeb7 aaca 	vcvt.f64.f32	d10, s20
 8008c50:	eeb7 7ac7 	vcvt.f64.f32	d7, s14
 8008c54:	ee37 7b08 	vadd.f64	d7, d7, d8
 8008c58:	ee27 7b05 	vmul.f64	d7, d7, d5
 8008c5c:	edd4 5a5c 	vldr	s11, [r4, #368]	@ 0x170
 8008c60:	eeb7 eae5 	vcvt.f64.f32	d14, s11
 8008c64:	ee07 ab46 	vmls.f64	d10, d7, d6
 8008c68:	f000 ff46 	bl	8009af8 <SPE_ipowSquare_Hcbd8c48e05b139646178cc6f7987b8955b6ce985_cb4a8a449b4ada864625ee5a4355578a3aaf08ed>
 8008c6c:	eeb0 7a40 	vmov.f32	s14, s0
 8008c70:	ed94 0a82 	vldr	s0, [r4, #520]	@ 0x208
 8008c74:	eeb7 7ac7 	vcvt.f64.f32	d7, s14
 8008c78:	ee2a eb0e 	vmul.f64	d14, d10, d14
 8008c7c:	edd4 aa18 	vldr	s21, [r4, #96]	@ 0x60
 8008c80:	ee8e cb07 	vdiv.f64	d12, d14, d7
 8008c84:	f000 ff56 	bl	8009b34 <SPE_cos_Hcbd8c48e05b139646178cc6f7987b8955b6ce985_cb4a8a449b4ada864625ee5a4355578a3aaf08ed>
 8008c88:	edd4 5a3b 	vldr	s11, [r4, #236]	@ 0xec
 8008c8c:	ed94 6a3c 	vldr	s12, [r4, #240]	@ 0xf0
 8008c90:	edd4 7a3e 	vldr	s15, [r4, #248]	@ 0xf8
 8008c94:	ed94 7a3d 	vldr	s14, [r4, #244]	@ 0xf4
 8008c98:	ee6a aa80 	vmul.f32	s21, s21, s0
 8008c9c:	ee67 7aa5 	vmul.f32	s15, s15, s11
 8008ca0:	edd4 6a6e 	vldr	s13, [r4, #440]	@ 0x1b8
 8008ca4:	ee27 7a06 	vmul.f32	s14, s14, s12
 8008ca8:	ed94 0a82 	vldr	s0, [r4, #520]	@ 0x208
 8008cac:	ee37 aa87 	vadd.f32	s20, s15, s14
 8008cb0:	ee2a aa26 	vmul.f32	s20, s20, s13
 8008cb4:	ee2a aa2a 	vmul.f32	s20, s20, s21
 8008cb8:	eeb7 aaca 	vcvt.f64.f32	d10, s20
 8008cbc:	ee3c cb0d 	vadd.f64	d12, d12, d13
 8008cc0:	ed94 da18 	vldr	s26, [r4, #96]	@ 0x60
 8008cc4:	f000 ff34 	bl	8009b30 <SPE_sin_Hcbd8c48e05b139646178cc6f7987b8955b6ce985_cb4a8a449b4ada864625ee5a4355578a3aaf08ed>
 8008cc8:	edd4 5a3c 	vldr	s11, [r4, #240]	@ 0xf0
 8008ccc:	edd4 6a3b 	vldr	s13, [r4, #236]	@ 0xec
 8008cd0:	ee2d 6a00 	vmul.f32	s12, s26, s0
 8008cd4:	ed94 7a3e 	vldr	s14, [r4, #248]	@ 0xf8
 8008cd8:	edd4 7a3d 	vldr	s15, [r4, #244]	@ 0xf4
 8008cdc:	ee27 7a25 	vmul.f32	s14, s14, s11
 8008ce0:	ed94 0a6e 	vldr	s0, [r4, #440]	@ 0x1b8
 8008ce4:	ee67 7aa6 	vmul.f32	s15, s15, s13
 8008ce8:	eeb7 5ac0 	vcvt.f64.f32	d5, s0
 8008cec:	eeb7 6ac6 	vcvt.f64.f32	d6, s12
 8008cf0:	ee37 7a67 	vsub.f32	s14, s14, s15
 8008cf4:	eeb7 7ac7 	vcvt.f64.f32	d7, s14
 8008cf8:	ee37 7b08 	vadd.f64	d7, d7, d8
 8008cfc:	ee27 7b05 	vmul.f64	d7, d7, d5
 8008d00:	edd4 5a58 	vldr	s11, [r4, #352]	@ 0x160
 8008d04:	ee07 ab06 	vmla.f64	d10, d7, d6
 8008d08:	eeb7 7ae5 	vcvt.f64.f32	d7, s11
 8008d0c:	ee2a ab07 	vmul.f64	d10, d10, d7
 8008d10:	f000 fef2 	bl	8009af8 <SPE_ipowSquare_Hcbd8c48e05b139646178cc6f7987b8955b6ce985_cb4a8a449b4ada864625ee5a4355578a3aaf08ed>
 8008d14:	edd4 4a3c 	vldr	s9, [r4, #240]	@ 0xf0
 8008d18:	ed94 da3e 	vldr	s26, [r4, #248]	@ 0xf8
 8008d1c:	eeb7 0ac0 	vcvt.f64.f32	d0, s0
 8008d20:	edd4 5a3b 	vldr	s11, [r4, #236]	@ 0xec
 8008d24:	edd4 7a3d 	vldr	s15, [r4, #244]	@ 0xf4
 8008d28:	ee2d 5a24 	vmul.f32	s10, s26, s9
 8008d2c:	ee2d da25 	vmul.f32	s26, s26, s11
 8008d30:	ed94 7a6e 	vldr	s14, [r4, #440]	@ 0x1b8
 8008d34:	ee8a 6b00 	vdiv.f64	d6, d10, d0
 8008d38:	ed94 0a82 	vldr	s0, [r4, #520]	@ 0x208
 8008d3c:	ed94 aa11 	vldr	s20, [r4, #68]	@ 0x44
 8008d40:	ee65 5aa7 	vmul.f32	s11, s11, s15
 8008d44:	ee67 7aa4 	vmul.f32	s15, s15, s9
 8008d48:	edd4 4a43 	vldr	s9, [r4, #268]	@ 0x10c
 8008d4c:	ee35 5a65 	vsub.f32	s10, s10, s11
 8008d50:	ee3d da27 	vadd.f32	s26, s26, s15
 8008d54:	edd4 7a42 	vldr	s15, [r4, #264]	@ 0x108
 8008d58:	ee67 7a27 	vmul.f32	s15, s14, s15
 8008d5c:	eeb7 5ac5 	vcvt.f64.f32	d5, s10
 8008d60:	ee27 7a24 	vmul.f32	s14, s14, s9
 8008d64:	ee2d da27 	vmul.f32	s26, s26, s15
 8008d68:	ee35 5b08 	vadd.f64	d5, d5, d8
 8008d6c:	eeb7 7ac7 	vcvt.f64.f32	d7, s14
 8008d70:	eeb7 dacd 	vcvt.f64.f32	d13, s26
 8008d74:	ee05 db07 	vmla.f64	d13, d5, d7
 8008d78:	ee3c cb46 	vsub.f64	d12, d12, d6
 8008d7c:	eeb7 cbcc 	vcvt.f32.f64	s24, d12
 8008d80:	ed8d ca36 	vstr	s24, [sp, #216]	@ 0xd8
 8008d84:	f000 fed4 	bl	8009b30 <SPE_sin_Hcbd8c48e05b139646178cc6f7987b8955b6ce985_cb4a8a449b4ada864625ee5a4355578a3aaf08ed>
 8008d88:	edd4 5a3d 	vldr	s11, [r4, #244]	@ 0xf4
 8008d8c:	ee2a 4a00 	vmul.f32	s8, s20, s0
 8008d90:	ed94 7a3e 	vldr	s14, [r4, #248]	@ 0xf8
 8008d94:	edd4 7a3b 	vldr	s15, [r4, #236]	@ 0xec
 8008d98:	edd4 6a3c 	vldr	s13, [r4, #240]	@ 0xf0
 8008d9c:	eeb7 4ac4 	vcvt.f64.f32	d4, s8
 8008da0:	ee27 6a27 	vmul.f32	s12, s14, s15
 8008da4:	ed94 5a6e 	vldr	s10, [r4, #440]	@ 0x1b8
 8008da8:	ee27 7a26 	vmul.f32	s14, s14, s13
 8008dac:	ed94 0a82 	vldr	s0, [r4, #520]	@ 0x208
 8008db0:	ee65 6aa6 	vmul.f32	s13, s11, s13
 8008db4:	ed94 ca11 	vldr	s24, [r4, #68]	@ 0x44
 8008db8:	ee67 7aa5 	vmul.f32	s15, s15, s11
 8008dbc:	ee24 db0d 	vmul.f64	d13, d4, d13
 8008dc0:	ee36 6a26 	vadd.f32	s12, s12, s13
 8008dc4:	edd4 6a43 	vldr	s13, [r4, #268]	@ 0x10c
 8008dc8:	ee37 7a67 	vsub.f32	s14, s14, s15
 8008dcc:	edd4 7a42 	vldr	s15, [r4, #264]	@ 0x108
 8008dd0:	ee65 6a26 	vmul.f32	s13, s10, s13
 8008dd4:	ee25 5a27 	vmul.f32	s10, s10, s15
 8008dd8:	eeb7 7ac7 	vcvt.f64.f32	d7, s14
 8008ddc:	ee26 6a26 	vmul.f32	s12, s12, s13
 8008de0:	eeb7 5ac5 	vcvt.f64.f32	d5, s10
 8008de4:	ee37 7b08 	vadd.f64	d7, d7, d8
 8008de8:	eeb7 aac6 	vcvt.f64.f32	d10, s12
 8008dec:	ee07 ab45 	vmls.f64	d10, d7, d5
 8008df0:	f000 fea0 	bl	8009b34 <SPE_cos_Hcbd8c48e05b139646178cc6f7987b8955b6ce985_cb4a8a449b4ada864625ee5a4355578a3aaf08ed>
 8008df4:	edd4 ca18 	vldr	s25, [r4, #96]	@ 0x60
 8008df8:	eeb0 7a40 	vmov.f32	s14, s0
 8008dfc:	ed94 0a82 	vldr	s0, [r4, #520]	@ 0x208
 8008e00:	ee2c 7a07 	vmul.f32	s14, s24, s14
 8008e04:	eeb7 7ac7 	vcvt.f64.f32	d7, s14
 8008e08:	ee07 db0a 	vmla.f64	d13, d7, d10
 8008e0c:	f000 fe90 	bl	8009b30 <SPE_sin_Hcbd8c48e05b139646178cc6f7987b8955b6ce985_cb4a8a449b4ada864625ee5a4355578a3aaf08ed>
 8008e10:	edd4 5a3b 	vldr	s11, [r4, #236]	@ 0xec
 8008e14:	ed94 6a3c 	vldr	s12, [r4, #240]	@ 0xf0
 8008e18:	edd4 7a3e 	vldr	s15, [r4, #248]	@ 0xf8
 8008e1c:	ed94 7a3d 	vldr	s14, [r4, #244]	@ 0xf4
 8008e20:	ee6c ca80 	vmul.f32	s25, s25, s0
 8008e24:	ee67 7aa5 	vmul.f32	s15, s15, s11
 8008e28:	edd4 6a6e 	vldr	s13, [r4, #440]	@ 0x1b8
 8008e2c:	ee27 7a06 	vmul.f32	s14, s14, s12
 8008e30:	ed94 0a82 	vldr	s0, [r4, #520]	@ 0x208
 8008e34:	ed94 ca18 	vldr	s24, [r4, #96]	@ 0x60
 8008e38:	ee37 aa87 	vadd.f32	s20, s15, s14
 8008e3c:	ee2a aa26 	vmul.f32	s20, s20, s13
 8008e40:	f000 fe78 	bl	8009b34 <SPE_cos_Hcbd8c48e05b139646178cc6f7987b8955b6ce985_cb4a8a449b4ada864625ee5a4355578a3aaf08ed>
 8008e44:	edd4 5a3c 	vldr	s11, [r4, #240]	@ 0xf0
 8008e48:	ee2c 6a00 	vmul.f32	s12, s24, s0
 8008e4c:	edd4 6a3b 	vldr	s13, [r4, #236]	@ 0xec
 8008e50:	ed94 7a3e 	vldr	s14, [r4, #248]	@ 0xf8
 8008e54:	ee2a aa2c 	vmul.f32	s20, s20, s25
 8008e58:	edd4 7a3d 	vldr	s15, [r4, #244]	@ 0xf4
 8008e5c:	ee27 7a25 	vmul.f32	s14, s14, s11
 8008e60:	ed94 0a6e 	vldr	s0, [r4, #440]	@ 0x1b8
 8008e64:	ee67 7aa6 	vmul.f32	s15, s15, s13
 8008e68:	eeb7 5ac0 	vcvt.f64.f32	d5, s0
 8008e6c:	eeb7 6ac6 	vcvt.f64.f32	d6, s12
 8008e70:	ee37 7a67 	vsub.f32	s14, s14, s15
 8008e74:	eeb7 aaca 	vcvt.f64.f32	d10, s20
 8008e78:	eeb7 7ac7 	vcvt.f64.f32	d7, s14
 8008e7c:	ee37 7b08 	vadd.f64	d7, d7, d8
 8008e80:	ee27 7b05 	vmul.f64	d7, d7, d5
 8008e84:	edd4 5a58 	vldr	s11, [r4, #352]	@ 0x160
 8008e88:	eeb7 eae5 	vcvt.f64.f32	d14, s11
 8008e8c:	ee07 ab46 	vmls.f64	d10, d7, d6
 8008e90:	f000 fe32 	bl	8009af8 <SPE_ipowSquare_Hcbd8c48e05b139646178cc6f7987b8955b6ce985_cb4a8a449b4ada864625ee5a4355578a3aaf08ed>
 8008e94:	eeb0 7a40 	vmov.f32	s14, s0
 8008e98:	ed94 0a82 	vldr	s0, [r4, #520]	@ 0x208
 8008e9c:	eeb7 7ac7 	vcvt.f64.f32	d7, s14
 8008ea0:	ee2a eb0e 	vmul.f64	d14, d10, d14
 8008ea4:	edd4 aa18 	vldr	s21, [r4, #96]	@ 0x60
 8008ea8:	ee8e cb07 	vdiv.f64	d12, d14, d7
 8008eac:	f000 fe42 	bl	8009b34 <SPE_cos_Hcbd8c48e05b139646178cc6f7987b8955b6ce985_cb4a8a449b4ada864625ee5a4355578a3aaf08ed>
 8008eb0:	edd4 5a3b 	vldr	s11, [r4, #236]	@ 0xec
 8008eb4:	ed94 6a3c 	vldr	s12, [r4, #240]	@ 0xf0
 8008eb8:	edd4 7a3e 	vldr	s15, [r4, #248]	@ 0xf8
 8008ebc:	ed94 7a3d 	vldr	s14, [r4, #244]	@ 0xf4
 8008ec0:	ee6a aa80 	vmul.f32	s21, s21, s0
 8008ec4:	ee67 7aa5 	vmul.f32	s15, s15, s11
 8008ec8:	edd4 6a6e 	vldr	s13, [r4, #440]	@ 0x1b8
 8008ecc:	ee27 7a06 	vmul.f32	s14, s14, s12
 8008ed0:	ed94 0a82 	vldr	s0, [r4, #520]	@ 0x208
 8008ed4:	ee37 aa87 	vadd.f32	s20, s15, s14
 8008ed8:	ee2a aa26 	vmul.f32	s20, s20, s13
 8008edc:	ee2a aa2a 	vmul.f32	s20, s20, s21
 8008ee0:	eeb7 aaca 	vcvt.f64.f32	d10, s20
 8008ee4:	ee3c cb0d 	vadd.f64	d12, d12, d13
 8008ee8:	ed94 da18 	vldr	s26, [r4, #96]	@ 0x60
 8008eec:	f000 fe20 	bl	8009b30 <SPE_sin_Hcbd8c48e05b139646178cc6f7987b8955b6ce985_cb4a8a449b4ada864625ee5a4355578a3aaf08ed>
 8008ef0:	edd4 5a3c 	vldr	s11, [r4, #240]	@ 0xf0
 8008ef4:	edd4 6a3b 	vldr	s13, [r4, #236]	@ 0xec
 8008ef8:	ee2d 6a00 	vmul.f32	s12, s26, s0
 8008efc:	ed94 7a3e 	vldr	s14, [r4, #248]	@ 0xf8
 8008f00:	edd4 7a3d 	vldr	s15, [r4, #244]	@ 0xf4
 8008f04:	ee27 7a25 	vmul.f32	s14, s14, s11
 8008f08:	ed94 0a6e 	vldr	s0, [r4, #440]	@ 0x1b8
 8008f0c:	ee67 7aa6 	vmul.f32	s15, s15, s13
 8008f10:	eeb7 5ac0 	vcvt.f64.f32	d5, s0
 8008f14:	eeb7 6ac6 	vcvt.f64.f32	d6, s12
 8008f18:	ee37 7a67 	vsub.f32	s14, s14, s15
 8008f1c:	eeb7 7ac7 	vcvt.f64.f32	d7, s14
 8008f20:	ee37 7b08 	vadd.f64	d7, d7, d8
 8008f24:	ee27 7b05 	vmul.f64	d7, d7, d5
 8008f28:	edd4 5a5b 	vldr	s11, [r4, #364]	@ 0x16c
 8008f2c:	ee07 ab06 	vmla.f64	d10, d7, d6
 8008f30:	eeb7 7ae5 	vcvt.f64.f32	d7, s11
 8008f34:	ee2a ab07 	vmul.f64	d10, d10, d7
 8008f38:	f000 fdde 	bl	8009af8 <SPE_ipowSquare_Hcbd8c48e05b139646178cc6f7987b8955b6ce985_cb4a8a449b4ada864625ee5a4355578a3aaf08ed>
 8008f3c:	ed94 da18 	vldr	s26, [r4, #96]	@ 0x60
 8008f40:	eeb0 6a40 	vmov.f32	s12, s0
 8008f44:	ed94 0a82 	vldr	s0, [r4, #520]	@ 0x208
 8008f48:	eeb7 6ac6 	vcvt.f64.f32	d6, s12
 8008f4c:	ee8a 7b06 	vdiv.f64	d7, d10, d6
 8008f50:	ee37 7b0c 	vadd.f64	d7, d7, d12
 8008f54:	eeb7 7bc7 	vcvt.f32.f64	s14, d7
 8008f58:	eeb1 7a47 	vneg.f32	s14, s14
 8008f5c:	ed8d 7a37 	vstr	s14, [sp, #220]	@ 0xdc
 8008f60:	f000 fde6 	bl	8009b30 <SPE_sin_Hcbd8c48e05b139646178cc6f7987b8955b6ce985_cb4a8a449b4ada864625ee5a4355578a3aaf08ed>
 8008f64:	edd4 7a6e 	vldr	s15, [r4, #440]	@ 0x1b8
 8008f68:	ee2d ca00 	vmul.f32	s24, s26, s0
 8008f6c:	eeb7 aae7 	vcvt.f64.f32	d10, s15
 8008f70:	eeb0 0a67 	vmov.f32	s0, s15
 8008f74:	f000 fdc0 	bl	8009af8 <SPE_ipowSquare_Hcbd8c48e05b139646178cc6f7987b8955b6ce985_cb4a8a449b4ada864625ee5a4355578a3aaf08ed>
 8008f78:	eeb7 5ac0 	vcvt.f64.f32	d5, s0
 8008f7c:	ee88 db0a 	vdiv.f64	d13, d8, d10
 8008f80:	ed94 6a85 	vldr	s12, [r4, #532]	@ 0x214
 8008f84:	ed94 0a82 	vldr	s0, [r4, #520]	@ 0x208
 8008f88:	ed94 ea18 	vldr	s28, [r4, #96]	@ 0x60
 8008f8c:	eeb1 ab4a 	vneg.f64	d10, d10
 8008f90:	eeb7 cacc 	vcvt.f64.f32	d12, s24
 8008f94:	eeb7 6ac6 	vcvt.f64.f32	d6, s12
 8008f98:	ee8a 7b05 	vdiv.f64	d7, d10, d5
 8008f9c:	ee37 7b0d 	vadd.f64	d7, d7, d13
 8008fa0:	ee27 7b0c 	vmul.f64	d7, d7, d12
 8008fa4:	ee27 ab06 	vmul.f64	d10, d7, d6
 8008fa8:	f000 fdc4 	bl	8009b34 <SPE_cos_Hcbd8c48e05b139646178cc6f7987b8955b6ce985_cb4a8a449b4ada864625ee5a4355578a3aaf08ed>
 8008fac:	edd4 7a6e 	vldr	s15, [r4, #440]	@ 0x1b8
 8008fb0:	eeb7 cae7 	vcvt.f64.f32	d12, s15
 8008fb4:	ee2e ea00 	vmul.f32	s28, s28, s0
 8008fb8:	eeb0 0a67 	vmov.f32	s0, s15
 8008fbc:	f000 fd9c 	bl	8009af8 <SPE_ipowSquare_Hcbd8c48e05b139646178cc6f7987b8955b6ce985_cb4a8a449b4ada864625ee5a4355578a3aaf08ed>
 8008fc0:	ee88 fb0c 	vdiv.f64	d15, d8, d12
 8008fc4:	ed94 5a86 	vldr	s10, [r4, #536]	@ 0x218
 8008fc8:	ed94 da18 	vldr	s26, [r4, #96]	@ 0x60
 8008fcc:	eeb7 0ac0 	vcvt.f64.f32	d0, s0
 8008fd0:	eeb1 cb4c 	vneg.f64	d12, d12
 8008fd4:	eeb7 eace 	vcvt.f64.f32	d14, s28
 8008fd8:	eeb7 5ac5 	vcvt.f64.f32	d5, s10
 8008fdc:	ee8c 6b00 	vdiv.f64	d6, d12, d0
 8008fe0:	ed94 0a82 	vldr	s0, [r4, #520]	@ 0x208
 8008fe4:	ee36 6b0f 	vadd.f64	d6, d6, d15
 8008fe8:	ee26 6b0e 	vmul.f64	d6, d6, d14
 8008fec:	ee06 ab05 	vmla.f64	d10, d6, d5
 8008ff0:	eeb7 7bca 	vcvt.f32.f64	s14, d10
 8008ff4:	eeb1 7a47 	vneg.f32	s14, s14
 8008ff8:	ed8d 7a02 	vstr	s14, [sp, #8]
 8008ffc:	f000 fd9a 	bl	8009b34 <SPE_cos_Hcbd8c48e05b139646178cc6f7987b8955b6ce985_cb4a8a449b4ada864625ee5a4355578a3aaf08ed>
 8009000:	edd4 7a6e 	vldr	s15, [r4, #440]	@ 0x1b8
 8009004:	ee2d da00 	vmul.f32	s26, s26, s0
 8009008:	eeb7 aae7 	vcvt.f64.f32	d10, s15
 800900c:	eeb0 0a67 	vmov.f32	s0, s15
 8009010:	f000 fd72 	bl	8009af8 <SPE_ipowSquare_Hcbd8c48e05b139646178cc6f7987b8955b6ce985_cb4a8a449b4ada864625ee5a4355578a3aaf08ed>
 8009014:	eeb7 5ac0 	vcvt.f64.f32	d5, s0
 8009018:	ee88 eb0a 	vdiv.f64	d14, d8, d10
 800901c:	ed94 7a85 	vldr	s14, [r4, #532]	@ 0x214
 8009020:	ed94 0a82 	vldr	s0, [r4, #520]	@ 0x208
 8009024:	ed94 ca18 	vldr	s24, [r4, #96]	@ 0x60
 8009028:	eeb1 ab4a 	vneg.f64	d10, d10
 800902c:	eeb7 dacd 	vcvt.f64.f32	d13, s26
 8009030:	eeb7 7ac7 	vcvt.f64.f32	d7, s14
 8009034:	ee8a 6b05 	vdiv.f64	d6, d10, d5
 8009038:	ee36 6b0e 	vadd.f64	d6, d6, d14
 800903c:	ee26 6b0d 	vmul.f64	d6, d6, d13
 8009040:	ee26 ab07 	vmul.f64	d10, d6, d7
 8009044:	f000 fd74 	bl	8009b30 <SPE_sin_Hcbd8c48e05b139646178cc6f7987b8955b6ce985_cb4a8a449b4ada864625ee5a4355578a3aaf08ed>
 8009048:	edd4 7a6e 	vldr	s15, [r4, #440]	@ 0x1b8
 800904c:	eeb7 dae7 	vcvt.f64.f32	d13, s15
 8009050:	ee2c ca00 	vmul.f32	s24, s24, s0
 8009054:	eeb0 0a67 	vmov.f32	s0, s15
 8009058:	f000 fd4e 	bl	8009af8 <SPE_ipowSquare_Hcbd8c48e05b139646178cc6f7987b8955b6ce985_cb4a8a449b4ada864625ee5a4355578a3aaf08ed>
 800905c:	ee88 eb0d 	vdiv.f64	d14, d8, d13
 8009060:	ed94 4a86 	vldr	s8, [r4, #536]	@ 0x218
 8009064:	ed94 fa18 	vldr	s30, [r4, #96]	@ 0x60
 8009068:	eeb7 0ac0 	vcvt.f64.f32	d0, s0
 800906c:	eeb1 db4d 	vneg.f64	d13, d13
 8009070:	eeb7 cacc 	vcvt.f64.f32	d12, s24
 8009074:	eeb7 4ac4 	vcvt.f64.f32	d4, s8
 8009078:	ee8d 5b00 	vdiv.f64	d5, d13, d0
 800907c:	ed94 0a82 	vldr	s0, [r4, #520]	@ 0x208
 8009080:	ed94 da75 	vldr	s26, [r4, #468]	@ 0x1d4
 8009084:	eeb7 dacd 	vcvt.f64.f32	d13, s26
 8009088:	ee35 5b0e 	vadd.f64	d5, d5, d14
 800908c:	ee25 5b0c 	vmul.f64	d5, d5, d12
 8009090:	ee05 ab44 	vmls.f64	d10, d5, d4
 8009094:	eeb7 6bca 	vcvt.f32.f64	s12, d10
 8009098:	ed8d 6a03 	vstr	s12, [sp, #12]
 800909c:	f000 fd48 	bl	8009b30 <SPE_sin_Hcbd8c48e05b139646178cc6f7987b8955b6ce985_cb4a8a449b4ada864625ee5a4355578a3aaf08ed>
 80090a0:	edd4 7a39 	vldr	s15, [r4, #228]	@ 0xe4
 80090a4:	ee2f 7a00 	vmul.f32	s14, s30, s0
 80090a8:	ed94 6a38 	vldr	s12, [r4, #224]	@ 0xe0
 80090ac:	edd4 6a37 	vldr	s13, [r4, #220]	@ 0xdc
 80090b0:	eeb7 5ae7 	vcvt.f64.f32	d5, s15
 80090b4:	ed94 aa3a 	vldr	s20, [r4, #232]	@ 0xe8
 80090b8:	ee67 4aa6 	vmul.f32	s9, s15, s13
 80090bc:	ed94 0a82 	vldr	s0, [r4, #520]	@ 0x208
 80090c0:	ee2a aa06 	vmul.f32	s20, s20, s12
 80090c4:	ed94 6a6e 	vldr	s12, [r4, #440]	@ 0x1b8
 80090c8:	eeb7 7ac7 	vcvt.f64.f32	d7, s14
 80090cc:	ed94 ca18 	vldr	s24, [r4, #96]	@ 0x60
 80090d0:	eeb7 6ac6 	vcvt.f64.f32	d6, s12
 80090d4:	ee3a aa64 	vsub.f32	s20, s20, s9
 80090d8:	eeb7 aaca 	vcvt.f64.f32	d10, s20
 80090dc:	ee05 ab49 	vmls.f64	d10, d5, d9
 80090e0:	ee3a ab08 	vadd.f64	d10, d10, d8
 80090e4:	ee2a ab06 	vmul.f64	d10, d10, d6
 80090e8:	ee2a ab07 	vmul.f64	d10, d10, d7
 80090ec:	f000 fd22 	bl	8009b34 <SPE_cos_Hcbd8c48e05b139646178cc6f7987b8955b6ce985_cb4a8a449b4ada864625ee5a4355578a3aaf08ed>
 80090f0:	edd4 7a3a 	vldr	s15, [r4, #232]	@ 0xe8
 80090f4:	ed94 5a38 	vldr	s10, [r4, #224]	@ 0xe0
 80090f8:	edd4 5a37 	vldr	s11, [r4, #220]	@ 0xdc
 80090fc:	eeb7 6ae7 	vcvt.f64.f32	d6, s15
 8009100:	ed94 7a39 	vldr	s14, [r4, #228]	@ 0xe4
 8009104:	ee2c 0a00 	vmul.f32	s0, s24, s0
 8009108:	ee67 7aa5 	vmul.f32	s15, s15, s11
 800910c:	edd4 5a6e 	vldr	s11, [r4, #440]	@ 0x1b8
 8009110:	ee27 7a05 	vmul.f32	s14, s14, s10
 8009114:	ed94 ca18 	vldr	s24, [r4, #96]	@ 0x60
 8009118:	eeb7 0ac0 	vcvt.f64.f32	d0, s0
 800911c:	ee37 7a27 	vadd.f32	s14, s14, s15
 8009120:	eeb7 7ac7 	vcvt.f64.f32	d7, s14
 8009124:	ee16 7b0b 	vnmls.f64	d7, d6, d11
 8009128:	eeb7 6ae5 	vcvt.f64.f32	d6, s11
 800912c:	ee27 7b06 	vmul.f64	d7, d7, d6
 8009130:	ee07 ab40 	vmls.f64	d10, d7, d0
 8009134:	ed94 7a85 	vldr	s14, [r4, #532]	@ 0x214
 8009138:	ed94 0a82 	vldr	s0, [r4, #520]	@ 0x208
 800913c:	eeb7 7ac7 	vcvt.f64.f32	d7, s14
 8009140:	ee2a ab07 	vmul.f64	d10, d10, d7
 8009144:	f000 fcf6 	bl	8009b34 <SPE_cos_Hcbd8c48e05b139646178cc6f7987b8955b6ce985_cb4a8a449b4ada864625ee5a4355578a3aaf08ed>
 8009148:	ed94 5a39 	vldr	s10, [r4, #228]	@ 0xe4
 800914c:	edd4 6a38 	vldr	s13, [r4, #224]	@ 0xe0
 8009150:	ed94 7a3a 	vldr	s14, [r4, #232]	@ 0xe8
 8009154:	ee2c 6a00 	vmul.f32	s12, s24, s0
 8009158:	edd4 7a37 	vldr	s15, [r4, #220]	@ 0xdc
 800915c:	ee27 7a26 	vmul.f32	s14, s14, s13
 8009160:	edd4 4a6e 	vldr	s9, [r4, #440]	@ 0x1b8
 8009164:	ee65 7a27 	vmul.f32	s15, s10, s15
 8009168:	ed94 0a82 	vldr	s0, [r4, #520]	@ 0x208
 800916c:	eeb7 5ac5 	vcvt.f64.f32	d5, s10
 8009170:	ed94 ea18 	vldr	s28, [r4, #96]	@ 0x60
 8009174:	eeb7 6ac6 	vcvt.f64.f32	d6, s12
 8009178:	ee37 7a67 	vsub.f32	s14, s14, s15
 800917c:	eeb7 7ac7 	vcvt.f64.f32	d7, s14
 8009180:	ee05 7b49 	vmls.f64	d7, d5, d9
 8009184:	eeb7 5ae4 	vcvt.f64.f32	d5, s9
 8009188:	ee37 7b08 	vadd.f64	d7, d7, d8
 800918c:	ee27 7b05 	vmul.f64	d7, d7, d5
 8009190:	ee27 cb06 	vmul.f64	d12, d7, d6
 8009194:	f000 fccc 	bl	8009b30 <SPE_sin_Hcbd8c48e05b139646178cc6f7987b8955b6ce985_cb4a8a449b4ada864625ee5a4355578a3aaf08ed>
 8009198:	ed94 7a38 	vldr	s14, [r4, #224]	@ 0xe0
 800919c:	ed94 6a39 	vldr	s12, [r4, #228]	@ 0xe4
 80091a0:	edd4 7a3a 	vldr	s15, [r4, #232]	@ 0xe8
 80091a4:	ee2e 5a00 	vmul.f32	s10, s28, s0
 80091a8:	ee26 6a07 	vmul.f32	s12, s12, s14
 80091ac:	ed94 7a37 	vldr	s14, [r4, #220]	@ 0xdc
 80091b0:	eeb7 4ae7 	vcvt.f64.f32	d4, s15
 80091b4:	ed94 0a6e 	vldr	s0, [r4, #440]	@ 0x1b8
 80091b8:	ee67 7a87 	vmul.f32	s15, s15, s14
 80091bc:	edd4 3a86 	vldr	s7, [r4, #536]	@ 0x218
 80091c0:	eeb7 5ac5 	vcvt.f64.f32	d5, s10
 80091c4:	ee36 6a27 	vadd.f32	s12, s12, s15
 80091c8:	eeb7 7ac0 	vcvt.f64.f32	d7, s0
 80091cc:	eeb7 6ac6 	vcvt.f64.f32	d6, s12
 80091d0:	ee14 6b0b 	vnmls.f64	d6, d4, d11
 80091d4:	ee26 6b07 	vmul.f64	d6, d6, d7
 80091d8:	ee06 cb05 	vmla.f64	d12, d6, d5
 80091dc:	eeb7 6ae3 	vcvt.f64.f32	d6, s7
 80091e0:	ee0c ab06 	vmla.f64	d10, d12, d6
 80091e4:	f000 fc88 	bl	8009af8 <SPE_ipowSquare_Hcbd8c48e05b139646178cc6f7987b8955b6ce985_cb4a8a449b4ada864625ee5a4355578a3aaf08ed>
 80091e8:	ed94 ca74 	vldr	s24, [r4, #464]	@ 0x1d0
 80091ec:	eeb0 7a40 	vmov.f32	s14, s0
 80091f0:	ed94 0a82 	vldr	s0, [r4, #520]	@ 0x208
 80091f4:	eeb7 cacc 	vcvt.f64.f32	d12, s24
 80091f8:	eeb7 7ac7 	vcvt.f64.f32	d7, s14
 80091fc:	eeb0 eb4a 	vmov.f64	d14, d10
 8009200:	edd4 aa18 	vldr	s21, [r4, #96]	@ 0x60
 8009204:	ee8e 6b07 	vdiv.f64	d6, d14, d7
 8009208:	ee3d db46 	vsub.f64	d13, d13, d6
 800920c:	eeb7 dbcd 	vcvt.f32.f64	s26, d13
 8009210:	ed8d da04 	vstr	s26, [sp, #16]
 8009214:	f000 fc8c 	bl	8009b30 <SPE_sin_Hcbd8c48e05b139646178cc6f7987b8955b6ce985_cb4a8a449b4ada864625ee5a4355578a3aaf08ed>
 8009218:	edd4 7a3a 	vldr	s15, [r4, #232]	@ 0xe8
 800921c:	ee2a 7a80 	vmul.f32	s14, s21, s0
 8009220:	edd4 6a38 	vldr	s13, [r4, #224]	@ 0xe0
 8009224:	ed94 aa39 	vldr	s20, [r4, #228]	@ 0xe4
 8009228:	edd4 5a37 	vldr	s11, [r4, #220]	@ 0xdc
 800922c:	ee2a aa26 	vmul.f32	s20, s20, s13
 8009230:	ed94 4a6e 	vldr	s8, [r4, #440]	@ 0x1b8
 8009234:	ee67 5aa5 	vmul.f32	s11, s15, s11
 8009238:	ed94 0a82 	vldr	s0, [r4, #520]	@ 0x208
 800923c:	eeb7 6ae7 	vcvt.f64.f32	d6, s15
 8009240:	ed94 da18 	vldr	s26, [r4, #96]	@ 0x60
 8009244:	eeb7 4ac4 	vcvt.f64.f32	d4, s8
 8009248:	ee3a aa25 	vadd.f32	s20, s20, s11
 800924c:	eeb7 7ac7 	vcvt.f64.f32	d7, s14
 8009250:	eeb7 aaca 	vcvt.f64.f32	d10, s20
 8009254:	ee06 ab09 	vmla.f64	d10, d6, d9
 8009258:	ee2a ab04 	vmul.f64	d10, d10, d4
 800925c:	ee2a ab07 	vmul.f64	d10, d10, d7
 8009260:	f000 fc68 	bl	8009b34 <SPE_cos_Hcbd8c48e05b139646178cc6f7987b8955b6ce985_cb4a8a449b4ada864625ee5a4355578a3aaf08ed>
 8009264:	ed94 6a39 	vldr	s12, [r4, #228]	@ 0xe4
 8009268:	edd4 6a38 	vldr	s13, [r4, #224]	@ 0xe0
 800926c:	ed94 7a3a 	vldr	s14, [r4, #232]	@ 0xe8
 8009270:	ee2d 5a00 	vmul.f32	s10, s26, s0
 8009274:	edd4 7a37 	vldr	s15, [r4, #220]	@ 0xdc
 8009278:	ee27 7a26 	vmul.f32	s14, s14, s13
 800927c:	edd4 4a6e 	vldr	s9, [r4, #440]	@ 0x1b8
 8009280:	ee66 7a27 	vmul.f32	s15, s12, s15
 8009284:	ed94 0a82 	vldr	s0, [r4, #520]	@ 0x208
 8009288:	eeb7 6ac6 	vcvt.f64.f32	d6, s12
 800928c:	ed94 da18 	vldr	s26, [r4, #96]	@ 0x60
 8009290:	eeb7 5ac5 	vcvt.f64.f32	d5, s10
 8009294:	ee37 7a67 	vsub.f32	s14, s14, s15
 8009298:	eeb7 7ac7 	vcvt.f64.f32	d7, s14
 800929c:	ee06 7b0b 	vmla.f64	d7, d6, d11
 80092a0:	eeb7 6ae4 	vcvt.f64.f32	d6, s9
 80092a4:	ee37 7b08 	vadd.f64	d7, d7, d8
 80092a8:	ee27 7b06 	vmul.f64	d7, d7, d6
 80092ac:	ed94 6a85 	vldr	s12, [r4, #532]	@ 0x214
 80092b0:	eeb7 6ac6 	vcvt.f64.f32	d6, s12
 80092b4:	ee07 ab45 	vmls.f64	d10, d7, d5
 80092b8:	ee2a ab06 	vmul.f64	d10, d10, d6
 80092bc:	f000 fc3a 	bl	8009b34 <SPE_cos_Hcbd8c48e05b139646178cc6f7987b8955b6ce985_cb4a8a449b4ada864625ee5a4355578a3aaf08ed>
 80092c0:	ed94 5a3a 	vldr	s10, [r4, #232]	@ 0xe8
 80092c4:	edd4 6a38 	vldr	s13, [r4, #224]	@ 0xe0
 80092c8:	ed94 7a39 	vldr	s14, [r4, #228]	@ 0xe4
 80092cc:	ee2d 6a00 	vmul.f32	s12, s26, s0
 80092d0:	edd4 7a37 	vldr	s15, [r4, #220]	@ 0xdc
 80092d4:	ee27 7a26 	vmul.f32	s14, s14, s13
 80092d8:	edd4 6a6e 	vldr	s13, [r4, #440]	@ 0x1b8
 80092dc:	ee65 7a27 	vmul.f32	s15, s10, s15
 80092e0:	ed94 0a82 	vldr	s0, [r4, #520]	@ 0x208
 80092e4:	eeb7 5ac5 	vcvt.f64.f32	d5, s10
 80092e8:	ed94 da18 	vldr	s26, [r4, #96]	@ 0x60
 80092ec:	ee37 7a27 	vadd.f32	s14, s14, s15
 80092f0:	eeb7 7ac7 	vcvt.f64.f32	d7, s14
 80092f4:	ee05 7b09 	vmla.f64	d7, d5, d9
 80092f8:	eeb7 9ae6 	vcvt.f64.f32	d9, s13
 80092fc:	eeb7 6ac6 	vcvt.f64.f32	d6, s12
 8009300:	ee27 9b09 	vmul.f64	d9, d7, d9
 8009304:	ee29 9b06 	vmul.f64	d9, d9, d6
 8009308:	f000 fc12 	bl	8009b30 <SPE_sin_Hcbd8c48e05b139646178cc6f7987b8955b6ce985_cb4a8a449b4ada864625ee5a4355578a3aaf08ed>
 800930c:	ed94 6a39 	vldr	s12, [r4, #228]	@ 0xe4
 8009310:	edd4 6a38 	vldr	s13, [r4, #224]	@ 0xe0
 8009314:	ed94 7a3a 	vldr	s14, [r4, #232]	@ 0xe8
 8009318:	ee2d da00 	vmul.f32	s26, s26, s0
 800931c:	edd4 7a37 	vldr	s15, [r4, #220]	@ 0xdc
 8009320:	ee27 7a26 	vmul.f32	s14, s14, s13
 8009324:	ed94 0a6e 	vldr	s0, [r4, #440]	@ 0x1b8
 8009328:	ee66 7a27 	vmul.f32	s15, s12, s15
 800932c:	eeb7 6ac6 	vcvt.f64.f32	d6, s12
 8009330:	eeb7 5ac0 	vcvt.f64.f32	d5, s0
 8009334:	ee37 7a67 	vsub.f32	s14, s14, s15
 8009338:	eeb7 dacd 	vcvt.f64.f32	d13, s26
 800933c:	eeb7 7ac7 	vcvt.f64.f32	d7, s14
 8009340:	ee06 7b0b 	vmla.f64	d7, d6, d11
 8009344:	edd4 6a86 	vldr	s13, [r4, #536]	@ 0x218
 8009348:	ee37 7b08 	vadd.f64	d7, d7, d8
 800934c:	ee27 7b05 	vmul.f64	d7, d7, d5
 8009350:	ee07 9b0d 	vmla.f64	d9, d7, d13
 8009354:	eeb7 7ae6 	vcvt.f64.f32	d7, s13
 8009358:	ee09 ab07 	vmla.f64	d10, d9, d7
 800935c:	f000 fbcc 	bl	8009af8 <SPE_ipowSquare_Hcbd8c48e05b139646178cc6f7987b8955b6ce985_cb4a8a449b4ada864625ee5a4355578a3aaf08ed>
 8009360:	ed94 9a75 	vldr	s18, [r4, #468]	@ 0x1d4
 8009364:	eeb0 7a40 	vmov.f32	s14, s0
 8009368:	ed94 0a82 	vldr	s0, [r4, #520]	@ 0x208
 800936c:	eeb7 9ac9 	vcvt.f64.f32	d9, s18
 8009370:	eeb7 7ac7 	vcvt.f64.f32	d7, s14
 8009374:	eeb0 bb4a 	vmov.f64	d11, d10
 8009378:	edd4 aa18 	vldr	s21, [r4, #96]	@ 0x60
 800937c:	ee8b 6b07 	vdiv.f64	d6, d11, d7
 8009380:	ee3c cb46 	vsub.f64	d12, d12, d6
 8009384:	eeb7 cbcc 	vcvt.f32.f64	s24, d12
 8009388:	ed8d ca05 	vstr	s24, [sp, #20]
 800938c:	f000 fbd0 	bl	8009b30 <SPE_sin_Hcbd8c48e05b139646178cc6f7987b8955b6ce985_cb4a8a449b4ada864625ee5a4355578a3aaf08ed>
 8009390:	ed94 6a3c 	vldr	s12, [r4, #240]	@ 0xf0
 8009394:	edd4 6a3b 	vldr	s13, [r4, #236]	@ 0xec
 8009398:	ed94 7a3e 	vldr	s14, [r4, #248]	@ 0xf8
 800939c:	edd4 7a3d 	vldr	s15, [r4, #244]	@ 0xf4
 80093a0:	ee27 7a06 	vmul.f32	s14, s14, s12
 80093a4:	ed94 5a6e 	vldr	s10, [r4, #440]	@ 0x1b8
 80093a8:	ee67 7aa6 	vmul.f32	s15, s15, s13
 80093ac:	ed94 ba18 	vldr	s22, [r4, #96]	@ 0x60
 80093b0:	eeb7 5ac5 	vcvt.f64.f32	d5, s10
 80093b4:	ee2a 6a80 	vmul.f32	s12, s21, s0
 80093b8:	ed94 0a82 	vldr	s0, [r4, #520]	@ 0x208
 80093bc:	ee37 7a67 	vsub.f32	s14, s14, s15
 80093c0:	eeb7 6ac6 	vcvt.f64.f32	d6, s12
 80093c4:	eeb7 7ac7 	vcvt.f64.f32	d7, s14
 80093c8:	ee37 7b08 	vadd.f64	d7, d7, d8
 80093cc:	ee27 7b05 	vmul.f64	d7, d7, d5
 80093d0:	ee27 ab06 	vmul.f64	d10, d7, d6
 80093d4:	f000 fbae 	bl	8009b34 <SPE_cos_Hcbd8c48e05b139646178cc6f7987b8955b6ce985_cb4a8a449b4ada864625ee5a4355578a3aaf08ed>
 80093d8:	ed94 6a3b 	vldr	s12, [r4, #236]	@ 0xec
 80093dc:	edd4 6a3c 	vldr	s13, [r4, #240]	@ 0xf0
 80093e0:	edd4 7a3e 	vldr	s15, [r4, #248]	@ 0xf8
 80093e4:	ee2b ba00 	vmul.f32	s22, s22, s0
 80093e8:	ed94 7a3d 	vldr	s14, [r4, #244]	@ 0xf4
 80093ec:	ee67 7a86 	vmul.f32	s15, s15, s12
 80093f0:	edd4 5a6e 	vldr	s11, [r4, #440]	@ 0x1b8
 80093f4:	ee27 7a26 	vmul.f32	s14, s14, s13
 80093f8:	ed94 6a85 	vldr	s12, [r4, #532]	@ 0x214
 80093fc:	ed94 0a82 	vldr	s0, [r4, #520]	@ 0x208
 8009400:	eeb7 6ac6 	vcvt.f64.f32	d6, s12
 8009404:	edd4 ba18 	vldr	s23, [r4, #96]	@ 0x60
 8009408:	ee37 7a87 	vadd.f32	s14, s15, s14
 800940c:	ee27 7a25 	vmul.f32	s14, s14, s11
 8009410:	ee27 7a0b 	vmul.f32	s14, s14, s22
 8009414:	eeb7 7ac7 	vcvt.f64.f32	d7, s14
 8009418:	ee37 ab0a 	vadd.f64	d10, d7, d10
 800941c:	ee2a ab06 	vmul.f64	d10, d10, d6
 8009420:	f000 fb88 	bl	8009b34 <SPE_cos_Hcbd8c48e05b139646178cc6f7987b8955b6ce985_cb4a8a449b4ada864625ee5a4355578a3aaf08ed>
 8009424:	ed94 7a3c 	vldr	s14, [r4, #240]	@ 0xf0
 8009428:	edd4 7a3b 	vldr	s15, [r4, #236]	@ 0xec
 800942c:	ed94 ba3e 	vldr	s22, [r4, #248]	@ 0xf8
 8009430:	edd4 5a3d 	vldr	s11, [r4, #244]	@ 0xf4
 8009434:	ee2b ba07 	vmul.f32	s22, s22, s14
 8009438:	ed94 6a6e 	vldr	s12, [r4, #440]	@ 0x1b8
 800943c:	ee65 5aa7 	vmul.f32	s11, s11, s15
 8009440:	ed94 ca18 	vldr	s24, [r4, #96]	@ 0x60
 8009444:	ee2b 7a80 	vmul.f32	s14, s23, s0
 8009448:	ed94 0a82 	vldr	s0, [r4, #520]	@ 0x208
 800944c:	eeb7 6ac6 	vcvt.f64.f32	d6, s12
 8009450:	ee3b ba65 	vsub.f32	s22, s22, s11
 8009454:	eeb7 7ac7 	vcvt.f64.f32	d7, s14
 8009458:	eeb7 bacb 	vcvt.f64.f32	d11, s22
 800945c:	ee3b bb08 	vadd.f64	d11, d11, d8
 8009460:	ee2b bb06 	vmul.f64	d11, d11, d6
 8009464:	ee2b bb07 	vmul.f64	d11, d11, d7
 8009468:	f000 fb62 	bl	8009b30 <SPE_sin_Hcbd8c48e05b139646178cc6f7987b8955b6ce985_cb4a8a449b4ada864625ee5a4355578a3aaf08ed>
 800946c:	ed94 6a3b 	vldr	s12, [r4, #236]	@ 0xec
 8009470:	edd4 6a3c 	vldr	s13, [r4, #240]	@ 0xf0
 8009474:	edd4 7a3e 	vldr	s15, [r4, #248]	@ 0xf8
 8009478:	ee2c ca00 	vmul.f32	s24, s24, s0
 800947c:	ed94 7a3d 	vldr	s14, [r4, #244]	@ 0xf4
 8009480:	ee67 7a86 	vmul.f32	s15, s15, s12
 8009484:	edd4 5a6e 	vldr	s11, [r4, #440]	@ 0x1b8
 8009488:	ee27 7a26 	vmul.f32	s14, s14, s13
 800948c:	ed94 6a86 	vldr	s12, [r4, #536]	@ 0x218
 8009490:	eeb0 0a65 	vmov.f32	s0, s11
 8009494:	eeb7 6ac6 	vcvt.f64.f32	d6, s12
 8009498:	ee77 7a87 	vadd.f32	s15, s15, s14
 800949c:	ee67 7aa5 	vmul.f32	s15, s15, s11
 80094a0:	ee27 7a8c 	vmul.f32	s14, s15, s24
 80094a4:	eeb7 7ac7 	vcvt.f64.f32	d7, s14
 80094a8:	ee3b bb47 	vsub.f64	d11, d11, d7
 80094ac:	ee0b ab06 	vmla.f64	d10, d11, d6
 80094b0:	f000 fb22 	bl	8009af8 <SPE_ipowSquare_Hcbd8c48e05b139646178cc6f7987b8955b6ce985_cb4a8a449b4ada864625ee5a4355578a3aaf08ed>
 80094b4:	ed94 ba74 	vldr	s22, [r4, #464]	@ 0x1d0
 80094b8:	eeb0 6a40 	vmov.f32	s12, s0
 80094bc:	ed94 0a82 	vldr	s0, [r4, #520]	@ 0x208
 80094c0:	eeb7 bacb 	vcvt.f64.f32	d11, s22
 80094c4:	eeb7 6ac6 	vcvt.f64.f32	d6, s12
 80094c8:	eeb0 cb4a 	vmov.f64	d12, d10
 80094cc:	edd4 aa18 	vldr	s21, [r4, #96]	@ 0x60
 80094d0:	ee8c 7b06 	vdiv.f64	d7, d12, d6
 80094d4:	ee39 9b47 	vsub.f64	d9, d9, d7
 80094d8:	eeb7 9bc9 	vcvt.f32.f64	s18, d9
 80094dc:	ed8d 9a06 	vstr	s18, [sp, #24]
 80094e0:	f000 fb26 	bl	8009b30 <SPE_sin_Hcbd8c48e05b139646178cc6f7987b8955b6ce985_cb4a8a449b4ada864625ee5a4355578a3aaf08ed>
 80094e4:	edd4 5a3b 	vldr	s11, [r4, #236]	@ 0xec
 80094e8:	ee6a aa80 	vmul.f32	s21, s21, s0
 80094ec:	ed94 6a3c 	vldr	s12, [r4, #240]	@ 0xf0
 80094f0:	edd4 7a3e 	vldr	s15, [r4, #248]	@ 0xf8
 80094f4:	ed94 7a3d 	vldr	s14, [r4, #244]	@ 0xf4
 80094f8:	ee67 7aa5 	vmul.f32	s15, s15, s11
 80094fc:	edd4 6a6e 	vldr	s13, [r4, #440]	@ 0x1b8
 8009500:	ee27 7a06 	vmul.f32	s14, s14, s12
 8009504:	ed94 0a82 	vldr	s0, [r4, #520]	@ 0x208
 8009508:	ed94 aa18 	vldr	s20, [r4, #96]	@ 0x60
 800950c:	ee37 9a87 	vadd.f32	s18, s15, s14
 8009510:	ee29 9a26 	vmul.f32	s18, s18, s13
 8009514:	f000 fb0e 	bl	8009b34 <SPE_cos_Hcbd8c48e05b139646178cc6f7987b8955b6ce985_cb4a8a449b4ada864625ee5a4355578a3aaf08ed>
 8009518:	ed94 6a3c 	vldr	s12, [r4, #240]	@ 0xf0
 800951c:	edd4 6a3b 	vldr	s13, [r4, #236]	@ 0xec
 8009520:	ed94 7a3e 	vldr	s14, [r4, #248]	@ 0xf8
 8009524:	ee29 9a2a 	vmul.f32	s18, s18, s21
 8009528:	edd4 7a3d 	vldr	s15, [r4, #244]	@ 0xf4
 800952c:	ee27 7a06 	vmul.f32	s14, s14, s12
 8009530:	ed94 4a6e 	vldr	s8, [r4, #440]	@ 0x1b8
 8009534:	ee67 7aa6 	vmul.f32	s15, s15, s13
 8009538:	ed94 5a85 	vldr	s10, [r4, #532]	@ 0x214
 800953c:	eeb7 4ac4 	vcvt.f64.f32	d4, s8
 8009540:	ee2a 6a00 	vmul.f32	s12, s20, s0
 8009544:	ed94 0a82 	vldr	s0, [r4, #520]	@ 0x208
 8009548:	ee37 7a67 	vsub.f32	s14, s14, s15
 800954c:	ed94 aa18 	vldr	s20, [r4, #96]	@ 0x60
 8009550:	eeb7 9ac9 	vcvt.f64.f32	d9, s18
 8009554:	eeb7 6ac6 	vcvt.f64.f32	d6, s12
 8009558:	eeb7 7ac7 	vcvt.f64.f32	d7, s14
 800955c:	eeb7 5ac5 	vcvt.f64.f32	d5, s10
 8009560:	ee37 7b08 	vadd.f64	d7, d7, d8
 8009564:	ee27 7b04 	vmul.f64	d7, d7, d4
 8009568:	ee07 9b46 	vmls.f64	d9, d7, d6
 800956c:	ee29 9b05 	vmul.f64	d9, d9, d5
 8009570:	f000 fae0 	bl	8009b34 <SPE_cos_Hcbd8c48e05b139646178cc6f7987b8955b6ce985_cb4a8a449b4ada864625ee5a4355578a3aaf08ed>
 8009574:	ed94 7a3b 	vldr	s14, [r4, #236]	@ 0xec
 8009578:	edd4 5a3c 	vldr	s11, [r4, #240]	@ 0xf0
 800957c:	edd4 7a3e 	vldr	s15, [r4, #248]	@ 0xf8
 8009580:	edd4 6a3d 	vldr	s13, [r4, #244]	@ 0xf4
 8009584:	ee67 7a87 	vmul.f32	s15, s15, s14
 8009588:	ed94 6a6e 	vldr	s12, [r4, #440]	@ 0x1b8
 800958c:	ee66 6aa5 	vmul.f32	s13, s13, s11
 8009590:	ed94 ca18 	vldr	s24, [r4, #96]	@ 0x60
 8009594:	ee2a 7a00 	vmul.f32	s14, s20, s0
 8009598:	ed94 0a82 	vldr	s0, [r4, #520]	@ 0x208
 800959c:	ee37 aaa6 	vadd.f32	s20, s15, s13
 80095a0:	ee2a aa06 	vmul.f32	s20, s20, s12
 80095a4:	ee2a aa07 	vmul.f32	s20, s20, s14
 80095a8:	f000 fac2 	bl	8009b30 <SPE_sin_Hcbd8c48e05b139646178cc6f7987b8955b6ce985_cb4a8a449b4ada864625ee5a4355578a3aaf08ed>
 80095ac:	ed94 6a3c 	vldr	s12, [r4, #240]	@ 0xf0
 80095b0:	edd4 5a3b 	vldr	s11, [r4, #236]	@ 0xec
 80095b4:	ed94 7a3e 	vldr	s14, [r4, #248]	@ 0xf8
 80095b8:	eeb7 aaca 	vcvt.f64.f32	d10, s20
 80095bc:	edd4 7a3d 	vldr	s15, [r4, #244]	@ 0xf4
 80095c0:	ee27 7a06 	vmul.f32	s14, s14, s12
 80095c4:	edd4 6a6e 	vldr	s13, [r4, #440]	@ 0x1b8
 80095c8:	ee67 7aa5 	vmul.f32	s15, s15, s11
 80095cc:	ed94 5a86 	vldr	s10, [r4, #536]	@ 0x218
 80095d0:	eeb7 4ae6 	vcvt.f64.f32	d4, s13
 80095d4:	ee2c 6a00 	vmul.f32	s12, s24, s0
 80095d8:	ee37 7a67 	vsub.f32	s14, s14, s15
 80095dc:	eeb0 0a66 	vmov.f32	s0, s13
 80095e0:	eeb7 6ac6 	vcvt.f64.f32	d6, s12
 80095e4:	eeb7 7ac7 	vcvt.f64.f32	d7, s14
 80095e8:	eeb7 5ac5 	vcvt.f64.f32	d5, s10
 80095ec:	ee37 7b08 	vadd.f64	d7, d7, d8
 80095f0:	ee27 7b04 	vmul.f64	d7, d7, d4
 80095f4:	ee07 ab06 	vmla.f64	d10, d7, d6
 80095f8:	ee0a 9b05 	vmla.f64	d9, d10, d5
 80095fc:	f000 fa7c 	bl	8009af8 <SPE_ipowSquare_Hcbd8c48e05b139646178cc6f7987b8955b6ce985_cb4a8a449b4ada864625ee5a4355578a3aaf08ed>
 8009600:	2306      	movs	r3, #6
 8009602:	aa0e      	add	r2, sp, #56	@ 0x38
 8009604:	a914      	add	r1, sp, #80	@ 0x50
 8009606:	4630      	mov	r0, r6
 8009608:	9301      	str	r3, [sp, #4]
 800960a:	ab08      	add	r3, sp, #32
 800960c:	eeb7 0ac0 	vcvt.f64.f32	d0, s0
 8009610:	9200      	str	r2, [sp, #0]
 8009612:	aa02      	add	r2, sp, #8
 8009614:	ee89 7b00 	vdiv.f64	d7, d9, d0
 8009618:	ee3b bb47 	vsub.f64	d11, d11, d7
 800961c:	eeb7 bbcb 	vcvt.f32.f64	s22, d11
 8009620:	ed8d ba07 	vstr	s22, [sp, #28]
 8009624:	f000 fab0 	bl	8009b88 <SPE_solveLinearEquations_Hcbd8c48e05b139646178cc6f7987b8955b6ce985_cb4a8a449b4ada864625ee5a4355578a3aaf08ed>
 8009628:	4afa      	ldr	r2, [pc, #1000]	@ (8009a14 <DoStep_Hcbd8c48e05b139646178cc6f7987b8955b6ce985_cb4a8a449b4ada864625ee5a4355578a3aaf08ed+0x22d4>)
 800962a:	f8d4 323c 	ldr.w	r3, [r4, #572]	@ 0x23c
 800962e:	6812      	ldr	r2, [r2, #0]
 8009630:	ea03 0102 	and.w	r1, r3, r2
 8009634:	428d      	cmp	r5, r1
 8009636:	f000 8211 	beq.w	8009a5c <DoStep_Hcbd8c48e05b139646178cc6f7987b8955b6ce985_cb4a8a449b4ada864625ee5a4355578a3aaf08ed+0x231c>
 800963a:	404b      	eors	r3, r1
 800963c:	4313      	orrs	r3, r2
 800963e:	f8c4 323c 	str.w	r3, [r4, #572]	@ 0x23c
 8009642:	ed94 0a82 	vldr	s0, [r4, #520]	@ 0x208
 8009646:	edd4 9a11 	vldr	s19, [r4, #68]	@ 0x44
 800964a:	f000 fa71 	bl	8009b30 <SPE_sin_Hcbd8c48e05b139646178cc6f7987b8955b6ce985_cb4a8a449b4ada864625ee5a4355578a3aaf08ed>
 800964e:	eeb0 8a40 	vmov.f32	s16, s0
 8009652:	edd4 7a87 	vldr	s15, [r4, #540]	@ 0x21c
 8009656:	ed94 0a82 	vldr	s0, [r4, #520]	@ 0x208
 800965a:	ee28 8a27 	vmul.f32	s16, s16, s15
 800965e:	f000 fa69 	bl	8009b34 <SPE_cos_Hcbd8c48e05b139646178cc6f7987b8955b6ce985_cb4a8a449b4ada864625ee5a4355578a3aaf08ed>
 8009662:	eef0 8a40 	vmov.f32	s17, s0
 8009666:	edd4 7a88 	vldr	s15, [r4, #544]	@ 0x220
 800966a:	ed94 0a82 	vldr	s0, [r4, #520]	@ 0x208
 800966e:	ed94 9a11 	vldr	s18, [r4, #68]	@ 0x44
 8009672:	ee68 8aa7 	vmul.f32	s17, s17, s15
 8009676:	f000 fa5b 	bl	8009b30 <SPE_sin_Hcbd8c48e05b139646178cc6f7987b8955b6ce985_cb4a8a449b4ada864625ee5a4355578a3aaf08ed>
 800967a:	edd4 7a88 	vldr	s15, [r4, #544]	@ 0x220
 800967e:	ee78 8a88 	vadd.f32	s17, s17, s16
 8009682:	eeb0 8a40 	vmov.f32	s16, s0
 8009686:	ed94 0a82 	vldr	s0, [r4, #520]	@ 0x208
 800968a:	ee68 8aa9 	vmul.f32	s17, s17, s19
 800968e:	ee28 8a27 	vmul.f32	s16, s16, s15
 8009692:	f000 fa4f 	bl	8009b34 <SPE_cos_Hcbd8c48e05b139646178cc6f7987b8955b6ce985_cb4a8a449b4ada864625ee5a4355578a3aaf08ed>
 8009696:	edd4 7a87 	vldr	s15, [r4, #540]	@ 0x21c
 800969a:	edd4 6a58 	vldr	s13, [r4, #352]	@ 0x160
 800969e:	ed94 7a88 	vldr	s14, [r4, #544]	@ 0x220
 80096a2:	ee20 0a27 	vmul.f32	s0, s0, s15
 80096a6:	ed94 6a5b 	vldr	s12, [r4, #364]	@ 0x16c
 80096aa:	ee67 5aa6 	vmul.f32	s11, s15, s13
 80096ae:	ee66 6a87 	vmul.f32	s13, s13, s14
 80096b2:	ed94 aa85 	vldr	s20, [r4, #532]	@ 0x214
 80096b6:	ee67 7a86 	vmul.f32	s15, s15, s12
 80096ba:	ed94 6a5c 	vldr	s12, [r4, #368]	@ 0x170
 80096be:	ee3a aa65 	vsub.f32	s20, s20, s11
 80096c2:	edd4 aa86 	vldr	s21, [r4, #536]	@ 0x218
 80096c6:	ee27 7a06 	vmul.f32	s14, s14, s12
 80096ca:	ed94 ba18 	vldr	s22, [r4, #96]	@ 0x60
 80096ce:	ee77 7aa6 	vadd.f32	s15, s15, s13
 80096d2:	ee38 8a40 	vsub.f32	s16, s16, s0
 80096d6:	ed94 0a82 	vldr	s0, [r4, #520]	@ 0x208
 80096da:	ee3a aa07 	vadd.f32	s20, s20, s14
 80096de:	ee7a aae7 	vsub.f32	s21, s21, s15
 80096e2:	f000 fa25 	bl	8009b30 <SPE_sin_Hcbd8c48e05b139646178cc6f7987b8955b6ce985_cb4a8a449b4ada864625ee5a4355578a3aaf08ed>
 80096e6:	ee28 8a09 	vmul.f32	s16, s16, s18
 80096ea:	eeb0 9a40 	vmov.f32	s18, s0
 80096ee:	ed94 0a82 	vldr	s0, [r4, #520]	@ 0x208
 80096f2:	f000 fa1f 	bl	8009b34 <SPE_cos_Hcbd8c48e05b139646178cc6f7987b8955b6ce985_cb4a8a449b4ada864625ee5a4355578a3aaf08ed>
 80096f6:	eef0 9a40 	vmov.f32	s19, s0
 80096fa:	ed94 0a6e 	vldr	s0, [r4, #440]	@ 0x1b8
 80096fe:	ee2a 9a09 	vmul.f32	s18, s20, s18
 8009702:	f000 f9f9 	bl	8009af8 <SPE_ipowSquare_Hcbd8c48e05b139646178cc6f7987b8955b6ce985_cb4a8a449b4ada864625ee5a4355578a3aaf08ed>
 8009706:	ee6a 9aa9 	vmul.f32	s19, s21, s19
 800970a:	ed94 0a82 	vldr	s0, [r4, #520]	@ 0x208
 800970e:	ee79 9a89 	vadd.f32	s19, s19, s18
 8009712:	ee69 9a8b 	vmul.f32	s19, s19, s22
 8009716:	ed94 ba18 	vldr	s22, [r4, #96]	@ 0x60
 800971a:	f000 fa09 	bl	8009b30 <SPE_sin_Hcbd8c48e05b139646178cc6f7987b8955b6ce985_cb4a8a449b4ada864625ee5a4355578a3aaf08ed>
 800971e:	eeb0 9a40 	vmov.f32	s18, s0
 8009722:	ed94 0a82 	vldr	s0, [r4, #520]	@ 0x208
 8009726:	f000 fa05 	bl	8009b34 <SPE_cos_Hcbd8c48e05b139646178cc6f7987b8955b6ce985_cb4a8a449b4ada864625ee5a4355578a3aaf08ed>
 800972a:	eef0 7a40 	vmov.f32	s15, s0
 800972e:	ee2a 9a89 	vmul.f32	s18, s21, s18
 8009732:	ed94 0a6e 	vldr	s0, [r4, #440]	@ 0x1b8
 8009736:	ee6a 7a27 	vmul.f32	s15, s20, s15
 800973a:	ee39 9a67 	vsub.f32	s18, s18, s15
 800973e:	f000 f9db 	bl	8009af8 <SPE_ipowSquare_Hcbd8c48e05b139646178cc6f7987b8955b6ce985_cb4a8a449b4ada864625ee5a4355578a3aaf08ed>
 8009742:	eeb0 0a69 	vmov.f32	s0, s19
 8009746:	f000 f9d7 	bl	8009af8 <SPE_ipowSquare_Hcbd8c48e05b139646178cc6f7987b8955b6ce985_cb4a8a449b4ada864625ee5a4355578a3aaf08ed>
 800974a:	ee29 9a0b 	vmul.f32	s18, s18, s22
 800974e:	eeb0 ba40 	vmov.f32	s22, s0
 8009752:	eeb0 0a49 	vmov.f32	s0, s18
 8009756:	f000 f9cf 	bl	8009af8 <SPE_ipowSquare_Hcbd8c48e05b139646178cc6f7987b8955b6ce985_cb4a8a449b4ada864625ee5a4355578a3aaf08ed>
 800975a:	ee3b 0a00 	vadd.f32	s0, s22, s0
 800975e:	f000 f9db 	bl	8009b18 <SPE_sqrt_Hcbd8c48e05b139646178cc6f7987b8955b6ce985_cb4a8a449b4ada864625ee5a4355578a3aaf08ed>
 8009762:	edd4 7a0e 	vldr	s15, [r4, #56]	@ 0x38
 8009766:	ed94 7a01 	vldr	s14, [r4, #4]
 800976a:	eeb7 3b00 	vmov.f64	d3, #112	@ 0x3f800000  1.0
 800976e:	ed94 6a4b 	vldr	s12, [r4, #300]	@ 0x12c
 8009772:	4630      	mov	r0, r6
 8009774:	ee77 5a87 	vadd.f32	s11, s15, s14
 8009778:	edd4 7a4a 	vldr	s15, [r4, #296]	@ 0x128
 800977c:	edd4 6a7a 	vldr	s13, [r4, #488]	@ 0x1e8
 8009780:	ee87 ba86 	vdiv.f32	s22, s15, s12
 8009784:	ed94 7a0c 	vldr	s14, [r4, #48]	@ 0x30
 8009788:	ed84 0a04 	vstr	s0, [r4, #16]
 800978c:	ed94 4a7b 	vldr	s8, [r4, #492]	@ 0x1ec
 8009790:	ee75 5ae6 	vsub.f32	s11, s11, s13
 8009794:	ee80 2a26 	vdiv.f32	s4, s0, s13
 8009798:	ee67 7a27 	vmul.f32	s15, s14, s15
 800979c:	ee70 1a66 	vsub.f32	s3, s0, s13
 80097a0:	ed94 0a0d 	vldr	s0, [r4, #52]	@ 0x34
 80097a4:	ee67 7aa5 	vmul.f32	s15, s15, s11
 80097a8:	eeb7 0ac0 	vcvt.f64.f32	d0, s0
 80097ac:	eeb7 bacb 	vcvt.f64.f32	d11, s22
 80097b0:	ee87 5a86 	vdiv.f32	s10, s15, s12
 80097b4:	ee33 bb4b 	vsub.f64	d11, d3, d11
 80097b8:	eeb7 7ac7 	vcvt.f64.f32	d7, s14
 80097bc:	eeb7 2ac2 	vcvt.f64.f32	d2, s4
 80097c0:	eeb7 6ac6 	vcvt.f64.f32	d6, s12
 80097c4:	ee2b bb07 	vmul.f64	d11, d11, d7
 80097c8:	edd4 7a27 	vldr	s15, [r4, #156]	@ 0x9c
 80097cc:	ed94 7a4d 	vldr	s14, [r4, #308]	@ 0x134
 80097d0:	ee32 2b43 	vsub.f64	d2, d2, d3
 80097d4:	ee02 3b00 	vmla.f64	d3, d2, d0
 80097d8:	ed94 0a79 	vldr	s0, [r4, #484]	@ 0x1e4
 80097dc:	edd4 0a0f 	vldr	s1, [r4, #60]	@ 0x3c
 80097e0:	eeb7 2ae5 	vcvt.f64.f32	d2, s11
 80097e4:	ee35 5a04 	vadd.f32	s10, s10, s8
 80097e8:	eeb7 4ac4 	vcvt.f64.f32	d4, s8
 80097ec:	ee35 5a27 	vadd.f32	s10, s10, s15
 80097f0:	ee1b 4b02 	vnmls.f64	d4, d11, d2
 80097f4:	eec1 7a87 	vdiv.f32	s15, s3, s14
 80097f8:	eeb7 5ac5 	vcvt.f64.f32	d5, s10
 80097fc:	ee84 2b06 	vdiv.f64	d2, d4, d6
 8009800:	ed94 4a4c 	vldr	s8, [r4, #304]	@ 0x130
 8009804:	eeb7 4ac4 	vcvt.f64.f32	d4, s8
 8009808:	edc4 7a77 	vstr	s15, [r4, #476]	@ 0x1dc
 800980c:	eef7 7bc2 	vcvt.f32.f64	s15, d2
 8009810:	edc4 7a78 	vstr	s15, [r4, #480]	@ 0x1e0
 8009814:	eeb7 7ac0 	vcvt.f64.f32	d7, s0
 8009818:	ee15 7b03 	vnmls.f64	d7, d5, d3
 800981c:	ee87 6b04 	vdiv.f64	d6, d7, d4
 8009820:	eeb7 6bc6 	vcvt.f32.f64	s12, d6
 8009824:	ed84 6a76 	vstr	s12, [r4, #472]	@ 0x1d8
 8009828:	f000 f954 	bl	8009ad4 <SPE_greater_Hcbd8c48e05b139646178cc6f7987b8955b6ce985_cb4a8a449b4ada864625ee5a4355578a3aaf08ed>
 800982c:	2800      	cmp	r0, #0
 800982e:	f000 8128 	beq.w	8009a82 <DoStep_Hcbd8c48e05b139646178cc6f7987b8955b6ce985_cb4a8a449b4ada864625ee5a4355578a3aaf08ed+0x2342>
 8009832:	edd4 6a0f 	vldr	s13, [r4, #60]	@ 0x3c
 8009836:	edd4 5a59 	vldr	s11, [r4, #356]	@ 0x164
 800983a:	ed94 1a54 	vldr	s2, [r4, #336]	@ 0x150
 800983e:	edd4 7a5b 	vldr	s15, [r4, #364]	@ 0x16c
 8009842:	ed94 6a5d 	vldr	s12, [r4, #372]	@ 0x174
 8009846:	ee21 4a27 	vmul.f32	s8, s2, s15
 800984a:	ed94 5a52 	vldr	s10, [r4, #328]	@ 0x148
 800984e:	ee36 6a65 	vsub.f32	s12, s12, s11
 8009852:	ed94 3a19 	vldr	s6, [r4, #100]	@ 0x64
 8009856:	ee75 4ae7 	vsub.f32	s9, s11, s15
 800985a:	edd4 3a57 	vldr	s7, [r4, #348]	@ 0x15c
 800985e:	ee66 7a83 	vmul.f32	s15, s13, s6
 8009862:	ed94 7a56 	vldr	s14, [r4, #344]	@ 0x158
 8009866:	ee24 4a06 	vmul.f32	s8, s8, s12
 800986a:	ed94 2a55 	vldr	s4, [r4, #340]	@ 0x154
 800986e:	ed94 0a53 	vldr	s0, [r4, #332]	@ 0x14c
 8009872:	edd4 ba88 	vldr	s23, [r4, #544]	@ 0x220
 8009876:	ee84 3a05 	vdiv.f32	s6, s8, s10
 800987a:	ee87 4a05 	vdiv.f32	s8, s14, s10
 800987e:	eec3 6a25 	vdiv.f32	s13, s6, s11
 8009882:	edd4 5a5e 	vldr	s11, [r4, #376]	@ 0x178
 8009886:	ee87 3aa3 	vdiv.f32	s6, s15, s7
 800988a:	edd4 3a5a 	vldr	s7, [r4, #360]	@ 0x168
 800988e:	edd4 7a84 	vldr	s15, [r4, #528]	@ 0x210
 8009892:	ee75 5ae3 	vsub.f32	s11, s11, s7
 8009896:	ee74 4aa6 	vadd.f32	s9, s9, s13
 800989a:	ee36 6a66 	vsub.f32	s12, s12, s13
 800989e:	ee63 6a07 	vmul.f32	s13, s6, s14
 80098a2:	ed94 7a58 	vldr	s14, [r4, #352]	@ 0x160
 80098a6:	eec6 0a85 	vdiv.f32	s1, s13, s10
 80098aa:	edd4 6a5c 	vldr	s13, [r4, #368]	@ 0x170
 80098ae:	ee62 2a26 	vmul.f32	s5, s4, s13
 80098b2:	ee73 6ae6 	vsub.f32	s13, s7, s13
 80098b6:	ee62 2aa5 	vmul.f32	s5, s5, s11
 80098ba:	eec2 1a80 	vdiv.f32	s3, s5, s0
 80098be:	eec1 2aa3 	vdiv.f32	s5, s3, s7
 80098c2:	eeb7 3ac3 	vcvt.f64.f32	d3, s6
 80098c6:	ee76 6aa2 	vadd.f32	s13, s13, s5
 80098ca:	ee75 5ae2 	vsub.f32	s11, s11, s5
 80098ce:	ee67 2a2b 	vmul.f32	s5, s14, s23
 80098d2:	ee66 1aab 	vmul.f32	s3, s13, s23
 80098d6:	edd4 6a87 	vldr	s13, [r4, #540]	@ 0x21c
 80098da:	ee25 baab 	vmul.f32	s22, s11, s23
 80098de:	ee26 7a87 	vmul.f32	s14, s13, s14
 80098e2:	ee72 2aaa 	vadd.f32	s5, s5, s21
 80098e6:	ee26 6a26 	vmul.f32	s12, s12, s13
 80098ea:	ee37 7a0a 	vadd.f32	s14, s14, s20
 80098ee:	ee62 2aab 	vmul.f32	s5, s5, s23
 80098f2:	ee24 caa6 	vmul.f32	s24, s9, s13
 80098f6:	ee27 7a26 	vmul.f32	s14, s14, s13
 80098fa:	ee36 6a27 	vadd.f32	s12, s12, s15
 80098fe:	eeb7 4ac4 	vcvt.f64.f32	d4, s8
 8009902:	ee72 2a87 	vadd.f32	s5, s5, s14
 8009906:	ed94 7a86 	vldr	s14, [r4, #536]	@ 0x218
 800990a:	eeb7 6ac6 	vcvt.f64.f32	d6, s12
 800990e:	ee77 7ac7 	vsub.f32	s15, s15, s14
 8009912:	eeb7 5ac5 	vcvt.f64.f32	d5, s10
 8009916:	ee28 aaa9 	vmul.f32	s20, s17, s19
 800991a:	ee77 7acc 	vsub.f32	s15, s15, s24
 800991e:	ee77 7aa0 	vadd.f32	s15, s15, s1
 8009922:	eddf 0a3d 	vldr	s1, [pc, #244]	@ 8009a18 <DoStep_Hcbd8c48e05b139646178cc6f7987b8955b6ce985_cb4a8a449b4ada864625ee5a4355578a3aaf08ed+0x22d8>
 8009926:	ee87 7a81 	vdiv.f32	s14, s15, s2
 800992a:	edd4 7a83 	vldr	s15, [r4, #524]	@ 0x20c
 800992e:	ed94 1a16 	vldr	s2, [r4, #88]	@ 0x58
 8009932:	ee3b ba67 	vsub.f32	s22, s22, s15
 8009936:	ed84 7a80 	vstr	s14, [r4, #512]	@ 0x200
 800993a:	ee8b 7a00 	vdiv.f32	s14, s22, s0
 800993e:	eeb7 bb00 	vmov.f64	d11, #112	@ 0x3f800000  1.0
 8009942:	ee3b 4b44 	vsub.f64	d4, d11, d4
 8009946:	ee14 6b03 	vnmls.f64	d6, d4, d3
 800994a:	ed84 7a7d 	vstr	s14, [r4, #500]	@ 0x1f4
 800994e:	ed94 7a23 	vldr	s14, [r4, #140]	@ 0x8c
 8009952:	ee27 7a01 	vmul.f32	s14, s14, s2
 8009956:	ed94 1a89 	vldr	s2, [r4, #548]	@ 0x224
 800995a:	ee86 4b05 	vdiv.f64	d4, d6, d5
 800995e:	ee37 7a62 	vsub.f32	s14, s14, s5
 8009962:	edd4 2a85 	vldr	s5, [r4, #532]	@ 0x214
 8009966:	ee77 7ae2 	vsub.f32	s15, s15, s5
 800996a:	ee71 1aa7 	vadd.f32	s3, s3, s15
 800996e:	eef7 7a00 	vmov.f32	s15, #112	@ 0x3f800000  1.0
 8009972:	eec1 2a82 	vdiv.f32	s5, s3, s4
 8009976:	edd4 1a50 	vldr	s3, [r4, #320]	@ 0x140
 800997a:	ee87 2a21 	vdiv.f32	s4, s14, s3
 800997e:	ed94 7a29 	vldr	s14, [r4, #164]	@ 0xa4
 8009982:	ee71 7a67 	vsub.f32	s15, s2, s15
 8009986:	eeb7 1ac1 	vcvt.f64.f32	d1, s2
 800998a:	ee31 1b4b 	vsub.f64	d1, d1, d11
 800998e:	edc4 2a7f 	vstr	s5, [r4, #508]	@ 0x1fc
 8009992:	edd4 2a44 	vldr	s5, [r4, #272]	@ 0x110
 8009996:	ee67 2aa2 	vmul.f32	s5, s15, s5
 800999a:	eeb7 7ac7 	vcvt.f64.f32	d7, s14
 800999e:	eeb7 4bc4 	vcvt.f32.f64	s8, d4
 80099a2:	ed84 2a81 	vstr	s4, [r4, #516]	@ 0x204
 80099a6:	ee28 2a09 	vmul.f32	s4, s16, s18
 80099aa:	ee27 7b01 	vmul.f64	d7, d7, d1
 80099ae:	ed84 4a7e 	vstr	s8, [r4, #504]	@ 0x1f8
 80099b2:	ee3a aa02 	vadd.f32	s20, s20, s4
 80099b6:	eeb7 7bc7 	vcvt.f32.f64	s14, d7
 80099ba:	ed84 7a7c 	vstr	s14, [r4, #496]	@ 0x1f0
 80099be:	edd4 7a71 	vldr	s15, [r4, #452]	@ 0x1c4
 80099c2:	ed94 6a08 	vldr	s12, [r4, #32]
 80099c6:	ed94 7a72 	vldr	s14, [r4, #456]	@ 0x1c8
 80099ca:	ee62 7aa7 	vmul.f32	s15, s5, s15
 80099ce:	edd4 6a0b 	vldr	s13, [r4, #44]	@ 0x2c
 80099d2:	ee27 7a06 	vmul.f32	s14, s14, s12
 80099d6:	ed94 0a67 	vldr	s0, [r4, #412]	@ 0x19c
 80099da:	ee2a aa26 	vmul.f32	s20, s20, s13
 80099de:	ee77 7a87 	vadd.f32	s15, s15, s14
 80099e2:	edc4 7a06 	vstr	s15, [r4, #24]
 80099e6:	f000 f88b 	bl	8009b00 <SPE_rmax_Hcbd8c48e05b139646178cc6f7987b8955b6ce985_cb4a8a449b4ada864625ee5a4355578a3aaf08ed>
 80099ea:	ee8a 7a00 	vdiv.f32	s14, s20, s0
 80099ee:	edd4 7a0b 	vldr	s15, [r4, #44]	@ 0x2c
 80099f2:	eddf 0a09 	vldr	s1, [pc, #36]	@ 8009a18 <DoStep_Hcbd8c48e05b139646178cc6f7987b8955b6ce985_cb4a8a449b4ada864625ee5a4355578a3aaf08ed+0x22d8>
 80099f6:	ed94 0a67 	vldr	s0, [r4, #412]	@ 0x19c
 80099fa:	ee28 8a29 	vmul.f32	s16, s16, s19
 80099fe:	ee68 8a89 	vmul.f32	s17, s17, s18
 8009a02:	ee38 8a68 	vsub.f32	s16, s16, s17
 8009a06:	ee27 8ac8 	vnmul.f32	s16, s15, s16
 8009a0a:	ed84 7a02 	vstr	s14, [r4, #8]
 8009a0e:	f000 f877 	bl	8009b00 <SPE_rmax_Hcbd8c48e05b139646178cc6f7987b8955b6ce985_cb4a8a449b4ada864625ee5a4355578a3aaf08ed>
 8009a12:	e003      	b.n	8009a1c <DoStep_Hcbd8c48e05b139646178cc6f7987b8955b6ce985_cb4a8a449b4ada864625ee5a4355578a3aaf08ed+0x22dc>
 8009a14:	0800a728 	.word	0x0800a728
 8009a18:	00000000 	.word	0x00000000
 8009a1c:	eec8 7a00 	vdiv.f32	s15, s16, s0
 8009a20:	f8d4 323c 	ldr.w	r3, [r4, #572]	@ 0x23c
 8009a24:	2201      	movs	r2, #1
 8009a26:	432b      	orrs	r3, r5
 8009a28:	f884 2238 	strb.w	r2, [r4, #568]	@ 0x238
 8009a2c:	f8c4 323c 	str.w	r3, [r4, #572]	@ 0x23c
 8009a30:	edc4 7a03 	vstr	s15, [r4, #12]
 8009a34:	b039      	add	sp, #228	@ 0xe4
 8009a36:	ecbd 8b10 	vpop	{d8-d15}
 8009a3a:	bdf0      	pop	{r4, r5, r6, r7, pc}
 8009a3c:	ed1f 0a0a 	vldr	s0, [pc, #-40]	@ 8009a18 <DoStep_Hcbd8c48e05b139646178cc6f7987b8955b6ce985_cb4a8a449b4ada864625ee5a4355578a3aaf08ed+0x22d8>
 8009a40:	f7fd beed 	b.w	800781e <DoStep_Hcbd8c48e05b139646178cc6f7987b8955b6ce985_cb4a8a449b4ada864625ee5a4355578a3aaf08ed+0xde>
 8009a44:	ed9f 9b16 	vldr	d9, [pc, #88]	@ 8009aa0 <DoStep_Hcbd8c48e05b139646178cc6f7987b8955b6ce985_cb4a8a449b4ada864625ee5a4355578a3aaf08ed+0x2360>
 8009a48:	ed9f bb17 	vldr	d11, [pc, #92]	@ 8009aa8 <DoStep_Hcbd8c48e05b139646178cc6f7987b8955b6ce985_cb4a8a449b4ada864625ee5a4355578a3aaf08ed+0x2368>
 8009a4c:	ee02 6b49 	vmls.f64	d6, d2, d9
 8009a50:	ee36 ab0a 	vadd.f64	d10, d6, d10
 8009a54:	ee2a ab03 	vmul.f64	d10, d10, d3
 8009a58:	f7fe b916 	b.w	8007c88 <DoStep_Hcbd8c48e05b139646178cc6f7987b8955b6ce985_cb4a8a449b4ada864625ee5a4355578a3aaf08ed+0x548>
 8009a5c:	9a02      	ldr	r2, [sp, #8]
 8009a5e:	9b03      	ldr	r3, [sp, #12]
 8009a60:	f8c4 2230 	str.w	r2, [r4, #560]	@ 0x230
 8009a64:	f8c4 3234 	str.w	r3, [r4, #564]	@ 0x234
 8009a68:	9a04      	ldr	r2, [sp, #16]
 8009a6a:	9b05      	ldr	r3, [sp, #20]
 8009a6c:	f8c4 222c 	str.w	r2, [r4, #556]	@ 0x22c
 8009a70:	f8c4 3228 	str.w	r3, [r4, #552]	@ 0x228
 8009a74:	9a06      	ldr	r2, [sp, #24]
 8009a76:	9b07      	ldr	r3, [sp, #28]
 8009a78:	f8c4 2220 	str.w	r2, [r4, #544]	@ 0x220
 8009a7c:	f8c4 321c 	str.w	r3, [r4, #540]	@ 0x21c
 8009a80:	e5df      	b.n	8009642 <DoStep_Hcbd8c48e05b139646178cc6f7987b8955b6ce985_cb4a8a449b4ada864625ee5a4355578a3aaf08ed+0x1f02>
 8009a82:	edd4 0a10 	vldr	s1, [r4, #64]	@ 0x40
 8009a86:	4630      	mov	r0, r6
 8009a88:	ed94 0a79 	vldr	s0, [r4, #484]	@ 0x1e4
 8009a8c:	f000 f810 	bl	8009ab0 <SPE_less_Hcbd8c48e05b139646178cc6f7987b8955b6ce985_cb4a8a449b4ada864625ee5a4355578a3aaf08ed>
 8009a90:	b110      	cbz	r0, 8009a98 <DoStep_Hcbd8c48e05b139646178cc6f7987b8955b6ce985_cb4a8a449b4ada864625ee5a4355578a3aaf08ed+0x2358>
 8009a92:	edd4 6a10 	vldr	s13, [r4, #64]	@ 0x40
 8009a96:	e6ce      	b.n	8009836 <DoStep_Hcbd8c48e05b139646178cc6f7987b8955b6ce985_cb4a8a449b4ada864625ee5a4355578a3aaf08ed+0x20f6>
 8009a98:	edd4 6a79 	vldr	s13, [r4, #484]	@ 0x1e4
 8009a9c:	e6cb      	b.n	8009836 <DoStep_Hcbd8c48e05b139646178cc6f7987b8955b6ce985_cb4a8a449b4ada864625ee5a4355578a3aaf08ed+0x20f6>
 8009a9e:	bf00      	nop
 8009aa0:	00000000 	.word	0x00000000
 8009aa4:	c0a15800 	.word	0xc0a15800
 8009aa8:	00000000 	.word	0x00000000
 8009aac:	40a15800 	.word	0x40a15800

08009ab0 <SPE_less_Hcbd8c48e05b139646178cc6f7987b8955b6ce985_cb4a8a449b4ada864625ee5a4355578a3aaf08ed>:
 8009ab0:	eeb4 0a60 	vcmp.f32	s0, s1
 8009ab4:	eef1 fa10 	vmrs	APSR_nzcv, fpscr
 8009ab8:	d607      	bvs.n	8009aca <SPE_less_Hcbd8c48e05b139646178cc6f7987b8955b6ce985_cb4a8a449b4ada864625ee5a4355578a3aaf08ed+0x1a>
 8009aba:	eeb4 0a60 	vcmp.f32	s0, s1
 8009abe:	eef1 fa10 	vmrs	APSR_nzcv, fpscr
 8009ac2:	bf4c      	ite	mi
 8009ac4:	2001      	movmi	r0, #1
 8009ac6:	2000      	movpl	r0, #0
 8009ac8:	4770      	bx	lr
 8009aca:	6803      	ldr	r3, [r0, #0]
 8009acc:	f043 0304 	orr.w	r3, r3, #4
 8009ad0:	6003      	str	r3, [r0, #0]
 8009ad2:	e7f2      	b.n	8009aba <SPE_less_Hcbd8c48e05b139646178cc6f7987b8955b6ce985_cb4a8a449b4ada864625ee5a4355578a3aaf08ed+0xa>

08009ad4 <SPE_greater_Hcbd8c48e05b139646178cc6f7987b8955b6ce985_cb4a8a449b4ada864625ee5a4355578a3aaf08ed>:
 8009ad4:	eeb4 0a60 	vcmp.f32	s0, s1
 8009ad8:	eef1 fa10 	vmrs	APSR_nzcv, fpscr
 8009adc:	d607      	bvs.n	8009aee <SPE_greater_Hcbd8c48e05b139646178cc6f7987b8955b6ce985_cb4a8a449b4ada864625ee5a4355578a3aaf08ed+0x1a>
 8009ade:	eeb4 0a60 	vcmp.f32	s0, s1
 8009ae2:	eef1 fa10 	vmrs	APSR_nzcv, fpscr
 8009ae6:	bfcc      	ite	gt
 8009ae8:	2001      	movgt	r0, #1
 8009aea:	2000      	movle	r0, #0
 8009aec:	4770      	bx	lr
 8009aee:	6803      	ldr	r3, [r0, #0]
 8009af0:	f043 0304 	orr.w	r3, r3, #4
 8009af4:	6003      	str	r3, [r0, #0]
 8009af6:	e7f2      	b.n	8009ade <SPE_greater_Hcbd8c48e05b139646178cc6f7987b8955b6ce985_cb4a8a449b4ada864625ee5a4355578a3aaf08ed+0xa>

08009af8 <SPE_ipowSquare_Hcbd8c48e05b139646178cc6f7987b8955b6ce985_cb4a8a449b4ada864625ee5a4355578a3aaf08ed>:
 8009af8:	ee20 0a00 	vmul.f32	s0, s0, s0
 8009afc:	4770      	bx	lr
 8009afe:	bf00      	nop

08009b00 <SPE_rmax_Hcbd8c48e05b139646178cc6f7987b8955b6ce985_cb4a8a449b4ada864625ee5a4355578a3aaf08ed>:
 8009b00:	eeb4 0ae0 	vcmpe.f32	s0, s1
 8009b04:	eef1 fa10 	vmrs	APSR_nzcv, fpscr
 8009b08:	dc05      	bgt.n	8009b16 <SPE_rmax_Hcbd8c48e05b139646178cc6f7987b8955b6ce985_cb4a8a449b4ada864625ee5a4355578a3aaf08ed+0x16>
 8009b0a:	eeb4 0a40 	vcmp.f32	s0, s0
 8009b0e:	eef1 fa10 	vmrs	APSR_nzcv, fpscr
 8009b12:	fe10 0a20 	vselvs.f32	s0, s0, s1
 8009b16:	4770      	bx	lr

08009b18 <SPE_sqrt_Hcbd8c48e05b139646178cc6f7987b8955b6ce985_cb4a8a449b4ada864625ee5a4355578a3aaf08ed>:
 8009b18:	eeb5 0a40 	vcmp.f32	s0, #0.0
 8009b1c:	eef0 7a40 	vmov.f32	s15, s0
 8009b20:	eef1 fa10 	vmrs	APSR_nzcv, fpscr
 8009b24:	d402      	bmi.n	8009b2c <SPE_sqrt_Hcbd8c48e05b139646178cc6f7987b8955b6ce985_cb4a8a449b4ada864625ee5a4355578a3aaf08ed+0x14>
 8009b26:	eeb1 0ae7 	vsqrt.f32	s0, s15
 8009b2a:	4770      	bx	lr
 8009b2c:	f000 ba2a 	b.w	8009f84 <sqrtf>

08009b30 <SPE_sin_Hcbd8c48e05b139646178cc6f7987b8955b6ce985_cb4a8a449b4ada864625ee5a4355578a3aaf08ed>:
 8009b30:	f000 bb26 	b.w	800a180 <sinf>

08009b34 <SPE_cos_Hcbd8c48e05b139646178cc6f7987b8955b6ce985_cb4a8a449b4ada864625ee5a4355578a3aaf08ed>:
 8009b34:	f000 bc1c 	b.w	800a370 <cosf>

08009b38 <SPE_atan2_Hcbd8c48e05b139646178cc6f7987b8955b6ce985_cb4a8a449b4ada864625ee5a4355578a3aaf08ed>:
 8009b38:	eddf 7a10 	vldr	s15, [pc, #64]	@ 8009b7c <SPE_atan2_Hcbd8c48e05b139646178cc6f7987b8955b6ce985_cb4a8a449b4ada864625ee5a4355578a3aaf08ed+0x44>
 8009b3c:	eeb4 0a67 	vcmp.f32	s0, s15
 8009b40:	eef1 fa10 	vmrs	APSR_nzcv, fpscr
 8009b44:	d117      	bne.n	8009b76 <SPE_atan2_Hcbd8c48e05b139646178cc6f7987b8955b6ce985_cb4a8a449b4ada864625ee5a4355578a3aaf08ed+0x3e>
 8009b46:	eef4 0a67 	vcmp.f32	s1, s15
 8009b4a:	eef1 fa10 	vmrs	APSR_nzcv, fpscr
 8009b4e:	d812      	bhi.n	8009b76 <SPE_atan2_Hcbd8c48e05b139646178cc6f7987b8955b6ce985_cb4a8a449b4ada864625ee5a4355578a3aaf08ed+0x3e>
 8009b50:	4a0b      	ldr	r2, [pc, #44]	@ (8009b80 <SPE_atan2_Hcbd8c48e05b139646178cc6f7987b8955b6ce985_cb4a8a449b4ada864625ee5a4355578a3aaf08ed+0x48>)
 8009b52:	4b0c      	ldr	r3, [pc, #48]	@ (8009b84 <SPE_atan2_Hcbd8c48e05b139646178cc6f7987b8955b6ce985_cb4a8a449b4ada864625ee5a4355578a3aaf08ed+0x4c>)
 8009b54:	7811      	ldrb	r1, [r2, #0]
 8009b56:	ed93 0a00 	vldr	s0, [r3]
 8009b5a:	b971      	cbnz	r1, 8009b7a <SPE_atan2_Hcbd8c48e05b139646178cc6f7987b8955b6ce985_cb4a8a449b4ada864625ee5a4355578a3aaf08ed+0x42>
 8009b5c:	eeb7 7a00 	vmov.f32	s14, #112	@ 0x3f800000  1.0
 8009b60:	2101      	movs	r1, #1
 8009b62:	7011      	strb	r1, [r2, #0]
 8009b64:	ee30 7a47 	vsub.f32	s14, s0, s14
 8009b68:	ee77 7a27 	vadd.f32	s15, s14, s15
 8009b6c:	ee87 0a27 	vdiv.f32	s0, s14, s15
 8009b70:	ed83 0a00 	vstr	s0, [r3]
 8009b74:	4770      	bx	lr
 8009b76:	f000 ba03 	b.w	8009f80 <atan2f>
 8009b7a:	4770      	bx	lr
 8009b7c:	00000000 	.word	0x00000000
 8009b80:	24000158 	.word	0x24000158
 8009b84:	24000010 	.word	0x24000010

08009b88 <SPE_solveLinearEquations_Hcbd8c48e05b139646178cc6f7987b8955b6ce985_cb4a8a449b4ada864625ee5a4355578a3aaf08ed>:
 8009b88:	e92d 4ff0 	stmdb	sp!, {r4, r5, r6, r7, r8, r9, sl, fp, lr}
 8009b8c:	b08d      	sub	sp, #52	@ 0x34
 8009b8e:	9c17      	ldr	r4, [sp, #92]	@ 0x5c
 8009b90:	b3a4      	cbz	r4, 8009bfc <SPE_solveLinearEquations_Hcbd8c48e05b139646178cc6f7987b8955b6ce985_cb4a8a449b4ada864625ee5a4355578a3aaf08ed+0x74>
 8009b92:	468a      	mov	sl, r1
 8009b94:	4699      	mov	r9, r3
 8009b96:	4611      	mov	r1, r2
 8009b98:	2300      	movs	r3, #0
 8009b9a:	e002      	b.n	8009ba2 <SPE_solveLinearEquations_Hcbd8c48e05b139646178cc6f7987b8955b6ce985_cb4a8a449b4ada864625ee5a4355578a3aaf08ed+0x1a>
 8009b9c:	3301      	adds	r3, #1
 8009b9e:	429c      	cmp	r4, r3
 8009ba0:	d038      	beq.n	8009c14 <SPE_solveLinearEquations_Hcbd8c48e05b139646178cc6f7987b8955b6ce985_cb4a8a449b4ada864625ee5a4355578a3aaf08ed+0x8c>
 8009ba2:	ecf1 7a01 	vldmia	r1!, {s15}
 8009ba6:	eef4 7a67 	vcmp.f32	s15, s15
 8009baa:	eef1 fa10 	vmrs	APSR_nzcv, fpscr
 8009bae:	d7f5      	bvc.n	8009b9c <SPE_solveLinearEquations_Hcbd8c48e05b139646178cc6f7987b8955b6ce985_cb4a8a449b4ada864625ee5a4355578a3aaf08ed+0x14>
 8009bb0:	429c      	cmp	r4, r3
 8009bb2:	d02f      	beq.n	8009c14 <SPE_solveLinearEquations_Hcbd8c48e05b139646178cc6f7987b8955b6ce985_cb4a8a449b4ada864625ee5a4355578a3aaf08ed+0x8c>
 8009bb4:	49c3      	ldr	r1, [pc, #780]	@ (8009ec4 <SPE_solveLinearEquations_Hcbd8c48e05b139646178cc6f7987b8955b6ce985_cb4a8a449b4ada864625ee5a4355578a3aaf08ed+0x33c>)
 8009bb6:	4dc4      	ldr	r5, [pc, #784]	@ (8009ec8 <SPE_solveLinearEquations_Hcbd8c48e05b139646178cc6f7987b8955b6ce985_cb4a8a449b4ada864625ee5a4355578a3aaf08ed+0x340>)
 8009bb8:	780b      	ldrb	r3, [r1, #0]
 8009bba:	edd5 7a00 	vldr	s15, [r5]
 8009bbe:	2b00      	cmp	r3, #0
 8009bc0:	f040 80bd 	bne.w	8009d3e <SPE_solveLinearEquations_Hcbd8c48e05b139646178cc6f7987b8955b6ce985_cb4a8a449b4ada864625ee5a4355578a3aaf08ed+0x1b6>
 8009bc4:	eeb7 7a00 	vmov.f32	s14, #112	@ 0x3f800000  1.0
 8009bc8:	eddf 6ac0 	vldr	s13, [pc, #768]	@ 8009ecc <SPE_solveLinearEquations_Hcbd8c48e05b139646178cc6f7987b8955b6ce985_cb4a8a449b4ada864625ee5a4355578a3aaf08ed+0x344>
 8009bcc:	2c01      	cmp	r4, #1
 8009bce:	ee37 7ac7 	vsub.f32	s14, s15, s14
 8009bd2:	ee77 6a26 	vadd.f32	s13, s14, s13
 8009bd6:	eec7 7a26 	vdiv.f32	s15, s14, s13
 8009bda:	edc2 7a00 	vstr	s15, [r2]
 8009bde:	d014      	beq.n	8009c0a <SPE_solveLinearEquations_Hcbd8c48e05b139646178cc6f7987b8955b6ce985_cb4a8a449b4ada864625ee5a4355578a3aaf08ed+0x82>
 8009be0:	2c02      	cmp	r4, #2
 8009be2:	edc2 7a01 	vstr	s15, [r2, #4]
 8009be6:	d010      	beq.n	8009c0a <SPE_solveLinearEquations_Hcbd8c48e05b139646178cc6f7987b8955b6ce985_cb4a8a449b4ada864625ee5a4355578a3aaf08ed+0x82>
 8009be8:	2601      	movs	r6, #1
 8009bea:	2302      	movs	r3, #2
 8009bec:	eb02 0283 	add.w	r2, r2, r3, lsl #2
 8009bf0:	3301      	adds	r3, #1
 8009bf2:	ece2 7a01 	vstmia	r2!, {s15}
 8009bf6:	429c      	cmp	r4, r3
 8009bf8:	d8fa      	bhi.n	8009bf0 <SPE_solveLinearEquations_Hcbd8c48e05b139646178cc6f7987b8955b6ce985_cb4a8a449b4ada864625ee5a4355578a3aaf08ed+0x68>
 8009bfa:	b936      	cbnz	r6, 8009c0a <SPE_solveLinearEquations_Hcbd8c48e05b139646178cc6f7987b8955b6ce985_cb4a8a449b4ada864625ee5a4355578a3aaf08ed+0x82>
 8009bfc:	6803      	ldr	r3, [r0, #0]
 8009bfe:	f043 0308 	orr.w	r3, r3, #8
 8009c02:	6003      	str	r3, [r0, #0]
 8009c04:	b00d      	add	sp, #52	@ 0x34
 8009c06:	e8bd 8ff0 	ldmia.w	sp!, {r4, r5, r6, r7, r8, r9, sl, fp, pc}
 8009c0a:	2301      	movs	r3, #1
 8009c0c:	edc5 7a00 	vstr	s15, [r5]
 8009c10:	700b      	strb	r3, [r1, #0]
 8009c12:	e7f3      	b.n	8009bfc <SPE_solveLinearEquations_Hcbd8c48e05b139646178cc6f7987b8955b6ce985_cb4a8a449b4ada864625ee5a4355578a3aaf08ed+0x74>
 8009c14:	fb04 f504 	mul.w	r5, r4, r4
 8009c18:	b175      	cbz	r5, 8009c38 <SPE_solveLinearEquations_Hcbd8c48e05b139646178cc6f7987b8955b6ce985_cb4a8a449b4ada864625ee5a4355578a3aaf08ed+0xb0>
 8009c1a:	4651      	mov	r1, sl
 8009c1c:	2300      	movs	r3, #0
 8009c1e:	e002      	b.n	8009c26 <SPE_solveLinearEquations_Hcbd8c48e05b139646178cc6f7987b8955b6ce985_cb4a8a449b4ada864625ee5a4355578a3aaf08ed+0x9e>
 8009c20:	3301      	adds	r3, #1
 8009c22:	42ab      	cmp	r3, r5
 8009c24:	d008      	beq.n	8009c38 <SPE_solveLinearEquations_Hcbd8c48e05b139646178cc6f7987b8955b6ce985_cb4a8a449b4ada864625ee5a4355578a3aaf08ed+0xb0>
 8009c26:	ecf1 7a01 	vldmia	r1!, {s15}
 8009c2a:	eef4 7a67 	vcmp.f32	s15, s15
 8009c2e:	eef1 fa10 	vmrs	APSR_nzcv, fpscr
 8009c32:	d7f5      	bvc.n	8009c20 <SPE_solveLinearEquations_Hcbd8c48e05b139646178cc6f7987b8955b6ce985_cb4a8a449b4ada864625ee5a4355578a3aaf08ed+0x98>
 8009c34:	42ab      	cmp	r3, r5
 8009c36:	d1bd      	bne.n	8009bb4 <SPE_solveLinearEquations_Hcbd8c48e05b139646178cc6f7987b8955b6ce985_cb4a8a449b4ada864625ee5a4355578a3aaf08ed+0x2c>
 8009c38:	f1a9 0b04 	sub.w	fp, r9, #4
 8009c3c:	2100      	movs	r1, #0
 8009c3e:	465b      	mov	r3, fp
 8009c40:	465e      	mov	r6, fp
 8009c42:	460d      	mov	r5, r1
 8009c44:	f846 1f04 	str.w	r1, [r6, #4]!
 8009c48:	3101      	adds	r1, #1
 8009c4a:	428c      	cmp	r4, r1
 8009c4c:	d1f9      	bne.n	8009c42 <SPE_solveLinearEquations_Hcbd8c48e05b139646178cc6f7987b8955b6ce985_cb4a8a449b4ada864625ee5a4355578a3aaf08ed+0xba>
 8009c4e:	2c01      	cmp	r4, #1
 8009c50:	f000 8157 	beq.w	8009f02 <SPE_solveLinearEquations_Hcbd8c48e05b139646178cc6f7987b8955b6ce985_cb4a8a449b4ada864625ee5a4355578a3aaf08ed+0x37a>
 8009c54:	2600      	movs	r6, #0
 8009c56:	1caf      	adds	r7, r5, #2
 8009c58:	f8cd a01c 	str.w	sl, [sp, #28]
 8009c5c:	f04f 0800 	mov.w	r8, #0
 8009c60:	9604      	str	r6, [sp, #16]
 8009c62:	eb0a 06c4 	add.w	r6, sl, r4, lsl #3
 8009c66:	9201      	str	r2, [sp, #4]
 8009c68:	9608      	str	r6, [sp, #32]
 8009c6a:	00be      	lsls	r6, r7, #2
 8009c6c:	9103      	str	r1, [sp, #12]
 8009c6e:	f106 0c04 	add.w	ip, r6, #4
 8009c72:	9605      	str	r6, [sp, #20]
 8009c74:	930a      	str	r3, [sp, #40]	@ 0x28
 8009c76:	eb0a 060c 	add.w	r6, sl, ip
 8009c7a:	970b      	str	r7, [sp, #44]	@ 0x2c
 8009c7c:	9602      	str	r6, [sp, #8]
 8009c7e:	9e05      	ldr	r6, [sp, #20]
 8009c80:	f1c6 0604 	rsb	r6, r6, #4
 8009c84:	9609      	str	r6, [sp, #36]	@ 0x24
 8009c86:	9e05      	ldr	r6, [sp, #20]
 8009c88:	9a09      	ldr	r2, [sp, #36]	@ 0x24
 8009c8a:	9606      	str	r6, [sp, #24]
 8009c8c:	f1a6 0e04 	sub.w	lr, r6, #4
 8009c90:	f8cd b024 	str.w	fp, [sp, #36]	@ 0x24
 8009c94:	f10a 0608 	add.w	r6, sl, #8
 8009c98:	f8dd b018 	ldr.w	fp, [sp, #24]
 8009c9c:	46ca      	mov	sl, r9
 8009c9e:	4641      	mov	r1, r8
 8009ca0:	ed56 6a02 	vldr	s13, [r6, #-8]
 8009ca4:	f108 0801 	add.w	r8, r8, #1
 8009ca8:	428d      	cmp	r5, r1
 8009caa:	eeb0 7ae6 	vabs.f32	s14, s13
 8009cae:	f000 8121 	beq.w	8009ef4 <SPE_solveLinearEquations_Hcbd8c48e05b139646178cc6f7987b8955b6ce985_cb4a8a449b4ada864625ee5a4355578a3aaf08ed+0x36c>
 8009cb2:	9b02      	ldr	r3, [sp, #8]
 8009cb4:	468c      	mov	ip, r1
 8009cb6:	f1a3 0708 	sub.w	r7, r3, #8
 8009cba:	4643      	mov	r3, r8
 8009cbc:	edd7 7a00 	vldr	s15, [r7]
 8009cc0:	f103 0901 	add.w	r9, r3, #1
 8009cc4:	4477      	add	r7, lr
 8009cc6:	eef0 7ae7 	vabs.f32	s15, s15
 8009cca:	eef4 7a47 	vcmp.f32	s15, s14
 8009cce:	eef1 fa10 	vmrs	APSR_nzcv, fpscr
 8009cd2:	bfc8      	it	gt
 8009cd4:	469c      	movgt	ip, r3
 8009cd6:	fe37 7a87 	vselgt.f32	s14, s15, s14
 8009cda:	429d      	cmp	r5, r3
 8009cdc:	464b      	mov	r3, r9
 8009cde:	d1ed      	bne.n	8009cbc <SPE_solveLinearEquations_Hcbd8c48e05b139646178cc6f7987b8955b6ce985_cb4a8a449b4ada864625ee5a4355578a3aaf08ed+0x134>
 8009ce0:	458c      	cmp	ip, r1
 8009ce2:	d034      	beq.n	8009d4e <SPE_solveLinearEquations_Hcbd8c48e05b139646178cc6f7987b8955b6ce985_cb4a8a449b4ada864625ee5a4355578a3aaf08ed+0x1c6>
 8009ce4:	f85a 7021 	ldr.w	r7, [sl, r1, lsl #2]
 8009ce8:	9b03      	ldr	r3, [sp, #12]
 8009cea:	f85a 902c 	ldr.w	r9, [sl, ip, lsl #2]
 8009cee:	fb0c f303 	mul.w	r3, ip, r3
 8009cf2:	f84a 702c 	str.w	r7, [sl, ip, lsl #2]
 8009cf6:	9f03      	ldr	r7, [sp, #12]
 8009cf8:	f84a 9021 	str.w	r9, [sl, r1, lsl #2]
 8009cfc:	eb07 0903 	add.w	r9, r7, r3
 8009d00:	9f07      	ldr	r7, [sp, #28]
 8009d02:	eb07 0383 	add.w	r3, r7, r3, lsl #2
 8009d06:	eb07 0989 	add.w	r9, r7, r9, lsl #2
 8009d0a:	9306      	str	r3, [sp, #24]
 8009d0c:	9b04      	ldr	r3, [sp, #16]
 8009d0e:	ea4f 0c83 	mov.w	ip, r3, lsl #2
 8009d12:	eb07 0783 	add.w	r7, r7, r3, lsl #2
 8009d16:	9b06      	ldr	r3, [sp, #24]
 8009d18:	ed97 7a00 	vldr	s14, [r7]
 8009d1c:	edd3 7a00 	vldr	s15, [r3]
 8009d20:	eca3 7a01 	vstmia	r3!, {s14}
 8009d24:	454b      	cmp	r3, r9
 8009d26:	ece7 7a01 	vstmia	r7!, {s15}
 8009d2a:	d1f5      	bne.n	8009d18 <SPE_solveLinearEquations_Hcbd8c48e05b139646178cc6f7987b8955b6ce985_cb4a8a449b4ada864625ee5a4355578a3aaf08ed+0x190>
 8009d2c:	ed56 6a02 	vldr	s13, [r6, #-8]
 8009d30:	eef5 6a40 	vcmp.f32	s13, #0.0
 8009d34:	eef1 fa10 	vmrs	APSR_nzcv, fpscr
 8009d38:	d111      	bne.n	8009d5e <SPE_solveLinearEquations_Hcbd8c48e05b139646178cc6f7987b8955b6ce985_cb4a8a449b4ada864625ee5a4355578a3aaf08ed+0x1d6>
 8009d3a:	9a01      	ldr	r2, [sp, #4]
 8009d3c:	e73a      	b.n	8009bb4 <SPE_solveLinearEquations_Hcbd8c48e05b139646178cc6f7987b8955b6ce985_cb4a8a449b4ada864625ee5a4355578a3aaf08ed+0x2c>
 8009d3e:	2c01      	cmp	r4, #1
 8009d40:	edc2 7a00 	vstr	s15, [r2]
 8009d44:	f43f af5a 	beq.w	8009bfc <SPE_solveLinearEquations_Hcbd8c48e05b139646178cc6f7987b8955b6ce985_cb4a8a449b4ada864625ee5a4355578a3aaf08ed+0x74>
 8009d48:	2600      	movs	r6, #0
 8009d4a:	2301      	movs	r3, #1
 8009d4c:	e74e      	b.n	8009bec <SPE_solveLinearEquations_Hcbd8c48e05b139646178cc6f7987b8955b6ce985_cb4a8a449b4ada864625ee5a4355578a3aaf08ed+0x64>
 8009d4e:	eef5 6a40 	vcmp.f32	s13, #0.0
 8009d52:	eef1 fa10 	vmrs	APSR_nzcv, fpscr
 8009d56:	d0f0      	beq.n	8009d3a <SPE_solveLinearEquations_Hcbd8c48e05b139646178cc6f7987b8955b6ce985_cb4a8a449b4ada864625ee5a4355578a3aaf08ed+0x1b2>
 8009d58:	9b04      	ldr	r3, [sp, #16]
 8009d5a:	ea4f 0c83 	mov.w	ip, r3, lsl #2
 8009d5e:	9b08      	ldr	r3, [sp, #32]
 8009d60:	46c1      	mov	r9, r8
 8009d62:	9f02      	ldr	r7, [sp, #8]
 8009d64:	449c      	add	ip, r3
 8009d66:	9106      	str	r1, [sp, #24]
 8009d68:	ed17 7a02 	vldr	s14, [r7, #-8]
 8009d6c:	18bb      	adds	r3, r7, r2
 8009d6e:	45a8      	cmp	r8, r5
 8009d70:	eec7 7a26 	vdiv.f32	s15, s14, s13
 8009d74:	445b      	add	r3, fp
 8009d76:	ed47 7a02 	vstr	s15, [r7, #-8]
 8009d7a:	ed16 7a01 	vldr	s14, [r6, #-4]
 8009d7e:	ee67 7a87 	vmul.f32	s15, s15, s14
 8009d82:	ed13 7a02 	vldr	s14, [r3, #-8]
 8009d86:	ee77 7a67 	vsub.f32	s15, s14, s15
 8009d8a:	ed43 7a02 	vstr	s15, [r3, #-8]
 8009d8e:	d01a      	beq.n	8009dc6 <SPE_solveLinearEquations_Hcbd8c48e05b139646178cc6f7987b8955b6ce985_cb4a8a449b4ada864625ee5a4355578a3aaf08ed+0x23e>
 8009d90:	4631      	mov	r1, r6
 8009d92:	463b      	mov	r3, r7
 8009d94:	ecb1 7a01 	vldmia	r1!, {s14}
 8009d98:	ed57 6a02 	vldr	s13, [r7, #-8]
 8009d9c:	edd3 7a00 	vldr	s15, [r3]
 8009da0:	ee27 7a26 	vmul.f32	s14, s14, s13
 8009da4:	ee77 7ac7 	vsub.f32	s15, s15, s14
 8009da8:	ece3 7a01 	vstmia	r3!, {s15}
 8009dac:	459c      	cmp	ip, r3
 8009dae:	d1f1      	bne.n	8009d94 <SPE_solveLinearEquations_Hcbd8c48e05b139646178cc6f7987b8955b6ce985_cb4a8a449b4ada864625ee5a4355578a3aaf08ed+0x20c>
 8009db0:	454d      	cmp	r5, r9
 8009db2:	4477      	add	r7, lr
 8009db4:	44f4      	add	ip, lr
 8009db6:	f109 0301 	add.w	r3, r9, #1
 8009dba:	f000 8089 	beq.w	8009ed0 <SPE_solveLinearEquations_Hcbd8c48e05b139646178cc6f7987b8955b6ce985_cb4a8a449b4ada864625ee5a4355578a3aaf08ed+0x348>
 8009dbe:	ed56 6a02 	vldr	s13, [r6, #-8]
 8009dc2:	4699      	mov	r9, r3
 8009dc4:	e7d0      	b.n	8009d68 <SPE_solveLinearEquations_Hcbd8c48e05b139646178cc6f7987b8955b6ce985_cb4a8a449b4ada864625ee5a4355578a3aaf08ed+0x1e0>
 8009dc6:	454d      	cmp	r5, r9
 8009dc8:	4477      	add	r7, lr
 8009dca:	44f4      	add	ip, lr
 8009dcc:	f109 0301 	add.w	r3, r9, #1
 8009dd0:	d1f5      	bne.n	8009dbe <SPE_solveLinearEquations_Hcbd8c48e05b139646178cc6f7987b8955b6ce985_cb4a8a449b4ada864625ee5a4355578a3aaf08ed+0x236>
 8009dd2:	9903      	ldr	r1, [sp, #12]
 8009dd4:	f06f 4640 	mvn.w	r6, #3221225472	@ 0xc0000000
 8009dd8:	f8dd a01c 	ldr.w	sl, [sp, #28]
 8009ddc:	fb01 6601 	mla	r6, r1, r1, r6
 8009de0:	9b0a      	ldr	r3, [sp, #40]	@ 0x28
 8009de2:	9a01      	ldr	r2, [sp, #4]
 8009de4:	eb0a 0686 	add.w	r6, sl, r6, lsl #2
 8009de8:	f8dd b024 	ldr.w	fp, [sp, #36]	@ 0x24
 8009dec:	9f0b      	ldr	r7, [sp, #44]	@ 0x2c
 8009dee:	edd6 7a00 	vldr	s15, [r6]
 8009df2:	eef5 7a40 	vcmp.f32	s15, #0.0
 8009df6:	eef1 fa10 	vmrs	APSR_nzcv, fpscr
 8009dfa:	f43f aedb 	beq.w	8009bb4 <SPE_solveLinearEquations_Hcbd8c48e05b139646178cc6f7987b8955b6ce985_cb4a8a449b4ada864625ee5a4355578a3aaf08ed+0x2c>
 8009dfe:	eb0b 0c81 	add.w	ip, fp, r1, lsl #2
 8009e02:	9e16      	ldr	r6, [sp, #88]	@ 0x58
 8009e04:	0088      	lsls	r0, r1, #2
 8009e06:	f853 4f04 	ldr.w	r4, [r3, #4]!
 8009e0a:	eb02 0484 	add.w	r4, r2, r4, lsl #2
 8009e0e:	459c      	cmp	ip, r3
 8009e10:	6824      	ldr	r4, [r4, #0]
 8009e12:	f846 4b04 	str.w	r4, [r6], #4
 8009e16:	d1f6      	bne.n	8009e06 <SPE_solveLinearEquations_Hcbd8c48e05b139646178cc6f7987b8955b6ce985_cb4a8a449b4ada864625ee5a4355578a3aaf08ed+0x27e>
 8009e18:	9b16      	ldr	r3, [sp, #88]	@ 0x58
 8009e1a:	681b      	ldr	r3, [r3, #0]
 8009e1c:	6013      	str	r3, [r2, #0]
 8009e1e:	2d00      	cmp	r5, #0
 8009e20:	d079      	beq.n	8009f16 <SPE_solveLinearEquations_Hcbd8c48e05b139646178cc6f7987b8955b6ce985_cb4a8a449b4ada864625ee5a4355578a3aaf08ed+0x38e>
 8009e22:	f100 0804 	add.w	r8, r0, #4
 8009e26:	9b16      	ldr	r3, [sp, #88]	@ 0x58
 8009e28:	4410      	add	r0, r2
 8009e2a:	f102 0e04 	add.w	lr, r2, #4
 8009e2e:	f103 0904 	add.w	r9, r3, #4
 8009e32:	eb0a 0608 	add.w	r6, sl, r8
 8009e36:	468c      	mov	ip, r1
 8009e38:	ed9f 7a24 	vldr	s14, [pc, #144]	@ 8009ecc <SPE_solveLinearEquations_Hcbd8c48e05b139646178cc6f7987b8955b6ce985_cb4a8a449b4ada864625ee5a4355578a3aaf08ed+0x344>
 8009e3c:	eb0a 038c 	add.w	r3, sl, ip, lsl #2
 8009e40:	4614      	mov	r4, r2
 8009e42:	ecf3 6a01 	vldmia	r3!, {s13}
 8009e46:	ecf4 7a01 	vldmia	r4!, {s15}
 8009e4a:	429e      	cmp	r6, r3
 8009e4c:	ee67 7aa6 	vmul.f32	s15, s15, s13
 8009e50:	ee37 7a27 	vadd.f32	s14, s14, s15
 8009e54:	d1f5      	bne.n	8009e42 <SPE_solveLinearEquations_Hcbd8c48e05b139646178cc6f7987b8955b6ce985_cb4a8a449b4ada864625ee5a4355578a3aaf08ed+0x2ba>
 8009e56:	ecf9 7a01 	vldmia	r9!, {s15}
 8009e5a:	448c      	add	ip, r1
 8009e5c:	4446      	add	r6, r8
 8009e5e:	ee77 7ac7 	vsub.f32	s15, s15, s14
 8009e62:	ecee 7a01 	vstmia	lr!, {s15}
 8009e66:	4570      	cmp	r0, lr
 8009e68:	d1e6      	bne.n	8009e38 <SPE_solveLinearEquations_Hcbd8c48e05b139646178cc6f7987b8955b6ce985_cb4a8a449b4ada864625ee5a4355578a3aaf08ed+0x2b0>
 8009e6a:	43c9      	mvns	r1, r1
 8009e6c:	fb05 f407 	mul.w	r4, r5, r7
 8009e70:	4606      	mov	r6, r0
 8009e72:	008f      	lsls	r7, r1, #2
 8009e74:	4629      	mov	r1, r5
 8009e76:	3401      	adds	r4, #1
 8009e78:	428d      	cmp	r5, r1
 8009e7a:	eb0a 0484 	add.w	r4, sl, r4, lsl #2
 8009e7e:	d01e      	beq.n	8009ebe <SPE_solveLinearEquations_Hcbd8c48e05b139646178cc6f7987b8955b6ce985_cb4a8a449b4ada864625ee5a4355578a3aaf08ed+0x336>
 8009e80:	4633      	mov	r3, r6
 8009e82:	ed9f 7a12 	vldr	s14, [pc, #72]	@ 8009ecc <SPE_solveLinearEquations_Hcbd8c48e05b139646178cc6f7987b8955b6ce985_cb4a8a449b4ada864625ee5a4355578a3aaf08ed+0x344>
 8009e86:	4622      	mov	r2, r4
 8009e88:	ecf3 6a01 	vldmia	r3!, {s13}
 8009e8c:	ecf2 7a01 	vldmia	r2!, {s15}
 8009e90:	4283      	cmp	r3, r0
 8009e92:	ee67 7aa6 	vmul.f32	s15, s15, s13
 8009e96:	ee37 7a27 	vadd.f32	s14, s14, s15
 8009e9a:	d1f5      	bne.n	8009e88 <SPE_solveLinearEquations_Hcbd8c48e05b139646178cc6f7987b8955b6ce985_cb4a8a449b4ada864625ee5a4355578a3aaf08ed+0x300>
 8009e9c:	ed76 7a01 	vldmdb	r6!, {s15}
 8009ea0:	3901      	subs	r1, #1
 8009ea2:	ed54 6a01 	vldr	s13, [r4, #-4]
 8009ea6:	443c      	add	r4, r7
 8009ea8:	ee77 7ac7 	vsub.f32	s15, s15, s14
 8009eac:	1c4b      	adds	r3, r1, #1
 8009eae:	ee87 7aa6 	vdiv.f32	s14, s15, s13
 8009eb2:	ed86 7a00 	vstr	s14, [r6]
 8009eb6:	f43f aea5 	beq.w	8009c04 <SPE_solveLinearEquations_Hcbd8c48e05b139646178cc6f7987b8955b6ce985_cb4a8a449b4ada864625ee5a4355578a3aaf08ed+0x7c>
 8009eba:	428d      	cmp	r5, r1
 8009ebc:	d1e0      	bne.n	8009e80 <SPE_solveLinearEquations_Hcbd8c48e05b139646178cc6f7987b8955b6ce985_cb4a8a449b4ada864625ee5a4355578a3aaf08ed+0x2f8>
 8009ebe:	ed9f 7a03 	vldr	s14, [pc, #12]	@ 8009ecc <SPE_solveLinearEquations_Hcbd8c48e05b139646178cc6f7987b8955b6ce985_cb4a8a449b4ada864625ee5a4355578a3aaf08ed+0x344>
 8009ec2:	e7eb      	b.n	8009e9c <SPE_solveLinearEquations_Hcbd8c48e05b139646178cc6f7987b8955b6ce985_cb4a8a449b4ada864625ee5a4355578a3aaf08ed+0x314>
 8009ec4:	24000158 	.word	0x24000158
 8009ec8:	24000010 	.word	0x24000010
 8009ecc:	00000000 	.word	0x00000000
 8009ed0:	9906      	ldr	r1, [sp, #24]
 8009ed2:	9b05      	ldr	r3, [sp, #20]
 8009ed4:	428d      	cmp	r5, r1
 8009ed6:	441e      	add	r6, r3
 8009ed8:	e9dd 3703 	ldrd	r3, r7, [sp, #12]
 8009edc:	441f      	add	r7, r3
 8009ede:	9b05      	ldr	r3, [sp, #20]
 8009ee0:	9704      	str	r7, [sp, #16]
 8009ee2:	eba2 0203 	sub.w	r2, r2, r3
 8009ee6:	9f02      	ldr	r7, [sp, #8]
 8009ee8:	449b      	add	fp, r3
 8009eea:	441f      	add	r7, r3
 8009eec:	9702      	str	r7, [sp, #8]
 8009eee:	f43f af24 	beq.w	8009d3a <SPE_solveLinearEquations_Hcbd8c48e05b139646178cc6f7987b8955b6ce985_cb4a8a449b4ada864625ee5a4355578a3aaf08ed+0x1b2>
 8009ef2:	e6d4      	b.n	8009c9e <SPE_solveLinearEquations_Hcbd8c48e05b139646178cc6f7987b8955b6ce985_cb4a8a449b4ada864625ee5a4355578a3aaf08ed+0x116>
 8009ef4:	eef5 6a40 	vcmp.f32	s13, #0.0
 8009ef8:	eef1 fa10 	vmrs	APSR_nzcv, fpscr
 8009efc:	f43f af1d 	beq.w	8009d3a <SPE_solveLinearEquations_Hcbd8c48e05b139646178cc6f7987b8955b6ce985_cb4a8a449b4ada864625ee5a4355578a3aaf08ed+0x1b2>
 8009f00:	e7e7      	b.n	8009ed2 <SPE_solveLinearEquations_Hcbd8c48e05b139646178cc6f7987b8955b6ce985_cb4a8a449b4ada864625ee5a4355578a3aaf08ed+0x34a>
 8009f02:	edda 7a00 	vldr	s15, [sl]
 8009f06:	eef5 7a40 	vcmp.f32	s15, #0.0
 8009f0a:	eef1 fa10 	vmrs	APSR_nzcv, fpscr
 8009f0e:	f43f ae51 	beq.w	8009bb4 <SPE_solveLinearEquations_Hcbd8c48e05b139646178cc6f7987b8955b6ce985_cb4a8a449b4ada864625ee5a4355578a3aaf08ed+0x2c>
 8009f12:	1caf      	adds	r7, r5, #2
 8009f14:	e773      	b.n	8009dfe <SPE_solveLinearEquations_Hcbd8c48e05b139646178cc6f7987b8955b6ce985_cb4a8a449b4ada864625ee5a4355578a3aaf08ed+0x276>
 8009f16:	4410      	add	r0, r2
 8009f18:	e7a7      	b.n	8009e6a <SPE_solveLinearEquations_Hcbd8c48e05b139646178cc6f7987b8955b6ce985_cb4a8a449b4ada864625ee5a4355578a3aaf08ed+0x2e2>
 8009f1a:	bf00      	nop

08009f1c <memset>:
 8009f1c:	4402      	add	r2, r0
 8009f1e:	4603      	mov	r3, r0
 8009f20:	4293      	cmp	r3, r2
 8009f22:	d100      	bne.n	8009f26 <memset+0xa>
 8009f24:	4770      	bx	lr
 8009f26:	f803 1b01 	strb.w	r1, [r3], #1
 8009f2a:	e7f9      	b.n	8009f20 <memset+0x4>

08009f2c <__errno>:
 8009f2c:	4b01      	ldr	r3, [pc, #4]	@ (8009f34 <__errno+0x8>)
 8009f2e:	6818      	ldr	r0, [r3, #0]
 8009f30:	4770      	bx	lr
 8009f32:	bf00      	nop
 8009f34:	24000014 	.word	0x24000014

08009f38 <__libc_init_array>:
 8009f38:	b570      	push	{r4, r5, r6, lr}
 8009f3a:	4b0d      	ldr	r3, [pc, #52]	@ (8009f70 <__libc_init_array+0x38>)
 8009f3c:	4d0d      	ldr	r5, [pc, #52]	@ (8009f74 <__libc_init_array+0x3c>)
 8009f3e:	1b5b      	subs	r3, r3, r5
 8009f40:	109c      	asrs	r4, r3, #2
 8009f42:	2600      	movs	r6, #0
 8009f44:	42a6      	cmp	r6, r4
 8009f46:	d109      	bne.n	8009f5c <__libc_init_array+0x24>
 8009f48:	f000 fbb4 	bl	800a6b4 <_init>
 8009f4c:	4d0a      	ldr	r5, [pc, #40]	@ (8009f78 <__libc_init_array+0x40>)
 8009f4e:	4b0b      	ldr	r3, [pc, #44]	@ (8009f7c <__libc_init_array+0x44>)
 8009f50:	1b5b      	subs	r3, r3, r5
 8009f52:	109c      	asrs	r4, r3, #2
 8009f54:	2600      	movs	r6, #0
 8009f56:	42a6      	cmp	r6, r4
 8009f58:	d105      	bne.n	8009f66 <__libc_init_array+0x2e>
 8009f5a:	bd70      	pop	{r4, r5, r6, pc}
 8009f5c:	f855 3b04 	ldr.w	r3, [r5], #4
 8009f60:	4798      	blx	r3
 8009f62:	3601      	adds	r6, #1
 8009f64:	e7ee      	b.n	8009f44 <__libc_init_array+0xc>
 8009f66:	f855 3b04 	ldr.w	r3, [r5], #4
 8009f6a:	4798      	blx	r3
 8009f6c:	3601      	adds	r6, #1
 8009f6e:	e7f2      	b.n	8009f56 <__libc_init_array+0x1e>
 8009f70:	0800a8a8 	.word	0x0800a8a8
 8009f74:	0800a8a8 	.word	0x0800a8a8
 8009f78:	0800a8a8 	.word	0x0800a8a8
 8009f7c:	0800a8ac 	.word	0x0800a8ac

08009f80 <atan2f>:
 8009f80:	f000 baf2 	b.w	800a568 <__ieee754_atan2f>

08009f84 <sqrtf>:
 8009f84:	b508      	push	{r3, lr}
 8009f86:	ed2d 8b02 	vpush	{d8}
 8009f8a:	eeb0 8a40 	vmov.f32	s16, s0
 8009f8e:	f000 fae7 	bl	800a560 <__ieee754_sqrtf>
 8009f92:	eeb4 8a48 	vcmp.f32	s16, s16
 8009f96:	eef1 fa10 	vmrs	APSR_nzcv, fpscr
 8009f9a:	d606      	bvs.n	8009faa <sqrtf+0x26>
 8009f9c:	eddf 8a09 	vldr	s17, [pc, #36]	@ 8009fc4 <sqrtf+0x40>
 8009fa0:	eeb4 8ae8 	vcmpe.f32	s16, s17
 8009fa4:	eef1 fa10 	vmrs	APSR_nzcv, fpscr
 8009fa8:	d402      	bmi.n	8009fb0 <sqrtf+0x2c>
 8009faa:	ecbd 8b02 	vpop	{d8}
 8009fae:	bd08      	pop	{r3, pc}
 8009fb0:	f7ff ffbc 	bl	8009f2c <__errno>
 8009fb4:	ee88 0aa8 	vdiv.f32	s0, s17, s17
 8009fb8:	ecbd 8b02 	vpop	{d8}
 8009fbc:	2321      	movs	r3, #33	@ 0x21
 8009fbe:	6003      	str	r3, [r0, #0]
 8009fc0:	bd08      	pop	{r3, pc}
 8009fc2:	bf00      	nop
 8009fc4:	00000000 	.word	0x00000000

08009fc8 <atanf>:
 8009fc8:	b538      	push	{r3, r4, r5, lr}
 8009fca:	ee10 5a10 	vmov	r5, s0
 8009fce:	f025 4400 	bic.w	r4, r5, #2147483648	@ 0x80000000
 8009fd2:	f1b4 4fa1 	cmp.w	r4, #1350565888	@ 0x50800000
 8009fd6:	eef0 7a40 	vmov.f32	s15, s0
 8009fda:	d307      	bcc.n	8009fec <atanf+0x24>
 8009fdc:	f1b4 4fff 	cmp.w	r4, #2139095040	@ 0x7f800000
 8009fe0:	d855      	bhi.n	800a08e <atanf+0xc6>
 8009fe2:	2d00      	cmp	r5, #0
 8009fe4:	dd77      	ble.n	800a0d6 <atanf+0x10e>
 8009fe6:	ed9f 0a4e 	vldr	s0, [pc, #312]	@ 800a120 <atanf+0x158>
 8009fea:	bd38      	pop	{r3, r4, r5, pc}
 8009fec:	4b4d      	ldr	r3, [pc, #308]	@ (800a124 <atanf+0x15c>)
 8009fee:	429c      	cmp	r4, r3
 8009ff0:	d85c      	bhi.n	800a0ac <atanf+0xe4>
 8009ff2:	f1b4 5f44 	cmp.w	r4, #822083584	@ 0x31000000
 8009ff6:	d34d      	bcc.n	800a094 <atanf+0xcc>
 8009ff8:	f04f 33ff 	mov.w	r3, #4294967295
 8009ffc:	ee27 6aa7 	vmul.f32	s12, s15, s15
 800a000:	ed9f 5a49 	vldr	s10, [pc, #292]	@ 800a128 <atanf+0x160>
 800a004:	ed9f 7a49 	vldr	s14, [pc, #292]	@ 800a12c <atanf+0x164>
 800a008:	eddf 5a49 	vldr	s11, [pc, #292]	@ 800a130 <atanf+0x168>
 800a00c:	eddf 4a49 	vldr	s9, [pc, #292]	@ 800a134 <atanf+0x16c>
 800a010:	ee66 6a06 	vmul.f32	s13, s12, s12
 800a014:	1c5a      	adds	r2, r3, #1
 800a016:	eea6 7a85 	vfma.f32	s14, s13, s10
 800a01a:	eee6 4aa5 	vfma.f32	s9, s13, s11
 800a01e:	ed9f 5a46 	vldr	s10, [pc, #280]	@ 800a138 <atanf+0x170>
 800a022:	eddf 5a46 	vldr	s11, [pc, #280]	@ 800a13c <atanf+0x174>
 800a026:	eea7 5a26 	vfma.f32	s10, s14, s13
 800a02a:	eee4 5aa6 	vfma.f32	s11, s9, s13
 800a02e:	ed9f 7a44 	vldr	s14, [pc, #272]	@ 800a140 <atanf+0x178>
 800a032:	eddf 4a44 	vldr	s9, [pc, #272]	@ 800a144 <atanf+0x17c>
 800a036:	eea5 7a26 	vfma.f32	s14, s10, s13
 800a03a:	eee5 4aa6 	vfma.f32	s9, s11, s13
 800a03e:	ed9f 5a42 	vldr	s10, [pc, #264]	@ 800a148 <atanf+0x180>
 800a042:	eddf 5a42 	vldr	s11, [pc, #264]	@ 800a14c <atanf+0x184>
 800a046:	eea7 5a26 	vfma.f32	s10, s14, s13
 800a04a:	ed9f 7a41 	vldr	s14, [pc, #260]	@ 800a150 <atanf+0x188>
 800a04e:	eea4 7aa6 	vfma.f32	s14, s9, s13
 800a052:	eee5 5a26 	vfma.f32	s11, s10, s13
 800a056:	ee27 7a26 	vmul.f32	s14, s14, s13
 800a05a:	eea5 7a86 	vfma.f32	s14, s11, s12
 800a05e:	ee27 7a87 	vmul.f32	s14, s15, s14
 800a062:	d03b      	beq.n	800a0dc <atanf+0x114>
 800a064:	493b      	ldr	r1, [pc, #236]	@ (800a154 <atanf+0x18c>)
 800a066:	4a3c      	ldr	r2, [pc, #240]	@ (800a158 <atanf+0x190>)
 800a068:	eb01 0183 	add.w	r1, r1, r3, lsl #2
 800a06c:	edd1 6a00 	vldr	s13, [r1]
 800a070:	ee37 7a66 	vsub.f32	s14, s14, s13
 800a074:	eb02 0383 	add.w	r3, r2, r3, lsl #2
 800a078:	edd3 6a00 	vldr	s13, [r3]
 800a07c:	ee37 7a67 	vsub.f32	s14, s14, s15
 800a080:	2d00      	cmp	r5, #0
 800a082:	ee36 0ac7 	vsub.f32	s0, s13, s14
 800a086:	dab0      	bge.n	8009fea <atanf+0x22>
 800a088:	eeb1 0a40 	vneg.f32	s0, s0
 800a08c:	bd38      	pop	{r3, r4, r5, pc}
 800a08e:	ee30 0a00 	vadd.f32	s0, s0, s0
 800a092:	bd38      	pop	{r3, r4, r5, pc}
 800a094:	ed9f 7a31 	vldr	s14, [pc, #196]	@ 800a15c <atanf+0x194>
 800a098:	ee30 7a07 	vadd.f32	s14, s0, s14
 800a09c:	eef7 6a00 	vmov.f32	s13, #112	@ 0x3f800000  1.0
 800a0a0:	eeb4 7ae6 	vcmpe.f32	s14, s13
 800a0a4:	eef1 fa10 	vmrs	APSR_nzcv, fpscr
 800a0a8:	dda6      	ble.n	8009ff8 <atanf+0x30>
 800a0aa:	bd38      	pop	{r3, r4, r5, pc}
 800a0ac:	f000 f85e 	bl	800a16c <fabsf>
 800a0b0:	4b2b      	ldr	r3, [pc, #172]	@ (800a160 <atanf+0x198>)
 800a0b2:	429c      	cmp	r4, r3
 800a0b4:	d815      	bhi.n	800a0e2 <atanf+0x11a>
 800a0b6:	f5a3 03d0 	sub.w	r3, r3, #6815744	@ 0x680000
 800a0ba:	429c      	cmp	r4, r3
 800a0bc:	d826      	bhi.n	800a10c <atanf+0x144>
 800a0be:	eef0 7a00 	vmov.f32	s15, #0	@ 0x40000000  2.0
 800a0c2:	eebf 7a00 	vmov.f32	s14, #240	@ 0xbf800000 -1.0
 800a0c6:	eea0 7a27 	vfma.f32	s14, s0, s15
 800a0ca:	2300      	movs	r3, #0
 800a0cc:	ee30 0a27 	vadd.f32	s0, s0, s15
 800a0d0:	eec7 7a00 	vdiv.f32	s15, s14, s0
 800a0d4:	e792      	b.n	8009ffc <atanf+0x34>
 800a0d6:	ed9f 0a23 	vldr	s0, [pc, #140]	@ 800a164 <atanf+0x19c>
 800a0da:	bd38      	pop	{r3, r4, r5, pc}
 800a0dc:	ee37 0ac7 	vsub.f32	s0, s15, s14
 800a0e0:	bd38      	pop	{r3, r4, r5, pc}
 800a0e2:	4b21      	ldr	r3, [pc, #132]	@ (800a168 <atanf+0x1a0>)
 800a0e4:	429c      	cmp	r4, r3
 800a0e6:	d80b      	bhi.n	800a100 <atanf+0x138>
 800a0e8:	eef7 7a08 	vmov.f32	s15, #120	@ 0x3fc00000  1.5
 800a0ec:	eeb7 7a00 	vmov.f32	s14, #112	@ 0x3f800000  1.0
 800a0f0:	eea0 7a27 	vfma.f32	s14, s0, s15
 800a0f4:	2302      	movs	r3, #2
 800a0f6:	ee30 0a67 	vsub.f32	s0, s0, s15
 800a0fa:	eec0 7a07 	vdiv.f32	s15, s0, s14
 800a0fe:	e77d      	b.n	8009ffc <atanf+0x34>
 800a100:	eebf 7a00 	vmov.f32	s14, #240	@ 0xbf800000 -1.0
 800a104:	eec7 7a00 	vdiv.f32	s15, s14, s0
 800a108:	2303      	movs	r3, #3
 800a10a:	e777      	b.n	8009ffc <atanf+0x34>
 800a10c:	eef7 7a00 	vmov.f32	s15, #112	@ 0x3f800000  1.0
 800a110:	ee30 7a67 	vsub.f32	s14, s0, s15
 800a114:	ee30 0a27 	vadd.f32	s0, s0, s15
 800a118:	2301      	movs	r3, #1
 800a11a:	eec7 7a00 	vdiv.f32	s15, s14, s0
 800a11e:	e76d      	b.n	8009ffc <atanf+0x34>
 800a120:	3fc90fdb 	.word	0x3fc90fdb
 800a124:	3edfffff 	.word	0x3edfffff
 800a128:	3c8569d7 	.word	0x3c8569d7
 800a12c:	3d4bda59 	.word	0x3d4bda59
 800a130:	bd15a221 	.word	0xbd15a221
 800a134:	bd6ef16b 	.word	0xbd6ef16b
 800a138:	3d886b35 	.word	0x3d886b35
 800a13c:	bd9d8795 	.word	0xbd9d8795
 800a140:	3dba2e6e 	.word	0x3dba2e6e
 800a144:	bde38e38 	.word	0xbde38e38
 800a148:	3e124925 	.word	0x3e124925
 800a14c:	3eaaaaab 	.word	0x3eaaaaab
 800a150:	be4ccccd 	.word	0xbe4ccccd
 800a154:	0800a730 	.word	0x0800a730
 800a158:	0800a740 	.word	0x0800a740
 800a15c:	7149f2ca 	.word	0x7149f2ca
 800a160:	3f97ffff 	.word	0x3f97ffff
 800a164:	bfc90fdb 	.word	0xbfc90fdb
 800a168:	401bffff 	.word	0x401bffff

0800a16c <fabsf>:
 800a16c:	ee10 3a10 	vmov	r3, s0
 800a170:	f023 4300 	bic.w	r3, r3, #2147483648	@ 0x80000000
 800a174:	ee00 3a10 	vmov	s0, r3
 800a178:	4770      	bx	lr
 800a17a:	bf00      	nop
 800a17c:	0000      	movs	r0, r0
	...

0800a180 <sinf>:
 800a180:	b530      	push	{r4, r5, lr}
 800a182:	ee10 4a10 	vmov	r4, s0
 800a186:	f3c4 530a 	ubfx	r3, r4, #20, #11
 800a18a:	f5b3 7f7d 	cmp.w	r3, #1012	@ 0x3f4
 800a18e:	eeb7 6ac0 	vcvt.f64.f32	d6, s0
 800a192:	b083      	sub	sp, #12
 800a194:	d21b      	bcs.n	800a1ce <sinf+0x4e>
 800a196:	ee26 5b06 	vmul.f64	d5, d6, d6
 800a19a:	f5b3 7f66 	cmp.w	r3, #920	@ 0x398
 800a19e:	d36c      	bcc.n	800a27a <sinf+0xfa>
 800a1a0:	ee26 2b05 	vmul.f64	d2, d6, d5
 800a1a4:	ee25 1b02 	vmul.f64	d1, d5, d2
 800a1a8:	4b6d      	ldr	r3, [pc, #436]	@ (800a360 <sinf+0x1e0>)
 800a1aa:	ed93 3b1a 	vldr	d3, [r3, #104]	@ 0x68
 800a1ae:	ed93 7b18 	vldr	d7, [r3, #96]	@ 0x60
 800a1b2:	ed93 4b16 	vldr	d4, [r3, #88]	@ 0x58
 800a1b6:	eea5 7b03 	vfma.f64	d7, d5, d3
 800a1ba:	eea2 6b04 	vfma.f64	d6, d2, d4
 800a1be:	eeb0 0b46 	vmov.f64	d0, d6
 800a1c2:	eea7 0b01 	vfma.f64	d0, d7, d1
 800a1c6:	eeb7 0bc0 	vcvt.f32.f64	s0, d0
 800a1ca:	b003      	add	sp, #12
 800a1cc:	bd30      	pop	{r4, r5, pc}
 800a1ce:	f240 422e 	movw	r2, #1070	@ 0x42e
 800a1d2:	4293      	cmp	r3, r2
 800a1d4:	d859      	bhi.n	800a28a <sinf+0x10a>
 800a1d6:	4a62      	ldr	r2, [pc, #392]	@ (800a360 <sinf+0x1e0>)
 800a1d8:	ed92 7b08 	vldr	d7, [r2, #32]
 800a1dc:	ee26 7b07 	vmul.f64	d7, d6, d7
 800a1e0:	eefd 7bc7 	vcvt.s32.f64	s15, d7
 800a1e4:	ed92 5b0a 	vldr	d5, [r2, #40]	@ 0x28
 800a1e8:	ee17 3a90 	vmov	r3, s15
 800a1ec:	f503 0300 	add.w	r3, r3, #8388608	@ 0x800000
 800a1f0:	161b      	asrs	r3, r3, #24
 800a1f2:	079c      	lsls	r4, r3, #30
 800a1f4:	ee07 3a90 	vmov	s15, r3
 800a1f8:	bf54      	ite	pl
 800a1fa:	4611      	movpl	r1, r2
 800a1fc:	f102 0170 	addmi.w	r1, r2, #112	@ 0x70
 800a200:	07d8      	lsls	r0, r3, #31
 800a202:	eeb8 7be7 	vcvt.f64.s32	d7, s15
 800a206:	eea7 6b45 	vfms.f64	d6, d7, d5
 800a20a:	ee26 7b06 	vmul.f64	d7, d6, d6
 800a20e:	d41d      	bmi.n	800a24c <sinf+0xcc>
 800a210:	f003 0303 	and.w	r3, r3, #3
 800a214:	eb02 02c3 	add.w	r2, r2, r3, lsl #3
 800a218:	ed91 5b18 	vldr	d5, [r1, #96]	@ 0x60
 800a21c:	ed92 0b00 	vldr	d0, [r2]
 800a220:	ed91 3b1a 	vldr	d3, [r1, #104]	@ 0x68
 800a224:	ee26 0b00 	vmul.f64	d0, d6, d0
 800a228:	eeb0 6b45 	vmov.f64	d6, d5
 800a22c:	ed91 4b16 	vldr	d4, [r1, #88]	@ 0x58
 800a230:	eea7 6b03 	vfma.f64	d6, d7, d3
 800a234:	ee20 5b07 	vmul.f64	d5, d0, d7
 800a238:	ee27 7b05 	vmul.f64	d7, d7, d5
 800a23c:	eea5 0b04 	vfma.f64	d0, d5, d4
 800a240:	eea6 0b07 	vfma.f64	d0, d6, d7
 800a244:	eeb7 0bc0 	vcvt.f32.f64	s0, d0
 800a248:	b003      	add	sp, #12
 800a24a:	bd30      	pop	{r4, r5, pc}
 800a24c:	ed91 2b14 	vldr	d2, [r1, #80]	@ 0x50
 800a250:	ee27 5b07 	vmul.f64	d5, d7, d7
 800a254:	ed91 6b12 	vldr	d6, [r1, #72]	@ 0x48
 800a258:	ed91 3b0e 	vldr	d3, [r1, #56]	@ 0x38
 800a25c:	eea7 6b02 	vfma.f64	d6, d7, d2
 800a260:	ed91 0b0c 	vldr	d0, [r1, #48]	@ 0x30
 800a264:	ed91 4b10 	vldr	d4, [r1, #64]	@ 0x40
 800a268:	eea7 0b03 	vfma.f64	d0, d7, d3
 800a26c:	ee27 7b05 	vmul.f64	d7, d7, d5
 800a270:	eea5 0b04 	vfma.f64	d0, d5, d4
 800a274:	eea6 0b07 	vfma.f64	d0, d6, d7
 800a278:	e7e4      	b.n	800a244 <sinf+0xc4>
 800a27a:	f014 4fff 	tst.w	r4, #2139095040	@ 0x7f800000
 800a27e:	bf04      	itt	eq
 800a280:	eeb7 5bc5 	vcvteq.f32.f64	s10, d5
 800a284:	ed8d 5a01 	vstreq	s10, [sp, #4]
 800a288:	e7de      	b.n	800a248 <sinf+0xc8>
 800a28a:	f5b3 6fff 	cmp.w	r3, #2040	@ 0x7f8
 800a28e:	d247      	bcs.n	800a320 <sinf+0x1a0>
 800a290:	4b34      	ldr	r3, [pc, #208]	@ (800a364 <sinf+0x1e4>)
 800a292:	f3c4 6283 	ubfx	r2, r4, #26, #4
 800a296:	eb03 0182 	add.w	r1, r3, r2, lsl #2
 800a29a:	f853 2022 	ldr.w	r2, [r3, r2, lsl #2]
 800a29e:	f3c4 0316 	ubfx	r3, r4, #0, #23
 800a2a2:	f3c4 50c2 	ubfx	r0, r4, #23, #3
 800a2a6:	f443 0300 	orr.w	r3, r3, #8388608	@ 0x800000
 800a2aa:	4083      	lsls	r3, r0
 800a2ac:	6a08      	ldr	r0, [r1, #32]
 800a2ae:	6909      	ldr	r1, [r1, #16]
 800a2b0:	fba3 5000 	umull	r5, r0, r3, r0
 800a2b4:	fb03 f202 	mul.w	r2, r3, r2
 800a2b8:	fbe3 0201 	umlal	r0, r2, r3, r1
 800a2bc:	f102 5100 	add.w	r1, r2, #536870912	@ 0x20000000
 800a2c0:	0f8d      	lsrs	r5, r1, #30
 800a2c2:	f001 4140 	and.w	r1, r1, #3221225472	@ 0xc0000000
 800a2c6:	1a51      	subs	r1, r2, r1
 800a2c8:	f7f6 f9b0 	bl	800062c <__aeabi_l2d>
 800a2cc:	eb05 74d4 	add.w	r4, r5, r4, lsr #31
 800a2d0:	ed9f 6b21 	vldr	d6, [pc, #132]	@ 800a358 <sinf+0x1d8>
 800a2d4:	ec41 0b17 	vmov	d7, r0, r1
 800a2d8:	07a1      	lsls	r1, r4, #30
 800a2da:	bf54      	ite	pl
 800a2dc:	4b20      	ldrpl	r3, [pc, #128]	@ (800a360 <sinf+0x1e0>)
 800a2de:	4b22      	ldrmi	r3, [pc, #136]	@ (800a368 <sinf+0x1e8>)
 800a2e0:	ee27 7b06 	vmul.f64	d7, d7, d6
 800a2e4:	07ea      	lsls	r2, r5, #31
 800a2e6:	ee27 6b07 	vmul.f64	d6, d7, d7
 800a2ea:	d41e      	bmi.n	800a32a <sinf+0x1aa>
 800a2ec:	4a1c      	ldr	r2, [pc, #112]	@ (800a360 <sinf+0x1e0>)
 800a2ee:	eb02 02c4 	add.w	r2, r2, r4, lsl #3
 800a2f2:	ed93 5b18 	vldr	d5, [r3, #96]	@ 0x60
 800a2f6:	ed93 3b1a 	vldr	d3, [r3, #104]	@ 0x68
 800a2fa:	ed92 0b00 	vldr	d0, [r2]
 800a2fe:	ed93 4b16 	vldr	d4, [r3, #88]	@ 0x58
 800a302:	ee27 0b00 	vmul.f64	d0, d7, d0
 800a306:	eeb0 7b45 	vmov.f64	d7, d5
 800a30a:	ee20 5b06 	vmul.f64	d5, d0, d6
 800a30e:	eea6 7b03 	vfma.f64	d7, d6, d3
 800a312:	eea5 0b04 	vfma.f64	d0, d5, d4
 800a316:	ee26 6b05 	vmul.f64	d6, d6, d5
 800a31a:	eea7 0b06 	vfma.f64	d0, d7, d6
 800a31e:	e791      	b.n	800a244 <sinf+0xc4>
 800a320:	b003      	add	sp, #12
 800a322:	e8bd 4030 	ldmia.w	sp!, {r4, r5, lr}
 800a326:	f000 b90b 	b.w	800a540 <__math_invalidf>
 800a32a:	ed93 2b14 	vldr	d2, [r3, #80]	@ 0x50
 800a32e:	ee26 5b06 	vmul.f64	d5, d6, d6
 800a332:	ed93 7b12 	vldr	d7, [r3, #72]	@ 0x48
 800a336:	ed93 3b0e 	vldr	d3, [r3, #56]	@ 0x38
 800a33a:	eea6 7b02 	vfma.f64	d7, d6, d2
 800a33e:	ed93 0b0c 	vldr	d0, [r3, #48]	@ 0x30
 800a342:	ed93 4b10 	vldr	d4, [r3, #64]	@ 0x40
 800a346:	eea6 0b03 	vfma.f64	d0, d6, d3
 800a34a:	ee26 6b05 	vmul.f64	d6, d6, d5
 800a34e:	eea5 0b04 	vfma.f64	d0, d5, d4
 800a352:	eea7 0b06 	vfma.f64	d0, d7, d6
 800a356:	e775      	b.n	800a244 <sinf+0xc4>
 800a358:	54442d18 	.word	0x54442d18
 800a35c:	3c1921fb 	.word	0x3c1921fb
 800a360:	0800a7b0 	.word	0x0800a7b0
 800a364:	0800a750 	.word	0x0800a750
 800a368:	0800a820 	.word	0x0800a820
 800a36c:	00000000 	.word	0x00000000

0800a370 <cosf>:
 800a370:	b538      	push	{r3, r4, r5, lr}
 800a372:	ee10 4a10 	vmov	r4, s0
 800a376:	f3c4 530a 	ubfx	r3, r4, #20, #11
 800a37a:	f5b3 7f7d 	cmp.w	r3, #1012	@ 0x3f4
 800a37e:	eeb7 7ac0 	vcvt.f64.f32	d7, s0
 800a382:	d21e      	bcs.n	800a3c2 <cosf+0x52>
 800a384:	ee27 7b07 	vmul.f64	d7, d7, d7
 800a388:	f5b3 7f66 	cmp.w	r3, #920	@ 0x398
 800a38c:	d36e      	bcc.n	800a46c <cosf+0xfc>
 800a38e:	ee27 1b07 	vmul.f64	d1, d7, d7
 800a392:	4b61      	ldr	r3, [pc, #388]	@ (800a518 <cosf+0x1a8>)
 800a394:	ed93 2b14 	vldr	d2, [r3, #80]	@ 0x50
 800a398:	ed93 5b12 	vldr	d5, [r3, #72]	@ 0x48
 800a39c:	ed93 3b0e 	vldr	d3, [r3, #56]	@ 0x38
 800a3a0:	eea7 5b02 	vfma.f64	d5, d7, d2
 800a3a4:	ed93 6b0c 	vldr	d6, [r3, #48]	@ 0x30
 800a3a8:	ed93 4b10 	vldr	d4, [r3, #64]	@ 0x40
 800a3ac:	eea7 6b03 	vfma.f64	d6, d7, d3
 800a3b0:	ee27 7b01 	vmul.f64	d7, d7, d1
 800a3b4:	eea1 6b04 	vfma.f64	d6, d1, d4
 800a3b8:	eea5 6b07 	vfma.f64	d6, d5, d7
 800a3bc:	eeb7 0bc6 	vcvt.f32.f64	s0, d6
 800a3c0:	bd38      	pop	{r3, r4, r5, pc}
 800a3c2:	f240 422e 	movw	r2, #1070	@ 0x42e
 800a3c6:	4293      	cmp	r3, r2
 800a3c8:	d853      	bhi.n	800a472 <cosf+0x102>
 800a3ca:	4a53      	ldr	r2, [pc, #332]	@ (800a518 <cosf+0x1a8>)
 800a3cc:	ed92 6b08 	vldr	d6, [r2, #32]
 800a3d0:	ee27 6b06 	vmul.f64	d6, d7, d6
 800a3d4:	eefd 6bc6 	vcvt.s32.f64	s13, d6
 800a3d8:	ed92 5b0a 	vldr	d5, [r2, #40]	@ 0x28
 800a3dc:	ee16 3a90 	vmov	r3, s13
 800a3e0:	f503 0300 	add.w	r3, r3, #8388608	@ 0x800000
 800a3e4:	161b      	asrs	r3, r3, #24
 800a3e6:	079c      	lsls	r4, r3, #30
 800a3e8:	ee06 3a90 	vmov	s13, r3
 800a3ec:	bf54      	ite	pl
 800a3ee:	4611      	movpl	r1, r2
 800a3f0:	f102 0170 	addmi.w	r1, r2, #112	@ 0x70
 800a3f4:	07d8      	lsls	r0, r3, #31
 800a3f6:	eeb8 6be6 	vcvt.f64.s32	d6, s13
 800a3fa:	eea6 7b45 	vfms.f64	d7, d6, d5
 800a3fe:	ee27 6b07 	vmul.f64	d6, d7, d7
 800a402:	d51c      	bpl.n	800a43e <cosf+0xce>
 800a404:	f003 0303 	and.w	r3, r3, #3
 800a408:	eb02 02c3 	add.w	r2, r2, r3, lsl #3
 800a40c:	ed92 0b00 	vldr	d0, [r2]
 800a410:	ed91 3b1a 	vldr	d3, [r1, #104]	@ 0x68
 800a414:	ed91 5b18 	vldr	d5, [r1, #96]	@ 0x60
 800a418:	ed91 4b16 	vldr	d4, [r1, #88]	@ 0x58
 800a41c:	ee27 0b00 	vmul.f64	d0, d7, d0
 800a420:	eeb0 7b45 	vmov.f64	d7, d5
 800a424:	ee20 5b06 	vmul.f64	d5, d0, d6
 800a428:	eea6 7b03 	vfma.f64	d7, d6, d3
 800a42c:	eea5 0b04 	vfma.f64	d0, d5, d4
 800a430:	ee26 6b05 	vmul.f64	d6, d6, d5
 800a434:	eea7 0b06 	vfma.f64	d0, d7, d6
 800a438:	eeb7 0bc0 	vcvt.f32.f64	s0, d0
 800a43c:	bd38      	pop	{r3, r4, r5, pc}
 800a43e:	ed91 2b14 	vldr	d2, [r1, #80]	@ 0x50
 800a442:	ed91 7b12 	vldr	d7, [r1, #72]	@ 0x48
 800a446:	ed91 3b0e 	vldr	d3, [r1, #56]	@ 0x38
 800a44a:	ed91 0b0c 	vldr	d0, [r1, #48]	@ 0x30
 800a44e:	ed91 4b10 	vldr	d4, [r1, #64]	@ 0x40
 800a452:	ee26 5b06 	vmul.f64	d5, d6, d6
 800a456:	eea6 7b02 	vfma.f64	d7, d6, d2
 800a45a:	eea6 0b03 	vfma.f64	d0, d6, d3
 800a45e:	ee26 6b05 	vmul.f64	d6, d6, d5
 800a462:	eea5 0b04 	vfma.f64	d0, d5, d4
 800a466:	eea7 0b06 	vfma.f64	d0, d7, d6
 800a46a:	e7e5      	b.n	800a438 <cosf+0xc8>
 800a46c:	eeb7 0a00 	vmov.f32	s0, #112	@ 0x3f800000  1.0
 800a470:	bd38      	pop	{r3, r4, r5, pc}
 800a472:	f5b3 6fff 	cmp.w	r3, #2040	@ 0x7f8
 800a476:	d23b      	bcs.n	800a4f0 <cosf+0x180>
 800a478:	4b28      	ldr	r3, [pc, #160]	@ (800a51c <cosf+0x1ac>)
 800a47a:	f3c4 6283 	ubfx	r2, r4, #26, #4
 800a47e:	eb03 0182 	add.w	r1, r3, r2, lsl #2
 800a482:	f853 2022 	ldr.w	r2, [r3, r2, lsl #2]
 800a486:	f3c4 0316 	ubfx	r3, r4, #0, #23
 800a48a:	f3c4 50c2 	ubfx	r0, r4, #23, #3
 800a48e:	f443 0300 	orr.w	r3, r3, #8388608	@ 0x800000
 800a492:	4083      	lsls	r3, r0
 800a494:	6a08      	ldr	r0, [r1, #32]
 800a496:	6909      	ldr	r1, [r1, #16]
 800a498:	fba3 5000 	umull	r5, r0, r3, r0
 800a49c:	fb03 f202 	mul.w	r2, r3, r2
 800a4a0:	fbe3 0201 	umlal	r0, r2, r3, r1
 800a4a4:	f102 5100 	add.w	r1, r2, #536870912	@ 0x20000000
 800a4a8:	0f8d      	lsrs	r5, r1, #30
 800a4aa:	f001 4140 	and.w	r1, r1, #3221225472	@ 0xc0000000
 800a4ae:	1a51      	subs	r1, r2, r1
 800a4b0:	f7f6 f8bc 	bl	800062c <__aeabi_l2d>
 800a4b4:	eb05 74d4 	add.w	r4, r5, r4, lsr #31
 800a4b8:	ed9f 6b15 	vldr	d6, [pc, #84]	@ 800a510 <cosf+0x1a0>
 800a4bc:	ec41 0b17 	vmov	d7, r0, r1
 800a4c0:	07a1      	lsls	r1, r4, #30
 800a4c2:	bf54      	ite	pl
 800a4c4:	4b14      	ldrpl	r3, [pc, #80]	@ (800a518 <cosf+0x1a8>)
 800a4c6:	4b16      	ldrmi	r3, [pc, #88]	@ (800a520 <cosf+0x1b0>)
 800a4c8:	ee27 7b06 	vmul.f64	d7, d7, d6
 800a4cc:	07ea      	lsls	r2, r5, #31
 800a4ce:	ee27 6b07 	vmul.f64	d6, d7, d7
 800a4d2:	d511      	bpl.n	800a4f8 <cosf+0x188>
 800a4d4:	4a10      	ldr	r2, [pc, #64]	@ (800a518 <cosf+0x1a8>)
 800a4d6:	f004 0403 	and.w	r4, r4, #3
 800a4da:	eb02 02c4 	add.w	r2, r2, r4, lsl #3
 800a4de:	ed92 0b00 	vldr	d0, [r2]
 800a4e2:	ed93 3b1a 	vldr	d3, [r3, #104]	@ 0x68
 800a4e6:	ed93 5b18 	vldr	d5, [r3, #96]	@ 0x60
 800a4ea:	ed93 4b16 	vldr	d4, [r3, #88]	@ 0x58
 800a4ee:	e795      	b.n	800a41c <cosf+0xac>
 800a4f0:	e8bd 4038 	ldmia.w	sp!, {r3, r4, r5, lr}
 800a4f4:	f000 b824 	b.w	800a540 <__math_invalidf>
 800a4f8:	ed93 2b14 	vldr	d2, [r3, #80]	@ 0x50
 800a4fc:	ed93 7b12 	vldr	d7, [r3, #72]	@ 0x48
 800a500:	ed93 3b0e 	vldr	d3, [r3, #56]	@ 0x38
 800a504:	ed93 0b0c 	vldr	d0, [r3, #48]	@ 0x30
 800a508:	ed93 4b10 	vldr	d4, [r3, #64]	@ 0x40
 800a50c:	e7a1      	b.n	800a452 <cosf+0xe2>
 800a50e:	bf00      	nop
 800a510:	54442d18 	.word	0x54442d18
 800a514:	3c1921fb 	.word	0x3c1921fb
 800a518:	0800a7b0 	.word	0x0800a7b0
 800a51c:	0800a750 	.word	0x0800a750
 800a520:	0800a820 	.word	0x0800a820

0800a524 <with_errnof>:
 800a524:	b510      	push	{r4, lr}
 800a526:	ed2d 8b02 	vpush	{d8}
 800a52a:	eeb0 8a40 	vmov.f32	s16, s0
 800a52e:	4604      	mov	r4, r0
 800a530:	f7ff fcfc 	bl	8009f2c <__errno>
 800a534:	eeb0 0a48 	vmov.f32	s0, s16
 800a538:	ecbd 8b02 	vpop	{d8}
 800a53c:	6004      	str	r4, [r0, #0]
 800a53e:	bd10      	pop	{r4, pc}

0800a540 <__math_invalidf>:
 800a540:	eef0 7a40 	vmov.f32	s15, s0
 800a544:	ee30 7a40 	vsub.f32	s14, s0, s0
 800a548:	eef4 7a67 	vcmp.f32	s15, s15
 800a54c:	eef1 fa10 	vmrs	APSR_nzcv, fpscr
 800a550:	ee87 0a07 	vdiv.f32	s0, s14, s14
 800a554:	d602      	bvs.n	800a55c <__math_invalidf+0x1c>
 800a556:	2021      	movs	r0, #33	@ 0x21
 800a558:	f7ff bfe4 	b.w	800a524 <with_errnof>
 800a55c:	4770      	bx	lr
 800a55e:	bf00      	nop

0800a560 <__ieee754_sqrtf>:
 800a560:	eeb1 0ac0 	vsqrt.f32	s0, s0
 800a564:	4770      	bx	lr
 800a566:	bf00      	nop

0800a568 <__ieee754_atan2f>:
 800a568:	b510      	push	{r4, lr}
 800a56a:	b082      	sub	sp, #8
 800a56c:	edcd 0a01 	vstr	s1, [sp, #4]
 800a570:	9b01      	ldr	r3, [sp, #4]
 800a572:	f023 4200 	bic.w	r2, r3, #2147483648	@ 0x80000000
 800a576:	f1b2 4fff 	cmp.w	r2, #2139095040	@ 0x7f800000
 800a57a:	eef0 7a40 	vmov.f32	s15, s0
 800a57e:	d830      	bhi.n	800a5e2 <__ieee754_atan2f+0x7a>
 800a580:	ee10 0a10 	vmov	r0, s0
 800a584:	f020 4100 	bic.w	r1, r0, #2147483648	@ 0x80000000
 800a588:	f1b1 4fff 	cmp.w	r1, #2139095040	@ 0x7f800000
 800a58c:	d829      	bhi.n	800a5e2 <__ieee754_atan2f+0x7a>
 800a58e:	f1b3 5f7e 	cmp.w	r3, #1065353216	@ 0x3f800000
 800a592:	d03d      	beq.n	800a610 <__ieee754_atan2f+0xa8>
 800a594:	179c      	asrs	r4, r3, #30
 800a596:	f004 0402 	and.w	r4, r4, #2
 800a59a:	ea44 74d0 	orr.w	r4, r4, r0, lsr #31
 800a59e:	b331      	cbz	r1, 800a5ee <__ieee754_atan2f+0x86>
 800a5a0:	b372      	cbz	r2, 800a600 <__ieee754_atan2f+0x98>
 800a5a2:	f1b2 4fff 	cmp.w	r2, #2139095040	@ 0x7f800000
 800a5a6:	d03e      	beq.n	800a626 <__ieee754_atan2f+0xbe>
 800a5a8:	f1b1 4fff 	cmp.w	r1, #2139095040	@ 0x7f800000
 800a5ac:	d028      	beq.n	800a600 <__ieee754_atan2f+0x98>
 800a5ae:	1a89      	subs	r1, r1, r2
 800a5b0:	f1b1 5ff4 	cmp.w	r1, #511705088	@ 0x1e800000
 800a5b4:	ea4f 52e1 	mov.w	r2, r1, asr #23
 800a5b8:	da32      	bge.n	800a620 <__ieee754_atan2f+0xb8>
 800a5ba:	2b00      	cmp	r3, #0
 800a5bc:	da40      	bge.n	800a640 <__ieee754_atan2f+0xd8>
 800a5be:	323c      	adds	r2, #60	@ 0x3c
 800a5c0:	da3e      	bge.n	800a640 <__ieee754_atan2f+0xd8>
 800a5c2:	ed9f 0a33 	vldr	s0, [pc, #204]	@ 800a690 <__ieee754_atan2f+0x128>
 800a5c6:	2c01      	cmp	r4, #1
 800a5c8:	d04c      	beq.n	800a664 <__ieee754_atan2f+0xfc>
 800a5ca:	2c02      	cmp	r4, #2
 800a5cc:	d041      	beq.n	800a652 <__ieee754_atan2f+0xea>
 800a5ce:	b164      	cbz	r4, 800a5ea <__ieee754_atan2f+0x82>
 800a5d0:	ed9f 7a30 	vldr	s14, [pc, #192]	@ 800a694 <__ieee754_atan2f+0x12c>
 800a5d4:	eddf 7a30 	vldr	s15, [pc, #192]	@ 800a698 <__ieee754_atan2f+0x130>
 800a5d8:	ee30 0a07 	vadd.f32	s0, s0, s14
 800a5dc:	ee30 0a67 	vsub.f32	s0, s0, s15
 800a5e0:	e003      	b.n	800a5ea <__ieee754_atan2f+0x82>
 800a5e2:	ed9d 7a01 	vldr	s14, [sp, #4]
 800a5e6:	ee37 0a27 	vadd.f32	s0, s14, s15
 800a5ea:	b002      	add	sp, #8
 800a5ec:	bd10      	pop	{r4, pc}
 800a5ee:	2c02      	cmp	r4, #2
 800a5f0:	d00b      	beq.n	800a60a <__ieee754_atan2f+0xa2>
 800a5f2:	ed9f 7a2a 	vldr	s14, [pc, #168]	@ 800a69c <__ieee754_atan2f+0x134>
 800a5f6:	2c03      	cmp	r4, #3
 800a5f8:	fe07 0a00 	vseleq.f32	s0, s14, s0
 800a5fc:	b002      	add	sp, #8
 800a5fe:	bd10      	pop	{r4, pc}
 800a600:	2800      	cmp	r0, #0
 800a602:	db0a      	blt.n	800a61a <__ieee754_atan2f+0xb2>
 800a604:	ed9f 0a26 	vldr	s0, [pc, #152]	@ 800a6a0 <__ieee754_atan2f+0x138>
 800a608:	e7ef      	b.n	800a5ea <__ieee754_atan2f+0x82>
 800a60a:	ed9f 0a23 	vldr	s0, [pc, #140]	@ 800a698 <__ieee754_atan2f+0x130>
 800a60e:	e7ec      	b.n	800a5ea <__ieee754_atan2f+0x82>
 800a610:	b002      	add	sp, #8
 800a612:	e8bd 4010 	ldmia.w	sp!, {r4, lr}
 800a616:	f7ff bcd7 	b.w	8009fc8 <atanf>
 800a61a:	ed9f 0a22 	vldr	s0, [pc, #136]	@ 800a6a4 <__ieee754_atan2f+0x13c>
 800a61e:	e7e4      	b.n	800a5ea <__ieee754_atan2f+0x82>
 800a620:	ed9f 0a1f 	vldr	s0, [pc, #124]	@ 800a6a0 <__ieee754_atan2f+0x138>
 800a624:	e7cf      	b.n	800a5c6 <__ieee754_atan2f+0x5e>
 800a626:	f1b1 4fff 	cmp.w	r1, #2139095040	@ 0x7f800000
 800a62a:	f104 34ff 	add.w	r4, r4, #4294967295
 800a62e:	d020      	beq.n	800a672 <__ieee754_atan2f+0x10a>
 800a630:	2c02      	cmp	r4, #2
 800a632:	d826      	bhi.n	800a682 <__ieee754_atan2f+0x11a>
 800a634:	4b1c      	ldr	r3, [pc, #112]	@ (800a6a8 <__ieee754_atan2f+0x140>)
 800a636:	eb03 0384 	add.w	r3, r3, r4, lsl #2
 800a63a:	ed93 0a00 	vldr	s0, [r3]
 800a63e:	e7d4      	b.n	800a5ea <__ieee754_atan2f+0x82>
 800a640:	ed9d 7a01 	vldr	s14, [sp, #4]
 800a644:	ee87 0a87 	vdiv.f32	s0, s15, s14
 800a648:	f7ff fd90 	bl	800a16c <fabsf>
 800a64c:	f7ff fcbc 	bl	8009fc8 <atanf>
 800a650:	e7b9      	b.n	800a5c6 <__ieee754_atan2f+0x5e>
 800a652:	ed9f 7a10 	vldr	s14, [pc, #64]	@ 800a694 <__ieee754_atan2f+0x12c>
 800a656:	eddf 7a10 	vldr	s15, [pc, #64]	@ 800a698 <__ieee754_atan2f+0x130>
 800a65a:	ee30 0a07 	vadd.f32	s0, s0, s14
 800a65e:	ee37 0ac0 	vsub.f32	s0, s15, s0
 800a662:	e7c2      	b.n	800a5ea <__ieee754_atan2f+0x82>
 800a664:	ee10 3a10 	vmov	r3, s0
 800a668:	f103 4300 	add.w	r3, r3, #2147483648	@ 0x80000000
 800a66c:	ee00 3a10 	vmov	s0, r3
 800a670:	e7bb      	b.n	800a5ea <__ieee754_atan2f+0x82>
 800a672:	2c02      	cmp	r4, #2
 800a674:	d808      	bhi.n	800a688 <__ieee754_atan2f+0x120>
 800a676:	4b0d      	ldr	r3, [pc, #52]	@ (800a6ac <__ieee754_atan2f+0x144>)
 800a678:	eb03 0384 	add.w	r3, r3, r4, lsl #2
 800a67c:	ed93 0a00 	vldr	s0, [r3]
 800a680:	e7b3      	b.n	800a5ea <__ieee754_atan2f+0x82>
 800a682:	ed9f 0a03 	vldr	s0, [pc, #12]	@ 800a690 <__ieee754_atan2f+0x128>
 800a686:	e7b0      	b.n	800a5ea <__ieee754_atan2f+0x82>
 800a688:	ed9f 0a09 	vldr	s0, [pc, #36]	@ 800a6b0 <__ieee754_atan2f+0x148>
 800a68c:	e7ad      	b.n	800a5ea <__ieee754_atan2f+0x82>
 800a68e:	bf00      	nop
 800a690:	00000000 	.word	0x00000000
 800a694:	33bbbd2e 	.word	0x33bbbd2e
 800a698:	40490fdb 	.word	0x40490fdb
 800a69c:	c0490fdb 	.word	0xc0490fdb
 800a6a0:	3fc90fdb 	.word	0x3fc90fdb
 800a6a4:	bfc90fdb 	.word	0xbfc90fdb
 800a6a8:	0800a890 	.word	0x0800a890
 800a6ac:	0800a89c 	.word	0x0800a89c
 800a6b0:	3f490fdb 	.word	0x3f490fdb

0800a6b4 <_init>:
 800a6b4:	b5f8      	push	{r3, r4, r5, r6, r7, lr}
 800a6b6:	bf00      	nop
 800a6b8:	bcf8      	pop	{r3, r4, r5, r6, r7}
 800a6ba:	bc08      	pop	{r3}
 800a6bc:	469e      	mov	lr, r3
 800a6be:	4770      	bx	lr

0800a6c0 <_fini>:
 800a6c0:	b5f8      	push	{r3, r4, r5, r6, r7, lr}
 800a6c2:	bf00      	nop
 800a6c4:	bcf8      	pop	{r3, r4, r5, r6, r7}
 800a6c6:	bc08      	pop	{r3}
 800a6c8:	469e      	mov	lr, r3
 800a6ca:	4770      	bx	lr
